ARM GAS  C:\Users\RECEPC~1\AppData\Local\Temp\ccV5Bp59.s 			page 1


   1              		.syntax unified
   2              		.cpu cortex-m3
   3              		.fpu softvfp
   4              		.eabi_attribute 20, 1
   5              		.eabi_attribute 21, 1
   6              		.eabi_attribute 23, 3
   7              		.eabi_attribute 24, 1
   8              		.eabi_attribute 25, 1
   9              		.eabi_attribute 26, 1
  10              		.eabi_attribute 30, 1
  11              		.eabi_attribute 34, 1
  12              		.eabi_attribute 18, 4
  13              		.thumb
  14              		.file	"I2C.c"
  15              		.text
  16              	.Ltext0:
  17              		.cfi_sections	.debug_frame
  18              		.section	.text.leer_hora,"ax",%progbits
  19              		.align	2
  20              		.global	leer_hora
  21              		.thumb
  22              		.thumb_func
  23              		.type	leer_hora, %function
  24              	leer_hora:
  25              	.LFB63:
  26              		.file 1 ".\\I2C.c"
   1:.\I2C.c       **** /*
   2:.\I2C.c       **** ***************************************************************************************************
   3:.\I2C.c       **** *                                           GRP550/700 CODE
   4:.\I2C.c       **** *
   5:.\I2C.c       **** *                             (c) Copyright 2013; Sistemas Insepet LTDA
   6:.\I2C.c       **** *
   7:.\I2C.c       **** *               All rights reserved.  Protected by international copyright laws.
   8:.\I2C.c       **** *               Knowledge of the source code may NOT be used to develop a similar product.
   9:.\I2C.c       **** *               Please help us continue to provide the Embedded community with the finest
  10:.\I2C.c       **** *               software available.  Your honesty is greatly appreciated.
  11:.\I2C.c       **** ***************************************************************************************************
  12:.\I2C.c       **** */
  13:.\I2C.c       **** 
  14:.\I2C.c       **** /*
  15:.\I2C.c       **** ***************************************************************************************************
  16:.\I2C.c       **** *
  17:.\I2C.c       **** *                                             GRP550/700 CODE
  18:.\I2C.c       **** *
  19:.\I2C.c       **** *                                             CYPRESS PSoC5LP
  20:.\I2C.c       **** *                                                with the
  21:.\I2C.c       **** *                                            CY8C5969AXI-LP035
  22:.\I2C.c       **** *
  23:.\I2C.c       **** * Filename      : I2C.c
  24:.\I2C.c       **** * Version       : V1.00
  25:.\I2C.c       **** * Programmer(s) : 
  26:.\I2C.c       ****                   
  27:.\I2C.c       **** ***************************************************************************************************
  28:.\I2C.c       **** */
  29:.\I2C.c       **** 
  30:.\I2C.c       **** 
  31:.\I2C.c       **** /*
ARM GAS  C:\Users\RECEPC~1\AppData\Local\Temp\ccV5Bp59.s 			page 2


  32:.\I2C.c       **** ***************************************************************************************************
  33:.\I2C.c       **** *                                             INCLUDE FILES
  34:.\I2C.c       **** ***************************************************************************************************
  35:.\I2C.c       **** */
  36:.\I2C.c       **** #include <device.h>
  37:.\I2C.c       **** #include "VariablesG.h"
  38:.\I2C.c       **** #include "LCD.h"
  39:.\I2C.c       **** 
  40:.\I2C.c       **** /*
  41:.\I2C.c       **** ***************************************************************************************************
  42:.\I2C.c       **** *                                         uint8 leer_hora( void )
  43:.\I2C.c       **** *
  44:.\I2C.c       **** * Description : 
  45:.\I2C.c       **** *               
  46:.\I2C.c       **** *
  47:.\I2C.c       **** * Argument(s) : none
  48:.\I2C.c       **** *
  49:.\I2C.c       **** * Return(s)   : none
  50:.\I2C.c       **** *
  51:.\I2C.c       **** * Caller(s)   : 
  52:.\I2C.c       **** *
  53:.\I2C.c       **** * Note(s)     : none.
  54:.\I2C.c       **** ***************************************************************************************************
  55:.\I2C.c       **** */
  56:.\I2C.c       **** uint8 leer_hora(){
  27              		.loc 1 56 0
  28              		.cfi_startproc
  29              		@ args = 0, pretend = 0, frame = 0
  30              		@ frame_needed = 0, uses_anonymous_args = 0
  31 0000 2DE9F041 		push	{r4, r5, r6, r7, r8, lr}
  32              		.cfi_def_cfa_offset 24
  33              		.cfi_offset 4, -24
  34              		.cfi_offset 5, -20
  35              		.cfi_offset 6, -16
  36              		.cfi_offset 7, -12
  37              		.cfi_offset 8, -8
  38              		.cfi_offset 14, -4
  39              	.LVL0:
  57:.\I2C.c       **** 	uint8 status,i;
  58:.\I2C.c       **** 	for(i=1;i<=2;i++){
  40              		.loc 1 58 0
  41 0004 0124     		movs	r4, #1
  59:.\I2C.c       ****         I2C_1_MasterClearStatus();
  60:.\I2C.c       ****         status = I2C_1_MasterSendStart(0x68, I2C_1_WRITE_XFER_MODE);
  42              		.loc 1 60 0
  43 0006 6825     		movs	r5, #104
  44 0008 0026     		movs	r6, #0
  61:.\I2C.c       ****         if(I2C_1_MSTR_NO_ERROR == status)								 		/* Check if transfer completed without errors *
  62:.\I2C.c       ****     	{
  63:.\I2C.c       ****             status = I2C_1_MasterWriteByte(i);
  64:.\I2C.c       ****             if(status != I2C_1_MSTR_NO_ERROR)
  65:.\I2C.c       ****             {
  66:.\I2C.c       ****                 return 0;
  67:.\I2C.c       ****             }
  68:.\I2C.c       **** 			else{
  69:.\I2C.c       **** 		        I2C_1_MasterSendStop(); 										/* Send Stop */
  70:.\I2C.c       **** 		        CyDelay(10);
ARM GAS  C:\Users\RECEPC~1\AppData\Local\Temp\ccV5Bp59.s 			page 3


  71:.\I2C.c       **** 		        status = I2C_1_MasterSendStart(0x68, I2C_1_READ_XFER_MODE);
  72:.\I2C.c       **** 		        if(I2C_1_MSTR_NO_ERROR == status){
  73:.\I2C.c       **** 		            rventa.hora[i-1] = I2C_1_MasterReadByte(I2C_1_NAK_DATA);
  45              		.loc 1 73 0
  46 000a DFF86080 		ldr	r8, .L8
  58:.\I2C.c       **** 	for(i=1;i<=2;i++){
  47              		.loc 1 58 0
  48 000e 1FE0     		b	.L2
  49              	.LVL1:
  50              	.L4:
  59:.\I2C.c       ****         I2C_1_MasterClearStatus();
  51              		.loc 1 59 0
  52 0010 FFF7FEFF 		bl	I2C_1_MasterClearStatus
  53              	.LVL2:
  60:.\I2C.c       ****         status = I2C_1_MasterSendStart(0x68, I2C_1_WRITE_XFER_MODE);
  54              		.loc 1 60 0
  55 0014 2846     		mov	r0, r5
  56 0016 3146     		mov	r1, r6
  57 0018 FFF7FEFF 		bl	I2C_1_MasterSendStart
  58              	.LVL3:
  61:.\I2C.c       ****         if(I2C_1_MSTR_NO_ERROR == status)								 		/* Check if transfer completed without errors *
  59              		.loc 1 61 0
  60 001c E8B9     		cbnz	r0, .L5
  63:.\I2C.c       ****             status = I2C_1_MasterWriteByte(i);
  61              		.loc 1 63 0
  62 001e 2046     		mov	r0, r4
  63              	.LVL4:
  64 0020 FFF7FEFF 		bl	I2C_1_MasterWriteByte
  65              	.LVL5:
  64:.\I2C.c       ****             if(status != I2C_1_MSTR_NO_ERROR)
  66              		.loc 1 64 0
  67 0024 E0B9     		cbnz	r0, .L6
  69:.\I2C.c       **** 		        I2C_1_MasterSendStop(); 										/* Send Stop */
  68              		.loc 1 69 0
  69 0026 FFF7FEFF 		bl	I2C_1_MasterSendStop
  70              	.LVL6:
  70:.\I2C.c       **** 		        CyDelay(10);
  71              		.loc 1 70 0
  72 002a 0A20     		movs	r0, #10
  73 002c FFF7FEFF 		bl	CyDelay
  74              	.LVL7:
  71:.\I2C.c       **** 		        status = I2C_1_MasterSendStart(0x68, I2C_1_READ_XFER_MODE);
  75              		.loc 1 71 0
  76 0030 2846     		mov	r0, r5
  77 0032 0121     		movs	r1, #1
  78 0034 FFF7FEFF 		bl	I2C_1_MasterSendStart
  79              	.LVL8:
  72:.\I2C.c       **** 		        if(I2C_1_MSTR_NO_ERROR == status){
  80              		.loc 1 72 0
  81 0038 A8B9     		cbnz	r0, .L7
  82              		.loc 1 73 0
  83 003a 671E     		subs	r7, r4, #1
  84 003c 3046     		mov	r0, r6
  85              	.LVL9:
  86 003e FFF7FEFF 		bl	I2C_1_MasterReadByte
  87              	.LVL10:
  88 0042 4744     		add	r7, r7, r8
ARM GAS  C:\Users\RECEPC~1\AppData\Local\Temp\ccV5Bp59.s 			page 4


  89 0044 87F8A000 		strb	r0, [r7, #160]
  74:.\I2C.c       **** 		        }
  75:.\I2C.c       **** 				else{
  76:.\I2C.c       **** 					return 0;
  77:.\I2C.c       **** 				}
  78:.\I2C.c       **** 		        I2C_1_MasterSendStop();	
  90              		.loc 1 78 0
  91 0048 FFF7FEFF 		bl	I2C_1_MasterSendStop
  92              	.LVL11:
  58:.\I2C.c       **** 	for(i=1;i<=2;i++){
  93              		.loc 1 58 0
  94 004c 0134     		adds	r4, r4, #1
  95              	.LVL12:
  96 004e E4B2     		uxtb	r4, r4
  97              	.LVL13:
  98              	.L2:
  58:.\I2C.c       **** 	for(i=1;i<=2;i++){
  99              		.loc 1 58 0 is_stmt 0 discriminator 1
 100 0050 022C     		cmp	r4, #2
 101 0052 DDD9     		bls	.L4
  79:.\I2C.c       **** 			}
  80:.\I2C.c       ****         }
  81:.\I2C.c       **** 		else{
  82:.\I2C.c       **** 			return 0;
  83:.\I2C.c       **** 		}		
  84:.\I2C.c       **** 	}
  85:.\I2C.c       **** 	return 1;
 102              		.loc 1 85 0 is_stmt 1
 103 0054 0120     		movs	r0, #1
 104 0056 BDE8F081 		pop	{r4, r5, r6, r7, r8, pc}
 105              	.LVL14:
 106              	.L5:
  82:.\I2C.c       **** 			return 0;
 107              		.loc 1 82 0
 108 005a 0020     		movs	r0, #0
 109              	.LVL15:
 110 005c BDE8F081 		pop	{r4, r5, r6, r7, r8, pc}
 111              	.LVL16:
 112              	.L6:
  66:.\I2C.c       ****                 return 0;
 113              		.loc 1 66 0
 114 0060 0020     		movs	r0, #0
 115              	.LVL17:
 116 0062 BDE8F081 		pop	{r4, r5, r6, r7, r8, pc}
 117              	.LVL18:
 118              	.L7:
  76:.\I2C.c       **** 					return 0;
 119              		.loc 1 76 0
 120 0066 0020     		movs	r0, #0
 121              	.LVL19:
  86:.\I2C.c       **** }
 122              		.loc 1 86 0
 123 0068 BDE8F081 		pop	{r4, r5, r6, r7, r8, pc}
 124              	.LVL20:
 125              	.L9:
 126              		.align	2
 127              	.L8:
ARM GAS  C:\Users\RECEPC~1\AppData\Local\Temp\ccV5Bp59.s 			page 5


 128 006c 00000000 		.word	rventa
 129              		.cfi_endproc
 130              	.LFE63:
 131              		.size	leer_hora, .-leer_hora
 132              		.section	.text.leer_fecha,"ax",%progbits
 133              		.align	2
 134              		.global	leer_fecha
 135              		.thumb
 136              		.thumb_func
 137              		.type	leer_fecha, %function
 138              	leer_fecha:
 139              	.LFB64:
  87:.\I2C.c       **** 
  88:.\I2C.c       **** /*
  89:.\I2C.c       **** ***************************************************************************************************
  90:.\I2C.c       **** *                                         uint8 leer_fecha( void )
  91:.\I2C.c       **** *
  92:.\I2C.c       **** * Description : 
  93:.\I2C.c       **** *               
  94:.\I2C.c       **** *
  95:.\I2C.c       **** * Argument(s) : none
  96:.\I2C.c       **** *
  97:.\I2C.c       **** * Return(s)   : none
  98:.\I2C.c       **** *
  99:.\I2C.c       **** * Caller(s)   : 
 100:.\I2C.c       **** *
 101:.\I2C.c       **** * Note(s)     : none.
 102:.\I2C.c       **** ***************************************************************************************************
 103:.\I2C.c       **** */
 104:.\I2C.c       **** uint8 leer_fecha(){
 140              		.loc 1 104 0
 141              		.cfi_startproc
 142              		@ args = 0, pretend = 0, frame = 0
 143              		@ frame_needed = 0, uses_anonymous_args = 0
 144 0000 2DE9F041 		push	{r4, r5, r6, r7, r8, lr}
 145              		.cfi_def_cfa_offset 24
 146              		.cfi_offset 4, -24
 147              		.cfi_offset 5, -20
 148              		.cfi_offset 6, -16
 149              		.cfi_offset 7, -12
 150              		.cfi_offset 8, -8
 151              		.cfi_offset 14, -4
 152              	.LVL21:
 105:.\I2C.c       **** 	uint8 status,i;
 106:.\I2C.c       **** 	for(i=4;i<=6;i++){
 153              		.loc 1 106 0
 154 0004 0424     		movs	r4, #4
 107:.\I2C.c       ****         I2C_1_MasterClearStatus();
 108:.\I2C.c       ****         status = I2C_1_MasterSendStart(0x68, I2C_1_WRITE_XFER_MODE);
 155              		.loc 1 108 0
 156 0006 6825     		movs	r5, #104
 157 0008 0026     		movs	r6, #0
 109:.\I2C.c       ****         if(I2C_1_MSTR_NO_ERROR == status)								 		/* Check if transfer completed without errors *
 110:.\I2C.c       ****     	{
 111:.\I2C.c       ****             status = I2C_1_MasterWriteByte(i);
 112:.\I2C.c       ****             if(status != I2C_1_MSTR_NO_ERROR)
 113:.\I2C.c       ****             {
ARM GAS  C:\Users\RECEPC~1\AppData\Local\Temp\ccV5Bp59.s 			page 6


 114:.\I2C.c       ****                 return 0;
 115:.\I2C.c       ****             }
 116:.\I2C.c       **** 			else{
 117:.\I2C.c       **** 		        I2C_1_MasterSendStop(); 										/* Send Stop */
 118:.\I2C.c       **** 		        CyDelay(10);
 119:.\I2C.c       **** 		        status = I2C_1_MasterSendStart(0x68, I2C_1_READ_XFER_MODE);
 120:.\I2C.c       **** 		        if(I2C_1_MSTR_NO_ERROR == status){
 121:.\I2C.c       **** 		            rventa.fecha[i-4] = I2C_1_MasterReadByte(I2C_1_NAK_DATA);
 158              		.loc 1 121 0
 159 000a DFF86080 		ldr	r8, .L17
 106:.\I2C.c       **** 	for(i=4;i<=6;i++){
 160              		.loc 1 106 0
 161 000e 1FE0     		b	.L11
 162              	.LVL22:
 163              	.L13:
 107:.\I2C.c       ****         I2C_1_MasterClearStatus();
 164              		.loc 1 107 0
 165 0010 FFF7FEFF 		bl	I2C_1_MasterClearStatus
 166              	.LVL23:
 108:.\I2C.c       ****         status = I2C_1_MasterSendStart(0x68, I2C_1_WRITE_XFER_MODE);
 167              		.loc 1 108 0
 168 0014 2846     		mov	r0, r5
 169 0016 3146     		mov	r1, r6
 170 0018 FFF7FEFF 		bl	I2C_1_MasterSendStart
 171              	.LVL24:
 109:.\I2C.c       ****         if(I2C_1_MSTR_NO_ERROR == status)								 		/* Check if transfer completed without errors *
 172              		.loc 1 109 0
 173 001c E8B9     		cbnz	r0, .L14
 111:.\I2C.c       ****             status = I2C_1_MasterWriteByte(i);
 174              		.loc 1 111 0
 175 001e 2046     		mov	r0, r4
 176              	.LVL25:
 177 0020 FFF7FEFF 		bl	I2C_1_MasterWriteByte
 178              	.LVL26:
 112:.\I2C.c       ****             if(status != I2C_1_MSTR_NO_ERROR)
 179              		.loc 1 112 0
 180 0024 E0B9     		cbnz	r0, .L15
 117:.\I2C.c       **** 		        I2C_1_MasterSendStop(); 										/* Send Stop */
 181              		.loc 1 117 0
 182 0026 FFF7FEFF 		bl	I2C_1_MasterSendStop
 183              	.LVL27:
 118:.\I2C.c       **** 		        CyDelay(10);
 184              		.loc 1 118 0
 185 002a 0A20     		movs	r0, #10
 186 002c FFF7FEFF 		bl	CyDelay
 187              	.LVL28:
 119:.\I2C.c       **** 		        status = I2C_1_MasterSendStart(0x68, I2C_1_READ_XFER_MODE);
 188              		.loc 1 119 0
 189 0030 2846     		mov	r0, r5
 190 0032 0121     		movs	r1, #1
 191 0034 FFF7FEFF 		bl	I2C_1_MasterSendStart
 192              	.LVL29:
 120:.\I2C.c       **** 		        if(I2C_1_MSTR_NO_ERROR == status){
 193              		.loc 1 120 0
 194 0038 A8B9     		cbnz	r0, .L16
 195              		.loc 1 121 0
 196 003a 271F     		subs	r7, r4, #4
ARM GAS  C:\Users\RECEPC~1\AppData\Local\Temp\ccV5Bp59.s 			page 7


 197 003c 3046     		mov	r0, r6
 198              	.LVL30:
 199 003e FFF7FEFF 		bl	I2C_1_MasterReadByte
 200              	.LVL31:
 201 0042 4744     		add	r7, r7, r8
 202 0044 87F89D00 		strb	r0, [r7, #157]
 122:.\I2C.c       **** 		        }
 123:.\I2C.c       **** 				else{
 124:.\I2C.c       **** 					return 0;
 125:.\I2C.c       **** 				}
 126:.\I2C.c       **** 		        I2C_1_MasterSendStop();	
 203              		.loc 1 126 0
 204 0048 FFF7FEFF 		bl	I2C_1_MasterSendStop
 205              	.LVL32:
 106:.\I2C.c       **** 	for(i=4;i<=6;i++){
 206              		.loc 1 106 0
 207 004c 0134     		adds	r4, r4, #1
 208              	.LVL33:
 209 004e E4B2     		uxtb	r4, r4
 210              	.LVL34:
 211              	.L11:
 106:.\I2C.c       **** 	for(i=4;i<=6;i++){
 212              		.loc 1 106 0 is_stmt 0 discriminator 1
 213 0050 062C     		cmp	r4, #6
 214 0052 DDD9     		bls	.L13
 127:.\I2C.c       **** 			}
 128:.\I2C.c       ****         }
 129:.\I2C.c       **** 		else{
 130:.\I2C.c       **** 			return 0;
 131:.\I2C.c       **** 		}		
 132:.\I2C.c       **** 	}
 133:.\I2C.c       **** 	return 1;
 215              		.loc 1 133 0 is_stmt 1
 216 0054 0120     		movs	r0, #1
 217 0056 BDE8F081 		pop	{r4, r5, r6, r7, r8, pc}
 218              	.LVL35:
 219              	.L14:
 130:.\I2C.c       **** 			return 0;
 220              		.loc 1 130 0
 221 005a 0020     		movs	r0, #0
 222              	.LVL36:
 223 005c BDE8F081 		pop	{r4, r5, r6, r7, r8, pc}
 224              	.LVL37:
 225              	.L15:
 114:.\I2C.c       ****                 return 0;
 226              		.loc 1 114 0
 227 0060 0020     		movs	r0, #0
 228              	.LVL38:
 229 0062 BDE8F081 		pop	{r4, r5, r6, r7, r8, pc}
 230              	.LVL39:
 231              	.L16:
 124:.\I2C.c       **** 					return 0;
 232              		.loc 1 124 0
 233 0066 0020     		movs	r0, #0
 234              	.LVL40:
 134:.\I2C.c       **** }
 235              		.loc 1 134 0
ARM GAS  C:\Users\RECEPC~1\AppData\Local\Temp\ccV5Bp59.s 			page 8


 236 0068 BDE8F081 		pop	{r4, r5, r6, r7, r8, pc}
 237              	.LVL41:
 238              	.L18:
 239              		.align	2
 240              	.L17:
 241 006c 00000000 		.word	rventa
 242              		.cfi_endproc
 243              	.LFE64:
 244              		.size	leer_fecha, .-leer_fecha
 245              		.section	.text.write_hora,"ax",%progbits
 246              		.align	2
 247              		.global	write_hora
 248              		.thumb
 249              		.thumb_func
 250              		.type	write_hora, %function
 251              	write_hora:
 252              	.LFB65:
 135:.\I2C.c       **** 
 136:.\I2C.c       **** /*
 137:.\I2C.c       **** ***************************************************************************************************
 138:.\I2C.c       **** *                                         uint8 write_hora( void )
 139:.\I2C.c       **** *
 140:.\I2C.c       **** * Description : 
 141:.\I2C.c       **** *               
 142:.\I2C.c       **** *
 143:.\I2C.c       **** * Argument(s) : none
 144:.\I2C.c       **** *
 145:.\I2C.c       **** * Return(s)   : none
 146:.\I2C.c       **** *
 147:.\I2C.c       **** * Caller(s)   : 
 148:.\I2C.c       **** *
 149:.\I2C.c       **** * Note(s)     : none.
 150:.\I2C.c       **** ***************************************************************************************************
 151:.\I2C.c       **** */
 152:.\I2C.c       **** 
 153:.\I2C.c       **** uint8 write_hora( void ){
 253              		.loc 1 153 0
 254              		.cfi_startproc
 255              		@ args = 0, pretend = 0, frame = 8
 256              		@ frame_needed = 0, uses_anonymous_args = 0
 257 0000 10B5     		push	{r4, lr}
 258              		.cfi_def_cfa_offset 8
 259              		.cfi_offset 4, -8
 260              		.cfi_offset 14, -4
 261 0002 82B0     		sub	sp, sp, #8
 262              		.cfi_def_cfa_offset 16
 154:.\I2C.c       **** 	uint8 status, dato[3],i;
 155:.\I2C.c       **** 	dato[0]=1;
 263              		.loc 1 155 0
 264 0004 0123     		movs	r3, #1
 265 0006 8DF80430 		strb	r3, [sp, #4]
 156:.\I2C.c       **** 	dato[1]=rventa.hora[0];
 266              		.loc 1 156 0
 267 000a 134B     		ldr	r3, .L25
 268 000c 93F8A020 		ldrb	r2, [r3, #160]	@ zero_extendqisi2
 269 0010 8DF80520 		strb	r2, [sp, #5]
 157:.\I2C.c       **** 	dato[2]=rventa.hora[1];
ARM GAS  C:\Users\RECEPC~1\AppData\Local\Temp\ccV5Bp59.s 			page 9


 270              		.loc 1 157 0
 271 0014 93F8A130 		ldrb	r3, [r3, #161]	@ zero_extendqisi2
 272 0018 8DF80630 		strb	r3, [sp, #6]
 158:.\I2C.c       **** 	I2C_1_MasterClearStatus();
 273              		.loc 1 158 0
 274 001c FFF7FEFF 		bl	I2C_1_MasterClearStatus
 275              	.LVL42:
 159:.\I2C.c       ****     status = I2C_1_MasterSendStart(0x68, I2C_1_WRITE_XFER_MODE);
 276              		.loc 1 159 0
 277 0020 6820     		movs	r0, #104
 278 0022 0021     		movs	r1, #0
 279 0024 FFF7FEFF 		bl	I2C_1_MasterSendStart
 280              	.LVL43:
 160:.\I2C.c       ****     if(I2C_1_MSTR_NO_ERROR == status) 
 281              		.loc 1 160 0
 282 0028 58B1     		cbz	r0, .L23
 161:.\I2C.c       ****     {
 162:.\I2C.c       ****         for(i=0; i<3; i++)
 163:.\I2C.c       ****         {
 164:.\I2C.c       ****             status = I2C_1_MasterWriteByte(dato[i]);
 165:.\I2C.c       ****             if(status != I2C_1_MSTR_NO_ERROR)
 166:.\I2C.c       ****             {
 167:.\I2C.c       ****                 return 0;
 168:.\I2C.c       ****             }
 169:.\I2C.c       ****         }
 170:.\I2C.c       ****     }
 171:.\I2C.c       ****     else{
 172:.\I2C.c       **** 		return 0;
 283              		.loc 1 172 0
 284 002a 0020     		movs	r0, #0
 285              	.LVL44:
 286 002c 11E0     		b	.L21
 287              	.LVL45:
 288              	.L22:
 164:.\I2C.c       ****             status = I2C_1_MasterWriteByte(dato[i]);
 289              		.loc 1 164 0
 290 002e 02AB     		add	r3, sp, #8
 291 0030 2344     		add	r3, r3, r4
 292 0032 13F8040C 		ldrb	r0, [r3, #-4]	@ zero_extendqisi2
 293              	.LVL46:
 294 0036 FFF7FEFF 		bl	I2C_1_MasterWriteByte
 295              	.LVL47:
 165:.\I2C.c       ****             if(status != I2C_1_MSTR_NO_ERROR)
 296              		.loc 1 165 0
 297 003a 48B9     		cbnz	r0, .L24
 162:.\I2C.c       ****         for(i=0; i<3; i++)
 298              		.loc 1 162 0
 299 003c 0134     		adds	r4, r4, #1
 300              	.LVL48:
 301 003e E4B2     		uxtb	r4, r4
 302              	.LVL49:
 303 0040 00E0     		b	.L20
 304              	.LVL50:
 305              	.L23:
 306 0042 0024     		movs	r4, #0
 307              	.L20:
 308              	.LVL51:
ARM GAS  C:\Users\RECEPC~1\AppData\Local\Temp\ccV5Bp59.s 			page 10


 162:.\I2C.c       ****         for(i=0; i<3; i++)
 309              		.loc 1 162 0 is_stmt 0 discriminator 1
 310 0044 022C     		cmp	r4, #2
 311 0046 F2D9     		bls	.L22
 173:.\I2C.c       ****     }
 174:.\I2C.c       ****     I2C_1_MasterSendStop();	
 312              		.loc 1 174 0 is_stmt 1
 313 0048 FFF7FEFF 		bl	I2C_1_MasterSendStop
 314              	.LVL52:
 175:.\I2C.c       **** 	return 1;
 315              		.loc 1 175 0
 316 004c 0120     		movs	r0, #1
 317 004e 00E0     		b	.L21
 318              	.LVL53:
 319              	.L24:
 167:.\I2C.c       ****                 return 0;
 320              		.loc 1 167 0
 321 0050 0020     		movs	r0, #0
 322              	.LVL54:
 323              	.L21:
 176:.\I2C.c       **** }
 324              		.loc 1 176 0
 325 0052 02B0     		add	sp, sp, #8
 326              		@ sp needed
 327 0054 10BD     		pop	{r4, pc}
 328              	.L26:
 329 0056 00BF     		.align	2
 330              	.L25:
 331 0058 00000000 		.word	rventa
 332              		.cfi_endproc
 333              	.LFE65:
 334              		.size	write_hora, .-write_hora
 335              		.section	.text.write_fecha,"ax",%progbits
 336              		.align	2
 337              		.global	write_fecha
 338              		.thumb
 339              		.thumb_func
 340              		.type	write_fecha, %function
 341              	write_fecha:
 342              	.LFB66:
 177:.\I2C.c       **** 
 178:.\I2C.c       **** /*
 179:.\I2C.c       **** ***************************************************************************************************
 180:.\I2C.c       **** *                                         uint8 write_fecha( void )
 181:.\I2C.c       **** *
 182:.\I2C.c       **** * Description : 
 183:.\I2C.c       **** *               
 184:.\I2C.c       **** *
 185:.\I2C.c       **** * Argument(s) : none
 186:.\I2C.c       **** *
 187:.\I2C.c       **** * Return(s)   : none
 188:.\I2C.c       **** *
 189:.\I2C.c       **** * Caller(s)   : 
 190:.\I2C.c       **** *
 191:.\I2C.c       **** * Note(s)     : none.
 192:.\I2C.c       **** ***************************************************************************************************
 193:.\I2C.c       **** */
ARM GAS  C:\Users\RECEPC~1\AppData\Local\Temp\ccV5Bp59.s 			page 11


 194:.\I2C.c       **** 
 195:.\I2C.c       **** uint8 write_fecha( void ){
 343              		.loc 1 195 0
 344              		.cfi_startproc
 345              		@ args = 0, pretend = 0, frame = 8
 346              		@ frame_needed = 0, uses_anonymous_args = 0
 347 0000 10B5     		push	{r4, lr}
 348              		.cfi_def_cfa_offset 8
 349              		.cfi_offset 4, -8
 350              		.cfi_offset 14, -4
 351 0002 82B0     		sub	sp, sp, #8
 352              		.cfi_def_cfa_offset 16
 196:.\I2C.c       **** 	uint8 status, dato[4],i;
 197:.\I2C.c       **** 	dato[0]=4;
 353              		.loc 1 197 0
 354 0004 0423     		movs	r3, #4
 355 0006 8DF80430 		strb	r3, [sp, #4]
 198:.\I2C.c       **** 	dato[1]=rventa.fecha[0];
 356              		.loc 1 198 0
 357 000a 154B     		ldr	r3, .L33
 358 000c 93F89D20 		ldrb	r2, [r3, #157]	@ zero_extendqisi2
 359 0010 8DF80520 		strb	r2, [sp, #5]
 199:.\I2C.c       **** 	dato[2]=rventa.fecha[1];
 360              		.loc 1 199 0
 361 0014 93F89E20 		ldrb	r2, [r3, #158]	@ zero_extendqisi2
 362 0018 8DF80620 		strb	r2, [sp, #6]
 200:.\I2C.c       **** 	dato[3]=rventa.fecha[2];
 363              		.loc 1 200 0
 364 001c 93F89F30 		ldrb	r3, [r3, #159]	@ zero_extendqisi2
 365 0020 8DF80730 		strb	r3, [sp, #7]
 201:.\I2C.c       **** 	I2C_1_MasterClearStatus();
 366              		.loc 1 201 0
 367 0024 FFF7FEFF 		bl	I2C_1_MasterClearStatus
 368              	.LVL55:
 202:.\I2C.c       ****     status = I2C_1_MasterSendStart(0x68, I2C_1_WRITE_XFER_MODE);
 369              		.loc 1 202 0
 370 0028 6820     		movs	r0, #104
 371 002a 0021     		movs	r1, #0
 372 002c FFF7FEFF 		bl	I2C_1_MasterSendStart
 373              	.LVL56:
 203:.\I2C.c       ****     if(I2C_1_MSTR_NO_ERROR == status) 
 374              		.loc 1 203 0
 375 0030 58B1     		cbz	r0, .L31
 204:.\I2C.c       ****     {
 205:.\I2C.c       ****         for(i=0; i<4; i++)
 206:.\I2C.c       ****         {
 207:.\I2C.c       ****             status = I2C_1_MasterWriteByte(dato[i]);
 208:.\I2C.c       ****             if(status != I2C_1_MSTR_NO_ERROR)
 209:.\I2C.c       ****             {
 210:.\I2C.c       ****                 return 0;
 211:.\I2C.c       ****             }
 212:.\I2C.c       ****         }
 213:.\I2C.c       ****     }
 214:.\I2C.c       ****     else{
 215:.\I2C.c       **** 		return 0;
 376              		.loc 1 215 0
 377 0032 0020     		movs	r0, #0
ARM GAS  C:\Users\RECEPC~1\AppData\Local\Temp\ccV5Bp59.s 			page 12


 378              	.LVL57:
 379 0034 11E0     		b	.L29
 380              	.LVL58:
 381              	.L30:
 207:.\I2C.c       ****             status = I2C_1_MasterWriteByte(dato[i]);
 382              		.loc 1 207 0
 383 0036 02AB     		add	r3, sp, #8
 384 0038 2344     		add	r3, r3, r4
 385 003a 13F8040C 		ldrb	r0, [r3, #-4]	@ zero_extendqisi2
 386              	.LVL59:
 387 003e FFF7FEFF 		bl	I2C_1_MasterWriteByte
 388              	.LVL60:
 208:.\I2C.c       ****             if(status != I2C_1_MSTR_NO_ERROR)
 389              		.loc 1 208 0
 390 0042 48B9     		cbnz	r0, .L32
 205:.\I2C.c       ****         for(i=0; i<4; i++)
 391              		.loc 1 205 0
 392 0044 0134     		adds	r4, r4, #1
 393              	.LVL61:
 394 0046 E4B2     		uxtb	r4, r4
 395              	.LVL62:
 396 0048 00E0     		b	.L28
 397              	.LVL63:
 398              	.L31:
 399 004a 0024     		movs	r4, #0
 400              	.L28:
 401              	.LVL64:
 205:.\I2C.c       ****         for(i=0; i<4; i++)
 402              		.loc 1 205 0 is_stmt 0 discriminator 1
 403 004c 032C     		cmp	r4, #3
 404 004e F2D9     		bls	.L30
 216:.\I2C.c       ****     }
 217:.\I2C.c       ****     I2C_1_MasterSendStop();	
 405              		.loc 1 217 0 is_stmt 1
 406 0050 FFF7FEFF 		bl	I2C_1_MasterSendStop
 407              	.LVL65:
 218:.\I2C.c       **** 	return 1;
 408              		.loc 1 218 0
 409 0054 0120     		movs	r0, #1
 410 0056 00E0     		b	.L29
 411              	.LVL66:
 412              	.L32:
 210:.\I2C.c       ****                 return 0;
 413              		.loc 1 210 0
 414 0058 0020     		movs	r0, #0
 415              	.LVL67:
 416              	.L29:
 219:.\I2C.c       **** }
 417              		.loc 1 219 0
 418 005a 02B0     		add	sp, sp, #8
 419              		@ sp needed
 420 005c 10BD     		pop	{r4, pc}
 421              	.L34:
 422 005e 00BF     		.align	2
 423              	.L33:
 424 0060 00000000 		.word	rventa
 425              		.cfi_endproc
ARM GAS  C:\Users\RECEPC~1\AppData\Local\Temp\ccV5Bp59.s 			page 13


 426              	.LFE66:
 427              		.size	write_fecha, .-write_fecha
 428              		.section	.text.write_eeprom,"ax",%progbits
 429              		.align	2
 430              		.global	write_eeprom
 431              		.thumb
 432              		.thumb_func
 433              		.type	write_eeprom, %function
 434              	write_eeprom:
 435              	.LFB67:
 220:.\I2C.c       **** 
 221:.\I2C.c       **** /*
 222:.\I2C.c       **** ***************************************************************************************************
 223:.\I2C.c       **** *                              uint8 write_eeprom(uint16 page, uint8 valor)
 224:.\I2C.c       **** *
 225:.\I2C.c       **** * Description : 
 226:.\I2C.c       **** *               
 227:.\I2C.c       **** *
 228:.\I2C.c       **** * Argument(s) : none
 229:.\I2C.c       **** *
 230:.\I2C.c       **** * Return(s)   : none
 231:.\I2C.c       **** *
 232:.\I2C.c       **** * Caller(s)   : 
 233:.\I2C.c       **** *
 234:.\I2C.c       **** * Note(s)     : none.
 235:.\I2C.c       **** ***************************************************************************************************
 236:.\I2C.c       **** */
 237:.\I2C.c       **** 
 238:.\I2C.c       **** uint8 write_eeprom(uint16 page, uint8 *valor){
 436              		.loc 1 238 0
 437              		.cfi_startproc
 438              		@ args = 0, pretend = 0, frame = 8
 439              		@ frame_needed = 0, uses_anonymous_args = 0
 440              	.LVL68:
 441 0000 70B5     		push	{r4, r5, r6, lr}
 442              		.cfi_def_cfa_offset 16
 443              		.cfi_offset 4, -16
 444              		.cfi_offset 5, -12
 445              		.cfi_offset 6, -8
 446              		.cfi_offset 14, -4
 447 0002 82B0     		sub	sp, sp, #8
 448              		.cfi_def_cfa_offset 24
 449 0004 0D46     		mov	r5, r1
 239:.\I2C.c       **** 	uint8 status, dato[4],i;
 240:.\I2C.c       **** 	dato[1]=(page&0xFF);
 450              		.loc 1 240 0
 451 0006 8DF80500 		strb	r0, [sp, #5]
 241:.\I2C.c       **** 	page=(page>>8)&0xFF;
 452              		.loc 1 241 0
 453 000a 000A     		lsrs	r0, r0, #8
 454              	.LVL69:
 242:.\I2C.c       **** 	dato[0]=page;
 455              		.loc 1 242 0
 456 000c 8DF80400 		strb	r0, [sp, #4]
 243:.\I2C.c       **** 	Pin_WP_Write(0);
 457              		.loc 1 243 0
 458 0010 0020     		movs	r0, #0
ARM GAS  C:\Users\RECEPC~1\AppData\Local\Temp\ccV5Bp59.s 			page 14


 459              	.LVL70:
 460 0012 FFF7FEFF 		bl	Pin_WP_Write
 461              	.LVL71:
 244:.\I2C.c       **** 	I2C_1_MasterClearStatus();
 462              		.loc 1 244 0
 463 0016 FFF7FEFF 		bl	I2C_1_MasterClearStatus
 464              	.LVL72:
 245:.\I2C.c       ****     status = I2C_1_MasterSendStart(0x54, I2C_1_WRITE_XFER_MODE);
 465              		.loc 1 245 0
 466 001a 5420     		movs	r0, #84
 467 001c 0021     		movs	r1, #0
 468 001e FFF7FEFF 		bl	I2C_1_MasterSendStart
 469              	.LVL73:
 246:.\I2C.c       ****     if(I2C_1_MSTR_NO_ERROR == status) 
 470              		.loc 1 246 0
 471 0022 58B1     		cbz	r0, .L41
 247:.\I2C.c       ****     {
 248:.\I2C.c       ****         for(i=0; i<2; i++)
 249:.\I2C.c       ****         {
 250:.\I2C.c       ****             status = I2C_1_MasterWriteByte(dato[i]);
 251:.\I2C.c       ****             if(status != I2C_1_MSTR_NO_ERROR)
 252:.\I2C.c       ****             {
 253:.\I2C.c       ****                 return 0;
 254:.\I2C.c       ****             }
 255:.\I2C.c       ****         }
 256:.\I2C.c       ****         for(i=0; i<=valor[0]; i++)
 257:.\I2C.c       ****         {
 258:.\I2C.c       ****             status = I2C_1_MasterWriteByte(valor[i]);
 259:.\I2C.c       ****             if(status != I2C_1_MSTR_NO_ERROR)
 260:.\I2C.c       ****             {
 261:.\I2C.c       ****                 return 0;
 262:.\I2C.c       ****             }
 263:.\I2C.c       **** 			CyDelay(5);
 264:.\I2C.c       ****         }		
 265:.\I2C.c       ****     }
 266:.\I2C.c       ****     else{
 267:.\I2C.c       **** 		return 0;
 472              		.loc 1 267 0
 473 0024 0020     		movs	r0, #0
 474              	.LVL74:
 475 0026 28E0     		b	.L37
 476              	.LVL75:
 477              	.L38:
 250:.\I2C.c       ****             status = I2C_1_MasterWriteByte(dato[i]);
 478              		.loc 1 250 0
 479 0028 02AB     		add	r3, sp, #8
 480 002a 2344     		add	r3, r3, r4
 481 002c 13F8040C 		ldrb	r0, [r3, #-4]	@ zero_extendqisi2
 482              	.LVL76:
 483 0030 FFF7FEFF 		bl	I2C_1_MasterWriteByte
 484              	.LVL77:
 251:.\I2C.c       ****             if(status != I2C_1_MSTR_NO_ERROR)
 485              		.loc 1 251 0
 486 0034 F0B9     		cbnz	r0, .L42
 248:.\I2C.c       ****         for(i=0; i<2; i++)
 487              		.loc 1 248 0
 488 0036 0134     		adds	r4, r4, #1
ARM GAS  C:\Users\RECEPC~1\AppData\Local\Temp\ccV5Bp59.s 			page 15


 489              	.LVL78:
 490 0038 E4B2     		uxtb	r4, r4
 491              	.LVL79:
 492 003a 00E0     		b	.L36
 493              	.LVL80:
 494              	.L41:
 495 003c 0024     		movs	r4, #0
 496              	.L36:
 497              	.LVL81:
 248:.\I2C.c       ****         for(i=0; i<2; i++)
 498              		.loc 1 248 0 is_stmt 0 discriminator 1
 499 003e 012C     		cmp	r4, #1
 500 0040 F2D9     		bls	.L38
 501 0042 0024     		movs	r4, #0
 502              	.LVL82:
 263:.\I2C.c       **** 			CyDelay(5);
 503              		.loc 1 263 0 is_stmt 1
 504 0044 0526     		movs	r6, #5
 505 0046 08E0     		b	.L39
 506              	.LVL83:
 507              	.L40:
 258:.\I2C.c       ****             status = I2C_1_MasterWriteByte(valor[i]);
 508              		.loc 1 258 0
 509 0048 285D     		ldrb	r0, [r5, r4]	@ zero_extendqisi2
 510 004a FFF7FEFF 		bl	I2C_1_MasterWriteByte
 511              	.LVL84:
 259:.\I2C.c       ****             if(status != I2C_1_MSTR_NO_ERROR)
 512              		.loc 1 259 0
 513 004e 98B9     		cbnz	r0, .L43
 263:.\I2C.c       **** 			CyDelay(5);
 514              		.loc 1 263 0
 515 0050 3046     		mov	r0, r6
 516              	.LVL85:
 517 0052 FFF7FEFF 		bl	CyDelay
 518              	.LVL86:
 256:.\I2C.c       ****         for(i=0; i<=valor[0]; i++)
 519              		.loc 1 256 0
 520 0056 0134     		adds	r4, r4, #1
 521              	.LVL87:
 522 0058 E4B2     		uxtb	r4, r4
 523              	.LVL88:
 524              	.L39:
 256:.\I2C.c       ****         for(i=0; i<=valor[0]; i++)
 525              		.loc 1 256 0 is_stmt 0 discriminator 1
 526 005a 2B78     		ldrb	r3, [r5]	@ zero_extendqisi2
 527 005c A342     		cmp	r3, r4
 528 005e F3D2     		bcs	.L40
 268:.\I2C.c       ****     }
 269:.\I2C.c       ****     I2C_1_MasterSendStop();	
 529              		.loc 1 269 0 is_stmt 1
 530 0060 FFF7FEFF 		bl	I2C_1_MasterSendStop
 531              	.LVL89:
 270:.\I2C.c       **** 	CyDelay(6);
 532              		.loc 1 270 0
 533 0064 0620     		movs	r0, #6
 534 0066 FFF7FEFF 		bl	CyDelay
 535              	.LVL90:
ARM GAS  C:\Users\RECEPC~1\AppData\Local\Temp\ccV5Bp59.s 			page 16


 271:.\I2C.c       **** 	Pin_WP_Write(1);
 536              		.loc 1 271 0
 537 006a 0120     		movs	r0, #1
 538 006c FFF7FEFF 		bl	Pin_WP_Write
 539              	.LVL91:
 272:.\I2C.c       **** 	return 1;
 540              		.loc 1 272 0
 541 0070 0120     		movs	r0, #1
 542 0072 02E0     		b	.L37
 543              	.LVL92:
 544              	.L42:
 253:.\I2C.c       ****                 return 0;
 545              		.loc 1 253 0
 546 0074 0020     		movs	r0, #0
 547              	.LVL93:
 548 0076 00E0     		b	.L37
 549              	.LVL94:
 550              	.L43:
 261:.\I2C.c       ****                 return 0;
 551              		.loc 1 261 0
 552 0078 0020     		movs	r0, #0
 553              	.LVL95:
 554              	.L37:
 273:.\I2C.c       **** }
 555              		.loc 1 273 0
 556 007a 02B0     		add	sp, sp, #8
 557              		@ sp needed
 558 007c 70BD     		pop	{r4, r5, r6, pc}
 559              		.cfi_endproc
 560              	.LFE67:
 561              		.size	write_eeprom, .-write_eeprom
 562 007e 00BF     		.section	.text.leer_eeprom,"ax",%progbits
 563              		.align	2
 564              		.global	leer_eeprom
 565              		.thumb
 566              		.thumb_func
 567              		.type	leer_eeprom, %function
 568              	leer_eeprom:
 569              	.LFB68:
 274:.\I2C.c       **** 
 275:.\I2C.c       **** /*
 276:.\I2C.c       **** ***************************************************************************************************
 277:.\I2C.c       **** *                               uint8 leer_eeprom(uint16 page, uint8 size))
 278:.\I2C.c       **** *
 279:.\I2C.c       **** * Description : 
 280:.\I2C.c       **** *               
 281:.\I2C.c       **** *
 282:.\I2C.c       **** * Argument(s) : none
 283:.\I2C.c       **** *
 284:.\I2C.c       **** * Return(s)   : none
 285:.\I2C.c       **** *
 286:.\I2C.c       **** * Caller(s)   : 
 287:.\I2C.c       **** *
 288:.\I2C.c       **** * Note(s)     : none.
 289:.\I2C.c       **** ***************************************************************************************************
 290:.\I2C.c       **** */
 291:.\I2C.c       **** uint8 leer_eeprom(uint16 page, uint8 size){
ARM GAS  C:\Users\RECEPC~1\AppData\Local\Temp\ccV5Bp59.s 			page 17


 570              		.loc 1 291 0
 571              		.cfi_startproc
 572              		@ args = 0, pretend = 0, frame = 8
 573              		@ frame_needed = 0, uses_anonymous_args = 0
 574              	.LVL96:
 575 0000 2DE9F041 		push	{r4, r5, r6, r7, r8, lr}
 576              		.cfi_def_cfa_offset 24
 577              		.cfi_offset 4, -24
 578              		.cfi_offset 5, -20
 579              		.cfi_offset 6, -16
 580              		.cfi_offset 7, -12
 581              		.cfi_offset 8, -8
 582              		.cfi_offset 14, -4
 583 0004 82B0     		sub	sp, sp, #8
 584              		.cfi_def_cfa_offset 32
 585 0006 0D46     		mov	r5, r1
 292:.\I2C.c       **** 	uint16 status, dato[4],i;
 293:.\I2C.c       **** 	dato[1]=(page&0xFF);
 586              		.loc 1 293 0
 587 0008 C3B2     		uxtb	r3, r0
 588 000a ADF80230 		strh	r3, [sp, #2]	@ movhi
 294:.\I2C.c       **** 	page=(page>>8)&0xFF;
 589              		.loc 1 294 0
 590 000e 000A     		lsrs	r0, r0, #8
 591              	.LVL97:
 295:.\I2C.c       **** 	dato[0]=page;	
 592              		.loc 1 295 0
 593 0010 ADF80000 		strh	r0, [sp]	@ movhi
 296:.\I2C.c       ****     I2C_1_MasterClearStatus();
 594              		.loc 1 296 0
 595 0014 FFF7FEFF 		bl	I2C_1_MasterClearStatus
 596              	.LVL98:
 297:.\I2C.c       ****     status = I2C_1_MasterSendStart(0x54, I2C_1_WRITE_XFER_MODE);
 597              		.loc 1 297 0
 598 0018 5420     		movs	r0, #84
 599 001a 0021     		movs	r1, #0
 600 001c FFF7FEFF 		bl	I2C_1_MasterSendStart
 601              	.LVL99:
 298:.\I2C.c       ****     if(I2C_1_MSTR_NO_ERROR == status)								 		/* Check if transfer completed without errors */
 602              		.loc 1 298 0
 603 0020 0646     		mov	r6, r0
 604 0022 78B1     		cbz	r0, .L50
 299:.\I2C.c       **** 	{
 300:.\I2C.c       ****         for(i=0;i<2;i++)
 301:.\I2C.c       ****         {
 302:.\I2C.c       ****             status = I2C_1_MasterWriteByte(dato[i]);
 303:.\I2C.c       ****             if(status != I2C_1_MSTR_NO_ERROR)
 304:.\I2C.c       ****             {
 305:.\I2C.c       ****             	return 0;
 306:.\I2C.c       ****             }
 307:.\I2C.c       **** 			CyDelay(5);
 308:.\I2C.c       ****         }		
 309:.\I2C.c       ****     }
 310:.\I2C.c       **** 	else{
 311:.\I2C.c       **** 		return 0;
 605              		.loc 1 311 0
 606 0024 0026     		movs	r6, #0
ARM GAS  C:\Users\RECEPC~1\AppData\Local\Temp\ccV5Bp59.s 			page 18


 607 0026 33E0     		b	.L46
 608              	.LVL100:
 609              	.L47:
 302:.\I2C.c       ****             status = I2C_1_MasterWriteByte(dato[i]);
 610              		.loc 1 302 0
 611 0028 02AA     		add	r2, sp, #8
 612 002a 02EB4403 		add	r3, r2, r4, lsl #1
 613 002e 13F8080C 		ldrb	r0, [r3, #-8]	@ zero_extendqisi2
 614 0032 FFF7FEFF 		bl	I2C_1_MasterWriteByte
 615              	.LVL101:
 303:.\I2C.c       ****             if(status != I2C_1_MSTR_NO_ERROR)
 616              		.loc 1 303 0
 617 0036 58BB     		cbnz	r0, .L46
 307:.\I2C.c       **** 			CyDelay(5);
 618              		.loc 1 307 0
 619 0038 3846     		mov	r0, r7
 620              	.LVL102:
 621 003a FFF7FEFF 		bl	CyDelay
 622              	.LVL103:
 300:.\I2C.c       ****         for(i=0;i<2;i++)
 623              		.loc 1 300 0
 624 003e 0134     		adds	r4, r4, #1
 625              	.LVL104:
 626 0040 A4B2     		uxth	r4, r4
 627              	.LVL105:
 628 0042 01E0     		b	.L45
 629              	.LVL106:
 630              	.L50:
 631 0044 0024     		movs	r4, #0
 307:.\I2C.c       **** 			CyDelay(5);
 632              		.loc 1 307 0
 633 0046 0527     		movs	r7, #5
 634              	.LVL107:
 635              	.L45:
 300:.\I2C.c       ****         for(i=0;i<2;i++)
 636              		.loc 1 300 0 discriminator 1
 637 0048 012C     		cmp	r4, #1
 638 004a EDD9     		bls	.L47
 312:.\I2C.c       **** 	}
 313:.\I2C.c       **** 	I2C_1_MasterSendStop();	
 639              		.loc 1 313 0
 640 004c FFF7FEFF 		bl	I2C_1_MasterSendStop
 641              	.LVL108:
 314:.\I2C.c       ****     CyDelay(50);
 642              		.loc 1 314 0
 643 0050 3220     		movs	r0, #50
 644 0052 FFF7FEFF 		bl	CyDelay
 645              	.LVL109:
 315:.\I2C.c       ****     status = I2C_1_MasterSendStart(0x54, I2C_1_READ_XFER_MODE);
 646              		.loc 1 315 0
 647 0056 5420     		movs	r0, #84
 648 0058 0121     		movs	r1, #1
 649 005a FFF7FEFF 		bl	I2C_1_MasterSendStart
 650              	.LVL110:
 316:.\I2C.c       ****     if(I2C_1_MSTR_NO_ERROR == status){
 651              		.loc 1 316 0
 652 005e 50B1     		cbz	r0, .L51
ARM GAS  C:\Users\RECEPC~1\AppData\Local\Temp\ccV5Bp59.s 			page 19


 653 0060 16E0     		b	.L46
 654              	.LVL111:
 655              	.L49:
 317:.\I2C.c       **** 		for(i=0;i<size;i++){
 318:.\I2C.c       **** 	        buffer_i2c[i] = I2C_1_MasterReadByte(I2C_1_ACK_DATA);
 656              		.loc 1 318 0 discriminator 2
 657 0062 4046     		mov	r0, r8
 658 0064 FFF7FEFF 		bl	I2C_1_MasterReadByte
 659              	.LVL112:
 660 0068 3855     		strb	r0, [r7, r4]
 319:.\I2C.c       **** 			CyDelay(5);
 661              		.loc 1 319 0 discriminator 2
 662 006a 3046     		mov	r0, r6
 663 006c FFF7FEFF 		bl	CyDelay
 664              	.LVL113:
 317:.\I2C.c       **** 		for(i=0;i<size;i++){
 665              		.loc 1 317 0 discriminator 2
 666 0070 0134     		adds	r4, r4, #1
 667              	.LVL114:
 668 0072 A4B2     		uxth	r4, r4
 669              	.LVL115:
 670 0074 04E0     		b	.L48
 671              	.LVL116:
 672              	.L51:
 673 0076 0024     		movs	r4, #0
 674              	.LVL117:
 318:.\I2C.c       **** 	        buffer_i2c[i] = I2C_1_MasterReadByte(I2C_1_ACK_DATA);
 675              		.loc 1 318 0
 676 0078 4FF00108 		mov	r8, #1
 677 007c 064F     		ldr	r7, .L52
 678              		.loc 1 319 0
 679 007e 0526     		movs	r6, #5
 680              	.LVL118:
 681              	.L48:
 317:.\I2C.c       **** 		for(i=0;i<size;i++){
 682              		.loc 1 317 0 discriminator 1
 683 0080 A542     		cmp	r5, r4
 684 0082 EED8     		bhi	.L49
 320:.\I2C.c       **** 		}
 321:.\I2C.c       ****     }
 322:.\I2C.c       **** 	else{
 323:.\I2C.c       **** 		return 0;
 324:.\I2C.c       **** 	}
 325:.\I2C.c       ****     I2C_1_MasterSendStop();	
 685              		.loc 1 325 0
 686 0084 FFF7FEFF 		bl	I2C_1_MasterSendStop
 687              	.LVL119:
 326:.\I2C.c       **** 	CyDelay(6);	
 688              		.loc 1 326 0
 689 0088 0620     		movs	r0, #6
 690 008a FFF7FEFF 		bl	CyDelay
 691              	.LVL120:
 327:.\I2C.c       **** 	return 1;
 692              		.loc 1 327 0
 693 008e 0126     		movs	r6, #1
 694              	.LVL121:
 695              	.L46:
ARM GAS  C:\Users\RECEPC~1\AppData\Local\Temp\ccV5Bp59.s 			page 20


 328:.\I2C.c       **** }
 696              		.loc 1 328 0
 697 0090 3046     		mov	r0, r6
 698 0092 02B0     		add	sp, sp, #8
 699              		@ sp needed
 700 0094 BDE8F081 		pop	{r4, r5, r6, r7, r8, pc}
 701              	.L53:
 702              		.align	2
 703              	.L52:
 704 0098 00000000 		.word	buffer_i2c
 705              		.cfi_endproc
 706              	.LFE68:
 707              		.size	leer_eeprom, .-leer_eeprom
 708              		.section	.text.write_psoc1,"ax",%progbits
 709              		.align	2
 710              		.global	write_psoc1
 711              		.thumb
 712              		.thumb_func
 713              		.type	write_psoc1, %function
 714              	write_psoc1:
 715              	.LFB69:
 329:.\I2C.c       **** 
 330:.\I2C.c       **** /*
 331:.\I2C.c       **** ***************************************************************************************************
 332:.\I2C.c       **** *                                   uint8 write_psoc1( uint8 puerto, uint8 valor )
 333:.\I2C.c       **** *
 334:.\I2C.c       **** * Description : 
 335:.\I2C.c       **** *               
 336:.\I2C.c       **** *
 337:.\I2C.c       **** * Argument(s) : none
 338:.\I2C.c       **** *
 339:.\I2C.c       **** * Return(s)   : none
 340:.\I2C.c       **** *
 341:.\I2C.c       **** * Caller(s)   : 
 342:.\I2C.c       **** *
 343:.\I2C.c       **** * Note(s)     : none.
 344:.\I2C.c       **** ***************************************************************************************************
 345:.\I2C.c       **** */
 346:.\I2C.c       **** 
 347:.\I2C.c       **** uint8 write_psoc1( uint8 puerto, uint8 valor ){
 716              		.loc 1 347 0
 717              		.cfi_startproc
 718              		@ args = 0, pretend = 0, frame = 8
 719              		@ frame_needed = 0, uses_anonymous_args = 0
 720              	.LVL122:
 721 0000 10B5     		push	{r4, lr}
 722              		.cfi_def_cfa_offset 8
 723              		.cfi_offset 4, -8
 724              		.cfi_offset 14, -4
 725 0002 82B0     		sub	sp, sp, #8
 726              		.cfi_def_cfa_offset 16
 348:.\I2C.c       **** 	uint8 status, dato[2],i;
 349:.\I2C.c       **** 	dato[0]=puerto;
 727              		.loc 1 349 0
 728 0004 8DF80400 		strb	r0, [sp, #4]
 350:.\I2C.c       **** 	dato[1]=valor;
 729              		.loc 1 350 0
ARM GAS  C:\Users\RECEPC~1\AppData\Local\Temp\ccV5Bp59.s 			page 21


 730 0008 8DF80510 		strb	r1, [sp, #5]
 351:.\I2C.c       **** 	I2C_1_MasterClearStatus();
 731              		.loc 1 351 0
 732 000c FFF7FEFF 		bl	I2C_1_MasterClearStatus
 733              	.LVL123:
 352:.\I2C.c       ****     status = I2C_1_MasterSendStart(7u, I2C_1_WRITE_XFER_MODE);
 734              		.loc 1 352 0
 735 0010 0720     		movs	r0, #7
 736 0012 0021     		movs	r1, #0
 737 0014 FFF7FEFF 		bl	I2C_1_MasterSendStart
 738              	.LVL124:
 353:.\I2C.c       ****     if(I2C_1_MSTR_NO_ERROR == status) 
 739              		.loc 1 353 0
 740 0018 58B1     		cbz	r0, .L58
 354:.\I2C.c       ****     {
 355:.\I2C.c       ****         for(i=0; i<2; i++)
 356:.\I2C.c       ****         {
 357:.\I2C.c       ****             status = I2C_1_MasterWriteByte(dato[i]);
 358:.\I2C.c       ****             if(status != I2C_1_MSTR_NO_ERROR)
 359:.\I2C.c       ****             {
 360:.\I2C.c       ****                 return 0;
 361:.\I2C.c       ****             }
 362:.\I2C.c       ****         }
 363:.\I2C.c       ****     }
 364:.\I2C.c       ****     else{
 365:.\I2C.c       **** 		return 0;
 741              		.loc 1 365 0
 742 001a 0020     		movs	r0, #0
 743              	.LVL125:
 744 001c 11E0     		b	.L56
 745              	.LVL126:
 746              	.L57:
 357:.\I2C.c       ****             status = I2C_1_MasterWriteByte(dato[i]);
 747              		.loc 1 357 0
 748 001e 02AB     		add	r3, sp, #8
 749 0020 2344     		add	r3, r3, r4
 750 0022 13F8040C 		ldrb	r0, [r3, #-4]	@ zero_extendqisi2
 751              	.LVL127:
 752 0026 FFF7FEFF 		bl	I2C_1_MasterWriteByte
 753              	.LVL128:
 358:.\I2C.c       ****             if(status != I2C_1_MSTR_NO_ERROR)
 754              		.loc 1 358 0
 755 002a 48B9     		cbnz	r0, .L59
 355:.\I2C.c       ****         for(i=0; i<2; i++)
 756              		.loc 1 355 0
 757 002c 0134     		adds	r4, r4, #1
 758              	.LVL129:
 759 002e E4B2     		uxtb	r4, r4
 760              	.LVL130:
 761 0030 00E0     		b	.L55
 762              	.LVL131:
 763              	.L58:
 764 0032 0024     		movs	r4, #0
 765              	.L55:
 766              	.LVL132:
 355:.\I2C.c       ****         for(i=0; i<2; i++)
 767              		.loc 1 355 0 is_stmt 0 discriminator 1
ARM GAS  C:\Users\RECEPC~1\AppData\Local\Temp\ccV5Bp59.s 			page 22


 768 0034 012C     		cmp	r4, #1
 769 0036 F2D9     		bls	.L57
 366:.\I2C.c       ****     }
 367:.\I2C.c       ****     I2C_1_MasterSendStop();	
 770              		.loc 1 367 0 is_stmt 1
 771 0038 FFF7FEFF 		bl	I2C_1_MasterSendStop
 772              	.LVL133:
 368:.\I2C.c       **** 	return 1;
 773              		.loc 1 368 0
 774 003c 0120     		movs	r0, #1
 775 003e 00E0     		b	.L56
 776              	.LVL134:
 777              	.L59:
 360:.\I2C.c       ****                 return 0;
 778              		.loc 1 360 0
 779 0040 0020     		movs	r0, #0
 780              	.LVL135:
 781              	.L56:
 369:.\I2C.c       **** }
 782              		.loc 1 369 0
 783 0042 02B0     		add	sp, sp, #8
 784              		@ sp needed
 785 0044 10BD     		pop	{r4, pc}
 786              		.cfi_endproc
 787              	.LFE69:
 788              		.size	write_psoc1, .-write_psoc1
 789              		.comm	rventa2,225,4
 790              		.comm	rventa,225,4
 791              		.comm	lado,8,4
 792              		.comm	producto,1,1
 793              		.comm	producto2,1,1
 794              		.comm	producto1,1,1
 795              		.comm	modulo,400,4
 796              		.comm	w,4,4
 797              		.comm	z,4,4
 798              		.comm	y,4,4
 799              		.comm	x,4,4
 800              		.comm	estado_0,1,1
 801              		.comm	Buffer_LCD2,152,4
 802              		.comm	Buffer_LCD1,152,4
 803              		.comm	no_venta,4,4
 804              		.comm	id_venta,6,4
 805              		.comm	id_corte,2,2
 806              		.comm	copia_recibo,2,4
 807              		.comm	print2,2,4
 808              		.comm	print1,2,4
 809              		.comm	crc_total,1,1
 810              		.comm	pos_ibutton,1,1
 811              		.comm	fecha_corte,6,4
 812              		.comm	decimalD,1,1
 813              		.comm	decimalV,1,1
 814              		.comm	tipo_imp,2,4
 815              		.comm	bandera,2,4
 816              		.comm	ppux10,1,1
 817              		.comm	teclado2,1,1
 818              		.comm	teclado,1,1
 819              		.comm	resultado,14,4
ARM GAS  C:\Users\RECEPC~1\AppData\Local\Temp\ccV5Bp59.s 			page 23


 820              		.comm	buffer_i2c,64,4
 821              		.comm	kero2,1,1
 822              		.comm	diesel2,1,1
 823              		.comm	corriente2,1,1
 824              		.comm	extra2,1,1
 825              		.comm	kero,1,1
 826              		.comm	corriente,1,1
 827              		.comm	diesel,1,1
 828              		.comm	extra,1,1
 829              		.comm	versurt,1,1
 830              		.comm	version,1,1
 831              		.comm	comas2,1,1
 832              		.comm	comas1,1,1
 833              		.comm	teclas2,1,1
 834              		.comm	teclas1,1,1
 835              		.comm	cont1,1,1
 836              		.comm	ok_LCD2,1,1
 837              		.comm	ok_LCD1,1,1
 838              		.comm	count_protector2,1,1
 839              		.comm	count_protector,1,1
 840              		.comm	flujo_LCD2,1,1
 841              		.comm	flujo_LCD,1,1
 842 0046 00BF     		.text
 843              	.Letext0:
 844              		.file 2 "c:\\program files (x86)\\cypress\\psoc creator\\3.2\\psoc creator\\import\\gnu\\arm\\4.8.
 845              		.file 3 "c:\\program files (x86)\\cypress\\psoc creator\\3.2\\psoc creator\\import\\gnu\\arm\\4.8.
 846              		.file 4 "Generated_Source\\PSoC5/cytypes.h"
 847              		.file 5 ".\\VariablesG.h"
 848              		.file 6 "Generated_Source\\PSoC5/core_cm3.h"
 849              		.file 7 "Generated_Source\\PSoC5/I2C_1.h"
 850              		.file 8 "Generated_Source\\PSoC5/CyLib.h"
 851              		.file 9 "Generated_Source\\PSoC5/Pin_WP.h"