ARM GAS  C:\Users\RECEPC~1\AppData\Local\Temp\ccOztUEd.s 			page 1


   1              		.syntax unified
   2              		.cpu cortex-m3
   3              		.fpu softvfp
   4              		.eabi_attribute 20, 1
   5              		.eabi_attribute 21, 1
   6              		.eabi_attribute 23, 3
   7              		.eabi_attribute 24, 1
   8              		.eabi_attribute 25, 1
   9              		.eabi_attribute 26, 1
  10              		.eabi_attribute 30, 1
  11              		.eabi_attribute 34, 1
  12              		.eabi_attribute 18, 4
  13              		.thumb
  14              		.file	"ibuton.c"
  15              		.text
  16              	.Ltext0:
  17              		.cfi_sections	.debug_frame
  18              		.section	.text.touch_present,"ax",%progbits
  19              		.align	2
  20              		.global	touch_present
  21              		.thumb
  22              		.thumb_func
  23              		.type	touch_present, %function
  24              	touch_present:
  25              	.LFB63:
  26              		.file 1 ".\\ibuton.c"
   1:.\ibuton.c    **** /*
   2:.\ibuton.c    **** ***************************************************************************************************
   3:.\ibuton.c    **** *                                           GRP550M CODE
   4:.\ibuton.c    **** *
   5:.\ibuton.c    **** *                             (c) Copyright 2013; Sistemas Insepet LTDA
   6:.\ibuton.c    **** *
   7:.\ibuton.c    **** *               All rights reserved.  Protected by international copyright laws.
   8:.\ibuton.c    **** *               Knowledge of the source code may NOT be used to develop a similar product.
   9:.\ibuton.c    **** *               Please help us continue to provide the Embedded community with the finest
  10:.\ibuton.c    **** *               software available.  Your honesty is greatly appreciated.
  11:.\ibuton.c    **** ***************************************************************************************************
  12:.\ibuton.c    **** */
  13:.\ibuton.c    **** 
  14:.\ibuton.c    **** /*
  15:.\ibuton.c    **** ***************************************************************************************************
  16:.\ibuton.c    **** *
  17:.\ibuton.c    **** *                                               GRP550M CODE
  18:.\ibuton.c    **** *
  19:.\ibuton.c    **** *                                             CYPRESS PSoC5LP
  20:.\ibuton.c    **** *                                                with the
  21:.\ibuton.c    **** *                                            CY8C5969AXI-LP035
  22:.\ibuton.c    **** *
  23:.\ibuton.c    **** * Filename      : ibutton.c
  24:.\ibuton.c    **** * Version       : V1.00
  25:.\ibuton.c    **** * Programmer(s) : 
  26:.\ibuton.c    ****                   
  27:.\ibuton.c    **** ***************************************************************************************************
  28:.\ibuton.c    **** */
  29:.\ibuton.c    **** 
  30:.\ibuton.c    **** /*
  31:.\ibuton.c    **** ***************************************************************************************************
ARM GAS  C:\Users\RECEPC~1\AppData\Local\Temp\ccOztUEd.s 			page 2


  32:.\ibuton.c    **** *                                             INCLUDE FILES
  33:.\ibuton.c    **** ***************************************************************************************************
  34:.\ibuton.c    **** */
  35:.\ibuton.c    **** #include <device.h>
  36:.\ibuton.c    **** #include "VariablesG.h"
  37:.\ibuton.c    **** #include "LCD.h"
  38:.\ibuton.c    **** 
  39:.\ibuton.c    **** /*
  40:.\ibuton.c    **** ***************************************************************************************************
  41:.\ibuton.c    **** *                                       uint8 touch_present(uint8 ibutton)
  42:.\ibuton.c    **** *
  43:.\ibuton.c    **** * Description : Revisa que hay ibutton en el lector
  44:.\ibuton.c    **** *               
  45:.\ibuton.c    **** *
  46:.\ibuton.c    **** * Argument(s) : uint8 ibutton, indica el lado donde se encuentra el ibutton
  47:.\ibuton.c    **** *
  48:.\ibuton.c    **** * Return(s)   : 0 no hay ibutton , 1 si hay ibutton
  49:.\ibuton.c    **** *
  50:.\ibuton.c    **** * Caller(s)   : 
  51:.\ibuton.c    **** *
  52:.\ibuton.c    **** * Note(s)     : none.
  53:.\ibuton.c    **** ***************************************************************************************************
  54:.\ibuton.c    **** */
  55:.\ibuton.c    **** 
  56:.\ibuton.c    **** uint8 touch_present(uint8 ibutton){  
  27              		.loc 1 56 0
  28              		.cfi_startproc
  29              		@ args = 0, pretend = 0, frame = 0
  30              		@ frame_needed = 0, uses_anonymous_args = 0
  31              	.LVL0:
  32 0000 10B5     		push	{r4, lr}
  33              		.cfi_def_cfa_offset 8
  34              		.cfi_offset 4, -8
  35              		.cfi_offset 14, -4
  57:.\ibuton.c    ****     uint8 present;
  58:.\ibuton.c    **** 	if(ibutton==1){
  36              		.loc 1 58 0
  37 0002 0128     		cmp	r0, #1
  38 0004 1CD1     		bne	.L2
  59:.\ibuton.c    **** 	    IB1_Write(0);
  39              		.loc 1 59 0
  40 0006 0020     		movs	r0, #0
  41              	.LVL1:
  42 0008 FFF7FEFF 		bl	IB1_Write
  43              	.LVL2:
  60:.\ibuton.c    **** 	    CyDelayUs(500);
  44              		.loc 1 60 0
  45 000c 4FF4FA70 		mov	r0, #500
  46 0010 FFF7FEFF 		bl	CyDelayUs
  47              	.LVL3:
  61:.\ibuton.c    **** 	    IB1_Write(1);
  48              		.loc 1 61 0
  49 0014 0120     		movs	r0, #1
  50 0016 FFF7FEFF 		bl	IB1_Write
  51              	.LVL4:
  62:.\ibuton.c    **** 	    CyDelayUs(5);
  52              		.loc 1 62 0
ARM GAS  C:\Users\RECEPC~1\AppData\Local\Temp\ccOztUEd.s 			page 3


  53 001a 0520     		movs	r0, #5
  54 001c FFF7FEFF 		bl	CyDelayUs
  55              	.LVL5:
  63:.\ibuton.c    **** 
  64:.\ibuton.c    **** 	    if(!IB1_Read()){
  56              		.loc 1 64 0
  57 0020 FFF7FEFF 		bl	IB1_Read
  58              	.LVL6:
  59 0024 0346     		mov	r3, r0
  60 0026 58B3     		cbz	r0, .L3
  65:.\ibuton.c    **** 	        return 0;
  66:.\ibuton.c    **** 	    }
  67:.\ibuton.c    **** 
  68:.\ibuton.c    **** 	    CyDelayUs(65);
  61              		.loc 1 68 0
  62 0028 4120     		movs	r0, #65
  63 002a FFF7FEFF 		bl	CyDelayUs
  64              	.LVL7:
  69:.\ibuton.c    **** 	    present=!IB1_Read();
  65              		.loc 1 69 0
  66 002e FFF7FEFF 		bl	IB1_Read
  67              	.LVL8:
  68 0032 0446     		mov	r4, r0
  69              	.LVL9:
  70:.\ibuton.c    **** 	    CyDelayUs(240);
  70              		.loc 1 70 0
  71 0034 F020     		movs	r0, #240
  72              	.LVL10:
  73 0036 FFF7FEFF 		bl	CyDelayUs
  74              	.LVL11:
  71:.\ibuton.c    **** 	    if(present){
  75              		.loc 1 71 0
  76 003a F4B9     		cbnz	r4, .L4
  72:.\ibuton.c    **** 	        return 1;
  77              		.loc 1 72 0
  78 003c 0123     		movs	r3, #1
  79 003e 1FE0     		b	.L3
  80              	.LVL12:
  81              	.L2:
  73:.\ibuton.c    **** 	    }
  74:.\ibuton.c    **** 	    else{
  75:.\ibuton.c    **** 	        return 0;
  76:.\ibuton.c    **** 	    } 
  77:.\ibuton.c    **** 	}
  78:.\ibuton.c    **** 	else{
  79:.\ibuton.c    **** 	    IB2_Write(0);
  82              		.loc 1 79 0
  83 0040 0020     		movs	r0, #0
  84              	.LVL13:
  85 0042 FFF7FEFF 		bl	IB2_Write
  86              	.LVL14:
  80:.\ibuton.c    **** 	    CyDelayUs(500);
  87              		.loc 1 80 0
  88 0046 4FF4FA70 		mov	r0, #500
  89 004a FFF7FEFF 		bl	CyDelayUs
  90              	.LVL15:
  81:.\ibuton.c    **** 	    IB2_Write(1);
ARM GAS  C:\Users\RECEPC~1\AppData\Local\Temp\ccOztUEd.s 			page 4


  91              		.loc 1 81 0
  92 004e 0120     		movs	r0, #1
  93 0050 FFF7FEFF 		bl	IB2_Write
  94              	.LVL16:
  82:.\ibuton.c    **** 	    CyDelayUs(5);
  95              		.loc 1 82 0
  96 0054 0520     		movs	r0, #5
  97 0056 FFF7FEFF 		bl	CyDelayUs
  98              	.LVL17:
  83:.\ibuton.c    **** 
  84:.\ibuton.c    **** 	    if(!IB2_Read()){
  99              		.loc 1 84 0
 100 005a FFF7FEFF 		bl	IB2_Read
 101              	.LVL18:
 102 005e 0346     		mov	r3, r0
 103 0060 70B1     		cbz	r0, .L3
  85:.\ibuton.c    **** 	        return 0;
  86:.\ibuton.c    **** 	    }
  87:.\ibuton.c    **** 
  88:.\ibuton.c    **** 	    CyDelayUs(65);
 104              		.loc 1 88 0
 105 0062 4120     		movs	r0, #65
 106 0064 FFF7FEFF 		bl	CyDelayUs
 107              	.LVL19:
  89:.\ibuton.c    **** 	    present=!IB2_Read();
 108              		.loc 1 89 0
 109 0068 FFF7FEFF 		bl	IB2_Read
 110              	.LVL20:
 111 006c 0446     		mov	r4, r0
 112              	.LVL21:
  90:.\ibuton.c    **** 	    CyDelayUs(240);
 113              		.loc 1 90 0
 114 006e F020     		movs	r0, #240
 115              	.LVL22:
 116 0070 FFF7FEFF 		bl	CyDelayUs
 117              	.LVL23:
  91:.\ibuton.c    **** 	    if(present){
 118              		.loc 1 91 0
 119 0074 1CB9     		cbnz	r4, .L5
  92:.\ibuton.c    **** 	        return 1;
 120              		.loc 1 92 0
 121 0076 0123     		movs	r3, #1
 122 0078 02E0     		b	.L3
 123              	.L4:
  75:.\ibuton.c    **** 	        return 0;
 124              		.loc 1 75 0
 125 007a 0023     		movs	r3, #0
 126 007c 00E0     		b	.L3
 127              	.L5:
  93:.\ibuton.c    **** 	    }
  94:.\ibuton.c    **** 	    else{
  95:.\ibuton.c    **** 	        return 0;
 128              		.loc 1 95 0
 129 007e 0023     		movs	r3, #0
 130              	.LVL24:
 131              	.L3:
  96:.\ibuton.c    **** 	    }	
ARM GAS  C:\Users\RECEPC~1\AppData\Local\Temp\ccOztUEd.s 			page 5


  97:.\ibuton.c    **** 	}
  98:.\ibuton.c    **** }
 132              		.loc 1 98 0
 133 0080 1846     		mov	r0, r3
 134 0082 10BD     		pop	{r4, pc}
 135              		.cfi_endproc
 136              	.LFE63:
 137              		.size	touch_present, .-touch_present
 138              		.section	.text.touch_write,"ax",%progbits
 139              		.align	2
 140              		.global	touch_write
 141              		.thumb
 142              		.thumb_func
 143              		.type	touch_write, %function
 144              	touch_write:
 145              	.LFB64:
  99:.\ibuton.c    **** 
 100:.\ibuton.c    **** /*
 101:.\ibuton.c    **** ***************************************************************************************************
 102:.\ibuton.c    **** *                                  uint8 touch_write(uint8 ibutton, uint8 dato)
 103:.\ibuton.c    **** *
 104:.\ibuton.c    **** * Description : Escribe un byte en el Ibutton
 105:.\ibuton.c    **** *               
 106:.\ibuton.c    **** *
 107:.\ibuton.c    **** * Argument(s) : uint8 ibutton = lado
 108:.\ibuton.c    **** 				uint8 dato = byte que se va a escribir
 109:.\ibuton.c    **** *
 110:.\ibuton.c    **** * Return(s)   : 0 operacion correcta
 111:.\ibuton.c    **** 				1 operacion incorrecta
 112:.\ibuton.c    **** *
 113:.\ibuton.c    **** * Caller(s)   : 
 114:.\ibuton.c    **** *
 115:.\ibuton.c    **** * Note(s)     : none.
 116:.\ibuton.c    **** ***************************************************************************************************
 117:.\ibuton.c    **** */
 118:.\ibuton.c    **** 
 119:.\ibuton.c    **** uint8 touch_write(uint8 ibutton, uint8 dato){
 146              		.loc 1 119 0
 147              		.cfi_startproc
 148              		@ args = 0, pretend = 0, frame = 0
 149              		@ frame_needed = 0, uses_anonymous_args = 0
 150              	.LVL25:
 151 0000 2DE9F041 		push	{r4, r5, r6, r7, r8, lr}
 152              		.cfi_def_cfa_offset 24
 153              		.cfi_offset 4, -24
 154              		.cfi_offset 5, -20
 155              		.cfi_offset 6, -16
 156              		.cfi_offset 7, -12
 157              		.cfi_offset 8, -8
 158              		.cfi_offset 14, -4
 159 0004 8846     		mov	r8, r1
 120:.\ibuton.c    ****     uint8 i;
 121:.\ibuton.c    **** 	if(ibutton==1){
 160              		.loc 1 121 0
 161 0006 0128     		cmp	r0, #1
 162 0008 30D0     		beq	.L16
 163 000a 0024     		movs	r4, #0
ARM GAS  C:\Users\RECEPC~1\AppData\Local\Temp\ccOztUEd.s 			page 6


 122:.\ibuton.c    **** 	    for(i=0;i<=7;i++){
 123:.\ibuton.c    **** 	        IB1_Write(0); 
 124:.\ibuton.c    **** 	        CyDelayUs(10);
 125:.\ibuton.c    **** 	        if(((dato>>i)&1)){
 126:.\ibuton.c    **** 	           IB1_Write(1);
 127:.\ibuton.c    **** 	           CyDelayUs(10);
 128:.\ibuton.c    **** 	           if(!IB1_Read()){
 129:.\ibuton.c    **** 	                return 0;                
 130:.\ibuton.c    **** 	           }
 131:.\ibuton.c    **** 	        }
 132:.\ibuton.c    **** 	        else{
 133:.\ibuton.c    **** 	            IB1_Write(0); 
 134:.\ibuton.c    **** 	            CyDelayUs(10);
 135:.\ibuton.c    **** 	           if(IB1_Read()){
 136:.\ibuton.c    **** 	                return 0;                
 137:.\ibuton.c    **** 	           }            
 138:.\ibuton.c    **** 	        }
 139:.\ibuton.c    **** 	        CyDelayUs(50);
 140:.\ibuton.c    **** 	        IB1_Write(1);
 141:.\ibuton.c    **** 	        CyDelayUs(50);
 142:.\ibuton.c    **** 	    }
 143:.\ibuton.c    **** 	    return 1;
 144:.\ibuton.c    **** 	}
 145:.\ibuton.c    **** 	else{
 146:.\ibuton.c    **** 	    for(i=0;i<=7;i++){
 147:.\ibuton.c    **** 	        IB2_Write(0); 
 164              		.loc 1 147 0
 165 000c 2646     		mov	r6, r4
 148:.\ibuton.c    **** 	        CyDelayUs(10);
 166              		.loc 1 148 0
 167 000e 0A25     		movs	r5, #10
 149:.\ibuton.c    **** 	        if(((dato>>i)&1)){
 150:.\ibuton.c    **** 	           IB2_Write(1);
 168              		.loc 1 150 0
 169 0010 0127     		movs	r7, #1
 170 0012 5DE0     		b	.L8
 171              	.LVL26:
 172              	.L12:
 123:.\ibuton.c    **** 	        IB1_Write(0); 
 173              		.loc 1 123 0
 174 0014 3046     		mov	r0, r6
 175 0016 FFF7FEFF 		bl	IB1_Write
 176              	.LVL27:
 124:.\ibuton.c    **** 	        CyDelayUs(10);
 177              		.loc 1 124 0
 178 001a 2846     		mov	r0, r5
 179 001c FFF7FEFF 		bl	CyDelayUs
 180              	.LVL28:
 125:.\ibuton.c    **** 	        if(((dato>>i)&1)){
 181              		.loc 1 125 0
 182 0020 48FA04F3 		asr	r3, r8, r4
 183 0024 13F0010F 		tst	r3, #1
 184 0028 0AD0     		beq	.L9
 126:.\ibuton.c    **** 	           IB1_Write(1);
 185              		.loc 1 126 0
 186 002a 3846     		mov	r0, r7
 187 002c FFF7FEFF 		bl	IB1_Write
ARM GAS  C:\Users\RECEPC~1\AppData\Local\Temp\ccOztUEd.s 			page 7


 188              	.LVL29:
 127:.\ibuton.c    **** 	           CyDelayUs(10);
 189              		.loc 1 127 0
 190 0030 2846     		mov	r0, r5
 191 0032 FFF7FEFF 		bl	CyDelayUs
 192              	.LVL30:
 128:.\ibuton.c    **** 	           if(!IB1_Read()){
 193              		.loc 1 128 0
 194 0036 FFF7FEFF 		bl	IB1_Read
 195              	.LVL31:
 196 003a 0346     		mov	r3, r0
 197 003c 50B9     		cbnz	r0, .L11
 198 003e 4EE0     		b	.L10
 199              	.L9:
 133:.\ibuton.c    **** 	            IB1_Write(0); 
 200              		.loc 1 133 0
 201 0040 3046     		mov	r0, r6
 202 0042 FFF7FEFF 		bl	IB1_Write
 203              	.LVL32:
 134:.\ibuton.c    **** 	            CyDelayUs(10);
 204              		.loc 1 134 0
 205 0046 2846     		mov	r0, r5
 206 0048 FFF7FEFF 		bl	CyDelayUs
 207              	.LVL33:
 135:.\ibuton.c    **** 	           if(IB1_Read()){
 208              		.loc 1 135 0
 209 004c FFF7FEFF 		bl	IB1_Read
 210              	.LVL34:
 211 0050 0028     		cmp	r0, #0
 212 0052 41D1     		bne	.L17
 213              	.L11:
 139:.\ibuton.c    **** 	        CyDelayUs(50);
 214              		.loc 1 139 0
 215 0054 3220     		movs	r0, #50
 216 0056 FFF7FEFF 		bl	CyDelayUs
 217              	.LVL35:
 140:.\ibuton.c    **** 	        IB1_Write(1);
 218              		.loc 1 140 0
 219 005a 3846     		mov	r0, r7
 220 005c FFF7FEFF 		bl	IB1_Write
 221              	.LVL36:
 141:.\ibuton.c    **** 	        CyDelayUs(50);
 222              		.loc 1 141 0
 223 0060 3220     		movs	r0, #50
 224 0062 FFF7FEFF 		bl	CyDelayUs
 225              	.LVL37:
 122:.\ibuton.c    **** 	    for(i=0;i<=7;i++){
 226              		.loc 1 122 0
 227 0066 0134     		adds	r4, r4, #1
 228              	.LVL38:
 229 0068 E4B2     		uxtb	r4, r4
 230              	.LVL39:
 231 006a 03E0     		b	.L7
 232              	.LVL40:
 233              	.L16:
 234 006c 0024     		movs	r4, #0
 123:.\ibuton.c    **** 	        IB1_Write(0); 
ARM GAS  C:\Users\RECEPC~1\AppData\Local\Temp\ccOztUEd.s 			page 8


 235              		.loc 1 123 0
 236 006e 2646     		mov	r6, r4
 124:.\ibuton.c    **** 	        CyDelayUs(10);
 237              		.loc 1 124 0
 238 0070 0A25     		movs	r5, #10
 126:.\ibuton.c    **** 	           IB1_Write(1);
 239              		.loc 1 126 0
 240 0072 0127     		movs	r7, #1
 241              	.LVL41:
 242              	.L7:
 122:.\ibuton.c    **** 	    for(i=0;i<=7;i++){
 243              		.loc 1 122 0 discriminator 1
 244 0074 072C     		cmp	r4, #7
 245 0076 CDD9     		bls	.L12
 143:.\ibuton.c    **** 	    return 1;
 246              		.loc 1 143 0
 247 0078 0123     		movs	r3, #1
 248 007a 30E0     		b	.L10
 249              	.L15:
 147:.\ibuton.c    **** 	        IB2_Write(0); 
 250              		.loc 1 147 0
 251 007c 3046     		mov	r0, r6
 252 007e FFF7FEFF 		bl	IB2_Write
 253              	.LVL42:
 148:.\ibuton.c    **** 	        CyDelayUs(10);
 254              		.loc 1 148 0
 255 0082 2846     		mov	r0, r5
 256 0084 FFF7FEFF 		bl	CyDelayUs
 257              	.LVL43:
 149:.\ibuton.c    **** 	        if(((dato>>i)&1)){
 258              		.loc 1 149 0
 259 0088 48FA04F3 		asr	r3, r8, r4
 260 008c 13F0010F 		tst	r3, #1
 261 0090 0AD0     		beq	.L13
 262              		.loc 1 150 0
 263 0092 3846     		mov	r0, r7
 264 0094 FFF7FEFF 		bl	IB2_Write
 265              	.LVL44:
 151:.\ibuton.c    **** 	           CyDelayUs(10);
 266              		.loc 1 151 0
 267 0098 2846     		mov	r0, r5
 268 009a FFF7FEFF 		bl	CyDelayUs
 269              	.LVL45:
 152:.\ibuton.c    **** 	           if(!IB2_Read()){
 270              		.loc 1 152 0
 271 009e FFF7FEFF 		bl	IB2_Read
 272              	.LVL46:
 273 00a2 0346     		mov	r3, r0
 274 00a4 48B9     		cbnz	r0, .L14
 275 00a6 1AE0     		b	.L10
 276              	.L13:
 153:.\ibuton.c    **** 	                return 0;                
 154:.\ibuton.c    **** 	           }
 155:.\ibuton.c    **** 	        }
 156:.\ibuton.c    **** 	        else{
 157:.\ibuton.c    **** 	            IB2_Write(0); 
 277              		.loc 1 157 0
ARM GAS  C:\Users\RECEPC~1\AppData\Local\Temp\ccOztUEd.s 			page 9


 278 00a8 3046     		mov	r0, r6
 279 00aa FFF7FEFF 		bl	IB2_Write
 280              	.LVL47:
 158:.\ibuton.c    **** 	            CyDelayUs(10);
 281              		.loc 1 158 0
 282 00ae 2846     		mov	r0, r5
 283 00b0 FFF7FEFF 		bl	CyDelayUs
 284              	.LVL48:
 159:.\ibuton.c    **** 	           if(IB2_Read()){
 285              		.loc 1 159 0
 286 00b4 FFF7FEFF 		bl	IB2_Read
 287              	.LVL49:
 288 00b8 80B9     		cbnz	r0, .L18
 289              	.L14:
 160:.\ibuton.c    **** 	                return 0;                
 161:.\ibuton.c    **** 	           }            
 162:.\ibuton.c    **** 	        }
 163:.\ibuton.c    **** 	        CyDelayUs(50);
 290              		.loc 1 163 0
 291 00ba 3220     		movs	r0, #50
 292 00bc FFF7FEFF 		bl	CyDelayUs
 293              	.LVL50:
 164:.\ibuton.c    **** 	        IB2_Write(1);
 294              		.loc 1 164 0
 295 00c0 3846     		mov	r0, r7
 296 00c2 FFF7FEFF 		bl	IB2_Write
 297              	.LVL51:
 165:.\ibuton.c    **** 	        CyDelayUs(50);
 298              		.loc 1 165 0
 299 00c6 3220     		movs	r0, #50
 300 00c8 FFF7FEFF 		bl	CyDelayUs
 301              	.LVL52:
 146:.\ibuton.c    **** 	    for(i=0;i<=7;i++){
 302              		.loc 1 146 0
 303 00cc 0134     		adds	r4, r4, #1
 304              	.LVL53:
 305 00ce E4B2     		uxtb	r4, r4
 306              	.LVL54:
 307              	.L8:
 146:.\ibuton.c    **** 	    for(i=0;i<=7;i++){
 308              		.loc 1 146 0 is_stmt 0 discriminator 1
 309 00d0 072C     		cmp	r4, #7
 310 00d2 D3D9     		bls	.L15
 166:.\ibuton.c    **** 	    }
 167:.\ibuton.c    **** 	    return 1;	
 311              		.loc 1 167 0 is_stmt 1
 312 00d4 0123     		movs	r3, #1
 313 00d6 02E0     		b	.L10
 314              	.L17:
 136:.\ibuton.c    **** 	                return 0;                
 315              		.loc 1 136 0
 316 00d8 0023     		movs	r3, #0
 317 00da 00E0     		b	.L10
 318              	.L18:
 160:.\ibuton.c    **** 	                return 0;                
 319              		.loc 1 160 0
 320 00dc 0023     		movs	r3, #0
ARM GAS  C:\Users\RECEPC~1\AppData\Local\Temp\ccOztUEd.s 			page 10


 321              	.LVL55:
 322              	.L10:
 168:.\ibuton.c    **** 	}
 169:.\ibuton.c    **** }
 323              		.loc 1 169 0
 324 00de 1846     		mov	r0, r3
 325 00e0 BDE8F081 		pop	{r4, r5, r6, r7, r8, pc}
 326              		.cfi_endproc
 327              	.LFE64:
 328              		.size	touch_write, .-touch_write
 329              		.section	.text.touch_read_byte,"ax",%progbits
 330              		.align	2
 331              		.global	touch_read_byte
 332              		.thumb
 333              		.thumb_func
 334              		.type	touch_read_byte, %function
 335              	touch_read_byte:
 336              	.LFB65:
 170:.\ibuton.c    **** 
 171:.\ibuton.c    **** /*
 172:.\ibuton.c    **** ***************************************************************************************************
 173:.\ibuton.c    **** *                                   uint8 touch_read_byte(uint8 ibutton)
 174:.\ibuton.c    **** *
 175:.\ibuton.c    **** * Description : Lee un byte del ibutton, se usa para leer los bytes del serial
 176:.\ibuton.c    **** *               
 177:.\ibuton.c    **** *
 178:.\ibuton.c    **** * Argument(s) : uint8 ibutton = lado
 179:.\ibuton.c    **** *
 180:.\ibuton.c    **** * Return(s)   : 0 = no hubo lectura
 181:.\ibuton.c    **** 				!=0 dato leido
 182:.\ibuton.c    **** *
 183:.\ibuton.c    **** * Caller(s)   : 
 184:.\ibuton.c    **** *
 185:.\ibuton.c    **** * Note(s)     : none.
 186:.\ibuton.c    **** ***************************************************************************************************
 187:.\ibuton.c    **** */
 188:.\ibuton.c    **** 
 189:.\ibuton.c    **** uint8 touch_read_byte(uint8 ibutton){
 337              		.loc 1 189 0
 338              		.cfi_startproc
 339              		@ args = 0, pretend = 0, frame = 0
 340              		@ frame_needed = 0, uses_anonymous_args = 0
 341              	.LVL56:
 342 0000 2DE9F041 		push	{r4, r5, r6, r7, r8, lr}
 343              		.cfi_def_cfa_offset 24
 344              		.cfi_offset 4, -24
 345              		.cfi_offset 5, -20
 346              		.cfi_offset 6, -16
 347              		.cfi_offset 7, -12
 348              		.cfi_offset 8, -8
 349              		.cfi_offset 14, -4
 350              	.LVL57:
 190:.\ibuton.c    ****     uint8 i, dato=0;
 191:.\ibuton.c    **** 	if(ibutton==1){
 351              		.loc 1 191 0
 352 0004 0128     		cmp	r0, #1
 353 0006 1CD0     		beq	.L25
ARM GAS  C:\Users\RECEPC~1\AppData\Local\Temp\ccOztUEd.s 			page 11


 354 0008 0025     		movs	r5, #0
 355 000a 2C46     		mov	r4, r5
 192:.\ibuton.c    **** 	    for(i=0;i<=7;i++){
 193:.\ibuton.c    **** 	        IB1_Write(0);    
 194:.\ibuton.c    **** 	        CyDelayUs(14);
 195:.\ibuton.c    **** 	        IB1_Write(1);
 196:.\ibuton.c    **** 	        CyDelayUs(7);
 197:.\ibuton.c    **** 	        dato|=(IB1_Read()<<i);
 198:.\ibuton.c    **** 	        CyDelayUs(100);
 199:.\ibuton.c    **** 	    }
 200:.\ibuton.c    **** 	    return dato;
 201:.\ibuton.c    **** 	}
 202:.\ibuton.c    **** 	else{
 203:.\ibuton.c    **** 	    for(i=0;i<=7;i++){
 204:.\ibuton.c    **** 	        IB2_Write(0);    
 356              		.loc 1 204 0
 357 000c A846     		mov	r8, r5
 205:.\ibuton.c    **** 	        CyDelayUs(14);
 358              		.loc 1 205 0
 359 000e 0E27     		movs	r7, #14
 206:.\ibuton.c    **** 	        IB2_Write(1);
 360              		.loc 1 206 0
 361 0010 0126     		movs	r6, #1
 362 0012 34E0     		b	.L21
 363              	.LVL58:
 364              	.L22:
 193:.\ibuton.c    **** 	        IB1_Write(0);    
 365              		.loc 1 193 0 discriminator 2
 366 0014 4046     		mov	r0, r8
 367 0016 FFF7FEFF 		bl	IB1_Write
 368              	.LVL59:
 194:.\ibuton.c    **** 	        CyDelayUs(14);
 369              		.loc 1 194 0 discriminator 2
 370 001a 3846     		mov	r0, r7
 371 001c FFF7FEFF 		bl	CyDelayUs
 372              	.LVL60:
 195:.\ibuton.c    **** 	        IB1_Write(1);
 373              		.loc 1 195 0 discriminator 2
 374 0020 3046     		mov	r0, r6
 375 0022 FFF7FEFF 		bl	IB1_Write
 376              	.LVL61:
 196:.\ibuton.c    **** 	        CyDelayUs(7);
 377              		.loc 1 196 0 discriminator 2
 378 0026 0720     		movs	r0, #7
 379 0028 FFF7FEFF 		bl	CyDelayUs
 380              	.LVL62:
 197:.\ibuton.c    **** 	        dato|=(IB1_Read()<<i);
 381              		.loc 1 197 0 discriminator 2
 382 002c FFF7FEFF 		bl	IB1_Read
 383              	.LVL63:
 384 0030 A040     		lsls	r0, r0, r4
 385 0032 0543     		orrs	r5, r5, r0
 386              	.LVL64:
 387 0034 EDB2     		uxtb	r5, r5
 388              	.LVL65:
 198:.\ibuton.c    **** 	        CyDelayUs(100);
 389              		.loc 1 198 0 discriminator 2
ARM GAS  C:\Users\RECEPC~1\AppData\Local\Temp\ccOztUEd.s 			page 12


 390 0036 6420     		movs	r0, #100
 391 0038 FFF7FEFF 		bl	CyDelayUs
 392              	.LVL66:
 192:.\ibuton.c    **** 	    for(i=0;i<=7;i++){
 393              		.loc 1 192 0 discriminator 2
 394 003c 0134     		adds	r4, r4, #1
 395              	.LVL67:
 396 003e E4B2     		uxtb	r4, r4
 397              	.LVL68:
 398 0040 04E0     		b	.L20
 399              	.LVL69:
 400              	.L25:
 401 0042 0025     		movs	r5, #0
 402 0044 2C46     		mov	r4, r5
 193:.\ibuton.c    **** 	        IB1_Write(0);    
 403              		.loc 1 193 0
 404 0046 A846     		mov	r8, r5
 194:.\ibuton.c    **** 	        CyDelayUs(14);
 405              		.loc 1 194 0
 406 0048 0E27     		movs	r7, #14
 195:.\ibuton.c    **** 	        IB1_Write(1);
 407              		.loc 1 195 0
 408 004a 0126     		movs	r6, #1
 409              	.LVL70:
 410              	.L20:
 192:.\ibuton.c    **** 	    for(i=0;i<=7;i++){
 411              		.loc 1 192 0 discriminator 1
 412 004c 072C     		cmp	r4, #7
 413 004e E1D9     		bls	.L22
 414 0050 17E0     		b	.L23
 415              	.L24:
 204:.\ibuton.c    **** 	        IB2_Write(0);    
 416              		.loc 1 204 0 discriminator 2
 417 0052 4046     		mov	r0, r8
 418 0054 FFF7FEFF 		bl	IB2_Write
 419              	.LVL71:
 205:.\ibuton.c    **** 	        CyDelayUs(14);
 420              		.loc 1 205 0 discriminator 2
 421 0058 3846     		mov	r0, r7
 422 005a FFF7FEFF 		bl	CyDelayUs
 423              	.LVL72:
 424              		.loc 1 206 0 discriminator 2
 425 005e 3046     		mov	r0, r6
 426 0060 FFF7FEFF 		bl	IB2_Write
 427              	.LVL73:
 207:.\ibuton.c    **** 	        CyDelayUs(7);
 428              		.loc 1 207 0 discriminator 2
 429 0064 0720     		movs	r0, #7
 430 0066 FFF7FEFF 		bl	CyDelayUs
 431              	.LVL74:
 208:.\ibuton.c    **** 	        dato|=(IB2_Read()<<i);
 432              		.loc 1 208 0 discriminator 2
 433 006a FFF7FEFF 		bl	IB2_Read
 434              	.LVL75:
 435 006e A040     		lsls	r0, r0, r4
 436 0070 0543     		orrs	r5, r5, r0
 437              	.LVL76:
ARM GAS  C:\Users\RECEPC~1\AppData\Local\Temp\ccOztUEd.s 			page 13


 438 0072 EDB2     		uxtb	r5, r5
 439              	.LVL77:
 209:.\ibuton.c    **** 	        CyDelayUs(100);
 440              		.loc 1 209 0 discriminator 2
 441 0074 6420     		movs	r0, #100
 442 0076 FFF7FEFF 		bl	CyDelayUs
 443              	.LVL78:
 203:.\ibuton.c    **** 	    for(i=0;i<=7;i++){
 444              		.loc 1 203 0 discriminator 2
 445 007a 0134     		adds	r4, r4, #1
 446              	.LVL79:
 447 007c E4B2     		uxtb	r4, r4
 448              	.LVL80:
 449              	.L21:
 203:.\ibuton.c    **** 	    for(i=0;i<=7;i++){
 450              		.loc 1 203 0 is_stmt 0 discriminator 1
 451 007e 072C     		cmp	r4, #7
 452 0080 E7D9     		bls	.L24
 453              	.LVL81:
 454              	.L23:
 210:.\ibuton.c    **** 	    }
 211:.\ibuton.c    **** 	    return dato;	
 212:.\ibuton.c    **** 	}
 213:.\ibuton.c    **** } 
 455              		.loc 1 213 0 is_stmt 1
 456 0082 2846     		mov	r0, r5
 457 0084 BDE8F081 		pop	{r4, r5, r6, r7, r8, pc}
 458              		.cfi_endproc
 459              	.LFE65:
 460              		.size	touch_read_byte, .-touch_read_byte
 461              		.section	.text.touch_read_memoria,"ax",%progbits
 462              		.align	2
 463              		.global	touch_read_memoria
 464              		.thumb
 465              		.thumb_func
 466              		.type	touch_read_memoria, %function
 467              	touch_read_memoria:
 468              	.LFB66:
 214:.\ibuton.c    **** 
 215:.\ibuton.c    **** /*
 216:.\ibuton.c    **** ***************************************************************************************************
 217:.\ibuton.c    **** *                                uint8 touch_read_memoria(uint8 ibutton)
 218:.\ibuton.c    **** *
 219:.\ibuton.c    **** * Description : 
 220:.\ibuton.c    **** *               
 221:.\ibuton.c    **** *
 222:.\ibuton.c    **** * Argument(s) : none
 223:.\ibuton.c    **** *
 224:.\ibuton.c    **** * Return(s)   : none
 225:.\ibuton.c    **** *
 226:.\ibuton.c    **** * Caller(s)   : 
 227:.\ibuton.c    **** *
 228:.\ibuton.c    **** * Note(s)     : none.
 229:.\ibuton.c    **** ***************************************************************************************************
 230:.\ibuton.c    **** */
 231:.\ibuton.c    **** 
 232:.\ibuton.c    **** uint8 touch_read_memoria(uint8 ibutton, uint8 pos){
ARM GAS  C:\Users\RECEPC~1\AppData\Local\Temp\ccOztUEd.s 			page 14


 469              		.loc 1 232 0
 470              		.cfi_startproc
 471              		@ args = 0, pretend = 0, frame = 0
 472              		@ frame_needed = 0, uses_anonymous_args = 0
 473              	.LVL82:
 474 0000 F8B5     		push	{r3, r4, r5, r6, r7, lr}
 475              		.cfi_def_cfa_offset 24
 476              		.cfi_offset 3, -24
 477              		.cfi_offset 4, -20
 478              		.cfi_offset 5, -16
 479              		.cfi_offset 6, -12
 480              		.cfi_offset 7, -8
 481              		.cfi_offset 14, -4
 482 0002 0C46     		mov	r4, r1
 483              	.LVL83:
 233:.\ibuton.c    ****     uint8 i, check=0;
 234:.\ibuton.c    **** 	if(ibutton==1){
 484              		.loc 1 234 0
 485 0004 0128     		cmp	r0, #1
 486 0006 64D1     		bne	.L27
 235:.\ibuton.c    **** 		if(touch_present(1)==1){				
 487              		.loc 1 235 0
 488 0008 FFF7FEFF 		bl	touch_present
 489              	.LVL84:
 490 000c 0128     		cmp	r0, #1
 491 000e 40F0C480 		bne	.L43
 236:.\ibuton.c    **** 			CyDelay(200);
 492              		.loc 1 236 0
 493 0012 C820     		movs	r0, #200
 494 0014 FFF7FEFF 		bl	CyDelay
 495              	.LVL85:
 237:.\ibuton.c    **** 			if(touch_present(1)==1){
 496              		.loc 1 237 0
 497 0018 0120     		movs	r0, #1
 498 001a FFF7FEFF 		bl	touch_present
 499              	.LVL86:
 500 001e 0128     		cmp	r0, #1
 501 0020 40F0BD80 		bne	.L44
 238:.\ibuton.c    **** 				CyDelay(200);
 502              		.loc 1 238 0
 503 0024 C820     		movs	r0, #200
 504 0026 FFF7FEFF 		bl	CyDelay
 505              	.LVL87:
 239:.\ibuton.c    **** 				touch_write(1,0xCC);
 506              		.loc 1 239 0
 507 002a 0120     		movs	r0, #1
 508 002c CC21     		movs	r1, #204
 509 002e FFF7FEFF 		bl	touch_write
 510              	.LVL88:
 240:.\ibuton.c    **** 				touch_write(1,0xF0);	
 511              		.loc 1 240 0
 512 0032 0120     		movs	r0, #1
 513 0034 F021     		movs	r1, #240
 514 0036 FFF7FEFF 		bl	touch_write
 515              	.LVL89:
 241:.\ibuton.c    **** 				touch_write(1,pos);
 516              		.loc 1 241 0
ARM GAS  C:\Users\RECEPC~1\AppData\Local\Temp\ccOztUEd.s 			page 15


 517 003a 0120     		movs	r0, #1
 518 003c 2146     		mov	r1, r4
 519 003e FFF7FEFF 		bl	touch_write
 520              	.LVL90:
 242:.\ibuton.c    **** 				touch_write(1,0x00);
 521              		.loc 1 242 0
 522 0042 0120     		movs	r0, #1
 523 0044 0021     		movs	r1, #0
 524 0046 FFF7FEFF 		bl	touch_write
 525              	.LVL91:
 243:.\ibuton.c    **** 				if(pos==1){
 526              		.loc 1 243 0
 527 004a 012C     		cmp	r4, #1
 528 004c 20D1     		bne	.L29
 244:.\ibuton.c    **** 	                Buffer_LCD1.placa[0]=touch_read_byte(1);
 529              		.loc 1 244 0
 530 004e 0120     		movs	r0, #1
 531 0050 FFF7FEFF 		bl	touch_read_byte
 532              	.LVL92:
 533 0054 554B     		ldr	r3, .L51
 534 0056 83F86500 		strb	r0, [r3, #101]
 245:.\ibuton.c    **** 					if((Buffer_LCD1.placa[0]!=0xFF)&&(Buffer_LCD1.placa[0]<=30)){
 535              		.loc 1 245 0
 536 005a 1E28     		cmp	r0, #30
 537 005c 0ED9     		bls	.L45
 246:.\ibuton.c    **** 						check++;
 247:.\ibuton.c    **** 					}	
 248:.\ibuton.c    **** 					else{
 249:.\ibuton.c    **** 						return 0;
 538              		.loc 1 249 0
 539 005e 0020     		movs	r0, #0
 540 0060 F8BD     		pop	{r3, r4, r5, r6, r7, pc}
 541              	.LVL93:
 542              	.L32:
 250:.\ibuton.c    **** 					}
 251:.\ibuton.c    **** 					for(i=1;i<=Buffer_LCD1.placa[0];i++){
 252:.\ibuton.c    **** 		                Buffer_LCD1.placa[i]=touch_read_byte(1);
 543              		.loc 1 252 0
 544 0062 3846     		mov	r0, r7
 545 0064 FFF7FEFF 		bl	touch_read_byte
 546              	.LVL94:
 547 0068 2B19     		adds	r3, r5, r4
 548 006a 83F86500 		strb	r0, [r3, #101]
 253:.\ibuton.c    **** 						if(Buffer_LCD1.placa[i]!=0xFF){
 549              		.loc 1 253 0
 550 006e FF28     		cmp	r0, #255
 551 0070 01D0     		beq	.L31
 254:.\ibuton.c    **** 							check++;
 552              		.loc 1 254 0
 553 0072 0136     		adds	r6, r6, #1
 554              	.LVL95:
 555 0074 F6B2     		uxtb	r6, r6
 556              	.LVL96:
 557              	.L31:
 251:.\ibuton.c    **** 					for(i=1;i<=Buffer_LCD1.placa[0];i++){
 558              		.loc 1 251 0
 559 0076 0134     		adds	r4, r4, #1
ARM GAS  C:\Users\RECEPC~1\AppData\Local\Temp\ccOztUEd.s 			page 16


 560              	.LVL97:
 561 0078 E4B2     		uxtb	r4, r4
 562              	.LVL98:
 563 007a 03E0     		b	.L30
 564              	.LVL99:
 565              	.L45:
 566 007c 0126     		movs	r6, #1
 567 007e 3446     		mov	r4, r6
 568 0080 4A4D     		ldr	r5, .L51
 252:.\ibuton.c    **** 		                Buffer_LCD1.placa[i]=touch_read_byte(1);
 569              		.loc 1 252 0
 570 0082 3746     		mov	r7, r6
 571              	.LVL100:
 572              	.L30:
 251:.\ibuton.c    **** 					for(i=1;i<=Buffer_LCD1.placa[0];i++){
 573              		.loc 1 251 0 discriminator 1
 574 0084 95F86530 		ldrb	r3, [r5, #101]	@ zero_extendqisi2
 575 0088 A342     		cmp	r3, r4
 576 008a EAD2     		bcs	.L32
 255:.\ibuton.c    **** 						}
 256:.\ibuton.c    **** 					}
 257:.\ibuton.c    **** 					return check;
 577              		.loc 1 257 0
 578 008c 3046     		mov	r0, r6
 579 008e F8BD     		pop	{r3, r4, r5, r6, r7, pc}
 580              	.LVL101:
 581              	.L29:
 258:.\ibuton.c    **** 				}
 259:.\ibuton.c    **** 				else{
 260:.\ibuton.c    **** 	                Buffer_LCD1.cuenta[0]=touch_read_byte(1);
 582              		.loc 1 260 0
 583 0090 0120     		movs	r0, #1
 584 0092 FFF7FEFF 		bl	touch_read_byte
 585              	.LVL102:
 586 0096 454B     		ldr	r3, .L51
 587 0098 83F84700 		strb	r0, [r3, #71]
 261:.\ibuton.c    **** 					if((Buffer_LCD1.cuenta[0]!=0xFF)&&(Buffer_LCD1.cuenta[0]<=30)){
 588              		.loc 1 261 0
 589 009c 1E28     		cmp	r0, #30
 590 009e 0ED9     		bls	.L46
 262:.\ibuton.c    **** 						check++;
 263:.\ibuton.c    **** 					}
 264:.\ibuton.c    **** 					else{
 265:.\ibuton.c    **** 						return 0;
 591              		.loc 1 265 0
 592 00a0 0020     		movs	r0, #0
 593 00a2 F8BD     		pop	{r3, r4, r5, r6, r7, pc}
 594              	.LVL103:
 595              	.L35:
 266:.\ibuton.c    **** 					}
 267:.\ibuton.c    **** 					for(i=1;i<=Buffer_LCD1.cuenta[0];i++){
 268:.\ibuton.c    **** 		                Buffer_LCD1.cuenta[i]=touch_read_byte(1);
 596              		.loc 1 268 0
 597 00a4 3846     		mov	r0, r7
 598 00a6 FFF7FEFF 		bl	touch_read_byte
 599              	.LVL104:
 600 00aa 2B19     		adds	r3, r5, r4
ARM GAS  C:\Users\RECEPC~1\AppData\Local\Temp\ccOztUEd.s 			page 17


 601 00ac 83F84700 		strb	r0, [r3, #71]
 269:.\ibuton.c    **** 						if(Buffer_LCD1.cuenta[i]!=0xFF){
 602              		.loc 1 269 0
 603 00b0 FF28     		cmp	r0, #255
 604 00b2 01D0     		beq	.L34
 270:.\ibuton.c    **** 							check++;
 605              		.loc 1 270 0
 606 00b4 0136     		adds	r6, r6, #1
 607              	.LVL105:
 608 00b6 F6B2     		uxtb	r6, r6
 609              	.LVL106:
 610              	.L34:
 267:.\ibuton.c    **** 					for(i=1;i<=Buffer_LCD1.cuenta[0];i++){
 611              		.loc 1 267 0
 612 00b8 0134     		adds	r4, r4, #1
 613              	.LVL107:
 614 00ba E4B2     		uxtb	r4, r4
 615              	.LVL108:
 616 00bc 03E0     		b	.L33
 617              	.LVL109:
 618              	.L46:
 619 00be 0126     		movs	r6, #1
 620 00c0 3446     		mov	r4, r6
 621 00c2 3A4D     		ldr	r5, .L51
 268:.\ibuton.c    **** 		                Buffer_LCD1.cuenta[i]=touch_read_byte(1);
 622              		.loc 1 268 0
 623 00c4 3746     		mov	r7, r6
 624              	.LVL110:
 625              	.L33:
 267:.\ibuton.c    **** 					for(i=1;i<=Buffer_LCD1.cuenta[0];i++){
 626              		.loc 1 267 0 discriminator 1
 627 00c6 95F84730 		ldrb	r3, [r5, #71]	@ zero_extendqisi2
 628 00ca A342     		cmp	r3, r4
 629 00cc EAD2     		bcs	.L35
 271:.\ibuton.c    **** 						}
 272:.\ibuton.c    **** 					}
 273:.\ibuton.c    **** 					return check;				
 630              		.loc 1 273 0
 631 00ce 3046     		mov	r0, r6
 632 00d0 F8BD     		pop	{r3, r4, r5, r6, r7, pc}
 633              	.LVL111:
 634              	.L27:
 274:.\ibuton.c    **** 				}
 275:.\ibuton.c    **** 			}
 276:.\ibuton.c    **** 			else{
 277:.\ibuton.c    **** 				return check;
 278:.\ibuton.c    **** 			}
 279:.\ibuton.c    **** 		}
 280:.\ibuton.c    **** 		else{
 281:.\ibuton.c    **** 			return check;	
 282:.\ibuton.c    **** 		}
 283:.\ibuton.c    **** 	}
 284:.\ibuton.c    **** 	else{
 285:.\ibuton.c    **** 		if(touch_present(2)==1){				
 635              		.loc 1 285 0
 636 00d2 0220     		movs	r0, #2
 637              	.LVL112:
ARM GAS  C:\Users\RECEPC~1\AppData\Local\Temp\ccOztUEd.s 			page 18


 638 00d4 FFF7FEFF 		bl	touch_present
 639              	.LVL113:
 640 00d8 0128     		cmp	r0, #1
 641 00da 62D1     		bne	.L47
 286:.\ibuton.c    **** 			CyDelay(200);
 642              		.loc 1 286 0
 643 00dc C820     		movs	r0, #200
 644 00de FFF7FEFF 		bl	CyDelay
 645              	.LVL114:
 287:.\ibuton.c    **** 			if(touch_present(2)==1){
 646              		.loc 1 287 0
 647 00e2 0220     		movs	r0, #2
 648 00e4 FFF7FEFF 		bl	touch_present
 649              	.LVL115:
 650 00e8 0128     		cmp	r0, #1
 651 00ea 5CD1     		bne	.L48
 288:.\ibuton.c    **** 				CyDelay(200);
 652              		.loc 1 288 0
 653 00ec C820     		movs	r0, #200
 654 00ee FFF7FEFF 		bl	CyDelay
 655              	.LVL116:
 289:.\ibuton.c    **** 				touch_write(2,0xCC);
 656              		.loc 1 289 0
 657 00f2 0220     		movs	r0, #2
 658 00f4 CC21     		movs	r1, #204
 659 00f6 FFF7FEFF 		bl	touch_write
 660              	.LVL117:
 290:.\ibuton.c    **** 				touch_write(2,0xF0);	
 661              		.loc 1 290 0
 662 00fa 0220     		movs	r0, #2
 663 00fc F021     		movs	r1, #240
 664 00fe FFF7FEFF 		bl	touch_write
 665              	.LVL118:
 291:.\ibuton.c    **** 				touch_write(2,pos);
 666              		.loc 1 291 0
 667 0102 0220     		movs	r0, #2
 668 0104 2146     		mov	r1, r4
 669 0106 FFF7FEFF 		bl	touch_write
 670              	.LVL119:
 292:.\ibuton.c    **** 				touch_write(2,0x00);
 671              		.loc 1 292 0
 672 010a 0220     		movs	r0, #2
 673 010c 0021     		movs	r1, #0
 674 010e FFF7FEFF 		bl	touch_write
 675              	.LVL120:
 293:.\ibuton.c    **** 				if(pos==1){
 676              		.loc 1 293 0
 677 0112 012C     		cmp	r4, #1
 678 0114 20D1     		bne	.L36
 294:.\ibuton.c    **** 	                Buffer_LCD2.placa[0]=touch_read_byte(2);
 679              		.loc 1 294 0
 680 0116 0220     		movs	r0, #2
 681 0118 FFF7FEFF 		bl	touch_read_byte
 682              	.LVL121:
 683 011c 244B     		ldr	r3, .L51+4
 684 011e 83F86500 		strb	r0, [r3, #101]
 295:.\ibuton.c    **** 					if((Buffer_LCD2.placa[0]!=0xFF)&&(Buffer_LCD2.placa[0]<=30)){
ARM GAS  C:\Users\RECEPC~1\AppData\Local\Temp\ccOztUEd.s 			page 19


 685              		.loc 1 295 0
 686 0122 1E28     		cmp	r0, #30
 687 0124 0ED9     		bls	.L49
 296:.\ibuton.c    **** 						check++;
 297:.\ibuton.c    **** 					}
 298:.\ibuton.c    **** 					else{
 299:.\ibuton.c    **** 						return 0;
 688              		.loc 1 299 0
 689 0126 0020     		movs	r0, #0
 690 0128 F8BD     		pop	{r3, r4, r5, r6, r7, pc}
 691              	.LVL122:
 692              	.L39:
 300:.\ibuton.c    **** 					}
 301:.\ibuton.c    **** 					for(i=1;i<=Buffer_LCD2.placa[0];i++){
 302:.\ibuton.c    **** 		                Buffer_LCD2.placa[i]=touch_read_byte(2);
 693              		.loc 1 302 0
 694 012a 3846     		mov	r0, r7
 695 012c FFF7FEFF 		bl	touch_read_byte
 696              	.LVL123:
 697 0130 2B19     		adds	r3, r5, r4
 698 0132 83F86500 		strb	r0, [r3, #101]
 303:.\ibuton.c    **** 						if(Buffer_LCD2.placa[i]!=0xFF){
 699              		.loc 1 303 0
 700 0136 FF28     		cmp	r0, #255
 701 0138 01D0     		beq	.L38
 304:.\ibuton.c    **** 							check++;
 702              		.loc 1 304 0
 703 013a 0136     		adds	r6, r6, #1
 704              	.LVL124:
 705 013c F6B2     		uxtb	r6, r6
 706              	.LVL125:
 707              	.L38:
 301:.\ibuton.c    **** 					for(i=1;i<=Buffer_LCD2.placa[0];i++){
 708              		.loc 1 301 0
 709 013e 0134     		adds	r4, r4, #1
 710              	.LVL126:
 711 0140 E4B2     		uxtb	r4, r4
 712              	.LVL127:
 713 0142 03E0     		b	.L37
 714              	.LVL128:
 715              	.L49:
 716 0144 0126     		movs	r6, #1
 717 0146 3446     		mov	r4, r6
 718 0148 194D     		ldr	r5, .L51+4
 302:.\ibuton.c    **** 		                Buffer_LCD2.placa[i]=touch_read_byte(2);
 719              		.loc 1 302 0
 720 014a 0227     		movs	r7, #2
 721              	.LVL129:
 722              	.L37:
 301:.\ibuton.c    **** 					for(i=1;i<=Buffer_LCD2.placa[0];i++){
 723              		.loc 1 301 0 discriminator 1
 724 014c 95F86530 		ldrb	r3, [r5, #101]	@ zero_extendqisi2
 725 0150 A342     		cmp	r3, r4
 726 0152 EAD2     		bcs	.L39
 305:.\ibuton.c    **** 						}
 306:.\ibuton.c    **** 					}
 307:.\ibuton.c    **** 					return check;
ARM GAS  C:\Users\RECEPC~1\AppData\Local\Temp\ccOztUEd.s 			page 20


 727              		.loc 1 307 0
 728 0154 3046     		mov	r0, r6
 729 0156 F8BD     		pop	{r3, r4, r5, r6, r7, pc}
 730              	.LVL130:
 731              	.L36:
 308:.\ibuton.c    **** 				}
 309:.\ibuton.c    **** 				else{
 310:.\ibuton.c    **** 	                Buffer_LCD2.cuenta[0]=touch_read_byte(2);
 732              		.loc 1 310 0
 733 0158 0220     		movs	r0, #2
 734 015a FFF7FEFF 		bl	touch_read_byte
 735              	.LVL131:
 736 015e 144B     		ldr	r3, .L51+4
 737 0160 83F84700 		strb	r0, [r3, #71]
 311:.\ibuton.c    **** 					if((Buffer_LCD2.cuenta[0]!=0xFF)&&(Buffer_LCD2.cuenta[0]<=30)){
 738              		.loc 1 311 0
 739 0164 1E28     		cmp	r0, #30
 740 0166 0ED9     		bls	.L50
 312:.\ibuton.c    **** 						check++;
 313:.\ibuton.c    **** 					}
 314:.\ibuton.c    **** 					else{
 315:.\ibuton.c    **** 						return 0;
 741              		.loc 1 315 0
 742 0168 0020     		movs	r0, #0
 743 016a F8BD     		pop	{r3, r4, r5, r6, r7, pc}
 744              	.LVL132:
 745              	.L42:
 316:.\ibuton.c    **** 					}
 317:.\ibuton.c    **** 					for(i=1;i<=Buffer_LCD2.cuenta[0];i++){
 318:.\ibuton.c    **** 		                Buffer_LCD2.cuenta[i]=touch_read_byte(2);
 746              		.loc 1 318 0
 747 016c 3846     		mov	r0, r7
 748 016e FFF7FEFF 		bl	touch_read_byte
 749              	.LVL133:
 750 0172 2B19     		adds	r3, r5, r4
 751 0174 83F84700 		strb	r0, [r3, #71]
 319:.\ibuton.c    **** 						if(Buffer_LCD2.cuenta[i]!=0xFF){
 752              		.loc 1 319 0
 753 0178 FF28     		cmp	r0, #255
 754 017a 01D0     		beq	.L41
 320:.\ibuton.c    **** 							check++;
 755              		.loc 1 320 0
 756 017c 0136     		adds	r6, r6, #1
 757              	.LVL134:
 758 017e F6B2     		uxtb	r6, r6
 759              	.LVL135:
 760              	.L41:
 317:.\ibuton.c    **** 					for(i=1;i<=Buffer_LCD2.cuenta[0];i++){
 761              		.loc 1 317 0
 762 0180 0134     		adds	r4, r4, #1
 763              	.LVL136:
 764 0182 E4B2     		uxtb	r4, r4
 765              	.LVL137:
 766 0184 03E0     		b	.L40
 767              	.LVL138:
 768              	.L50:
 769 0186 0126     		movs	r6, #1
ARM GAS  C:\Users\RECEPC~1\AppData\Local\Temp\ccOztUEd.s 			page 21


 770 0188 3446     		mov	r4, r6
 771 018a 094D     		ldr	r5, .L51+4
 318:.\ibuton.c    **** 		                Buffer_LCD2.cuenta[i]=touch_read_byte(2);
 772              		.loc 1 318 0
 773 018c 0227     		movs	r7, #2
 774              	.LVL139:
 775              	.L40:
 317:.\ibuton.c    **** 					for(i=1;i<=Buffer_LCD2.cuenta[0];i++){
 776              		.loc 1 317 0 discriminator 1
 777 018e 95F84730 		ldrb	r3, [r5, #71]	@ zero_extendqisi2
 778 0192 A342     		cmp	r3, r4
 779 0194 EAD2     		bcs	.L42
 321:.\ibuton.c    **** 						}
 322:.\ibuton.c    **** 					}
 323:.\ibuton.c    **** 					return check;				
 780              		.loc 1 323 0
 781 0196 3046     		mov	r0, r6
 782 0198 F8BD     		pop	{r3, r4, r5, r6, r7, pc}
 783              	.LVL140:
 784              	.L43:
 281:.\ibuton.c    **** 			return check;	
 785              		.loc 1 281 0
 786 019a 0020     		movs	r0, #0
 787 019c F8BD     		pop	{r3, r4, r5, r6, r7, pc}
 788              	.L44:
 277:.\ibuton.c    **** 				return check;
 789              		.loc 1 277 0
 790 019e 0020     		movs	r0, #0
 791 01a0 F8BD     		pop	{r3, r4, r5, r6, r7, pc}
 792              	.L47:
 324:.\ibuton.c    **** 				}
 325:.\ibuton.c    **** 			}
 326:.\ibuton.c    **** 			else{
 327:.\ibuton.c    **** 				return check;
 328:.\ibuton.c    **** 			}
 329:.\ibuton.c    **** 		}
 330:.\ibuton.c    **** 		else{
 331:.\ibuton.c    **** 			return check;	
 793              		.loc 1 331 0
 794 01a2 0020     		movs	r0, #0
 795 01a4 F8BD     		pop	{r3, r4, r5, r6, r7, pc}
 796              	.L48:
 327:.\ibuton.c    **** 				return check;
 797              		.loc 1 327 0
 798 01a6 0020     		movs	r0, #0
 332:.\ibuton.c    **** 		}	
 333:.\ibuton.c    **** 	}
 334:.\ibuton.c    **** }
 799              		.loc 1 334 0
 800 01a8 F8BD     		pop	{r3, r4, r5, r6, r7, pc}
 801              	.L52:
 802 01aa 00BF     		.align	2
 803              	.L51:
 804 01ac 00000000 		.word	Buffer_LCD1
 805 01b0 00000000 		.word	Buffer_LCD2
 806              		.cfi_endproc
 807              	.LFE66:
ARM GAS  C:\Users\RECEPC~1\AppData\Local\Temp\ccOztUEd.s 			page 22


 808              		.size	touch_read_memoria, .-touch_read_memoria
 809              		.section	.text.touch_write_memoria,"ax",%progbits
 810              		.align	2
 811              		.global	touch_write_memoria
 812              		.thumb
 813              		.thumb_func
 814              		.type	touch_write_memoria, %function
 815              	touch_write_memoria:
 816              	.LFB67:
 335:.\ibuton.c    **** 
 336:.\ibuton.c    **** /*
 337:.\ibuton.c    **** ***************************************************************************************************
 338:.\ibuton.c    **** *          uint8 touch_write_memoria(uint8 ibutton, uint8 cantidad, uint8 pos, uint8 *valor)
 339:.\ibuton.c    **** *
 340:.\ibuton.c    **** * Description : 
 341:.\ibuton.c    **** *               
 342:.\ibuton.c    **** *
 343:.\ibuton.c    **** * Argument(s) : none
 344:.\ibuton.c    **** *
 345:.\ibuton.c    **** * Return(s)   : none
 346:.\ibuton.c    **** *
 347:.\ibuton.c    **** * Caller(s)   : 
 348:.\ibuton.c    **** *
 349:.\ibuton.c    **** * Note(s)     : none.
 350:.\ibuton.c    **** ***************************************************************************************************
 351:.\ibuton.c    **** */
 352:.\ibuton.c    **** 
 353:.\ibuton.c    **** uint8 touch_write_memoria(uint8 ibutton, uint8 cantidad, uint8 pos, uint8 *valor){
 817              		.loc 1 353 0
 818              		.cfi_startproc
 819              		@ args = 0, pretend = 0, frame = 0
 820              		@ frame_needed = 0, uses_anonymous_args = 0
 821              	.LVL141:
 822 0000 2DE9F84F 		push	{r3, r4, r5, r6, r7, r8, r9, r10, fp, lr}
 823              		.cfi_def_cfa_offset 40
 824              		.cfi_offset 3, -40
 825              		.cfi_offset 4, -36
 826              		.cfi_offset 5, -32
 827              		.cfi_offset 6, -28
 828              		.cfi_offset 7, -24
 829              		.cfi_offset 8, -20
 830              		.cfi_offset 9, -16
 831              		.cfi_offset 10, -12
 832              		.cfi_offset 11, -8
 833              		.cfi_offset 14, -4
 834 0004 0D46     		mov	r5, r1
 835 0006 9046     		mov	r8, r2
 836 0008 1E46     		mov	r6, r3
 837              	.LVL142:
 354:.\ibuton.c    **** 	uint8 i,check=0;
 355:.\ibuton.c    **** 	if(ibutton==1){
 838              		.loc 1 355 0
 839 000a 0128     		cmp	r0, #1
 840 000c 40F0B680 		bne	.L54
 356:.\ibuton.c    **** 		if(touch_present(1)==1){
 841              		.loc 1 356 0
 842 0010 FFF7FEFF 		bl	touch_present
ARM GAS  C:\Users\RECEPC~1\AppData\Local\Temp\ccOztUEd.s 			page 23


 843              	.LVL143:
 844 0014 0128     		cmp	r0, #1
 845 0016 40F06581 		bne	.L70
 357:.\ibuton.c    **** 			CyDelay(200);
 846              		.loc 1 357 0
 847 001a C820     		movs	r0, #200
 848 001c FFF7FEFF 		bl	CyDelay
 849              	.LVL144:
 358:.\ibuton.c    **** 	        touch_write(1,0xCC);
 850              		.loc 1 358 0
 851 0020 0120     		movs	r0, #1
 852 0022 CC21     		movs	r1, #204
 853 0024 FFF7FEFF 		bl	touch_write
 854              	.LVL145:
 359:.\ibuton.c    **** 			touch_write(1,0x0F);
 855              		.loc 1 359 0
 856 0028 0120     		movs	r0, #1
 857 002a 0F21     		movs	r1, #15
 858 002c FFF7FEFF 		bl	touch_write
 859              	.LVL146:
 360:.\ibuton.c    **** 			touch_write(1,pos);
 860              		.loc 1 360 0
 861 0030 0120     		movs	r0, #1
 862 0032 4146     		mov	r1, r8
 863 0034 FFF7FEFF 		bl	touch_write
 864              	.LVL147:
 361:.\ibuton.c    **** 			touch_write(1,0x00);
 865              		.loc 1 361 0
 866 0038 0120     		movs	r0, #1
 867 003a 0021     		movs	r1, #0
 868 003c FFF7FEFF 		bl	touch_write
 869              	.LVL148:
 362:.\ibuton.c    **** 			for(i=0;i<=cantidad;i++){
 870              		.loc 1 362 0
 871 0040 0024     		movs	r4, #0
 363:.\ibuton.c    **** 				touch_write(1,valor[i]);
 872              		.loc 1 363 0
 873 0042 0127     		movs	r7, #1
 362:.\ibuton.c    **** 			for(i=0;i<=cantidad;i++){
 874              		.loc 1 362 0
 875 0044 05E0     		b	.L56
 876              	.LVL149:
 877              	.L57:
 878              		.loc 1 363 0 discriminator 2
 879 0046 3846     		mov	r0, r7
 880 0048 315D     		ldrb	r1, [r6, r4]	@ zero_extendqisi2
 881 004a FFF7FEFF 		bl	touch_write
 882              	.LVL150:
 362:.\ibuton.c    **** 			for(i=0;i<=cantidad;i++){
 883              		.loc 1 362 0 discriminator 2
 884 004e 0134     		adds	r4, r4, #1
 885              	.LVL151:
 886 0050 E4B2     		uxtb	r4, r4
 887              	.LVL152:
 888              	.L56:
 362:.\ibuton.c    **** 			for(i=0;i<=cantidad;i++){
 889              		.loc 1 362 0 is_stmt 0 discriminator 1
ARM GAS  C:\Users\RECEPC~1\AppData\Local\Temp\ccOztUEd.s 			page 24


 890 0052 AC42     		cmp	r4, r5
 891 0054 F7D9     		bls	.L57
 364:.\ibuton.c    **** 			}
 365:.\ibuton.c    **** 			CyDelay(750);
 892              		.loc 1 365 0 is_stmt 1
 893 0056 40F2EE20 		movw	r0, #750
 894 005a FFF7FEFF 		bl	CyDelay
 895              	.LVL153:
 366:.\ibuton.c    **** 			if(touch_present(1)==1){
 896              		.loc 1 366 0
 897 005e 0120     		movs	r0, #1
 898 0060 FFF7FEFF 		bl	touch_present
 899              	.LVL154:
 900 0064 0128     		cmp	r0, #1
 901 0066 40F03F81 		bne	.L71
 367:.\ibuton.c    **** 				CyDelay(200);
 902              		.loc 1 367 0
 903 006a C820     		movs	r0, #200
 904 006c FFF7FEFF 		bl	CyDelay
 905              	.LVL155:
 368:.\ibuton.c    **** 				touch_write(1,0xCC);
 906              		.loc 1 368 0
 907 0070 0120     		movs	r0, #1
 908 0072 CC21     		movs	r1, #204
 909 0074 FFF7FEFF 		bl	touch_write
 910              	.LVL156:
 369:.\ibuton.c    **** 				touch_write(1,0xAA);	
 911              		.loc 1 369 0
 912 0078 0120     		movs	r0, #1
 913 007a AA21     		movs	r1, #170
 914 007c FFF7FEFF 		bl	touch_write
 915              	.LVL157:
 370:.\ibuton.c    **** 				for(x=0;x<=cantidad+2;x++){
 916              		.loc 1 370 0
 917 0080 0022     		movs	r2, #0
 918 0082 A34B     		ldr	r3, .L80
 919 0084 1A60     		str	r2, [r3]
 920 0086 2F46     		mov	r7, r5
 921 0088 1C46     		mov	r4, r3
 922              	.LVL158:
 371:.\ibuton.c    **** 	                Buffer_LCD1.id[x]=touch_read_byte(1);
 923              		.loc 1 371 0
 924 008a DFF888A2 		ldr	r10, .L80+4
 370:.\ibuton.c    **** 				for(x=0;x<=cantidad+2;x++){
 925              		.loc 1 370 0
 926 008e 08E0     		b	.L58
 927              	.LVL159:
 928              	.L59:
 929              		.loc 1 371 0 discriminator 2
 930 0090 0120     		movs	r0, #1
 931 0092 FFF7FEFF 		bl	touch_read_byte
 932              	.LVL160:
 933 0096 5644     		add	r6, r6, r10
 934 0098 86F82900 		strb	r0, [r6, #41]
 370:.\ibuton.c    **** 				for(x=0;x<=cantidad+2;x++){
 935              		.loc 1 370 0 discriminator 2
 936 009c 2368     		ldr	r3, [r4]
ARM GAS  C:\Users\RECEPC~1\AppData\Local\Temp\ccOztUEd.s 			page 25


 937 009e 0133     		adds	r3, r3, #1
 938 00a0 2360     		str	r3, [r4]
 939              	.L58:
 370:.\ibuton.c    **** 				for(x=0;x<=cantidad+2;x++){
 940              		.loc 1 370 0 is_stmt 0 discriminator 1
 941 00a2 B946     		mov	r9, r7
 942 00a4 AB1C     		adds	r3, r5, #2
 943 00a6 2668     		ldr	r6, [r4]
 944 00a8 B342     		cmp	r3, r6
 945 00aa F1D2     		bcs	.L59
 372:.\ibuton.c    **** 				}
 373:.\ibuton.c    **** 				CyDelay(750);
 946              		.loc 1 373 0 is_stmt 1
 947 00ac 40F2EE20 		movw	r0, #750
 948 00b0 FFF7FEFF 		bl	CyDelay
 949              	.LVL161:
 374:.\ibuton.c    **** 				if(touch_present(1)==1){
 950              		.loc 1 374 0
 951 00b4 0120     		movs	r0, #1
 952 00b6 FFF7FEFF 		bl	touch_present
 953              	.LVL162:
 954 00ba 0128     		cmp	r0, #1
 955 00bc 40F01681 		bne	.L72
 375:.\ibuton.c    **** 					CyDelay(200);
 956              		.loc 1 375 0
 957 00c0 C820     		movs	r0, #200
 958 00c2 FFF7FEFF 		bl	CyDelay
 959              	.LVL163:
 376:.\ibuton.c    **** 					touch_write(1,0xCC);
 960              		.loc 1 376 0
 961 00c6 0120     		movs	r0, #1
 962 00c8 CC21     		movs	r1, #204
 963 00ca FFF7FEFF 		bl	touch_write
 964              	.LVL164:
 377:.\ibuton.c    **** 					touch_write(1,0x55);	
 965              		.loc 1 377 0
 966 00ce 0120     		movs	r0, #1
 967 00d0 5521     		movs	r1, #85
 968 00d2 FFF7FEFF 		bl	touch_write
 969              	.LVL165:
 378:.\ibuton.c    **** 					touch_write(1,pos);
 970              		.loc 1 378 0
 971 00d6 0120     		movs	r0, #1
 972 00d8 4146     		mov	r1, r8
 973 00da FFF7FEFF 		bl	touch_write
 974              	.LVL166:
 379:.\ibuton.c    **** 					touch_write(1,0x00);
 975              		.loc 1 379 0
 976 00de 0120     		movs	r0, #1
 977 00e0 0021     		movs	r1, #0
 978 00e2 FFF7FEFF 		bl	touch_write
 979              	.LVL167:
 380:.\ibuton.c    **** 					touch_write(1,Buffer_LCD1.id[2]);					
 980              		.loc 1 380 0
 981 00e6 0120     		movs	r0, #1
 982 00e8 8A4B     		ldr	r3, .L80+4
 983 00ea 93F82B10 		ldrb	r1, [r3, #43]	@ zero_extendqisi2
ARM GAS  C:\Users\RECEPC~1\AppData\Local\Temp\ccOztUEd.s 			page 26


 984 00ee FFF7FEFF 		bl	touch_write
 985              	.LVL168:
 381:.\ibuton.c    **** 					CyDelay(750);
 986              		.loc 1 381 0
 987 00f2 40F2EE20 		movw	r0, #750
 988 00f6 FFF7FEFF 		bl	CyDelay
 989              	.LVL169:
 382:.\ibuton.c    **** 					if(touch_present(1)==1){
 990              		.loc 1 382 0
 991 00fa 0120     		movs	r0, #1
 992 00fc FFF7FEFF 		bl	touch_present
 993              	.LVL170:
 994 0100 0446     		mov	r4, r0
 995 0102 0128     		cmp	r0, #1
 996 0104 40F0F480 		bne	.L73
 383:.\ibuton.c    **** 						CyDelay(200);
 997              		.loc 1 383 0
 998 0108 C820     		movs	r0, #200
 999 010a FFF7FEFF 		bl	CyDelay
 1000              	.LVL171:
 384:.\ibuton.c    **** 						touch_write(1,0xCC);
 1001              		.loc 1 384 0
 1002 010e 0120     		movs	r0, #1
 1003 0110 CC21     		movs	r1, #204
 1004 0112 FFF7FEFF 		bl	touch_write
 1005              	.LVL172:
 385:.\ibuton.c    **** 						touch_write(1,0xF0);	
 1006              		.loc 1 385 0
 1007 0116 0120     		movs	r0, #1
 1008 0118 F021     		movs	r1, #240
 1009 011a FFF7FEFF 		bl	touch_write
 1010              	.LVL173:
 386:.\ibuton.c    **** 						touch_write(1,pos);
 1011              		.loc 1 386 0
 1012 011e 0120     		movs	r0, #1
 1013 0120 4146     		mov	r1, r8
 1014 0122 FFF7FEFF 		bl	touch_write
 1015              	.LVL174:
 387:.\ibuton.c    **** 						touch_write(1,0x00);
 1016              		.loc 1 387 0
 1017 0126 0120     		movs	r0, #1
 1018 0128 0021     		movs	r1, #0
 1019 012a FFF7FEFF 		bl	touch_write
 1020              	.LVL175:
 388:.\ibuton.c    **** 						for(z=0;z<=cantidad;z++){
 1021              		.loc 1 388 0
 1022 012e 0023     		movs	r3, #0
 1023 0130 794A     		ldr	r2, .L80+8
 1024 0132 1360     		str	r3, [r2]
 354:.\ibuton.c    **** 	uint8 i,check=0;
 1025              		.loc 1 354 0
 1026 0134 9A46     		mov	r10, r3
 1027              		.loc 1 388 0
 1028 0136 1646     		mov	r6, r2
 389:.\ibuton.c    **** 			                Buffer_LCD1.id[z]=touch_read_byte(1);
 1029              		.loc 1 389 0
 1030 0138 4FF0010B 		mov	fp, #1
ARM GAS  C:\Users\RECEPC~1\AppData\Local\Temp\ccOztUEd.s 			page 27


 1031 013c DFF8D481 		ldr	r8, .L80+4
 388:.\ibuton.c    **** 						for(z=0;z<=cantidad;z++){
 1032              		.loc 1 388 0
 1033 0140 13E0     		b	.L60
 1034              	.LVL176:
 1035              	.L62:
 1036              		.loc 1 389 0
 1037 0142 5846     		mov	r0, fp
 1038 0144 FFF7FEFF 		bl	touch_read_byte
 1039              	.LVL177:
 1040 0148 4744     		add	r7, r7, r8
 1041 014a 87F82900 		strb	r0, [r7, #41]
 390:.\ibuton.c    **** 							if(Buffer_LCD1.id[z]==Buffer_LCD1.valor[z]){
 1042              		.loc 1 390 0
 1043 014e 3368     		ldr	r3, [r6]
 1044 0150 08EB0302 		add	r2, r8, r3
 1045 0154 92F82910 		ldrb	r1, [r2, #41]	@ zero_extendqisi2
 1046 0158 D27A     		ldrb	r2, [r2, #11]	@ zero_extendqisi2
 1047 015a 9142     		cmp	r1, r2
 1048 015c 03D1     		bne	.L61
 391:.\ibuton.c    **** 								check++;	
 1049              		.loc 1 391 0
 1050 015e 0AF1010A 		add	r10, r10, #1
 1051              	.LVL178:
 1052 0162 5FFA8AFA 		uxtb	r10, r10
 1053              	.LVL179:
 1054              	.L61:
 388:.\ibuton.c    **** 						for(z=0;z<=cantidad;z++){
 1055              		.loc 1 388 0
 1056 0166 0133     		adds	r3, r3, #1
 1057 0168 3360     		str	r3, [r6]
 1058              	.LVL180:
 1059              	.L60:
 388:.\ibuton.c    **** 						for(z=0;z<=cantidad;z++){
 1060              		.loc 1 388 0 is_stmt 0 discriminator 1
 1061 016a 3768     		ldr	r7, [r6]
 1062 016c BD42     		cmp	r5, r7
 1063 016e E8D2     		bcs	.L62
 392:.\ibuton.c    **** 							}									
 393:.\ibuton.c    **** 						}
 394:.\ibuton.c    **** 						if(check==(cantidad+1)){
 1064              		.loc 1 394 0 is_stmt 1
 1065 0170 09F10109 		add	r9, r9, #1
 1066 0174 CA45     		cmp	r10, r9
 1067 0176 40F0BD80 		bne	.L74
 1068 017a C6E0     		b	.L55
 1069              	.LVL181:
 1070              	.L54:
 395:.\ibuton.c    **** 							return 1;
 396:.\ibuton.c    **** 						}
 397:.\ibuton.c    **** 					}	
 398:.\ibuton.c    **** 				}	
 399:.\ibuton.c    **** 			}			
 400:.\ibuton.c    **** 	    }	
 401:.\ibuton.c    **** 		else{
 402:.\ibuton.c    **** 			return 0;
 403:.\ibuton.c    **** 		}
ARM GAS  C:\Users\RECEPC~1\AppData\Local\Temp\ccOztUEd.s 			page 28


 404:.\ibuton.c    **** 	}
 405:.\ibuton.c    **** 	else{
 406:.\ibuton.c    **** 		if(touch_present(2)==1){
 1071              		.loc 1 406 0
 1072 017c 0220     		movs	r0, #2
 1073              	.LVL182:
 1074 017e FFF7FEFF 		bl	touch_present
 1075              	.LVL183:
 1076 0182 0128     		cmp	r0, #1
 1077 0184 40F0B880 		bne	.L75
 407:.\ibuton.c    **** 			CyDelay(200);
 1078              		.loc 1 407 0
 1079 0188 C820     		movs	r0, #200
 1080 018a FFF7FEFF 		bl	CyDelay
 1081              	.LVL184:
 408:.\ibuton.c    **** 	        touch_write(2,0xCC);
 1082              		.loc 1 408 0
 1083 018e 0220     		movs	r0, #2
 1084 0190 CC21     		movs	r1, #204
 1085 0192 FFF7FEFF 		bl	touch_write
 1086              	.LVL185:
 409:.\ibuton.c    **** 			touch_write(2,0x0F);
 1087              		.loc 1 409 0
 1088 0196 0220     		movs	r0, #2
 1089 0198 0F21     		movs	r1, #15
 1090 019a FFF7FEFF 		bl	touch_write
 1091              	.LVL186:
 410:.\ibuton.c    **** 			touch_write(2,pos);
 1092              		.loc 1 410 0
 1093 019e 0220     		movs	r0, #2
 1094 01a0 4146     		mov	r1, r8
 1095 01a2 FFF7FEFF 		bl	touch_write
 1096              	.LVL187:
 411:.\ibuton.c    **** 			touch_write(2,0x00);
 1097              		.loc 1 411 0
 1098 01a6 0220     		movs	r0, #2
 1099 01a8 0021     		movs	r1, #0
 1100 01aa FFF7FEFF 		bl	touch_write
 1101              	.LVL188:
 412:.\ibuton.c    **** 			for(i=0;i<=cantidad;i++){
 1102              		.loc 1 412 0
 1103 01ae 0024     		movs	r4, #0
 413:.\ibuton.c    **** 				touch_write(2,valor[i]);
 1104              		.loc 1 413 0
 1105 01b0 0227     		movs	r7, #2
 412:.\ibuton.c    **** 			for(i=0;i<=cantidad;i++){
 1106              		.loc 1 412 0
 1107 01b2 05E0     		b	.L63
 1108              	.LVL189:
 1109              	.L64:
 1110              		.loc 1 413 0 discriminator 2
 1111 01b4 3846     		mov	r0, r7
 1112 01b6 315D     		ldrb	r1, [r6, r4]	@ zero_extendqisi2
 1113 01b8 FFF7FEFF 		bl	touch_write
 1114              	.LVL190:
 412:.\ibuton.c    **** 			for(i=0;i<=cantidad;i++){
 1115              		.loc 1 412 0 discriminator 2
ARM GAS  C:\Users\RECEPC~1\AppData\Local\Temp\ccOztUEd.s 			page 29


 1116 01bc 0134     		adds	r4, r4, #1
 1117              	.LVL191:
 1118 01be E4B2     		uxtb	r4, r4
 1119              	.LVL192:
 1120              	.L63:
 412:.\ibuton.c    **** 			for(i=0;i<=cantidad;i++){
 1121              		.loc 1 412 0 is_stmt 0 discriminator 1
 1122 01c0 AC42     		cmp	r4, r5
 1123 01c2 F7D9     		bls	.L64
 414:.\ibuton.c    **** 			}
 415:.\ibuton.c    **** 			CyDelay(750);
 1124              		.loc 1 415 0 is_stmt 1
 1125 01c4 40F2EE20 		movw	r0, #750
 1126 01c8 FFF7FEFF 		bl	CyDelay
 1127              	.LVL193:
 416:.\ibuton.c    **** 			if(touch_present(2)==1){
 1128              		.loc 1 416 0
 1129 01cc 0220     		movs	r0, #2
 1130 01ce FFF7FEFF 		bl	touch_present
 1131              	.LVL194:
 1132 01d2 0128     		cmp	r0, #1
 1133 01d4 40F09280 		bne	.L76
 417:.\ibuton.c    **** 				CyDelay(200);
 1134              		.loc 1 417 0
 1135 01d8 C820     		movs	r0, #200
 1136 01da FFF7FEFF 		bl	CyDelay
 1137              	.LVL195:
 418:.\ibuton.c    **** 				touch_write(2,0xCC);
 1138              		.loc 1 418 0
 1139 01de 0220     		movs	r0, #2
 1140 01e0 CC21     		movs	r1, #204
 1141 01e2 FFF7FEFF 		bl	touch_write
 1142              	.LVL196:
 419:.\ibuton.c    **** 				touch_write(2,0xAA);	
 1143              		.loc 1 419 0
 1144 01e6 0220     		movs	r0, #2
 1145 01e8 AA21     		movs	r1, #170
 1146 01ea FFF7FEFF 		bl	touch_write
 1147              	.LVL197:
 420:.\ibuton.c    **** 				for(x=0;x<=cantidad+2;x++){
 1148              		.loc 1 420 0
 1149 01ee 0022     		movs	r2, #0
 1150 01f0 474B     		ldr	r3, .L80
 1151 01f2 1A60     		str	r2, [r3]
 1152 01f4 2F46     		mov	r7, r5
 1153 01f6 1E46     		mov	r6, r3
 1154              	.LVL198:
 421:.\ibuton.c    **** 	                Buffer_LCD2.id[x]=touch_read_byte(2);
 1155              		.loc 1 421 0
 1156 01f8 DFF820A1 		ldr	r10, .L80+12
 420:.\ibuton.c    **** 				for(x=0;x<=cantidad+2;x++){
 1157              		.loc 1 420 0
 1158 01fc 08E0     		b	.L65
 1159              	.LVL199:
 1160              	.L66:
 1161              		.loc 1 421 0 discriminator 2
 1162 01fe 0220     		movs	r0, #2
ARM GAS  C:\Users\RECEPC~1\AppData\Local\Temp\ccOztUEd.s 			page 30


 1163 0200 FFF7FEFF 		bl	touch_read_byte
 1164              	.LVL200:
 1165 0204 5444     		add	r4, r4, r10
 1166 0206 84F82900 		strb	r0, [r4, #41]
 420:.\ibuton.c    **** 				for(x=0;x<=cantidad+2;x++){
 1167              		.loc 1 420 0 discriminator 2
 1168 020a 3368     		ldr	r3, [r6]
 1169 020c 0133     		adds	r3, r3, #1
 1170 020e 3360     		str	r3, [r6]
 1171              	.L65:
 420:.\ibuton.c    **** 				for(x=0;x<=cantidad+2;x++){
 1172              		.loc 1 420 0 is_stmt 0 discriminator 1
 1173 0210 B946     		mov	r9, r7
 1174 0212 AB1C     		adds	r3, r5, #2
 1175 0214 3468     		ldr	r4, [r6]
 1176 0216 A342     		cmp	r3, r4
 1177 0218 F1D2     		bcs	.L66
 422:.\ibuton.c    **** 				}
 423:.\ibuton.c    **** 				CyDelay(750);
 1178              		.loc 1 423 0 is_stmt 1
 1179 021a 40F2EE20 		movw	r0, #750
 1180 021e FFF7FEFF 		bl	CyDelay
 1181              	.LVL201:
 424:.\ibuton.c    **** 				if(touch_present(2)==1){
 1182              		.loc 1 424 0
 1183 0222 0220     		movs	r0, #2
 1184 0224 FFF7FEFF 		bl	touch_present
 1185              	.LVL202:
 1186 0228 0128     		cmp	r0, #1
 1187 022a 69D1     		bne	.L77
 425:.\ibuton.c    **** 					CyDelay(200);
 1188              		.loc 1 425 0
 1189 022c C820     		movs	r0, #200
 1190 022e FFF7FEFF 		bl	CyDelay
 1191              	.LVL203:
 426:.\ibuton.c    **** 					touch_write(2,0xCC);
 1192              		.loc 1 426 0
 1193 0232 0220     		movs	r0, #2
 1194 0234 CC21     		movs	r1, #204
 1195 0236 FFF7FEFF 		bl	touch_write
 1196              	.LVL204:
 427:.\ibuton.c    **** 					touch_write(2,0x55);	
 1197              		.loc 1 427 0
 1198 023a 0220     		movs	r0, #2
 1199 023c 5521     		movs	r1, #85
 1200 023e FFF7FEFF 		bl	touch_write
 1201              	.LVL205:
 428:.\ibuton.c    **** 					touch_write(2,pos);
 1202              		.loc 1 428 0
 1203 0242 0220     		movs	r0, #2
 1204 0244 4146     		mov	r1, r8
 1205 0246 FFF7FEFF 		bl	touch_write
 1206              	.LVL206:
 429:.\ibuton.c    **** 					touch_write(2,0x00);
 1207              		.loc 1 429 0
 1208 024a 0220     		movs	r0, #2
 1209 024c 0021     		movs	r1, #0
ARM GAS  C:\Users\RECEPC~1\AppData\Local\Temp\ccOztUEd.s 			page 31


 1210 024e FFF7FEFF 		bl	touch_write
 1211              	.LVL207:
 430:.\ibuton.c    **** 					touch_write(2,Buffer_LCD2.id[2]);					
 1212              		.loc 1 430 0
 1213 0252 0220     		movs	r0, #2
 1214 0254 314B     		ldr	r3, .L80+12
 1215 0256 93F82B10 		ldrb	r1, [r3, #43]	@ zero_extendqisi2
 1216 025a FFF7FEFF 		bl	touch_write
 1217              	.LVL208:
 431:.\ibuton.c    **** 					CyDelay(750);
 1218              		.loc 1 431 0
 1219 025e 40F2EE20 		movw	r0, #750
 1220 0262 FFF7FEFF 		bl	CyDelay
 1221              	.LVL209:
 432:.\ibuton.c    **** 					if(touch_present(2)==1){
 1222              		.loc 1 432 0
 1223 0266 0220     		movs	r0, #2
 1224 0268 FFF7FEFF 		bl	touch_present
 1225              	.LVL210:
 1226 026c 0446     		mov	r4, r0
 1227 026e 0128     		cmp	r0, #1
 1228 0270 48D1     		bne	.L78
 433:.\ibuton.c    **** 						CyDelay(200);
 1229              		.loc 1 433 0
 1230 0272 C820     		movs	r0, #200
 1231 0274 FFF7FEFF 		bl	CyDelay
 1232              	.LVL211:
 434:.\ibuton.c    **** 						touch_write(2,0xCC);
 1233              		.loc 1 434 0
 1234 0278 0220     		movs	r0, #2
 1235 027a CC21     		movs	r1, #204
 1236 027c FFF7FEFF 		bl	touch_write
 1237              	.LVL212:
 435:.\ibuton.c    **** 						touch_write(2,0xF0);	
 1238              		.loc 1 435 0
 1239 0280 0220     		movs	r0, #2
 1240 0282 F021     		movs	r1, #240
 1241 0284 FFF7FEFF 		bl	touch_write
 1242              	.LVL213:
 436:.\ibuton.c    **** 						touch_write(2,pos);
 1243              		.loc 1 436 0
 1244 0288 0220     		movs	r0, #2
 1245 028a 4146     		mov	r1, r8
 1246 028c FFF7FEFF 		bl	touch_write
 1247              	.LVL214:
 437:.\ibuton.c    **** 						touch_write(2,0x00);
 1248              		.loc 1 437 0
 1249 0290 0220     		movs	r0, #2
 1250 0292 0021     		movs	r1, #0
 1251 0294 FFF7FEFF 		bl	touch_write
 1252              	.LVL215:
 438:.\ibuton.c    **** 						for(z=0;z<=cantidad;z++){
 1253              		.loc 1 438 0
 1254 0298 0023     		movs	r3, #0
 1255 029a 1F4A     		ldr	r2, .L80+8
 1256 029c 1360     		str	r3, [r2]
 354:.\ibuton.c    **** 	uint8 i,check=0;
ARM GAS  C:\Users\RECEPC~1\AppData\Local\Temp\ccOztUEd.s 			page 32


 1257              		.loc 1 354 0
 1258 029e 9B46     		mov	fp, r3
 1259              		.loc 1 438 0
 1260 02a0 1646     		mov	r6, r2
 439:.\ibuton.c    **** 			                Buffer_LCD2.id[z]=touch_read_byte(2);
 1261              		.loc 1 439 0
 1262 02a2 4FF0020A 		mov	r10, #2
 1263 02a6 DFF87480 		ldr	r8, .L80+12
 438:.\ibuton.c    **** 						for(z=0;z<=cantidad;z++){
 1264              		.loc 1 438 0
 1265 02aa 13E0     		b	.L67
 1266              	.LVL216:
 1267              	.L69:
 1268              		.loc 1 439 0
 1269 02ac 5046     		mov	r0, r10
 1270 02ae FFF7FEFF 		bl	touch_read_byte
 1271              	.LVL217:
 1272 02b2 4744     		add	r7, r7, r8
 1273 02b4 87F82900 		strb	r0, [r7, #41]
 440:.\ibuton.c    **** 							if(Buffer_LCD2.id[z]==Buffer_LCD2.valor[z]){
 1274              		.loc 1 440 0
 1275 02b8 3368     		ldr	r3, [r6]
 1276 02ba 08EB0302 		add	r2, r8, r3
 1277 02be 92F82910 		ldrb	r1, [r2, #41]	@ zero_extendqisi2
 1278 02c2 D27A     		ldrb	r2, [r2, #11]	@ zero_extendqisi2
 1279 02c4 9142     		cmp	r1, r2
 1280 02c6 03D1     		bne	.L68
 441:.\ibuton.c    **** 								check++;	
 1281              		.loc 1 441 0
 1282 02c8 0BF1010B 		add	fp, fp, #1
 1283              	.LVL218:
 1284 02cc 5FFA8BFB 		uxtb	fp, fp
 1285              	.LVL219:
 1286              	.L68:
 438:.\ibuton.c    **** 						for(z=0;z<=cantidad;z++){
 1287              		.loc 1 438 0
 1288 02d0 0133     		adds	r3, r3, #1
 1289 02d2 3360     		str	r3, [r6]
 1290              	.LVL220:
 1291              	.L67:
 438:.\ibuton.c    **** 						for(z=0;z<=cantidad;z++){
 1292              		.loc 1 438 0 is_stmt 0 discriminator 1
 1293 02d4 3768     		ldr	r7, [r6]
 1294 02d6 BD42     		cmp	r5, r7
 1295 02d8 E8D2     		bcs	.L69
 442:.\ibuton.c    **** 							}									
 443:.\ibuton.c    **** 						}
 444:.\ibuton.c    **** 						if(check==(cantidad+1)){
 1296              		.loc 1 444 0 is_stmt 1
 1297 02da 09F10109 		add	r9, r9, #1
 1298 02de CB45     		cmp	fp, r9
 1299 02e0 12D1     		bne	.L79
 1300 02e2 12E0     		b	.L55
 1301              	.LVL221:
 1302              	.L70:
 402:.\ibuton.c    **** 			return 0;
 1303              		.loc 1 402 0
ARM GAS  C:\Users\RECEPC~1\AppData\Local\Temp\ccOztUEd.s 			page 33


 1304 02e4 0024     		movs	r4, #0
 1305 02e6 10E0     		b	.L55
 1306              	.LVL222:
 1307              	.L71:
 445:.\ibuton.c    **** 							return 1;
 446:.\ibuton.c    **** 						}
 447:.\ibuton.c    **** 					}	
 448:.\ibuton.c    **** 				}	
 449:.\ibuton.c    **** 			}			
 450:.\ibuton.c    **** 	    }	
 451:.\ibuton.c    **** 		else{
 452:.\ibuton.c    **** 			return 0;
 453:.\ibuton.c    **** 		}	
 454:.\ibuton.c    **** 	}
 455:.\ibuton.c    **** 	return 0;
 1308              		.loc 1 455 0
 1309 02e8 0024     		movs	r4, #0
 1310              	.LVL223:
 1311 02ea 0EE0     		b	.L55
 1312              	.LVL224:
 1313              	.L72:
 1314 02ec 0024     		movs	r4, #0
 1315 02ee 0CE0     		b	.L55
 1316              	.L73:
 1317 02f0 0024     		movs	r4, #0
 1318 02f2 0AE0     		b	.L55
 1319              	.LVL225:
 1320              	.L74:
 1321 02f4 0024     		movs	r4, #0
 1322 02f6 08E0     		b	.L55
 1323              	.LVL226:
 1324              	.L75:
 452:.\ibuton.c    **** 			return 0;
 1325              		.loc 1 452 0
 1326 02f8 0024     		movs	r4, #0
 1327 02fa 06E0     		b	.L55
 1328              	.LVL227:
 1329              	.L76:
 1330              		.loc 1 455 0
 1331 02fc 0024     		movs	r4, #0
 1332              	.LVL228:
 1333 02fe 04E0     		b	.L55
 1334              	.LVL229:
 1335              	.L77:
 1336 0300 0024     		movs	r4, #0
 1337 0302 02E0     		b	.L55
 1338              	.L78:
 1339 0304 0024     		movs	r4, #0
 1340 0306 00E0     		b	.L55
 1341              	.LVL230:
 1342              	.L79:
 1343 0308 0024     		movs	r4, #0
 1344              	.LVL231:
 1345              	.L55:
 456:.\ibuton.c    **** }
 1346              		.loc 1 456 0
 1347 030a 2046     		mov	r0, r4
ARM GAS  C:\Users\RECEPC~1\AppData\Local\Temp\ccOztUEd.s 			page 34


 1348 030c BDE8F88F 		pop	{r3, r4, r5, r6, r7, r8, r9, r10, fp, pc}
 1349              	.L81:
 1350              		.align	2
 1351              	.L80:
 1352 0310 00000000 		.word	x
 1353 0314 00000000 		.word	Buffer_LCD1
 1354 0318 00000000 		.word	z
 1355 031c 00000000 		.word	Buffer_LCD2
 1356              		.cfi_endproc
 1357              	.LFE67:
 1358              		.size	touch_write_memoria, .-touch_write_memoria
 1359              		.section	.text.crc_check,"ax",%progbits
 1360              		.align	2
 1361              		.global	crc_check
 1362              		.thumb
 1363              		.thumb_func
 1364              		.type	crc_check, %function
 1365              	crc_check:
 1366              	.LFB68:
 457:.\ibuton.c    **** 
 458:.\ibuton.c    **** /*
 459:.\ibuton.c    **** ***************************************************************************************************
 460:.\ibuton.c    **** * 							uint8 crc_check(uint8_t crc, uint8_t data)
 461:.\ibuton.c    **** *
 462:.\ibuton.c    **** * Description : 
 463:.\ibuton.c    **** *               
 464:.\ibuton.c    **** *
 465:.\ibuton.c    **** * Argument(s) : none
 466:.\ibuton.c    **** *
 467:.\ibuton.c    **** * Return(s)   : none
 468:.\ibuton.c    **** *
 469:.\ibuton.c    **** * Caller(s)   : 
 470:.\ibuton.c    **** *
 471:.\ibuton.c    **** * Note(s)     : none.
 472:.\ibuton.c    **** ***************************************************************************************************
 473:.\ibuton.c    **** */
 474:.\ibuton.c    **** 
 475:.\ibuton.c    **** uint8 crc_check(uint8 crc, uint8 dato){
 1367              		.loc 1 475 0
 1368              		.cfi_startproc
 1369              		@ args = 0, pretend = 0, frame = 0
 1370              		@ frame_needed = 0, uses_anonymous_args = 0
 1371              		@ link register save eliminated.
 1372              	.LVL232:
 476:.\ibuton.c    ****     uint8 i;
 477:.\ibuton.c    ****     crc = crc ^ dato;
 1373              		.loc 1 477 0
 1374 0000 4840     		eors	r0, r0, r1
 1375              	.LVL233:
 478:.\ibuton.c    ****     for (i = 0; i < 8; i++)
 1376              		.loc 1 478 0
 1377 0002 0023     		movs	r3, #0
 1378 0004 09E0     		b	.L83
 1379              	.LVL234:
 1380              	.L86:
 479:.\ibuton.c    ****     {
 480:.\ibuton.c    ****         if (crc & 0x01){
ARM GAS  C:\Users\RECEPC~1\AppData\Local\Temp\ccOztUEd.s 			page 35


 1381              		.loc 1 480 0
 1382 0006 10F0010F 		tst	r0, #1
 1383 000a 03D0     		beq	.L84
 481:.\ibuton.c    ****             crc = (crc >> 1) ^ 0x8C;
 1384              		.loc 1 481 0
 1385 000c 4008     		lsrs	r0, r0, #1
 1386              	.LVL235:
 1387 000e 80F08C00 		eor	r0, r0, #140
 1388              	.LVL236:
 1389 0012 00E0     		b	.L85
 1390              	.L84:
 482:.\ibuton.c    **** 		}	
 483:.\ibuton.c    ****         else{
 484:.\ibuton.c    ****             crc >>= 1;
 1391              		.loc 1 484 0
 1392 0014 4008     		lsrs	r0, r0, #1
 1393              	.LVL237:
 1394              	.L85:
 478:.\ibuton.c    ****     for (i = 0; i < 8; i++)
 1395              		.loc 1 478 0
 1396 0016 0133     		adds	r3, r3, #1
 1397              	.LVL238:
 1398 0018 DBB2     		uxtb	r3, r3
 1399              	.LVL239:
 1400              	.L83:
 478:.\ibuton.c    ****     for (i = 0; i < 8; i++)
 1401              		.loc 1 478 0 is_stmt 0 discriminator 1
 1402 001a 072B     		cmp	r3, #7
 1403 001c F3D9     		bls	.L86
 485:.\ibuton.c    **** 		}	
 486:.\ibuton.c    ****     }
 487:.\ibuton.c    ****     return crc;
 488:.\ibuton.c    **** }
 1404              		.loc 1 488 0 is_stmt 1
 1405 001e 7047     		bx	lr
 1406              		.cfi_endproc
 1407              	.LFE68:
 1408              		.size	crc_check, .-crc_check
 1409              		.comm	rventa2,225,4
 1410              		.comm	rventa,225,4
 1411              		.comm	lado,8,4
 1412              		.comm	producto,1,1
 1413              		.comm	producto2,1,1
 1414              		.comm	producto1,1,1
 1415              		.comm	modulo,400,4
 1416              		.comm	w,4,4
 1417              		.comm	z,4,4
 1418              		.comm	y,4,4
 1419              		.comm	x,4,4
 1420              		.comm	estado_0,1,1
 1421              		.comm	Buffer_LCD2,152,4
 1422              		.comm	Buffer_LCD1,152,4
 1423              		.comm	no_venta,4,4
 1424              		.comm	id_venta,6,4
 1425              		.comm	id_corte,2,2
 1426              		.comm	copia_recibo,2,4
 1427              		.comm	print2,2,4
ARM GAS  C:\Users\RECEPC~1\AppData\Local\Temp\ccOztUEd.s 			page 36


 1428              		.comm	print1,2,4
 1429              		.comm	crc_total,1,1
 1430              		.comm	pos_ibutton,1,1
 1431              		.comm	fecha_corte,6,4
 1432              		.comm	decimalD,1,1
 1433              		.comm	decimalV,1,1
 1434              		.comm	tipo_imp,2,4
 1435              		.comm	bandera,2,4
 1436              		.comm	ppux10,1,1
 1437              		.comm	teclado2,1,1
 1438              		.comm	teclado,1,1
 1439              		.comm	resultado,14,4
 1440              		.comm	buffer_i2c,64,4
 1441              		.comm	kero2,1,1
 1442              		.comm	diesel2,1,1
 1443              		.comm	corriente2,1,1
 1444              		.comm	extra2,1,1
 1445              		.comm	kero,1,1
 1446              		.comm	corriente,1,1
 1447              		.comm	diesel,1,1
 1448              		.comm	extra,1,1
 1449              		.comm	versurt,1,1
 1450              		.comm	version,1,1
 1451              		.comm	comas2,1,1
 1452              		.comm	comas1,1,1
 1453              		.comm	teclas2,1,1
 1454              		.comm	teclas1,1,1
 1455              		.comm	cont1,1,1
 1456              		.comm	ok_LCD2,1,1
 1457              		.comm	ok_LCD1,1,1
 1458              		.comm	count_protector2,1,1
 1459              		.comm	count_protector,1,1
 1460              		.comm	flujo_LCD2,1,1
 1461              		.comm	flujo_LCD,1,1
 1462              		.text
 1463              	.Letext0:
 1464              		.file 2 "c:\\program files (x86)\\cypress\\psoc creator\\3.2\\psoc creator\\import\\gnu\\arm\\4.8.
 1465              		.file 3 "c:\\program files (x86)\\cypress\\psoc creator\\3.2\\psoc creator\\import\\gnu\\arm\\4.8.
 1466              		.file 4 "Generated_Source\\PSoC5/cytypes.h"
 1467              		.file 5 ".\\VariablesG.h"
 1468              		.file 6 "Generated_Source\\PSoC5/core_cm3.h"
 1469              		.file 7 "Generated_Source\\PSoC5/IB1.h"
 1470              		.file 8 "Generated_Source\\PSoC5/CyLib.h"
 1471              		.file 9 "Generated_Source\\PSoC5/IB2.h"