ARM GAS  C:\Users\RECEPC~1\AppData\Local\Temp\cc89K5zt.s 			page 1


   1              		.syntax unified
   2              		.cpu cortex-m3
   3              		.fpu softvfp
   4              		.eabi_attribute 20, 1
   5              		.eabi_attribute 21, 1
   6              		.eabi_attribute 23, 3
   7              		.eabi_attribute 24, 1
   8              		.eabi_attribute 25, 1
   9              		.eabi_attribute 26, 1
  10              		.eabi_attribute 30, 1
  11              		.eabi_attribute 34, 1
  12              		.eabi_attribute 18, 4
  13              		.thumb
  14              		.file	"LCD.c"
  15              		.text
  16              	.Ltext0:
  17              		.cfi_sections	.debug_frame
  18              		.section	.text.set_imagen,"ax",%progbits
  19              		.align	2
  20              		.global	set_imagen
  21              		.thumb
  22              		.thumb_func
  23              		.type	set_imagen, %function
  24              	set_imagen:
  25              	.LFB63:
  26              		.file 1 ".\\LCD.c"
   1:.\LCD.c       **** /*
   2:.\LCD.c       **** ***************************************************************************************************
   3:.\LCD.c       **** *                                           GRP550M CODE
   4:.\LCD.c       **** *
   5:.\LCD.c       **** *                             (c) Copyright 2013; Sistemas Insepet LTDA
   6:.\LCD.c       **** *
   7:.\LCD.c       **** *               All rights reserved.  Protected by international copyright laws.
   8:.\LCD.c       **** *               Knowledge of the source code may NOT be used to develop a similar product.
   9:.\LCD.c       **** *               Please help us continue to provide the Embedded community with the finest
  10:.\LCD.c       **** *               software available.  Your honesty is greatly appreciated.
  11:.\LCD.c       **** ***************************************************************************************************
  12:.\LCD.c       **** */
  13:.\LCD.c       **** 
  14:.\LCD.c       **** /*
  15:.\LCD.c       **** ***************************************************************************************************
  16:.\LCD.c       **** *
  17:.\LCD.c       **** *                                               GRP550M CODE
  18:.\LCD.c       **** *
  19:.\LCD.c       **** *                                             CYPRESS PSoC5LP
  20:.\LCD.c       **** *                                                with the
  21:.\LCD.c       **** *                                            CY8C5969AXI-LP035
  22:.\LCD.c       **** *
  23:.\LCD.c       **** * Filename      : LCD.c
  24:.\LCD.c       **** * Version       : V1.00
  25:.\LCD.c       **** * Programmer(s) : 
  26:.\LCD.c       ****                   
  27:.\LCD.c       **** ***************************************************************************************************
  28:.\LCD.c       **** */
  29:.\LCD.c       **** 
  30:.\LCD.c       **** /*
  31:.\LCD.c       **** ***************************************************************************************************
ARM GAS  C:\Users\RECEPC~1\AppData\Local\Temp\cc89K5zt.s 			page 2


  32:.\LCD.c       **** *                                             INCLUDE FILES
  33:.\LCD.c       **** ***************************************************************************************************
  34:.\LCD.c       **** */
  35:.\LCD.c       **** #include <device.h>
  36:.\LCD.c       **** #include "VariablesG.h"
  37:.\LCD.c       **** #include "I2C.h"
  38:.\LCD.c       **** 
  39:.\LCD.c       **** /*
  40:.\LCD.c       **** ***************************************************************************************************
  41:.\LCD.c       **** *                                        void set_imagen(uint8 lcd, uint16 id)
  42:.\LCD.c       **** *
  43:.\LCD.c       **** * Description : 
  44:.\LCD.c       **** *               
  45:.\LCD.c       **** *
  46:.\LCD.c       **** * Argument(s) : none
  47:.\LCD.c       **** *
  48:.\LCD.c       **** * Return(s)   : none
  49:.\LCD.c       **** *
  50:.\LCD.c       **** * Caller(s)   : 
  51:.\LCD.c       **** *
  52:.\LCD.c       **** * Note(s)     : none.
  53:.\LCD.c       **** ***************************************************************************************************
  54:.\LCD.c       **** */
  55:.\LCD.c       **** void set_imagen(uint8 lcd, uint16 id){
  27              		.loc 1 55 0
  28              		.cfi_startproc
  29              		@ args = 0, pretend = 0, frame = 0
  30              		@ frame_needed = 0, uses_anonymous_args = 0
  31              	.LVL0:
  32 0000 10B5     		push	{r4, lr}
  33              		.cfi_def_cfa_offset 8
  34              		.cfi_offset 4, -8
  35              		.cfi_offset 14, -4
  36 0002 0C46     		mov	r4, r1
  56:.\LCD.c       ****     if(lcd==1){
  37              		.loc 1 56 0
  38 0004 0128     		cmp	r0, #1
  39 0006 18D1     		bne	.L2
  57:.\LCD.c       ****         LCD_1_PutChar(0xAA);
  40              		.loc 1 57 0
  41 0008 AA20     		movs	r0, #170
  42              	.LVL1:
  43 000a FFF7FEFF 		bl	LCD_1_PutChar
  44              	.LVL2:
  58:.\LCD.c       ****         LCD_1_PutChar(0x70);
  45              		.loc 1 58 0
  46 000e 7020     		movs	r0, #112
  47 0010 FFF7FEFF 		bl	LCD_1_PutChar
  48              	.LVL3:
  59:.\LCD.c       ****         LCD_1_PutChar(((id>>8)&0xFF));
  49              		.loc 1 59 0
  50 0014 200A     		lsrs	r0, r4, #8
  51 0016 FFF7FEFF 		bl	LCD_1_PutChar
  52              	.LVL4:
  60:.\LCD.c       ****         LCD_1_PutChar((id&0xFF));
  53              		.loc 1 60 0
  54 001a E0B2     		uxtb	r0, r4
ARM GAS  C:\Users\RECEPC~1\AppData\Local\Temp\cc89K5zt.s 			page 3


  55 001c FFF7FEFF 		bl	LCD_1_PutChar
  56              	.LVL5:
  61:.\LCD.c       ****         LCD_1_PutChar(0xCC);
  57              		.loc 1 61 0
  58 0020 CC20     		movs	r0, #204
  59 0022 FFF7FEFF 		bl	LCD_1_PutChar
  60              	.LVL6:
  62:.\LCD.c       ****         LCD_1_PutChar(0x33);
  61              		.loc 1 62 0
  62 0026 3320     		movs	r0, #51
  63 0028 FFF7FEFF 		bl	LCD_1_PutChar
  64              	.LVL7:
  63:.\LCD.c       ****         LCD_1_PutChar(0xC3);
  65              		.loc 1 63 0
  66 002c C320     		movs	r0, #195
  67 002e FFF7FEFF 		bl	LCD_1_PutChar
  68              	.LVL8:
  64:.\LCD.c       ****         LCD_1_PutChar(0x3C);
  69              		.loc 1 64 0
  70 0032 3C20     		movs	r0, #60
  71 0034 FFF7FEFF 		bl	LCD_1_PutChar
  72              	.LVL9:
  73 0038 10BD     		pop	{r4, pc}
  74              	.LVL10:
  75              	.L2:
  65:.\LCD.c       ****     }
  66:.\LCD.c       ****     else{
  67:.\LCD.c       ****        	LCD_2_PutChar(0xAA);
  76              		.loc 1 67 0
  77 003a AA20     		movs	r0, #170
  78              	.LVL11:
  79 003c FFF7FEFF 		bl	LCD_2_PutChar
  80              	.LVL12:
  68:.\LCD.c       ****         LCD_2_PutChar(0x70);
  81              		.loc 1 68 0
  82 0040 7020     		movs	r0, #112
  83 0042 FFF7FEFF 		bl	LCD_2_PutChar
  84              	.LVL13:
  69:.\LCD.c       ****         LCD_2_PutChar(((id>>8)&0xFF));
  85              		.loc 1 69 0
  86 0046 200A     		lsrs	r0, r4, #8
  87 0048 FFF7FEFF 		bl	LCD_2_PutChar
  88              	.LVL14:
  70:.\LCD.c       ****         LCD_2_PutChar((id&0xFF));
  89              		.loc 1 70 0
  90 004c E0B2     		uxtb	r0, r4
  91 004e FFF7FEFF 		bl	LCD_2_PutChar
  92              	.LVL15:
  71:.\LCD.c       ****         LCD_2_PutChar(0xCC);
  93              		.loc 1 71 0
  94 0052 CC20     		movs	r0, #204
  95 0054 FFF7FEFF 		bl	LCD_2_PutChar
  96              	.LVL16:
  72:.\LCD.c       ****         LCD_2_PutChar(0x33);
  97              		.loc 1 72 0
  98 0058 3320     		movs	r0, #51
  99 005a FFF7FEFF 		bl	LCD_2_PutChar
ARM GAS  C:\Users\RECEPC~1\AppData\Local\Temp\cc89K5zt.s 			page 4


 100              	.LVL17:
  73:.\LCD.c       ****         LCD_2_PutChar(0xC3);
 101              		.loc 1 73 0
 102 005e C320     		movs	r0, #195
 103 0060 FFF7FEFF 		bl	LCD_2_PutChar
 104              	.LVL18:
  74:.\LCD.c       ****         LCD_2_PutChar(0x3C);   		 
 105              		.loc 1 74 0
 106 0064 3C20     		movs	r0, #60
 107 0066 FFF7FEFF 		bl	LCD_2_PutChar
 108              	.LVL19:
 109 006a 10BD     		pop	{r4, pc}
 110              		.cfi_endproc
 111              	.LFE63:
 112              		.size	set_imagen, .-set_imagen
 113              		.section	.text.write_LCD,"ax",%progbits
 114              		.align	2
 115              		.global	write_LCD
 116              		.thumb
 117              		.thumb_func
 118              		.type	write_LCD, %function
 119              	write_LCD:
 120              	.LFB64:
  75:.\LCD.c       ****     }
  76:.\LCD.c       **** }
  77:.\LCD.c       **** 
  78:.\LCD.c       **** /*
  79:.\LCD.c       **** ***************************************************************************************************
  80:.\LCD.c       **** *                                 void write_LCD(uint8 lcd, uint8 dato, uint8 pos)
  81:.\LCD.c       **** *
  82:.\LCD.c       **** * Description : 
  83:.\LCD.c       **** *               
  84:.\LCD.c       **** *
  85:.\LCD.c       **** * Argument(s) : none
  86:.\LCD.c       **** *
  87:.\LCD.c       **** * Return(s)   : none
  88:.\LCD.c       **** *
  89:.\LCD.c       **** * Caller(s)   : 
  90:.\LCD.c       **** *
  91:.\LCD.c       **** * Note(s)     : none.
  92:.\LCD.c       **** ***************************************************************************************************
  93:.\LCD.c       **** */
  94:.\LCD.c       **** void write_LCD(uint8 lcd, uint8 dato, uint8 pos){
 121              		.loc 1 94 0
 122              		.cfi_startproc
 123              		@ args = 0, pretend = 0, frame = 0
 124              		@ frame_needed = 0, uses_anonymous_args = 0
 125              	.LVL20:
 126 0000 38B5     		push	{r3, r4, r5, lr}
 127              		.cfi_def_cfa_offset 16
 128              		.cfi_offset 3, -16
 129              		.cfi_offset 4, -12
 130              		.cfi_offset 5, -8
 131              		.cfi_offset 14, -4
 132 0002 0D46     		mov	r5, r1
 133 0004 1446     		mov	r4, r2
  95:.\LCD.c       ****     if(lcd==1){
ARM GAS  C:\Users\RECEPC~1\AppData\Local\Temp\cc89K5zt.s 			page 5


 134              		.loc 1 95 0
 135 0006 0128     		cmp	r0, #1
 136 0008 3CD1     		bne	.L5
  96:.\LCD.c       ****         LCD_1_PutChar(0xAA);
 137              		.loc 1 96 0
 138 000a AA20     		movs	r0, #170
 139              	.LVL21:
 140 000c FFF7FEFF 		bl	LCD_1_PutChar
 141              	.LVL22:
  97:.\LCD.c       ****         LCD_1_PutChar(0x98);
 142              		.loc 1 97 0
 143 0010 9820     		movs	r0, #152
 144 0012 FFF7FEFF 		bl	LCD_1_PutChar
 145              	.LVL23:
  98:.\LCD.c       ****         LCD_1_PutChar(0x00);
 146              		.loc 1 98 0
 147 0016 0020     		movs	r0, #0
 148 0018 FFF7FEFF 		bl	LCD_1_PutChar
 149              	.LVL24:
  99:.\LCD.c       ****         LCD_1_PutChar((0x3F)+(0x19*pos));
 150              		.loc 1 99 0
 151 001c 04EB8404 		add	r4, r4, r4, lsl #2
 152 0020 04EB8404 		add	r4, r4, r4, lsl #2
 153 0024 04F13F00 		add	r0, r4, #63
 154 0028 C0B2     		uxtb	r0, r0
 155 002a FFF7FEFF 		bl	LCD_1_PutChar
 156              	.LVL25:
 100:.\LCD.c       ****         LCD_1_PutChar(0x00);
 157              		.loc 1 100 0
 158 002e 0020     		movs	r0, #0
 159 0030 FFF7FEFF 		bl	LCD_1_PutChar
 160              	.LVL26:
 101:.\LCD.c       ****         LCD_1_PutChar(0x23);
 161              		.loc 1 101 0
 162 0034 2320     		movs	r0, #35
 163 0036 FFF7FEFF 		bl	LCD_1_PutChar
 164              	.LVL27:
 102:.\LCD.c       ****         LCD_1_PutChar(0x24);
 165              		.loc 1 102 0
 166 003a 2420     		movs	r0, #36
 167 003c FFF7FEFF 		bl	LCD_1_PutChar
 168              	.LVL28:
 103:.\LCD.c       ****         LCD_1_PutChar(0xC5);
 169              		.loc 1 103 0
 170 0040 C520     		movs	r0, #197
 171 0042 FFF7FEFF 		bl	LCD_1_PutChar
 172              	.LVL29:
 104:.\LCD.c       ****         LCD_1_PutChar(0x02);
 173              		.loc 1 104 0
 174 0046 0220     		movs	r0, #2
 175 0048 FFF7FEFF 		bl	LCD_1_PutChar
 176              	.LVL30:
 105:.\LCD.c       ****         LCD_1_PutChar(0x00);
 177              		.loc 1 105 0
 178 004c 0020     		movs	r0, #0
 179 004e FFF7FEFF 		bl	LCD_1_PutChar
 180              	.LVL31:
ARM GAS  C:\Users\RECEPC~1\AppData\Local\Temp\cc89K5zt.s 			page 6


 106:.\LCD.c       ****         LCD_1_PutChar(0x00);
 181              		.loc 1 106 0
 182 0052 0020     		movs	r0, #0
 183 0054 FFF7FEFF 		bl	LCD_1_PutChar
 184              	.LVL32:
 107:.\LCD.c       ****         LCD_1_PutChar(0xFF);
 185              		.loc 1 107 0
 186 0058 FF20     		movs	r0, #255
 187 005a FFF7FEFF 		bl	LCD_1_PutChar
 188              	.LVL33:
 108:.\LCD.c       ****         LCD_1_PutChar(0xFF);
 189              		.loc 1 108 0
 190 005e FF20     		movs	r0, #255
 191 0060 FFF7FEFF 		bl	LCD_1_PutChar
 192              	.LVL34:
 109:.\LCD.c       ****         LCD_1_PutChar(dato);
 193              		.loc 1 109 0
 194 0064 2846     		mov	r0, r5
 195 0066 FFF7FEFF 		bl	LCD_1_PutChar
 196              	.LVL35:
 110:.\LCD.c       ****         LCD_1_PutChar(0xCC);
 197              		.loc 1 110 0
 198 006a CC20     		movs	r0, #204
 199 006c FFF7FEFF 		bl	LCD_1_PutChar
 200              	.LVL36:
 111:.\LCD.c       ****         LCD_1_PutChar(0x33);
 201              		.loc 1 111 0
 202 0070 3320     		movs	r0, #51
 203 0072 FFF7FEFF 		bl	LCD_1_PutChar
 204              	.LVL37:
 112:.\LCD.c       ****         LCD_1_PutChar(0xC3);
 205              		.loc 1 112 0
 206 0076 C320     		movs	r0, #195
 207 0078 FFF7FEFF 		bl	LCD_1_PutChar
 208              	.LVL38:
 113:.\LCD.c       ****         LCD_1_PutChar(0x3C);
 209              		.loc 1 113 0
 210 007c 3C20     		movs	r0, #60
 211 007e FFF7FEFF 		bl	LCD_1_PutChar
 212              	.LVL39:
 213 0082 38BD     		pop	{r3, r4, r5, pc}
 214              	.LVL40:
 215              	.L5:
 114:.\LCD.c       ****     }
 115:.\LCD.c       ****     else{
 116:.\LCD.c       ****         LCD_2_PutChar(0xAA);
 216              		.loc 1 116 0
 217 0084 AA20     		movs	r0, #170
 218              	.LVL41:
 219 0086 FFF7FEFF 		bl	LCD_2_PutChar
 220              	.LVL42:
 117:.\LCD.c       ****         LCD_2_PutChar(0x98);
 221              		.loc 1 117 0
 222 008a 9820     		movs	r0, #152
 223 008c FFF7FEFF 		bl	LCD_2_PutChar
 224              	.LVL43:
 118:.\LCD.c       ****         LCD_2_PutChar(0x00);
ARM GAS  C:\Users\RECEPC~1\AppData\Local\Temp\cc89K5zt.s 			page 7


 225              		.loc 1 118 0
 226 0090 0020     		movs	r0, #0
 227 0092 FFF7FEFF 		bl	LCD_2_PutChar
 228              	.LVL44:
 119:.\LCD.c       ****         LCD_2_PutChar((0x3F)+(0x19*pos));
 229              		.loc 1 119 0
 230 0096 04EB8404 		add	r4, r4, r4, lsl #2
 231 009a 04EB8404 		add	r4, r4, r4, lsl #2
 232 009e 04F13F00 		add	r0, r4, #63
 233 00a2 C0B2     		uxtb	r0, r0
 234 00a4 FFF7FEFF 		bl	LCD_2_PutChar
 235              	.LVL45:
 120:.\LCD.c       ****         LCD_2_PutChar(0x00);
 236              		.loc 1 120 0
 237 00a8 0020     		movs	r0, #0
 238 00aa FFF7FEFF 		bl	LCD_2_PutChar
 239              	.LVL46:
 121:.\LCD.c       ****         LCD_2_PutChar(0x23);
 240              		.loc 1 121 0
 241 00ae 2320     		movs	r0, #35
 242 00b0 FFF7FEFF 		bl	LCD_2_PutChar
 243              	.LVL47:
 122:.\LCD.c       ****         LCD_2_PutChar(0x24);
 244              		.loc 1 122 0
 245 00b4 2420     		movs	r0, #36
 246 00b6 FFF7FEFF 		bl	LCD_2_PutChar
 247              	.LVL48:
 123:.\LCD.c       ****         LCD_2_PutChar(0xC5);
 248              		.loc 1 123 0
 249 00ba C520     		movs	r0, #197
 250 00bc FFF7FEFF 		bl	LCD_2_PutChar
 251              	.LVL49:
 124:.\LCD.c       ****         LCD_2_PutChar(0x02);
 252              		.loc 1 124 0
 253 00c0 0220     		movs	r0, #2
 254 00c2 FFF7FEFF 		bl	LCD_2_PutChar
 255              	.LVL50:
 125:.\LCD.c       ****         LCD_2_PutChar(0x00);
 256              		.loc 1 125 0
 257 00c6 0020     		movs	r0, #0
 258 00c8 FFF7FEFF 		bl	LCD_2_PutChar
 259              	.LVL51:
 126:.\LCD.c       ****         LCD_2_PutChar(0x00);
 260              		.loc 1 126 0
 261 00cc 0020     		movs	r0, #0
 262 00ce FFF7FEFF 		bl	LCD_2_PutChar
 263              	.LVL52:
 127:.\LCD.c       ****         LCD_2_PutChar(0xFF);
 264              		.loc 1 127 0
 265 00d2 FF20     		movs	r0, #255
 266 00d4 FFF7FEFF 		bl	LCD_2_PutChar
 267              	.LVL53:
 128:.\LCD.c       ****         LCD_2_PutChar(0xFF);
 268              		.loc 1 128 0
 269 00d8 FF20     		movs	r0, #255
 270 00da FFF7FEFF 		bl	LCD_2_PutChar
 271              	.LVL54:
ARM GAS  C:\Users\RECEPC~1\AppData\Local\Temp\cc89K5zt.s 			page 8


 129:.\LCD.c       ****         LCD_2_PutChar(dato);
 272              		.loc 1 129 0
 273 00de 2846     		mov	r0, r5
 274 00e0 FFF7FEFF 		bl	LCD_2_PutChar
 275              	.LVL55:
 130:.\LCD.c       ****         LCD_2_PutChar(0xCC);
 276              		.loc 1 130 0
 277 00e4 CC20     		movs	r0, #204
 278 00e6 FFF7FEFF 		bl	LCD_2_PutChar
 279              	.LVL56:
 131:.\LCD.c       ****         LCD_2_PutChar(0x33);
 280              		.loc 1 131 0
 281 00ea 3320     		movs	r0, #51
 282 00ec FFF7FEFF 		bl	LCD_2_PutChar
 283              	.LVL57:
 132:.\LCD.c       ****         LCD_2_PutChar(0xC3);
 284              		.loc 1 132 0
 285 00f0 C320     		movs	r0, #195
 286 00f2 FFF7FEFF 		bl	LCD_2_PutChar
 287              	.LVL58:
 133:.\LCD.c       ****         LCD_2_PutChar(0x3C);    
 288              		.loc 1 133 0
 289 00f6 3C20     		movs	r0, #60
 290 00f8 FFF7FEFF 		bl	LCD_2_PutChar
 291              	.LVL59:
 292 00fc 38BD     		pop	{r3, r4, r5, pc}
 293              		.cfi_endproc
 294              	.LFE64:
 295              		.size	write_LCD, .-write_LCD
 296 00fe 00BF     		.section	.text.Hora_LCD,"ax",%progbits
 297              		.align	2
 298              		.global	Hora_LCD
 299              		.thumb
 300              		.thumb_func
 301              		.type	Hora_LCD, %function
 302              	Hora_LCD:
 303              	.LFB65:
 134:.\LCD.c       ****     }
 135:.\LCD.c       **** }
 136:.\LCD.c       **** 
 137:.\LCD.c       **** /*
 138:.\LCD.c       **** ***************************************************************************************************
 139:.\LCD.c       **** *                                 			void Hora_LCD(uint8 lcd)
 140:.\LCD.c       **** *
 141:.\LCD.c       **** * Description : 
 142:.\LCD.c       **** *               
 143:.\LCD.c       **** *
 144:.\LCD.c       **** * Argument(s) : none
 145:.\LCD.c       **** *
 146:.\LCD.c       **** * Return(s)   : none
 147:.\LCD.c       **** *
 148:.\LCD.c       **** * Caller(s)   : 
 149:.\LCD.c       **** *
 150:.\LCD.c       **** * Note(s)     : none.
 151:.\LCD.c       **** ***************************************************************************************************
 152:.\LCD.c       **** */
 153:.\LCD.c       **** void Hora_LCD(uint8 lcd){
ARM GAS  C:\Users\RECEPC~1\AppData\Local\Temp\cc89K5zt.s 			page 9


 304              		.loc 1 153 0
 305              		.cfi_startproc
 306              		@ args = 0, pretend = 0, frame = 24
 307              		@ frame_needed = 0, uses_anonymous_args = 0
 308              	.LVL60:
 309 0000 70B5     		push	{r4, r5, r6, lr}
 310              		.cfi_def_cfa_offset 16
 311              		.cfi_offset 4, -16
 312              		.cfi_offset 5, -12
 313              		.cfi_offset 6, -8
 314              		.cfi_offset 14, -4
 315 0002 86B0     		sub	sp, sp, #24
 316              		.cfi_def_cfa_offset 40
 317 0004 0646     		mov	r6, r0
 154:.\LCD.c       **** 	uint8 hora[24]={0xAA,0x98,0x00,0xd0,0x00,0xbb,0x24,0xC5,0x02,0x00,0x00,0xFF,0xFF,0X30,0x30,':',0x3
 318              		.loc 1 154 0
 319 0006 294D     		ldr	r5, .L16
 320 0008 6C46     		mov	r4, sp
 321 000a 2868     		ldr	r0, [r5]	@ unaligned
 322              	.LVL61:
 323 000c 6968     		ldr	r1, [r5, #4]	@ unaligned
 324 000e AA68     		ldr	r2, [r5, #8]	@ unaligned
 325 0010 EB68     		ldr	r3, [r5, #12]	@ unaligned
 326 0012 0FC4     		stmia	r4!, {r0, r1, r2, r3}
 327 0014 2869     		ldr	r0, [r5, #16]	@ unaligned
 328 0016 6969     		ldr	r1, [r5, #20]	@ unaligned
 329 0018 03C4     		stmia	r4!, {r0, r1}
 155:.\LCD.c       **** 	hora[13]=(((rventa.hora[1]&0x10)>>4)+48);
 330              		.loc 1 155 0
 331 001a 254A     		ldr	r2, .L16+4
 332 001c 92F8A130 		ldrb	r3, [r2, #161]	@ zero_extendqisi2
 333 0020 C3F30011 		ubfx	r1, r3, #4, #1
 334 0024 3031     		adds	r1, r1, #48
 335 0026 8DF80D10 		strb	r1, [sp, #13]
 156:.\LCD.c       **** 	hora[14]=((rventa.hora[1]&0x0F)+48);
 336              		.loc 1 156 0
 337 002a 03F00F01 		and	r1, r3, #15
 338 002e 3031     		adds	r1, r1, #48
 339 0030 8DF80E10 		strb	r1, [sp, #14]
 157:.\LCD.c       **** 	hora[16]=(((rventa.hora[0]&0xF0)>>4)+48);
 340              		.loc 1 157 0
 341 0034 92F8A020 		ldrb	r2, [r2, #160]	@ zero_extendqisi2
 342 0038 1109     		lsrs	r1, r2, #4
 343 003a 3031     		adds	r1, r1, #48
 344 003c 8DF81010 		strb	r1, [sp, #16]
 158:.\LCD.c       **** 	hora[17]=((rventa.hora[0]&0x0F)+48);
 345              		.loc 1 158 0
 346 0040 02F00F02 		and	r2, r2, #15
 347 0044 3032     		adds	r2, r2, #48
 348 0046 8DF81120 		strb	r2, [sp, #17]
 159:.\LCD.c       **** 	if((rventa.hora[1]&0x20)==0x20){
 349              		.loc 1 159 0
 350 004a 13F0200F 		tst	r3, #32
 351 004e 03D0     		beq	.L8
 160:.\LCD.c       **** 		hora[18]='p';
 352              		.loc 1 160 0
 353 0050 7023     		movs	r3, #112
ARM GAS  C:\Users\RECEPC~1\AppData\Local\Temp\cc89K5zt.s 			page 10


 354 0052 8DF81230 		strb	r3, [sp, #18]
 355 0056 02E0     		b	.L9
 356              	.L8:
 161:.\LCD.c       **** 	}
 162:.\LCD.c       **** 	else{
 163:.\LCD.c       **** 		hora[18]='a';						
 357              		.loc 1 163 0
 358 0058 6123     		movs	r3, #97
 359 005a 8DF81230 		strb	r3, [sp, #18]
 360              	.L9:
 164:.\LCD.c       **** 	}	
 165:.\LCD.c       ****     if(lcd==1){
 361              		.loc 1 165 0
 362 005e 012E     		cmp	r6, #1
 363 0060 11D1     		bne	.L10
 166:.\LCD.c       **** 		for(x=0;x<=23;x++){
 364              		.loc 1 166 0
 365 0062 0022     		movs	r2, #0
 366 0064 134B     		ldr	r3, .L16+8
 367 0066 1A60     		str	r2, [r3]
 368 0068 1C46     		mov	r4, r3
 369 006a 08E0     		b	.L11
 370              	.L12:
 167:.\LCD.c       ****         	LCD_1_PutChar(hora[x]);
 371              		.loc 1 167 0 discriminator 2
 372 006c 06AA     		add	r2, sp, #24
 373 006e 1344     		add	r3, r3, r2
 374 0070 13F8180C 		ldrb	r0, [r3, #-24]	@ zero_extendqisi2
 375 0074 FFF7FEFF 		bl	LCD_1_PutChar
 376              	.LVL62:
 166:.\LCD.c       **** 		for(x=0;x<=23;x++){
 377              		.loc 1 166 0 discriminator 2
 378 0078 2368     		ldr	r3, [r4]
 379 007a 0133     		adds	r3, r3, #1
 380 007c 2360     		str	r3, [r4]
 381              	.L11:
 166:.\LCD.c       **** 		for(x=0;x<=23;x++){
 382              		.loc 1 166 0 is_stmt 0 discriminator 1
 383 007e 2368     		ldr	r3, [r4]
 384 0080 172B     		cmp	r3, #23
 385 0082 F3D9     		bls	.L12
 386 0084 10E0     		b	.L7
 387              	.L10:
 168:.\LCD.c       **** 		}
 169:.\LCD.c       ****     }
 170:.\LCD.c       ****     else{
 171:.\LCD.c       **** 		for(x=0;x<=23;x++){
 388              		.loc 1 171 0 is_stmt 1
 389 0086 0022     		movs	r2, #0
 390 0088 0A4B     		ldr	r3, .L16+8
 391 008a 1A60     		str	r2, [r3]
 392 008c 1C46     		mov	r4, r3
 393 008e 08E0     		b	.L14
 394              	.L15:
 172:.\LCD.c       **** 	        LCD_2_PutChar(hora[x]);
 395              		.loc 1 172 0 discriminator 2
 396 0090 06AA     		add	r2, sp, #24
ARM GAS  C:\Users\RECEPC~1\AppData\Local\Temp\cc89K5zt.s 			page 11


 397 0092 1344     		add	r3, r3, r2
 398 0094 13F8180C 		ldrb	r0, [r3, #-24]	@ zero_extendqisi2
 399 0098 FFF7FEFF 		bl	LCD_2_PutChar
 400              	.LVL63:
 171:.\LCD.c       **** 		for(x=0;x<=23;x++){
 401              		.loc 1 171 0 discriminator 2
 402 009c 2368     		ldr	r3, [r4]
 403 009e 0133     		adds	r3, r3, #1
 404 00a0 2360     		str	r3, [r4]
 405              	.L14:
 171:.\LCD.c       **** 		for(x=0;x<=23;x++){
 406              		.loc 1 171 0 is_stmt 0 discriminator 1
 407 00a2 2368     		ldr	r3, [r4]
 408 00a4 172B     		cmp	r3, #23
 409 00a6 F3D9     		bls	.L15
 410              	.L7:
 173:.\LCD.c       **** 		}
 174:.\LCD.c       ****     }
 175:.\LCD.c       **** }
 411              		.loc 1 175 0 is_stmt 1
 412 00a8 06B0     		add	sp, sp, #24
 413              		@ sp needed
 414 00aa 70BD     		pop	{r4, r5, r6, pc}
 415              	.L17:
 416              		.align	2
 417              	.L16:
 418 00ac 00000000 		.word	.LANCHOR0
 419 00b0 00000000 		.word	rventa
 420 00b4 00000000 		.word	x
 421              		.cfi_endproc
 422              	.LFE65:
 423              		.size	Hora_LCD, .-Hora_LCD
 424              		.section	.text.Fecha_LCD,"ax",%progbits
 425              		.align	2
 426              		.global	Fecha_LCD
 427              		.thumb
 428              		.thumb_func
 429              		.type	Fecha_LCD, %function
 430              	Fecha_LCD:
 431              	.LFB66:
 176:.\LCD.c       **** 
 177:.\LCD.c       **** /*
 178:.\LCD.c       **** ***************************************************************************************************
 179:.\LCD.c       **** *                                 			void Fecha_LCD(uint8 lcd)
 180:.\LCD.c       **** *
 181:.\LCD.c       **** * Description : 
 182:.\LCD.c       **** *               
 183:.\LCD.c       **** *
 184:.\LCD.c       **** * Argument(s) : none
 185:.\LCD.c       **** *
 186:.\LCD.c       **** * Return(s)   : none
 187:.\LCD.c       **** *
 188:.\LCD.c       **** * Caller(s)   : 
 189:.\LCD.c       **** *
 190:.\LCD.c       **** * Note(s)     : none.
 191:.\LCD.c       **** ***************************************************************************************************
 192:.\LCD.c       **** */
ARM GAS  C:\Users\RECEPC~1\AppData\Local\Temp\cc89K5zt.s 			page 12


 193:.\LCD.c       **** void Fecha_LCD(uint8 lcd){
 432              		.loc 1 193 0
 433              		.cfi_startproc
 434              		@ args = 0, pretend = 0, frame = 32
 435              		@ frame_needed = 0, uses_anonymous_args = 0
 436              	.LVL64:
 437 0000 70B5     		push	{r4, r5, r6, lr}
 438              		.cfi_def_cfa_offset 16
 439              		.cfi_offset 4, -16
 440              		.cfi_offset 5, -12
 441              		.cfi_offset 6, -8
 442              		.cfi_offset 14, -4
 443 0002 88B0     		sub	sp, sp, #32
 444              		.cfi_def_cfa_offset 48
 445 0004 0646     		mov	r6, r0
 194:.\LCD.c       **** 	uint8 fecha[25]={0xAA,0x98,0x00,0xcb,0x01,0x27,0x24,0xC5,0x02,0x00,0x00,0xFF,0xFF,0x30,0x30,0x2f,0
 446              		.loc 1 194 0
 447 0006 01AC     		add	r4, sp, #4
 448 0008 2B4D     		ldr	r5, .L25
 449 000a 55F8180F 		ldr	r0, [r5, #24]!	@ unaligned
 450              	.LVL65:
 451 000e 6968     		ldr	r1, [r5, #4]	@ unaligned
 452 0010 AA68     		ldr	r2, [r5, #8]	@ unaligned
 453 0012 EB68     		ldr	r3, [r5, #12]	@ unaligned
 454 0014 0FC4     		stmia	r4!, {r0, r1, r2, r3}
 455 0016 2869     		ldr	r0, [r5, #16]	@ unaligned
 456 0018 6969     		ldr	r1, [r5, #20]	@ unaligned
 457 001a 03C4     		stmia	r4!, {r0, r1}
 458 001c 2B7E     		ldrb	r3, [r5, #24]	@ zero_extendqisi2
 459 001e 2370     		strb	r3, [r4]
 195:.\LCD.c       **** 	fecha[13]=(((rventa.fecha[0]&0x30)>>4)+48);
 460              		.loc 1 195 0
 461 0020 264B     		ldr	r3, .L25+4
 462 0022 93F89D20 		ldrb	r2, [r3, #157]	@ zero_extendqisi2
 463 0026 C2F30111 		ubfx	r1, r2, #4, #2
 464 002a 3031     		adds	r1, r1, #48
 465 002c 8DF81110 		strb	r1, [sp, #17]
 196:.\LCD.c       **** 	fecha[14]=((rventa.fecha[0]&0x0F)+48);
 466              		.loc 1 196 0
 467 0030 02F00F02 		and	r2, r2, #15
 468 0034 3032     		adds	r2, r2, #48
 469 0036 8DF81220 		strb	r2, [sp, #18]
 197:.\LCD.c       **** 	fecha[16]=(((rventa.fecha[1]&0x10)>>4)+48);
 470              		.loc 1 197 0
 471 003a 93F89E20 		ldrb	r2, [r3, #158]	@ zero_extendqisi2
 472 003e C2F30011 		ubfx	r1, r2, #4, #1
 473 0042 3031     		adds	r1, r1, #48
 474 0044 8DF81410 		strb	r1, [sp, #20]
 198:.\LCD.c       **** 	fecha[17]=((rventa.fecha[1]&0x0F)+48);
 475              		.loc 1 198 0
 476 0048 02F00F02 		and	r2, r2, #15
 477 004c 3032     		adds	r2, r2, #48
 478 004e 8DF81520 		strb	r2, [sp, #21]
 199:.\LCD.c       **** 	fecha[19]=(((rventa.fecha[2]&0xF0)>>4)+48);
 479              		.loc 1 199 0
 480 0052 93F89F30 		ldrb	r3, [r3, #159]	@ zero_extendqisi2
 481 0056 1A09     		lsrs	r2, r3, #4
ARM GAS  C:\Users\RECEPC~1\AppData\Local\Temp\cc89K5zt.s 			page 13


 482 0058 3032     		adds	r2, r2, #48
 483 005a 8DF81720 		strb	r2, [sp, #23]
 200:.\LCD.c       **** 	fecha[20]=((rventa.fecha[2]&0x0F)+48);	
 484              		.loc 1 200 0
 485 005e 03F00F03 		and	r3, r3, #15
 486 0062 3033     		adds	r3, r3, #48
 487 0064 8DF81830 		strb	r3, [sp, #24]
 201:.\LCD.c       ****     if(lcd==1){
 488              		.loc 1 201 0
 489 0068 012E     		cmp	r6, #1
 490 006a 11D1     		bne	.L19
 202:.\LCD.c       **** 		for(x=0;x<=24;x++){
 491              		.loc 1 202 0
 492 006c 0022     		movs	r2, #0
 493 006e 144B     		ldr	r3, .L25+8
 494 0070 1A60     		str	r2, [r3]
 495 0072 1C46     		mov	r4, r3
 496 0074 08E0     		b	.L20
 497              	.L21:
 203:.\LCD.c       ****         	LCD_1_PutChar(fecha[x]);
 498              		.loc 1 203 0 discriminator 2
 499 0076 08AA     		add	r2, sp, #32
 500 0078 1344     		add	r3, r3, r2
 501 007a 13F81C0C 		ldrb	r0, [r3, #-28]	@ zero_extendqisi2
 502 007e FFF7FEFF 		bl	LCD_1_PutChar
 503              	.LVL66:
 202:.\LCD.c       **** 		for(x=0;x<=24;x++){
 504              		.loc 1 202 0 discriminator 2
 505 0082 2368     		ldr	r3, [r4]
 506 0084 0133     		adds	r3, r3, #1
 507 0086 2360     		str	r3, [r4]
 508              	.L20:
 202:.\LCD.c       **** 		for(x=0;x<=24;x++){
 509              		.loc 1 202 0 is_stmt 0 discriminator 1
 510 0088 2368     		ldr	r3, [r4]
 511 008a 182B     		cmp	r3, #24
 512 008c F3D9     		bls	.L21
 513 008e 10E0     		b	.L18
 514              	.L19:
 204:.\LCD.c       **** 		}
 205:.\LCD.c       ****     }
 206:.\LCD.c       ****     else{
 207:.\LCD.c       **** 		for(x=0;x<=24;x++){
 515              		.loc 1 207 0 is_stmt 1
 516 0090 0022     		movs	r2, #0
 517 0092 0B4B     		ldr	r3, .L25+8
 518 0094 1A60     		str	r2, [r3]
 519 0096 1C46     		mov	r4, r3
 520 0098 08E0     		b	.L23
 521              	.L24:
 208:.\LCD.c       **** 	        LCD_2_PutChar(fecha[x]);
 522              		.loc 1 208 0 discriminator 2
 523 009a 08AA     		add	r2, sp, #32
 524 009c 1344     		add	r3, r3, r2
 525 009e 13F81C0C 		ldrb	r0, [r3, #-28]	@ zero_extendqisi2
 526 00a2 FFF7FEFF 		bl	LCD_2_PutChar
 527              	.LVL67:
ARM GAS  C:\Users\RECEPC~1\AppData\Local\Temp\cc89K5zt.s 			page 14


 207:.\LCD.c       **** 		for(x=0;x<=24;x++){
 528              		.loc 1 207 0 discriminator 2
 529 00a6 2368     		ldr	r3, [r4]
 530 00a8 0133     		adds	r3, r3, #1
 531 00aa 2360     		str	r3, [r4]
 532              	.L23:
 207:.\LCD.c       **** 		for(x=0;x<=24;x++){
 533              		.loc 1 207 0 is_stmt 0 discriminator 1
 534 00ac 2368     		ldr	r3, [r4]
 535 00ae 182B     		cmp	r3, #24
 536 00b0 F3D9     		bls	.L24
 537              	.L18:
 209:.\LCD.c       **** 		}
 210:.\LCD.c       ****     }
 211:.\LCD.c       **** }
 538              		.loc 1 211 0 is_stmt 1
 539 00b2 08B0     		add	sp, sp, #32
 540              		@ sp needed
 541 00b4 70BD     		pop	{r4, r5, r6, pc}
 542              	.L26:
 543 00b6 00BF     		.align	2
 544              	.L25:
 545 00b8 00000000 		.word	.LANCHOR0
 546 00bc 00000000 		.word	rventa
 547 00c0 00000000 		.word	x
 548              		.cfi_endproc
 549              	.LFE66:
 550              		.size	Fecha_LCD, .-Fecha_LCD
 551              		.section	.text.Nombre_LCD,"ax",%progbits
 552              		.align	2
 553              		.global	Nombre_LCD
 554              		.thumb
 555              		.thumb_func
 556              		.type	Nombre_LCD, %function
 557              	Nombre_LCD:
 558              	.LFB67:
 212:.\LCD.c       **** 
 213:.\LCD.c       **** /*
 214:.\LCD.c       **** ***************************************************************************************************
 215:.\LCD.c       **** *                                 			void Nombre_LCD(uint8 lcd)
 216:.\LCD.c       **** *
 217:.\LCD.c       **** * Description : 
 218:.\LCD.c       **** *               
 219:.\LCD.c       **** *
 220:.\LCD.c       **** * Argument(s) : none
 221:.\LCD.c       **** *
 222:.\LCD.c       **** * Return(s)   : none
 223:.\LCD.c       **** *
 224:.\LCD.c       **** * Caller(s)   : 
 225:.\LCD.c       **** *
 226:.\LCD.c       **** * Note(s)     : none.
 227:.\LCD.c       **** ***************************************************************************************************
 228:.\LCD.c       **** */
 229:.\LCD.c       **** void Nombre_LCD(uint8 lcd){
 559              		.loc 1 229 0
 560              		.cfi_startproc
 561              		@ args = 0, pretend = 0, frame = 24
ARM GAS  C:\Users\RECEPC~1\AppData\Local\Temp\cc89K5zt.s 			page 15


 562              		@ frame_needed = 0, uses_anonymous_args = 0
 563              	.LVL68:
 564 0000 70B5     		push	{r4, r5, r6, lr}
 565              		.cfi_def_cfa_offset 16
 566              		.cfi_offset 4, -16
 567              		.cfi_offset 5, -12
 568              		.cfi_offset 6, -8
 569              		.cfi_offset 14, -4
 570 0002 86B0     		sub	sp, sp, #24
 571              		.cfi_def_cfa_offset 40
 572 0004 0646     		mov	r6, r0
 230:.\LCD.c       **** 	uint8 buffer[18]={0xAA,0x98,0x00,0xA5,0x00,0x7E,0x23,0xC5,0x02,0x00,0x00,0xFF,0xFF,0x20,0xCC,0x33,
 573              		.loc 1 230 0
 574 0006 01AC     		add	r4, sp, #4
 575 0008 374D     		ldr	r5, .L40
 576 000a 55F8340F 		ldr	r0, [r5, #52]!	@ unaligned
 577              	.LVL69:
 578 000e 6968     		ldr	r1, [r5, #4]	@ unaligned
 579 0010 AA68     		ldr	r2, [r5, #8]	@ unaligned
 580 0012 EB68     		ldr	r3, [r5, #12]	@ unaligned
 581 0014 0FC4     		stmia	r4!, {r0, r1, r2, r3}
 582 0016 2B8A     		ldrh	r3, [r5, #16]	@ unaligned
 583 0018 2380     		strh	r3, [r4]	@ unaligned
 231:.\LCD.c       ****     if(lcd==1){
 584              		.loc 1 231 0
 585 001a 012E     		cmp	r6, #1
 586 001c 32D1     		bne	.L28
 232:.\LCD.c       **** 		for(x=1;(x<=rventa.nombre[0]&&x<=25);x++){
 587              		.loc 1 232 0
 588 001e 0122     		movs	r2, #1
 589 0020 324B     		ldr	r3, .L40+4
 590 0022 1A60     		str	r2, [r3]
 591 0024 324D     		ldr	r5, .L40+8
 233:.\LCD.c       **** 			buffer[13]=rventa.nombre[x];			
 234:.\LCD.c       **** 			for(y=0;y<=17;y++){
 592              		.loc 1 234 0
 593 0026 334C     		ldr	r4, .L40+12
 232:.\LCD.c       **** 		for(x=1;(x<=rventa.nombre[0]&&x<=25);x++){
 594              		.loc 1 232 0
 595 0028 24E0     		b	.L29
 596              	.L34:
 233:.\LCD.c       **** 			buffer[13]=rventa.nombre[x];			
 597              		.loc 1 233 0
 598 002a EB5C     		ldrb	r3, [r5, r3]	@ zero_extendqisi2
 599 002c 8DF81130 		strb	r3, [sp, #17]
 600              		.loc 1 234 0
 601 0030 0023     		movs	r3, #0
 602 0032 2360     		str	r3, [r4]
 603 0034 08E0     		b	.L30
 604              	.L31:
 235:.\LCD.c       ****         		LCD_1_PutChar(buffer[y]);
 605              		.loc 1 235 0 discriminator 2
 606 0036 06AA     		add	r2, sp, #24
 607 0038 1344     		add	r3, r3, r2
 608 003a 13F8140C 		ldrb	r0, [r3, #-20]	@ zero_extendqisi2
 609 003e FFF7FEFF 		bl	LCD_1_PutChar
 610              	.LVL70:
ARM GAS  C:\Users\RECEPC~1\AppData\Local\Temp\cc89K5zt.s 			page 16


 234:.\LCD.c       **** 			for(y=0;y<=17;y++){
 611              		.loc 1 234 0 discriminator 2
 612 0042 2368     		ldr	r3, [r4]
 613 0044 0133     		adds	r3, r3, #1
 614 0046 2360     		str	r3, [r4]
 615              	.L30:
 234:.\LCD.c       **** 			for(y=0;y<=17;y++){
 616              		.loc 1 234 0 is_stmt 0 discriminator 1
 617 0048 2368     		ldr	r3, [r4]
 618 004a 112B     		cmp	r3, #17
 619 004c F3D9     		bls	.L31
 236:.\LCD.c       **** 			}
 237:.\LCD.c       **** 			if(buffer[3]==0xFF){
 620              		.loc 1 237 0 is_stmt 1
 621 004e 9DF80730 		ldrb	r3, [sp, #7]	@ zero_extendqisi2
 622 0052 FF2B     		cmp	r3, #255
 623 0054 05D1     		bne	.L32
 238:.\LCD.c       **** 				buffer[2]=0x01;
 624              		.loc 1 238 0
 625 0056 0123     		movs	r3, #1
 626 0058 8DF80630 		strb	r3, [sp, #6]
 239:.\LCD.c       **** 				buffer[3]=0x00;
 627              		.loc 1 239 0
 628 005c 0023     		movs	r3, #0
 629 005e 8DF80730 		strb	r3, [sp, #7]
 630              	.L32:
 240:.\LCD.c       **** 			}			
 241:.\LCD.c       **** 			buffer[3]+=15;
 631              		.loc 1 241 0
 632 0062 9DF80730 		ldrb	r3, [sp, #7]	@ zero_extendqisi2
 633 0066 0F33     		adds	r3, r3, #15
 634 0068 8DF80730 		strb	r3, [sp, #7]
 232:.\LCD.c       **** 		for(x=1;(x<=rventa.nombre[0]&&x<=25);x++){
 635              		.loc 1 232 0
 636 006c 1F4B     		ldr	r3, .L40+4
 637 006e 1A68     		ldr	r2, [r3]
 638 0070 0132     		adds	r2, r2, #1
 639 0072 1A60     		str	r2, [r3]
 640              	.L29:
 232:.\LCD.c       **** 		for(x=1;(x<=rventa.nombre[0]&&x<=25);x++){
 641              		.loc 1 232 0 is_stmt 0 discriminator 1
 642 0074 2A78     		ldrb	r2, [r5]	@ zero_extendqisi2
 643 0076 1D4B     		ldr	r3, .L40+4
 644 0078 1B68     		ldr	r3, [r3]
 645 007a 9A42     		cmp	r2, r3
 646 007c 32D3     		bcc	.L27
 232:.\LCD.c       **** 		for(x=1;(x<=rventa.nombre[0]&&x<=25);x++){
 647              		.loc 1 232 0 discriminator 2
 648 007e 192B     		cmp	r3, #25
 649 0080 D3D9     		bls	.L34
 650 0082 2FE0     		b	.L27
 651              	.L28:
 242:.\LCD.c       **** 		}
 243:.\LCD.c       ****     }
 244:.\LCD.c       ****     else{
 245:.\LCD.c       **** 		for(x=1;x<=rventa.nombre[0];x++){
 652              		.loc 1 245 0 is_stmt 1
ARM GAS  C:\Users\RECEPC~1\AppData\Local\Temp\cc89K5zt.s 			page 17


 653 0084 0122     		movs	r2, #1
 654 0086 194B     		ldr	r3, .L40+4
 655 0088 1A60     		str	r2, [r3]
 656 008a 194D     		ldr	r5, .L40+8
 246:.\LCD.c       **** 			buffer[13]=rventa.nombre[x];			
 247:.\LCD.c       **** 			for(y=0;y<=17;y++){
 657              		.loc 1 247 0
 658 008c 194C     		ldr	r4, .L40+12
 245:.\LCD.c       **** 		for(x=1;x<=rventa.nombre[0];x++){
 659              		.loc 1 245 0
 660 008e 24E0     		b	.L35
 661              	.L39:
 246:.\LCD.c       **** 			buffer[13]=rventa.nombre[x];			
 662              		.loc 1 246 0
 663 0090 EB5C     		ldrb	r3, [r5, r3]	@ zero_extendqisi2
 664 0092 8DF81130 		strb	r3, [sp, #17]
 665              		.loc 1 247 0
 666 0096 0023     		movs	r3, #0
 667 0098 2360     		str	r3, [r4]
 668 009a 08E0     		b	.L36
 669              	.L37:
 248:.\LCD.c       ****         		LCD_2_PutChar(buffer[y]);
 670              		.loc 1 248 0 discriminator 2
 671 009c 06AA     		add	r2, sp, #24
 672 009e 1344     		add	r3, r3, r2
 673 00a0 13F8140C 		ldrb	r0, [r3, #-20]	@ zero_extendqisi2
 674 00a4 FFF7FEFF 		bl	LCD_2_PutChar
 675              	.LVL71:
 247:.\LCD.c       **** 			for(y=0;y<=17;y++){
 676              		.loc 1 247 0 discriminator 2
 677 00a8 2368     		ldr	r3, [r4]
 678 00aa 0133     		adds	r3, r3, #1
 679 00ac 2360     		str	r3, [r4]
 680              	.L36:
 247:.\LCD.c       **** 			for(y=0;y<=17;y++){
 681              		.loc 1 247 0 is_stmt 0 discriminator 1
 682 00ae 2368     		ldr	r3, [r4]
 683 00b0 112B     		cmp	r3, #17
 684 00b2 F3D9     		bls	.L37
 249:.\LCD.c       **** 			}
 250:.\LCD.c       **** 			if(buffer[3]==0xFF){
 685              		.loc 1 250 0 is_stmt 1
 686 00b4 9DF80730 		ldrb	r3, [sp, #7]	@ zero_extendqisi2
 687 00b8 FF2B     		cmp	r3, #255
 688 00ba 05D1     		bne	.L38
 251:.\LCD.c       **** 				buffer[2]=0x01;
 689              		.loc 1 251 0
 690 00bc 0123     		movs	r3, #1
 691 00be 8DF80630 		strb	r3, [sp, #6]
 252:.\LCD.c       **** 				buffer[3]=0x00;
 692              		.loc 1 252 0
 693 00c2 0023     		movs	r3, #0
 694 00c4 8DF80730 		strb	r3, [sp, #7]
 695              	.L38:
 253:.\LCD.c       **** 			}			
 254:.\LCD.c       **** 			buffer[3]+=15;
 696              		.loc 1 254 0
ARM GAS  C:\Users\RECEPC~1\AppData\Local\Temp\cc89K5zt.s 			page 18


 697 00c8 9DF80730 		ldrb	r3, [sp, #7]	@ zero_extendqisi2
 698 00cc 0F33     		adds	r3, r3, #15
 699 00ce 8DF80730 		strb	r3, [sp, #7]
 245:.\LCD.c       **** 		for(x=1;x<=rventa.nombre[0];x++){
 700              		.loc 1 245 0
 701 00d2 064B     		ldr	r3, .L40+4
 702 00d4 1A68     		ldr	r2, [r3]
 703 00d6 0132     		adds	r2, r2, #1
 704 00d8 1A60     		str	r2, [r3]
 705              	.L35:
 245:.\LCD.c       **** 		for(x=1;x<=rventa.nombre[0];x++){
 706              		.loc 1 245 0 is_stmt 0 discriminator 1
 707 00da 2A78     		ldrb	r2, [r5]	@ zero_extendqisi2
 708 00dc 034B     		ldr	r3, .L40+4
 709 00de 1B68     		ldr	r3, [r3]
 710 00e0 9A42     		cmp	r2, r3
 711 00e2 D5D2     		bcs	.L39
 712              	.L27:
 255:.\LCD.c       **** 		}
 256:.\LCD.c       ****     }	
 257:.\LCD.c       **** }
 713              		.loc 1 257 0 is_stmt 1
 714 00e4 06B0     		add	sp, sp, #24
 715              		@ sp needed
 716 00e6 70BD     		pop	{r4, r5, r6, pc}
 717              	.L41:
 718              		.align	2
 719              	.L40:
 720 00e8 00000000 		.word	.LANCHOR0
 721 00ec 00000000 		.word	x
 722 00f0 00000000 		.word	rventa
 723 00f4 00000000 		.word	y
 724              		.cfi_endproc
 725              	.LFE67:
 726              		.size	Nombre_LCD, .-Nombre_LCD
 727              		.section	.text.Precio_LCD,"ax",%progbits
 728              		.align	2
 729              		.global	Precio_LCD
 730              		.thumb
 731              		.thumb_func
 732              		.type	Precio_LCD, %function
 733              	Precio_LCD:
 734              	.LFB68:
 258:.\LCD.c       **** 
 259:.\LCD.c       **** /*
 260:.\LCD.c       **** ***************************************************************************************************
 261:.\LCD.c       **** *                          void Precio_LCD(uint8 lcd, uint8 y1, uint8 y2, uint8 eeprom)
 262:.\LCD.c       **** *
 263:.\LCD.c       **** * Description : 
 264:.\LCD.c       **** *               
 265:.\LCD.c       **** *
 266:.\LCD.c       **** * Argument(s) : none
 267:.\LCD.c       **** *
 268:.\LCD.c       **** * Return(s)   : none
 269:.\LCD.c       **** *
 270:.\LCD.c       **** * Caller(s)   : 
 271:.\LCD.c       **** *
ARM GAS  C:\Users\RECEPC~1\AppData\Local\Temp\cc89K5zt.s 			page 19


 272:.\LCD.c       **** * Note(s)     : none.
 273:.\LCD.c       **** ***************************************************************************************************
 274:.\LCD.c       **** */
 275:.\LCD.c       **** void Precio_LCD(uint8 lcd, uint8 y1, uint8 y2, uint16 eeprom){
 735              		.loc 1 275 0
 736              		.cfi_startproc
 737              		@ args = 0, pretend = 0, frame = 24
 738              		@ frame_needed = 0, uses_anonymous_args = 0
 739              	.LVL72:
 740 0000 F0B5     		push	{r4, r5, r6, r7, lr}
 741              		.cfi_def_cfa_offset 20
 742              		.cfi_offset 4, -20
 743              		.cfi_offset 5, -16
 744              		.cfi_offset 6, -12
 745              		.cfi_offset 7, -8
 746              		.cfi_offset 14, -4
 747 0002 87B0     		sub	sp, sp, #28
 748              		.cfi_def_cfa_offset 48
 749 0004 0646     		mov	r6, r0
 750 0006 8C46     		mov	ip, r1
 751 0008 9646     		mov	lr, r2
 752 000a 1F46     		mov	r7, r3
 276:.\LCD.c       **** 	uint8 hora[23]={0xAA,0x98,0x01,0x80,0x01,0x60,0x24,0xC5,0x02,0x00,0x00,0xFF,0xFF,'$',0X20,0x20,0X2
 753              		.loc 1 276 0
 754 000c 6C46     		mov	r4, sp
 755 000e 294D     		ldr	r5, .L52
 756 0010 55F8480F 		ldr	r0, [r5, #72]!	@ unaligned
 757              	.LVL73:
 758 0014 6968     		ldr	r1, [r5, #4]	@ unaligned
 759              	.LVL74:
 760 0016 AA68     		ldr	r2, [r5, #8]	@ unaligned
 761              	.LVL75:
 762 0018 EB68     		ldr	r3, [r5, #12]	@ unaligned
 763              	.LVL76:
 764 001a 0FC4     		stmia	r4!, {r0, r1, r2, r3}
 765 001c 2869     		ldr	r0, [r5, #16]	@ unaligned
 766 001e 2060     		str	r0, [r4]	@ unaligned
 767 0020 AB8A     		ldrh	r3, [r5, #20]	@ unaligned
 768 0022 AD7D     		ldrb	r5, [r5, #22]	@ zero_extendqisi2
 769 0024 A380     		strh	r3, [r4, #4]	@ unaligned
 770 0026 A571     		strb	r5, [r4, #6]
 277:.\LCD.c       **** 	hora[4]=y1;
 771              		.loc 1 277 0
 772 0028 8DF804C0 		strb	ip, [sp, #4]
 278:.\LCD.c       **** 	hora[5]=y2;
 773              		.loc 1 278 0
 774 002c 8DF805E0 		strb	lr, [sp, #5]
 279:.\LCD.c       **** 	if(leer_eeprom(eeprom,6)==1){
 775              		.loc 1 279 0
 776 0030 3846     		mov	r0, r7
 777 0032 0621     		movs	r1, #6
 778 0034 FFF7FEFF 		bl	leer_eeprom
 779              	.LVL77:
 780 0038 0128     		cmp	r0, #1
 781 003a 38D1     		bne	.L42
 280:.\LCD.c       **** 		if((buffer_i2c[0]<=0x05)&&(buffer_i2c[0]>=0x00)){
 782              		.loc 1 280 0
ARM GAS  C:\Users\RECEPC~1\AppData\Local\Temp\cc89K5zt.s 			page 20


 783 003c 1E4B     		ldr	r3, .L52+4
 784 003e 1878     		ldrb	r0, [r3]	@ zero_extendqisi2
 785 0040 0528     		cmp	r0, #5
 786 0042 0FD8     		bhi	.L44
 281:.\LCD.c       **** 			for(x=1;x<=buffer_i2c[0];x++){
 787              		.loc 1 281 0
 788 0044 0122     		movs	r2, #1
 789 0046 1D4B     		ldr	r3, .L52+8
 790 0048 1A60     		str	r2, [r3]
 791 004a 1A46     		mov	r2, r3
 282:.\LCD.c       **** 				hora[x+13]=buffer_i2c[x];
 792              		.loc 1 282 0
 793 004c 1A4D     		ldr	r5, .L52+4
 281:.\LCD.c       **** 			for(x=1;x<=buffer_i2c[0];x++){
 794              		.loc 1 281 0
 795 004e 06E0     		b	.L45
 796              	.L46:
 797              		.loc 1 282 0 discriminator 2
 798 0050 EC5C     		ldrb	r4, [r5, r3]	@ zero_extendqisi2
 799 0052 06A9     		add	r1, sp, #24
 800 0054 1944     		add	r1, r1, r3
 801 0056 01F80B4C 		strb	r4, [r1, #-11]
 281:.\LCD.c       **** 			for(x=1;x<=buffer_i2c[0];x++){
 802              		.loc 1 281 0 discriminator 2
 803 005a 0133     		adds	r3, r3, #1
 804 005c 1360     		str	r3, [r2]
 805              	.L45:
 281:.\LCD.c       **** 			for(x=1;x<=buffer_i2c[0];x++){
 806              		.loc 1 281 0 is_stmt 0 discriminator 1
 807 005e 1368     		ldr	r3, [r2]
 808 0060 9842     		cmp	r0, r3
 809 0062 F5D2     		bcs	.L46
 810              	.L44:
 283:.\LCD.c       **** 			}
 284:.\LCD.c       **** 		}
 285:.\LCD.c       **** 	    if(lcd==1){
 811              		.loc 1 285 0 is_stmt 1
 812 0064 012E     		cmp	r6, #1
 813 0066 11D1     		bne	.L47
 286:.\LCD.c       **** 			for(x=0;x<=22;x++){
 814              		.loc 1 286 0
 815 0068 0022     		movs	r2, #0
 816 006a 144B     		ldr	r3, .L52+8
 817 006c 1A60     		str	r2, [r3]
 818 006e 1C46     		mov	r4, r3
 819 0070 08E0     		b	.L48
 820              	.L49:
 287:.\LCD.c       **** 	        	LCD_1_PutChar(hora[x]);
 821              		.loc 1 287 0 discriminator 2
 822 0072 06AA     		add	r2, sp, #24
 823 0074 1344     		add	r3, r3, r2
 824 0076 13F8180C 		ldrb	r0, [r3, #-24]	@ zero_extendqisi2
 825 007a FFF7FEFF 		bl	LCD_1_PutChar
 826              	.LVL78:
 286:.\LCD.c       **** 			for(x=0;x<=22;x++){
 827              		.loc 1 286 0 discriminator 2
 828 007e 2368     		ldr	r3, [r4]
ARM GAS  C:\Users\RECEPC~1\AppData\Local\Temp\cc89K5zt.s 			page 21


 829 0080 0133     		adds	r3, r3, #1
 830 0082 2360     		str	r3, [r4]
 831              	.L48:
 286:.\LCD.c       **** 			for(x=0;x<=22;x++){
 832              		.loc 1 286 0 is_stmt 0 discriminator 1
 833 0084 2368     		ldr	r3, [r4]
 834 0086 162B     		cmp	r3, #22
 835 0088 F3D9     		bls	.L49
 836 008a 10E0     		b	.L42
 837              	.L47:
 288:.\LCD.c       **** 			}
 289:.\LCD.c       **** 	    }
 290:.\LCD.c       **** 	    else{
 291:.\LCD.c       **** 			for(x=0;x<=22;x++){
 838              		.loc 1 291 0 is_stmt 1
 839 008c 0022     		movs	r2, #0
 840 008e 0B4B     		ldr	r3, .L52+8
 841 0090 1A60     		str	r2, [r3]
 842 0092 1C46     		mov	r4, r3
 843 0094 08E0     		b	.L50
 844              	.L51:
 292:.\LCD.c       **** 		        LCD_2_PutChar(hora[x]);
 845              		.loc 1 292 0 discriminator 2
 846 0096 06AA     		add	r2, sp, #24
 847 0098 1344     		add	r3, r3, r2
 848 009a 13F8180C 		ldrb	r0, [r3, #-24]	@ zero_extendqisi2
 849 009e FFF7FEFF 		bl	LCD_2_PutChar
 850              	.LVL79:
 291:.\LCD.c       **** 			for(x=0;x<=22;x++){
 851              		.loc 1 291 0 discriminator 2
 852 00a2 2368     		ldr	r3, [r4]
 853 00a4 0133     		adds	r3, r3, #1
 854 00a6 2360     		str	r3, [r4]
 855              	.L50:
 291:.\LCD.c       **** 			for(x=0;x<=22;x++){
 856              		.loc 1 291 0 is_stmt 0 discriminator 1
 857 00a8 2368     		ldr	r3, [r4]
 858 00aa 162B     		cmp	r3, #22
 859 00ac F3D9     		bls	.L51
 860              	.L42:
 293:.\LCD.c       **** 			}
 294:.\LCD.c       **** 	    }
 295:.\LCD.c       **** 	}
 296:.\LCD.c       **** }
 861              		.loc 1 296 0 is_stmt 1
 862 00ae 07B0     		add	sp, sp, #28
 863              		@ sp needed
 864 00b0 F0BD     		pop	{r4, r5, r6, r7, pc}
 865              	.L53:
 866 00b2 00BF     		.align	2
 867              	.L52:
 868 00b4 00000000 		.word	.LANCHOR0
 869 00b8 00000000 		.word	buffer_i2c
 870 00bc 00000000 		.word	x
 871              		.cfi_endproc
 872              	.LFE68:
 873              		.size	Precio_LCD, .-Precio_LCD
ARM GAS  C:\Users\RECEPC~1\AppData\Local\Temp\cc89K5zt.s 			page 22


 874              		.section	.text.Grado_LCD,"ax",%progbits
 875              		.align	2
 876              		.global	Grado_LCD
 877              		.thumb
 878              		.thumb_func
 879              		.type	Grado_LCD, %function
 880              	Grado_LCD:
 881              	.LFB69:
 297:.\LCD.c       **** 
 298:.\LCD.c       **** /*
 299:.\LCD.c       **** ***************************************************************************************************
 300:.\LCD.c       **** *                          void Grado_LCD(uint8 lcd, uint8 y1, uint8 y2, uint8 eeprom)
 301:.\LCD.c       **** *
 302:.\LCD.c       **** * Description : 
 303:.\LCD.c       **** *               
 304:.\LCD.c       **** *
 305:.\LCD.c       **** * Argument(s) : none
 306:.\LCD.c       **** *
 307:.\LCD.c       **** * Return(s)   : none
 308:.\LCD.c       **** *
 309:.\LCD.c       **** * Caller(s)   : 
 310:.\LCD.c       **** *
 311:.\LCD.c       **** * Note(s)     : none.
 312:.\LCD.c       **** ***************************************************************************************************
 313:.\LCD.c       **** */
 314:.\LCD.c       **** void Grado_LCD(uint8 lcd, uint8 y1, uint8 y2, uint16 eeprom){
 882              		.loc 1 314 0
 883              		.cfi_startproc
 884              		@ args = 0, pretend = 0, frame = 24
 885              		@ frame_needed = 0, uses_anonymous_args = 0
 886              	.LVL80:
 887 0000 F0B5     		push	{r4, r5, r6, r7, lr}
 888              		.cfi_def_cfa_offset 20
 889              		.cfi_offset 4, -20
 890              		.cfi_offset 5, -16
 891              		.cfi_offset 6, -12
 892              		.cfi_offset 7, -8
 893              		.cfi_offset 14, -4
 894 0002 87B0     		sub	sp, sp, #28
 895              		.cfi_def_cfa_offset 48
 896 0004 0646     		mov	r6, r0
 897 0006 8C46     		mov	ip, r1
 898 0008 9646     		mov	lr, r2
 899 000a 1F46     		mov	r7, r3
 315:.\LCD.c       **** 	uint8 hora[18]={0xAA,0x98,0x02,0x20,0x01,0x60,0x24,0xC5,0x02,0x00,0x00,0xFF,0xFF,0x20,0xCC,0x33,0x
 900              		.loc 1 315 0
 901 000c 01AC     		add	r4, sp, #4
 902 000e 274D     		ldr	r5, .L64
 903 0010 55F8600F 		ldr	r0, [r5, #96]!	@ unaligned
 904              	.LVL81:
 905 0014 6968     		ldr	r1, [r5, #4]	@ unaligned
 906              	.LVL82:
 907 0016 AA68     		ldr	r2, [r5, #8]	@ unaligned
 908              	.LVL83:
 909 0018 EB68     		ldr	r3, [r5, #12]	@ unaligned
 910              	.LVL84:
 911 001a 0FC4     		stmia	r4!, {r0, r1, r2, r3}
ARM GAS  C:\Users\RECEPC~1\AppData\Local\Temp\cc89K5zt.s 			page 23


 912 001c 2B8A     		ldrh	r3, [r5, #16]	@ unaligned
 913 001e 2380     		strh	r3, [r4]	@ unaligned
 316:.\LCD.c       **** 	hora[4]=y1;
 914              		.loc 1 316 0
 915 0020 8DF808C0 		strb	ip, [sp, #8]
 317:.\LCD.c       **** 	hora[5]=y2;
 916              		.loc 1 317 0
 917 0024 8DF809E0 		strb	lr, [sp, #9]
 318:.\LCD.c       **** 	if(leer_eeprom(eeprom,2)==1){
 918              		.loc 1 318 0
 919 0028 3846     		mov	r0, r7
 920 002a 0221     		movs	r1, #2
 921 002c FFF7FEFF 		bl	leer_eeprom
 922              	.LVL85:
 923 0030 0128     		cmp	r0, #1
 924 0032 38D1     		bne	.L54
 319:.\LCD.c       **** 		if(buffer_i2c[0]==0x01){
 925              		.loc 1 319 0
 926 0034 1E4B     		ldr	r3, .L64+4
 927 0036 1878     		ldrb	r0, [r3]	@ zero_extendqisi2
 928 0038 0128     		cmp	r0, #1
 929 003a 0FD1     		bne	.L56
 320:.\LCD.c       **** 			for(x=1;x<=buffer_i2c[0];x++){
 930              		.loc 1 320 0
 931 003c 0122     		movs	r2, #1
 932 003e 1D4B     		ldr	r3, .L64+8
 933 0040 1A60     		str	r2, [r3]
 934 0042 1A46     		mov	r2, r3
 321:.\LCD.c       **** 				hora[x+12]=buffer_i2c[x];
 935              		.loc 1 321 0
 936 0044 1A4D     		ldr	r5, .L64+4
 320:.\LCD.c       **** 			for(x=1;x<=buffer_i2c[0];x++){
 937              		.loc 1 320 0
 938 0046 06E0     		b	.L57
 939              	.L58:
 940              		.loc 1 321 0 discriminator 2
 941 0048 EC5C     		ldrb	r4, [r5, r3]	@ zero_extendqisi2
 942 004a 06A9     		add	r1, sp, #24
 943 004c 1944     		add	r1, r1, r3
 944 004e 01F8084C 		strb	r4, [r1, #-8]
 320:.\LCD.c       **** 			for(x=1;x<=buffer_i2c[0];x++){
 945              		.loc 1 320 0 discriminator 2
 946 0052 0133     		adds	r3, r3, #1
 947 0054 1360     		str	r3, [r2]
 948              	.L57:
 320:.\LCD.c       **** 			for(x=1;x<=buffer_i2c[0];x++){
 949              		.loc 1 320 0 is_stmt 0 discriminator 1
 950 0056 1368     		ldr	r3, [r2]
 951 0058 9842     		cmp	r0, r3
 952 005a F5D2     		bcs	.L58
 953              	.L56:
 322:.\LCD.c       **** 			}
 323:.\LCD.c       **** 		}
 324:.\LCD.c       **** 	    if(lcd==1){
 954              		.loc 1 324 0 is_stmt 1
 955 005c 012E     		cmp	r6, #1
 956 005e 11D1     		bne	.L59
ARM GAS  C:\Users\RECEPC~1\AppData\Local\Temp\cc89K5zt.s 			page 24


 325:.\LCD.c       **** 			for(x=0;x<=22;x++){
 957              		.loc 1 325 0
 958 0060 0022     		movs	r2, #0
 959 0062 144B     		ldr	r3, .L64+8
 960 0064 1A60     		str	r2, [r3]
 961 0066 1C46     		mov	r4, r3
 962 0068 08E0     		b	.L60
 963              	.L61:
 326:.\LCD.c       **** 	        	LCD_1_PutChar(hora[x]);
 964              		.loc 1 326 0 discriminator 2
 965 006a 06AA     		add	r2, sp, #24
 966 006c 1344     		add	r3, r3, r2
 967 006e 13F8140C 		ldrb	r0, [r3, #-20]	@ zero_extendqisi2
 968 0072 FFF7FEFF 		bl	LCD_1_PutChar
 969              	.LVL86:
 325:.\LCD.c       **** 			for(x=0;x<=22;x++){
 970              		.loc 1 325 0 discriminator 2
 971 0076 2368     		ldr	r3, [r4]
 972 0078 0133     		adds	r3, r3, #1
 973 007a 2360     		str	r3, [r4]
 974              	.L60:
 325:.\LCD.c       **** 			for(x=0;x<=22;x++){
 975              		.loc 1 325 0 is_stmt 0 discriminator 1
 976 007c 2368     		ldr	r3, [r4]
 977 007e 162B     		cmp	r3, #22
 978 0080 F3D9     		bls	.L61
 979 0082 10E0     		b	.L54
 980              	.L59:
 327:.\LCD.c       **** 			}
 328:.\LCD.c       **** 	    }
 329:.\LCD.c       **** 	    else{
 330:.\LCD.c       **** 			for(x=0;x<=22;x++){
 981              		.loc 1 330 0 is_stmt 1
 982 0084 0022     		movs	r2, #0
 983 0086 0B4B     		ldr	r3, .L64+8
 984 0088 1A60     		str	r2, [r3]
 985 008a 1C46     		mov	r4, r3
 986 008c 08E0     		b	.L62
 987              	.L63:
 331:.\LCD.c       **** 		        LCD_2_PutChar(hora[x]);
 988              		.loc 1 331 0 discriminator 2
 989 008e 06AA     		add	r2, sp, #24
 990 0090 1344     		add	r3, r3, r2
 991 0092 13F8140C 		ldrb	r0, [r3, #-20]	@ zero_extendqisi2
 992 0096 FFF7FEFF 		bl	LCD_2_PutChar
 993              	.LVL87:
 330:.\LCD.c       **** 			for(x=0;x<=22;x++){
 994              		.loc 1 330 0 discriminator 2
 995 009a 2368     		ldr	r3, [r4]
 996 009c 0133     		adds	r3, r3, #1
 997 009e 2360     		str	r3, [r4]
 998              	.L62:
 330:.\LCD.c       **** 			for(x=0;x<=22;x++){
 999              		.loc 1 330 0 is_stmt 0 discriminator 1
 1000 00a0 2368     		ldr	r3, [r4]
 1001 00a2 162B     		cmp	r3, #22
 1002 00a4 F3D9     		bls	.L63
ARM GAS  C:\Users\RECEPC~1\AppData\Local\Temp\cc89K5zt.s 			page 25


 1003              	.L54:
 332:.\LCD.c       **** 			}
 333:.\LCD.c       **** 	    }
 334:.\LCD.c       **** 	}
 335:.\LCD.c       **** }
 1004              		.loc 1 335 0 is_stmt 1
 1005 00a6 07B0     		add	sp, sp, #28
 1006              		@ sp needed
 1007 00a8 F0BD     		pop	{r4, r5, r6, r7, pc}
 1008              	.L65:
 1009 00aa 00BF     		.align	2
 1010              	.L64:
 1011 00ac 00000000 		.word	.LANCHOR0
 1012 00b0 00000000 		.word	buffer_i2c
 1013 00b4 00000000 		.word	x
 1014              		.cfi_endproc
 1015              	.LFE69:
 1016              		.size	Grado_LCD, .-Grado_LCD
 1017              		.section	.text.direccion_LCD,"ax",%progbits
 1018              		.align	2
 1019              		.global	direccion_LCD
 1020              		.thumb
 1021              		.thumb_func
 1022              		.type	direccion_LCD, %function
 1023              	direccion_LCD:
 1024              	.LFB70:
 336:.\LCD.c       **** 
 337:.\LCD.c       **** /*
 338:.\LCD.c       **** ***************************************************************************************************
 339:.\LCD.c       **** *                                 			void direccion_LCD(uint8 lcd)
 340:.\LCD.c       **** *
 341:.\LCD.c       **** * Description : 
 342:.\LCD.c       **** *               
 343:.\LCD.c       **** *
 344:.\LCD.c       **** * Argument(s) : none
 345:.\LCD.c       **** *
 346:.\LCD.c       **** * Return(s)   : none
 347:.\LCD.c       **** *
 348:.\LCD.c       **** * Caller(s)   : 
 349:.\LCD.c       **** *
 350:.\LCD.c       **** * Note(s)     : none.
 351:.\LCD.c       **** ***************************************************************************************************
 352:.\LCD.c       **** */
 353:.\LCD.c       **** void direccion_LCD(uint8 lcd){
 1025              		.loc 1 353 0
 1026              		.cfi_startproc
 1027              		@ args = 0, pretend = 0, frame = 24
 1028              		@ frame_needed = 0, uses_anonymous_args = 0
 1029              	.LVL88:
 1030 0000 70B5     		push	{r4, r5, r6, lr}
 1031              		.cfi_def_cfa_offset 16
 1032              		.cfi_offset 4, -16
 1033              		.cfi_offset 5, -12
 1034              		.cfi_offset 6, -8
 1035              		.cfi_offset 14, -4
 1036 0002 86B0     		sub	sp, sp, #24
 1037              		.cfi_def_cfa_offset 40
ARM GAS  C:\Users\RECEPC~1\AppData\Local\Temp\cc89K5zt.s 			page 26


 1038 0004 0646     		mov	r6, r0
 354:.\LCD.c       **** 	uint8 buffer[18]={0xAA,0x98,0x00,0xA5,0x00,0xB7,0x23,0xC5,0x02,0x00,0x00,0xFF,0xFF,0x20,0xCC,0x33,
 1039              		.loc 1 354 0
 1040 0006 01AC     		add	r4, sp, #4
 1041 0008 394D     		ldr	r5, .L79
 1042 000a 55F8740F 		ldr	r0, [r5, #116]!	@ unaligned
 1043              	.LVL89:
 1044 000e 6968     		ldr	r1, [r5, #4]	@ unaligned
 1045 0010 AA68     		ldr	r2, [r5, #8]	@ unaligned
 1046 0012 EB68     		ldr	r3, [r5, #12]	@ unaligned
 1047 0014 0FC4     		stmia	r4!, {r0, r1, r2, r3}
 1048 0016 2B8A     		ldrh	r3, [r5, #16]	@ unaligned
 1049 0018 2380     		strh	r3, [r4]	@ unaligned
 355:.\LCD.c       ****     if(lcd==1){
 1050              		.loc 1 355 0
 1051 001a 012E     		cmp	r6, #1
 1052 001c 33D1     		bne	.L67
 356:.\LCD.c       **** 		for(x=1;x<=rventa.direccion[0];x++){
 1053              		.loc 1 356 0
 1054 001e 0122     		movs	r2, #1
 1055 0020 344B     		ldr	r3, .L79+4
 1056 0022 1A60     		str	r2, [r3]
 1057 0024 344D     		ldr	r5, .L79+8
 357:.\LCD.c       **** 			buffer[13]=rventa.direccion[x];			
 358:.\LCD.c       **** 			for(y=0;y<=17;y++){
 1058              		.loc 1 358 0
 1059 0026 354C     		ldr	r4, .L79+12
 356:.\LCD.c       **** 		for(x=1;x<=rventa.direccion[0];x++){
 1060              		.loc 1 356 0
 1061 0028 26E0     		b	.L68
 1062              	.L72:
 357:.\LCD.c       **** 			buffer[13]=rventa.direccion[x];			
 1063              		.loc 1 357 0
 1064 002a 2B44     		add	r3, r3, r5
 1065 002c 93F84330 		ldrb	r3, [r3, #67]	@ zero_extendqisi2
 1066 0030 8DF81130 		strb	r3, [sp, #17]
 1067              		.loc 1 358 0
 1068 0034 0023     		movs	r3, #0
 1069 0036 2360     		str	r3, [r4]
 1070 0038 08E0     		b	.L69
 1071              	.L70:
 359:.\LCD.c       ****         		LCD_1_PutChar(buffer[y]);
 1072              		.loc 1 359 0 discriminator 2
 1073 003a 06AA     		add	r2, sp, #24
 1074 003c 1344     		add	r3, r3, r2
 1075 003e 13F8140C 		ldrb	r0, [r3, #-20]	@ zero_extendqisi2
 1076 0042 FFF7FEFF 		bl	LCD_1_PutChar
 1077              	.LVL90:
 358:.\LCD.c       **** 			for(y=0;y<=17;y++){
 1078              		.loc 1 358 0 discriminator 2
 1079 0046 2368     		ldr	r3, [r4]
 1080 0048 0133     		adds	r3, r3, #1
 1081 004a 2360     		str	r3, [r4]
 1082              	.L69:
 358:.\LCD.c       **** 			for(y=0;y<=17;y++){
 1083              		.loc 1 358 0 is_stmt 0 discriminator 1
 1084 004c 2368     		ldr	r3, [r4]
ARM GAS  C:\Users\RECEPC~1\AppData\Local\Temp\cc89K5zt.s 			page 27


 1085 004e 112B     		cmp	r3, #17
 1086 0050 F3D9     		bls	.L70
 360:.\LCD.c       **** 			}
 361:.\LCD.c       **** 			if(buffer[3]==0xFF){
 1087              		.loc 1 361 0 is_stmt 1
 1088 0052 9DF80730 		ldrb	r3, [sp, #7]	@ zero_extendqisi2
 1089 0056 FF2B     		cmp	r3, #255
 1090 0058 05D1     		bne	.L71
 362:.\LCD.c       **** 				buffer[2]=0x01;
 1091              		.loc 1 362 0
 1092 005a 0123     		movs	r3, #1
 1093 005c 8DF80630 		strb	r3, [sp, #6]
 363:.\LCD.c       **** 				buffer[3]=0x00;
 1094              		.loc 1 363 0
 1095 0060 0023     		movs	r3, #0
 1096 0062 8DF80730 		strb	r3, [sp, #7]
 1097              	.L71:
 364:.\LCD.c       **** 			}			
 365:.\LCD.c       **** 			buffer[3]+=15;
 1098              		.loc 1 365 0
 1099 0066 9DF80730 		ldrb	r3, [sp, #7]	@ zero_extendqisi2
 1100 006a 0F33     		adds	r3, r3, #15
 1101 006c 8DF80730 		strb	r3, [sp, #7]
 356:.\LCD.c       **** 		for(x=1;x<=rventa.direccion[0];x++){
 1102              		.loc 1 356 0
 1103 0070 204B     		ldr	r3, .L79+4
 1104 0072 1A68     		ldr	r2, [r3]
 1105 0074 0132     		adds	r2, r2, #1
 1106 0076 1A60     		str	r2, [r3]
 1107              	.L68:
 356:.\LCD.c       **** 		for(x=1;x<=rventa.direccion[0];x++){
 1108              		.loc 1 356 0 is_stmt 0 discriminator 1
 1109 0078 95F84320 		ldrb	r2, [r5, #67]	@ zero_extendqisi2
 1110 007c 1D4B     		ldr	r3, .L79+4
 1111 007e 1B68     		ldr	r3, [r3]
 1112 0080 9A42     		cmp	r2, r3
 1113 0082 D2D2     		bcs	.L72
 1114 0084 32E0     		b	.L66
 1115              	.L67:
 366:.\LCD.c       **** 		}
 367:.\LCD.c       ****     }
 368:.\LCD.c       ****     else{
 369:.\LCD.c       **** 		for(x=1;x<=rventa.direccion[0];x++){
 1116              		.loc 1 369 0 is_stmt 1
 1117 0086 0122     		movs	r2, #1
 1118 0088 1A4B     		ldr	r3, .L79+4
 1119 008a 1A60     		str	r2, [r3]
 1120 008c 1A4D     		ldr	r5, .L79+8
 370:.\LCD.c       **** 			buffer[13]=rventa.direccion[x];			
 371:.\LCD.c       **** 			for(y=0;y<=17;y++){
 1121              		.loc 1 371 0
 1122 008e 1B4C     		ldr	r4, .L79+12
 369:.\LCD.c       **** 		for(x=1;x<=rventa.direccion[0];x++){
 1123              		.loc 1 369 0
 1124 0090 26E0     		b	.L74
 1125              	.L78:
 370:.\LCD.c       **** 			buffer[13]=rventa.direccion[x];			
ARM GAS  C:\Users\RECEPC~1\AppData\Local\Temp\cc89K5zt.s 			page 28


 1126              		.loc 1 370 0
 1127 0092 2B44     		add	r3, r3, r5
 1128 0094 93F84330 		ldrb	r3, [r3, #67]	@ zero_extendqisi2
 1129 0098 8DF81130 		strb	r3, [sp, #17]
 1130              		.loc 1 371 0
 1131 009c 0023     		movs	r3, #0
 1132 009e 2360     		str	r3, [r4]
 1133 00a0 08E0     		b	.L75
 1134              	.L76:
 372:.\LCD.c       ****         		LCD_2_PutChar(buffer[y]);
 1135              		.loc 1 372 0 discriminator 2
 1136 00a2 06AA     		add	r2, sp, #24
 1137 00a4 1344     		add	r3, r3, r2
 1138 00a6 13F8140C 		ldrb	r0, [r3, #-20]	@ zero_extendqisi2
 1139 00aa FFF7FEFF 		bl	LCD_2_PutChar
 1140              	.LVL91:
 371:.\LCD.c       **** 			for(y=0;y<=17;y++){
 1141              		.loc 1 371 0 discriminator 2
 1142 00ae 2368     		ldr	r3, [r4]
 1143 00b0 0133     		adds	r3, r3, #1
 1144 00b2 2360     		str	r3, [r4]
 1145              	.L75:
 371:.\LCD.c       **** 			for(y=0;y<=17;y++){
 1146              		.loc 1 371 0 is_stmt 0 discriminator 1
 1147 00b4 2368     		ldr	r3, [r4]
 1148 00b6 112B     		cmp	r3, #17
 1149 00b8 F3D9     		bls	.L76
 373:.\LCD.c       **** 			}
 374:.\LCD.c       **** 			if(buffer[3]==0xFF){
 1150              		.loc 1 374 0 is_stmt 1
 1151 00ba 9DF80730 		ldrb	r3, [sp, #7]	@ zero_extendqisi2
 1152 00be FF2B     		cmp	r3, #255
 1153 00c0 05D1     		bne	.L77
 375:.\LCD.c       **** 				buffer[2]=0x01;
 1154              		.loc 1 375 0
 1155 00c2 0123     		movs	r3, #1
 1156 00c4 8DF80630 		strb	r3, [sp, #6]
 376:.\LCD.c       **** 				buffer[3]=0x00;
 1157              		.loc 1 376 0
 1158 00c8 0023     		movs	r3, #0
 1159 00ca 8DF80730 		strb	r3, [sp, #7]
 1160              	.L77:
 377:.\LCD.c       **** 			}			
 378:.\LCD.c       **** 			buffer[3]+=15;
 1161              		.loc 1 378 0
 1162 00ce 9DF80730 		ldrb	r3, [sp, #7]	@ zero_extendqisi2
 1163 00d2 0F33     		adds	r3, r3, #15
 1164 00d4 8DF80730 		strb	r3, [sp, #7]
 369:.\LCD.c       **** 		for(x=1;x<=rventa.direccion[0];x++){
 1165              		.loc 1 369 0
 1166 00d8 064B     		ldr	r3, .L79+4
 1167 00da 1A68     		ldr	r2, [r3]
 1168 00dc 0132     		adds	r2, r2, #1
 1169 00de 1A60     		str	r2, [r3]
 1170              	.L74:
 369:.\LCD.c       **** 		for(x=1;x<=rventa.direccion[0];x++){
 1171              		.loc 1 369 0 is_stmt 0 discriminator 1
ARM GAS  C:\Users\RECEPC~1\AppData\Local\Temp\cc89K5zt.s 			page 29


 1172 00e0 95F84320 		ldrb	r2, [r5, #67]	@ zero_extendqisi2
 1173 00e4 034B     		ldr	r3, .L79+4
 1174 00e6 1B68     		ldr	r3, [r3]
 1175 00e8 9A42     		cmp	r2, r3
 1176 00ea D2D2     		bcs	.L78
 1177              	.L66:
 379:.\LCD.c       **** 		}
 380:.\LCD.c       ****     }	
 381:.\LCD.c       **** }
 1178              		.loc 1 381 0 is_stmt 1
 1179 00ec 06B0     		add	sp, sp, #24
 1180              		@ sp needed
 1181 00ee 70BD     		pop	{r4, r5, r6, pc}
 1182              	.L80:
 1183              		.align	2
 1184              	.L79:
 1185 00f0 00000000 		.word	.LANCHOR0
 1186 00f4 00000000 		.word	x
 1187 00f8 00000000 		.word	rventa
 1188 00fc 00000000 		.word	y
 1189              		.cfi_endproc
 1190              	.LFE70:
 1191              		.size	direccion_LCD, .-direccion_LCD
 1192              		.section	.text.lema1_LCD,"ax",%progbits
 1193              		.align	2
 1194              		.global	lema1_LCD
 1195              		.thumb
 1196              		.thumb_func
 1197              		.type	lema1_LCD, %function
 1198              	lema1_LCD:
 1199              	.LFB71:
 382:.\LCD.c       **** 
 383:.\LCD.c       **** /*
 384:.\LCD.c       **** ***************************************************************************************************
 385:.\LCD.c       **** *                                 		void lema1_LCD(uint8 lcd)
 386:.\LCD.c       **** *
 387:.\LCD.c       **** * Description : 
 388:.\LCD.c       **** *               
 389:.\LCD.c       **** *
 390:.\LCD.c       **** * Argument(s) : none
 391:.\LCD.c       **** *
 392:.\LCD.c       **** * Return(s)   : none
 393:.\LCD.c       **** *
 394:.\LCD.c       **** * Caller(s)   : 
 395:.\LCD.c       **** *
 396:.\LCD.c       **** * Note(s)     : none.
 397:.\LCD.c       **** ***************************************************************************************************
 398:.\LCD.c       **** */
 399:.\LCD.c       **** void lema1_LCD(uint8 lcd){
 1200              		.loc 1 399 0
 1201              		.cfi_startproc
 1202              		@ args = 0, pretend = 0, frame = 24
 1203              		@ frame_needed = 0, uses_anonymous_args = 0
 1204              	.LVL92:
 1205 0000 70B5     		push	{r4, r5, r6, lr}
 1206              		.cfi_def_cfa_offset 16
 1207              		.cfi_offset 4, -16
ARM GAS  C:\Users\RECEPC~1\AppData\Local\Temp\cc89K5zt.s 			page 30


 1208              		.cfi_offset 5, -12
 1209              		.cfi_offset 6, -8
 1210              		.cfi_offset 14, -4
 1211 0002 86B0     		sub	sp, sp, #24
 1212              		.cfi_def_cfa_offset 40
 1213 0004 0646     		mov	r6, r0
 400:.\LCD.c       **** 	uint8 buffer[18]={0xAA,0x98,0x00,0xA5,0x01,0x27,0x23,0xC5,0x02,0x00,0x00,0xFF,0xFF,0x20,0xCC,0x33,
 1214              		.loc 1 400 0
 1215 0006 01AC     		add	r4, sp, #4
 1216 0008 394D     		ldr	r5, .L94
 1217 000a 55F8880F 		ldr	r0, [r5, #136]!	@ unaligned
 1218              	.LVL93:
 1219 000e 6968     		ldr	r1, [r5, #4]	@ unaligned
 1220 0010 AA68     		ldr	r2, [r5, #8]	@ unaligned
 1221 0012 EB68     		ldr	r3, [r5, #12]	@ unaligned
 1222 0014 0FC4     		stmia	r4!, {r0, r1, r2, r3}
 1223 0016 2B8A     		ldrh	r3, [r5, #16]	@ unaligned
 1224 0018 2380     		strh	r3, [r4]	@ unaligned
 401:.\LCD.c       ****     if(lcd==1){
 1225              		.loc 1 401 0
 1226 001a 012E     		cmp	r6, #1
 1227 001c 33D1     		bne	.L82
 402:.\LCD.c       **** 		for(x=1;x<=rventa.lema1[0];x++){
 1228              		.loc 1 402 0
 1229 001e 0122     		movs	r2, #1
 1230 0020 344B     		ldr	r3, .L94+4
 1231 0022 1A60     		str	r2, [r3]
 1232 0024 344D     		ldr	r5, .L94+8
 403:.\LCD.c       **** 			buffer[13]=rventa.lema1[x];			
 404:.\LCD.c       **** 			for(y=0;y<=17;y++){
 1233              		.loc 1 404 0
 1234 0026 354C     		ldr	r4, .L94+12
 402:.\LCD.c       **** 		for(x=1;x<=rventa.lema1[0];x++){
 1235              		.loc 1 402 0
 1236 0028 26E0     		b	.L83
 1237              	.L87:
 403:.\LCD.c       **** 			buffer[13]=rventa.lema1[x];			
 1238              		.loc 1 403 0
 1239 002a 2B44     		add	r3, r3, r5
 1240 002c 93F86130 		ldrb	r3, [r3, #97]	@ zero_extendqisi2
 1241 0030 8DF81130 		strb	r3, [sp, #17]
 1242              		.loc 1 404 0
 1243 0034 0023     		movs	r3, #0
 1244 0036 2360     		str	r3, [r4]
 1245 0038 08E0     		b	.L84
 1246              	.L85:
 405:.\LCD.c       ****         		LCD_1_PutChar(buffer[y]);
 1247              		.loc 1 405 0 discriminator 2
 1248 003a 06AA     		add	r2, sp, #24
 1249 003c 1344     		add	r3, r3, r2
 1250 003e 13F8140C 		ldrb	r0, [r3, #-20]	@ zero_extendqisi2
 1251 0042 FFF7FEFF 		bl	LCD_1_PutChar
 1252              	.LVL94:
 404:.\LCD.c       **** 			for(y=0;y<=17;y++){
 1253              		.loc 1 404 0 discriminator 2
 1254 0046 2368     		ldr	r3, [r4]
 1255 0048 0133     		adds	r3, r3, #1
ARM GAS  C:\Users\RECEPC~1\AppData\Local\Temp\cc89K5zt.s 			page 31


 1256 004a 2360     		str	r3, [r4]
 1257              	.L84:
 404:.\LCD.c       **** 			for(y=0;y<=17;y++){
 1258              		.loc 1 404 0 is_stmt 0 discriminator 1
 1259 004c 2368     		ldr	r3, [r4]
 1260 004e 112B     		cmp	r3, #17
 1261 0050 F3D9     		bls	.L85
 406:.\LCD.c       **** 			}
 407:.\LCD.c       **** 			if(buffer[3]==0xFF){
 1262              		.loc 1 407 0 is_stmt 1
 1263 0052 9DF80730 		ldrb	r3, [sp, #7]	@ zero_extendqisi2
 1264 0056 FF2B     		cmp	r3, #255
 1265 0058 05D1     		bne	.L86
 408:.\LCD.c       **** 				buffer[2]=0x01;
 1266              		.loc 1 408 0
 1267 005a 0123     		movs	r3, #1
 1268 005c 8DF80630 		strb	r3, [sp, #6]
 409:.\LCD.c       **** 				buffer[3]=0x00;
 1269              		.loc 1 409 0
 1270 0060 0023     		movs	r3, #0
 1271 0062 8DF80730 		strb	r3, [sp, #7]
 1272              	.L86:
 410:.\LCD.c       **** 			}			
 411:.\LCD.c       **** 			buffer[3]+=15;
 1273              		.loc 1 411 0
 1274 0066 9DF80730 		ldrb	r3, [sp, #7]	@ zero_extendqisi2
 1275 006a 0F33     		adds	r3, r3, #15
 1276 006c 8DF80730 		strb	r3, [sp, #7]
 402:.\LCD.c       **** 		for(x=1;x<=rventa.lema1[0];x++){
 1277              		.loc 1 402 0
 1278 0070 204B     		ldr	r3, .L94+4
 1279 0072 1A68     		ldr	r2, [r3]
 1280 0074 0132     		adds	r2, r2, #1
 1281 0076 1A60     		str	r2, [r3]
 1282              	.L83:
 402:.\LCD.c       **** 		for(x=1;x<=rventa.lema1[0];x++){
 1283              		.loc 1 402 0 is_stmt 0 discriminator 1
 1284 0078 95F86120 		ldrb	r2, [r5, #97]	@ zero_extendqisi2
 1285 007c 1D4B     		ldr	r3, .L94+4
 1286 007e 1B68     		ldr	r3, [r3]
 1287 0080 9A42     		cmp	r2, r3
 1288 0082 D2D2     		bcs	.L87
 1289 0084 32E0     		b	.L81
 1290              	.L82:
 412:.\LCD.c       **** 		}
 413:.\LCD.c       ****     }
 414:.\LCD.c       ****     else{
 415:.\LCD.c       **** 		for(x=1;x<=rventa.lema1[0];x++){
 1291              		.loc 1 415 0 is_stmt 1
 1292 0086 0122     		movs	r2, #1
 1293 0088 1A4B     		ldr	r3, .L94+4
 1294 008a 1A60     		str	r2, [r3]
 1295 008c 1A4D     		ldr	r5, .L94+8
 416:.\LCD.c       **** 			buffer[13]=rventa.lema1[x];			
 417:.\LCD.c       **** 			for(y=0;y<=17;y++){
 1296              		.loc 1 417 0
 1297 008e 1B4C     		ldr	r4, .L94+12
ARM GAS  C:\Users\RECEPC~1\AppData\Local\Temp\cc89K5zt.s 			page 32


 415:.\LCD.c       **** 		for(x=1;x<=rventa.lema1[0];x++){
 1298              		.loc 1 415 0
 1299 0090 26E0     		b	.L89
 1300              	.L93:
 416:.\LCD.c       **** 			buffer[13]=rventa.lema1[x];			
 1301              		.loc 1 416 0
 1302 0092 2B44     		add	r3, r3, r5
 1303 0094 93F86130 		ldrb	r3, [r3, #97]	@ zero_extendqisi2
 1304 0098 8DF81130 		strb	r3, [sp, #17]
 1305              		.loc 1 417 0
 1306 009c 0023     		movs	r3, #0
 1307 009e 2360     		str	r3, [r4]
 1308 00a0 08E0     		b	.L90
 1309              	.L91:
 418:.\LCD.c       ****         		LCD_2_PutChar(buffer[y]);
 1310              		.loc 1 418 0 discriminator 2
 1311 00a2 06AA     		add	r2, sp, #24
 1312 00a4 1344     		add	r3, r3, r2
 1313 00a6 13F8140C 		ldrb	r0, [r3, #-20]	@ zero_extendqisi2
 1314 00aa FFF7FEFF 		bl	LCD_2_PutChar
 1315              	.LVL95:
 417:.\LCD.c       **** 			for(y=0;y<=17;y++){
 1316              		.loc 1 417 0 discriminator 2
 1317 00ae 2368     		ldr	r3, [r4]
 1318 00b0 0133     		adds	r3, r3, #1
 1319 00b2 2360     		str	r3, [r4]
 1320              	.L90:
 417:.\LCD.c       **** 			for(y=0;y<=17;y++){
 1321              		.loc 1 417 0 is_stmt 0 discriminator 1
 1322 00b4 2368     		ldr	r3, [r4]
 1323 00b6 112B     		cmp	r3, #17
 1324 00b8 F3D9     		bls	.L91
 419:.\LCD.c       **** 			}
 420:.\LCD.c       **** 			if(buffer[3]==0xFF){
 1325              		.loc 1 420 0 is_stmt 1
 1326 00ba 9DF80730 		ldrb	r3, [sp, #7]	@ zero_extendqisi2
 1327 00be FF2B     		cmp	r3, #255
 1328 00c0 05D1     		bne	.L92
 421:.\LCD.c       **** 				buffer[2]=0x01;
 1329              		.loc 1 421 0
 1330 00c2 0123     		movs	r3, #1
 1331 00c4 8DF80630 		strb	r3, [sp, #6]
 422:.\LCD.c       **** 				buffer[3]=0x00;
 1332              		.loc 1 422 0
 1333 00c8 0023     		movs	r3, #0
 1334 00ca 8DF80730 		strb	r3, [sp, #7]
 1335              	.L92:
 423:.\LCD.c       **** 			}			
 424:.\LCD.c       **** 			buffer[3]+=15;
 1336              		.loc 1 424 0
 1337 00ce 9DF80730 		ldrb	r3, [sp, #7]	@ zero_extendqisi2
 1338 00d2 0F33     		adds	r3, r3, #15
 1339 00d4 8DF80730 		strb	r3, [sp, #7]
 415:.\LCD.c       **** 		for(x=1;x<=rventa.lema1[0];x++){
 1340              		.loc 1 415 0
 1341 00d8 064B     		ldr	r3, .L94+4
 1342 00da 1A68     		ldr	r2, [r3]
ARM GAS  C:\Users\RECEPC~1\AppData\Local\Temp\cc89K5zt.s 			page 33


 1343 00dc 0132     		adds	r2, r2, #1
 1344 00de 1A60     		str	r2, [r3]
 1345              	.L89:
 415:.\LCD.c       **** 		for(x=1;x<=rventa.lema1[0];x++){
 1346              		.loc 1 415 0 is_stmt 0 discriminator 1
 1347 00e0 95F86120 		ldrb	r2, [r5, #97]	@ zero_extendqisi2
 1348 00e4 034B     		ldr	r3, .L94+4
 1349 00e6 1B68     		ldr	r3, [r3]
 1350 00e8 9A42     		cmp	r2, r3
 1351 00ea D2D2     		bcs	.L93
 1352              	.L81:
 425:.\LCD.c       **** 		}
 426:.\LCD.c       ****     }	
 427:.\LCD.c       **** }
 1353              		.loc 1 427 0 is_stmt 1
 1354 00ec 06B0     		add	sp, sp, #24
 1355              		@ sp needed
 1356 00ee 70BD     		pop	{r4, r5, r6, pc}
 1357              	.L95:
 1358              		.align	2
 1359              	.L94:
 1360 00f0 00000000 		.word	.LANCHOR0
 1361 00f4 00000000 		.word	x
 1362 00f8 00000000 		.word	rventa
 1363 00fc 00000000 		.word	y
 1364              		.cfi_endproc
 1365              	.LFE71:
 1366              		.size	lema1_LCD, .-lema1_LCD
 1367              		.section	.text.lema2_LCD,"ax",%progbits
 1368              		.align	2
 1369              		.global	lema2_LCD
 1370              		.thumb
 1371              		.thumb_func
 1372              		.type	lema2_LCD, %function
 1373              	lema2_LCD:
 1374              	.LFB72:
 428:.\LCD.c       **** 
 429:.\LCD.c       **** /*
 430:.\LCD.c       **** ***************************************************************************************************
 431:.\LCD.c       **** *                                 		void lema2_LCD(uint8 lcd)
 432:.\LCD.c       **** *
 433:.\LCD.c       **** * Description : 
 434:.\LCD.c       **** *               
 435:.\LCD.c       **** *
 436:.\LCD.c       **** * Argument(s) : none
 437:.\LCD.c       **** *
 438:.\LCD.c       **** * Return(s)   : none
 439:.\LCD.c       **** *
 440:.\LCD.c       **** * Caller(s)   : 
 441:.\LCD.c       **** *
 442:.\LCD.c       **** * Note(s)     : none.
 443:.\LCD.c       **** ***************************************************************************************************
 444:.\LCD.c       **** */
 445:.\LCD.c       **** void lema2_LCD(uint8 lcd){
 1375              		.loc 1 445 0
 1376              		.cfi_startproc
 1377              		@ args = 0, pretend = 0, frame = 24
ARM GAS  C:\Users\RECEPC~1\AppData\Local\Temp\cc89K5zt.s 			page 34


 1378              		@ frame_needed = 0, uses_anonymous_args = 0
 1379              	.LVL96:
 1380 0000 70B5     		push	{r4, r5, r6, lr}
 1381              		.cfi_def_cfa_offset 16
 1382              		.cfi_offset 4, -16
 1383              		.cfi_offset 5, -12
 1384              		.cfi_offset 6, -8
 1385              		.cfi_offset 14, -4
 1386 0002 86B0     		sub	sp, sp, #24
 1387              		.cfi_def_cfa_offset 40
 1388 0004 0646     		mov	r6, r0
 446:.\LCD.c       **** 	uint8 buffer[18]={0xAA,0x98,0x00,0xA5,0x01,0x5F,0x23,0xC5,0x02,0x00,0x00,0xFF,0xFF,0x20,0xCC,0x33,
 1389              		.loc 1 446 0
 1390 0006 01AC     		add	r4, sp, #4
 1391 0008 394D     		ldr	r5, .L109
 1392 000a 55F89C0F 		ldr	r0, [r5, #156]!	@ unaligned
 1393              	.LVL97:
 1394 000e 6968     		ldr	r1, [r5, #4]	@ unaligned
 1395 0010 AA68     		ldr	r2, [r5, #8]	@ unaligned
 1396 0012 EB68     		ldr	r3, [r5, #12]	@ unaligned
 1397 0014 0FC4     		stmia	r4!, {r0, r1, r2, r3}
 1398 0016 2B8A     		ldrh	r3, [r5, #16]	@ unaligned
 1399 0018 2380     		strh	r3, [r4]	@ unaligned
 447:.\LCD.c       ****     if(lcd==1){
 1400              		.loc 1 447 0
 1401 001a 012E     		cmp	r6, #1
 1402 001c 33D1     		bne	.L97
 448:.\LCD.c       **** 		for(x=1;x<=rventa.lema2[0];x++){
 1403              		.loc 1 448 0
 1404 001e 0122     		movs	r2, #1
 1405 0020 344B     		ldr	r3, .L109+4
 1406 0022 1A60     		str	r2, [r3]
 1407 0024 344D     		ldr	r5, .L109+8
 449:.\LCD.c       **** 			buffer[13]=rventa.lema2[x];			
 450:.\LCD.c       **** 			for(y=0;y<=17;y++){
 1408              		.loc 1 450 0
 1409 0026 354C     		ldr	r4, .L109+12
 448:.\LCD.c       **** 		for(x=1;x<=rventa.lema2[0];x++){
 1410              		.loc 1 448 0
 1411 0028 26E0     		b	.L98
 1412              	.L102:
 449:.\LCD.c       **** 			buffer[13]=rventa.lema2[x];			
 1413              		.loc 1 449 0
 1414 002a 2B44     		add	r3, r3, r5
 1415 002c 93F87F30 		ldrb	r3, [r3, #127]	@ zero_extendqisi2
 1416 0030 8DF81130 		strb	r3, [sp, #17]
 1417              		.loc 1 450 0
 1418 0034 0023     		movs	r3, #0
 1419 0036 2360     		str	r3, [r4]
 1420 0038 08E0     		b	.L99
 1421              	.L100:
 451:.\LCD.c       ****         		LCD_1_PutChar(buffer[y]);
 1422              		.loc 1 451 0 discriminator 2
 1423 003a 06AA     		add	r2, sp, #24
 1424 003c 1344     		add	r3, r3, r2
 1425 003e 13F8140C 		ldrb	r0, [r3, #-20]	@ zero_extendqisi2
 1426 0042 FFF7FEFF 		bl	LCD_1_PutChar
ARM GAS  C:\Users\RECEPC~1\AppData\Local\Temp\cc89K5zt.s 			page 35


 1427              	.LVL98:
 450:.\LCD.c       **** 			for(y=0;y<=17;y++){
 1428              		.loc 1 450 0 discriminator 2
 1429 0046 2368     		ldr	r3, [r4]
 1430 0048 0133     		adds	r3, r3, #1
 1431 004a 2360     		str	r3, [r4]
 1432              	.L99:
 450:.\LCD.c       **** 			for(y=0;y<=17;y++){
 1433              		.loc 1 450 0 is_stmt 0 discriminator 1
 1434 004c 2368     		ldr	r3, [r4]
 1435 004e 112B     		cmp	r3, #17
 1436 0050 F3D9     		bls	.L100
 452:.\LCD.c       **** 			}
 453:.\LCD.c       **** 			if(buffer[3]==0xFF){
 1437              		.loc 1 453 0 is_stmt 1
 1438 0052 9DF80730 		ldrb	r3, [sp, #7]	@ zero_extendqisi2
 1439 0056 FF2B     		cmp	r3, #255
 1440 0058 05D1     		bne	.L101
 454:.\LCD.c       **** 				buffer[2]=0x01;
 1441              		.loc 1 454 0
 1442 005a 0123     		movs	r3, #1
 1443 005c 8DF80630 		strb	r3, [sp, #6]
 455:.\LCD.c       **** 				buffer[3]=0x00;
 1444              		.loc 1 455 0
 1445 0060 0023     		movs	r3, #0
 1446 0062 8DF80730 		strb	r3, [sp, #7]
 1447              	.L101:
 456:.\LCD.c       **** 			}			
 457:.\LCD.c       **** 			buffer[3]+=15;
 1448              		.loc 1 457 0
 1449 0066 9DF80730 		ldrb	r3, [sp, #7]	@ zero_extendqisi2
 1450 006a 0F33     		adds	r3, r3, #15
 1451 006c 8DF80730 		strb	r3, [sp, #7]
 448:.\LCD.c       **** 		for(x=1;x<=rventa.lema2[0];x++){
 1452              		.loc 1 448 0
 1453 0070 204B     		ldr	r3, .L109+4
 1454 0072 1A68     		ldr	r2, [r3]
 1455 0074 0132     		adds	r2, r2, #1
 1456 0076 1A60     		str	r2, [r3]
 1457              	.L98:
 448:.\LCD.c       **** 		for(x=1;x<=rventa.lema2[0];x++){
 1458              		.loc 1 448 0 is_stmt 0 discriminator 1
 1459 0078 95F87F20 		ldrb	r2, [r5, #127]	@ zero_extendqisi2
 1460 007c 1D4B     		ldr	r3, .L109+4
 1461 007e 1B68     		ldr	r3, [r3]
 1462 0080 9A42     		cmp	r2, r3
 1463 0082 D2D2     		bcs	.L102
 1464 0084 32E0     		b	.L96
 1465              	.L97:
 458:.\LCD.c       **** 		}
 459:.\LCD.c       ****     }
 460:.\LCD.c       ****     else{
 461:.\LCD.c       **** 		for(x=1;x<=rventa.lema2[0];x++){
 1466              		.loc 1 461 0 is_stmt 1
 1467 0086 0122     		movs	r2, #1
 1468 0088 1A4B     		ldr	r3, .L109+4
 1469 008a 1A60     		str	r2, [r3]
ARM GAS  C:\Users\RECEPC~1\AppData\Local\Temp\cc89K5zt.s 			page 36


 1470 008c 1A4D     		ldr	r5, .L109+8
 462:.\LCD.c       **** 			buffer[13]=rventa.lema2[x];			
 463:.\LCD.c       **** 			for(y=0;y<=17;y++){
 1471              		.loc 1 463 0
 1472 008e 1B4C     		ldr	r4, .L109+12
 461:.\LCD.c       **** 		for(x=1;x<=rventa.lema2[0];x++){
 1473              		.loc 1 461 0
 1474 0090 26E0     		b	.L104
 1475              	.L108:
 462:.\LCD.c       **** 			buffer[13]=rventa.lema2[x];			
 1476              		.loc 1 462 0
 1477 0092 2B44     		add	r3, r3, r5
 1478 0094 93F87F30 		ldrb	r3, [r3, #127]	@ zero_extendqisi2
 1479 0098 8DF81130 		strb	r3, [sp, #17]
 1480              		.loc 1 463 0
 1481 009c 0023     		movs	r3, #0
 1482 009e 2360     		str	r3, [r4]
 1483 00a0 08E0     		b	.L105
 1484              	.L106:
 464:.\LCD.c       ****         		LCD_2_PutChar(buffer[y]);
 1485              		.loc 1 464 0 discriminator 2
 1486 00a2 06AA     		add	r2, sp, #24
 1487 00a4 1344     		add	r3, r3, r2
 1488 00a6 13F8140C 		ldrb	r0, [r3, #-20]	@ zero_extendqisi2
 1489 00aa FFF7FEFF 		bl	LCD_2_PutChar
 1490              	.LVL99:
 463:.\LCD.c       **** 			for(y=0;y<=17;y++){
 1491              		.loc 1 463 0 discriminator 2
 1492 00ae 2368     		ldr	r3, [r4]
 1493 00b0 0133     		adds	r3, r3, #1
 1494 00b2 2360     		str	r3, [r4]
 1495              	.L105:
 463:.\LCD.c       **** 			for(y=0;y<=17;y++){
 1496              		.loc 1 463 0 is_stmt 0 discriminator 1
 1497 00b4 2368     		ldr	r3, [r4]
 1498 00b6 112B     		cmp	r3, #17
 1499 00b8 F3D9     		bls	.L106
 465:.\LCD.c       **** 			}
 466:.\LCD.c       **** 			if(buffer[3]==0xFF){
 1500              		.loc 1 466 0 is_stmt 1
 1501 00ba 9DF80730 		ldrb	r3, [sp, #7]	@ zero_extendqisi2
 1502 00be FF2B     		cmp	r3, #255
 1503 00c0 05D1     		bne	.L107
 467:.\LCD.c       **** 				buffer[2]=0x01;
 1504              		.loc 1 467 0
 1505 00c2 0123     		movs	r3, #1
 1506 00c4 8DF80630 		strb	r3, [sp, #6]
 468:.\LCD.c       **** 				buffer[3]=0x00;
 1507              		.loc 1 468 0
 1508 00c8 0023     		movs	r3, #0
 1509 00ca 8DF80730 		strb	r3, [sp, #7]
 1510              	.L107:
 469:.\LCD.c       **** 			}			
 470:.\LCD.c       **** 			buffer[3]+=15;
 1511              		.loc 1 470 0
 1512 00ce 9DF80730 		ldrb	r3, [sp, #7]	@ zero_extendqisi2
 1513 00d2 0F33     		adds	r3, r3, #15
ARM GAS  C:\Users\RECEPC~1\AppData\Local\Temp\cc89K5zt.s 			page 37


 1514 00d4 8DF80730 		strb	r3, [sp, #7]
 461:.\LCD.c       **** 		for(x=1;x<=rventa.lema2[0];x++){
 1515              		.loc 1 461 0
 1516 00d8 064B     		ldr	r3, .L109+4
 1517 00da 1A68     		ldr	r2, [r3]
 1518 00dc 0132     		adds	r2, r2, #1
 1519 00de 1A60     		str	r2, [r3]
 1520              	.L104:
 461:.\LCD.c       **** 		for(x=1;x<=rventa.lema2[0];x++){
 1521              		.loc 1 461 0 is_stmt 0 discriminator 1
 1522 00e0 95F87F20 		ldrb	r2, [r5, #127]	@ zero_extendqisi2
 1523 00e4 034B     		ldr	r3, .L109+4
 1524 00e6 1B68     		ldr	r3, [r3]
 1525 00e8 9A42     		cmp	r2, r3
 1526 00ea D2D2     		bcs	.L108
 1527              	.L96:
 471:.\LCD.c       **** 		}
 472:.\LCD.c       ****     }	
 473:.\LCD.c       **** }
 1528              		.loc 1 473 0 is_stmt 1
 1529 00ec 06B0     		add	sp, sp, #24
 1530              		@ sp needed
 1531 00ee 70BD     		pop	{r4, r5, r6, pc}
 1532              	.L110:
 1533              		.align	2
 1534              	.L109:
 1535 00f0 00000000 		.word	.LANCHOR0
 1536 00f4 00000000 		.word	x
 1537 00f8 00000000 		.word	rventa
 1538 00fc 00000000 		.word	y
 1539              		.cfi_endproc
 1540              	.LFE72:
 1541              		.size	lema2_LCD, .-lema2_LCD
 1542              		.section	.text.telefono_LCD,"ax",%progbits
 1543              		.align	2
 1544              		.global	telefono_LCD
 1545              		.thumb
 1546              		.thumb_func
 1547              		.type	telefono_LCD, %function
 1548              	telefono_LCD:
 1549              	.LFB73:
 474:.\LCD.c       **** 
 475:.\LCD.c       **** /*
 476:.\LCD.c       **** ***************************************************************************************************
 477:.\LCD.c       **** *                                 			void telefono_LCD(uint8 lcd)
 478:.\LCD.c       **** *
 479:.\LCD.c       **** * Description : 
 480:.\LCD.c       **** *               
 481:.\LCD.c       **** *
 482:.\LCD.c       **** * Argument(s) : none
 483:.\LCD.c       **** *
 484:.\LCD.c       **** * Return(s)   : none
 485:.\LCD.c       **** *
 486:.\LCD.c       **** * Caller(s)   : 
 487:.\LCD.c       **** *
 488:.\LCD.c       **** * Note(s)     : none.
 489:.\LCD.c       **** ***************************************************************************************************
ARM GAS  C:\Users\RECEPC~1\AppData\Local\Temp\cc89K5zt.s 			page 38


 490:.\LCD.c       **** */
 491:.\LCD.c       **** void telefono_LCD(uint8 lcd){
 1550              		.loc 1 491 0
 1551              		.cfi_startproc
 1552              		@ args = 0, pretend = 0, frame = 24
 1553              		@ frame_needed = 0, uses_anonymous_args = 0
 1554              	.LVL100:
 1555 0000 70B5     		push	{r4, r5, r6, lr}
 1556              		.cfi_def_cfa_offset 16
 1557              		.cfi_offset 4, -16
 1558              		.cfi_offset 5, -12
 1559              		.cfi_offset 6, -8
 1560              		.cfi_offset 14, -4
 1561 0002 86B0     		sub	sp, sp, #24
 1562              		.cfi_def_cfa_offset 40
 1563 0004 0646     		mov	r6, r0
 492:.\LCD.c       **** 	uint8 buffer[18]={0xAA,0x98,0x00,0xA5,0x00,0xEE,0x23,0xC5,0x02,0x00,0x00,0xFF,0xFF,0x20,0xCC,0x33,
 1564              		.loc 1 492 0
 1565 0006 01AC     		add	r4, sp, #4
 1566 0008 394D     		ldr	r5, .L124
 1567 000a 55F8B00F 		ldr	r0, [r5, #176]!	@ unaligned
 1568              	.LVL101:
 1569 000e 6968     		ldr	r1, [r5, #4]	@ unaligned
 1570 0010 AA68     		ldr	r2, [r5, #8]	@ unaligned
 1571 0012 EB68     		ldr	r3, [r5, #12]	@ unaligned
 1572 0014 0FC4     		stmia	r4!, {r0, r1, r2, r3}
 1573 0016 2B8A     		ldrh	r3, [r5, #16]	@ unaligned
 1574 0018 2380     		strh	r3, [r4]	@ unaligned
 493:.\LCD.c       ****     if(lcd==1){
 1575              		.loc 1 493 0
 1576 001a 012E     		cmp	r6, #1
 1577 001c 33D1     		bne	.L112
 494:.\LCD.c       **** 		for(x=1;x<=rventa.telefono[0];x++){
 1578              		.loc 1 494 0
 1579 001e 0122     		movs	r2, #1
 1580 0020 344B     		ldr	r3, .L124+4
 1581 0022 1A60     		str	r2, [r3]
 1582 0024 344D     		ldr	r5, .L124+8
 495:.\LCD.c       **** 			buffer[13]=rventa.telefono[x];			
 496:.\LCD.c       **** 			for(y=0;y<=17;y++){
 1583              		.loc 1 496 0
 1584 0026 354C     		ldr	r4, .L124+12
 494:.\LCD.c       **** 		for(x=1;x<=rventa.telefono[0];x++){
 1585              		.loc 1 494 0
 1586 0028 26E0     		b	.L113
 1587              	.L117:
 495:.\LCD.c       **** 			buffer[13]=rventa.telefono[x];			
 1588              		.loc 1 495 0
 1589 002a 2B44     		add	r3, r3, r5
 1590 002c 93F82F30 		ldrb	r3, [r3, #47]	@ zero_extendqisi2
 1591 0030 8DF81130 		strb	r3, [sp, #17]
 1592              		.loc 1 496 0
 1593 0034 0023     		movs	r3, #0
 1594 0036 2360     		str	r3, [r4]
 1595 0038 08E0     		b	.L114
 1596              	.L115:
 497:.\LCD.c       ****         		LCD_1_PutChar(buffer[y]);
ARM GAS  C:\Users\RECEPC~1\AppData\Local\Temp\cc89K5zt.s 			page 39


 1597              		.loc 1 497 0 discriminator 2
 1598 003a 06AA     		add	r2, sp, #24
 1599 003c 1344     		add	r3, r3, r2
 1600 003e 13F8140C 		ldrb	r0, [r3, #-20]	@ zero_extendqisi2
 1601 0042 FFF7FEFF 		bl	LCD_1_PutChar
 1602              	.LVL102:
 496:.\LCD.c       **** 			for(y=0;y<=17;y++){
 1603              		.loc 1 496 0 discriminator 2
 1604 0046 2368     		ldr	r3, [r4]
 1605 0048 0133     		adds	r3, r3, #1
 1606 004a 2360     		str	r3, [r4]
 1607              	.L114:
 496:.\LCD.c       **** 			for(y=0;y<=17;y++){
 1608              		.loc 1 496 0 is_stmt 0 discriminator 1
 1609 004c 2368     		ldr	r3, [r4]
 1610 004e 112B     		cmp	r3, #17
 1611 0050 F3D9     		bls	.L115
 498:.\LCD.c       **** 			}
 499:.\LCD.c       **** 			if(buffer[3]==0xFF){
 1612              		.loc 1 499 0 is_stmt 1
 1613 0052 9DF80730 		ldrb	r3, [sp, #7]	@ zero_extendqisi2
 1614 0056 FF2B     		cmp	r3, #255
 1615 0058 05D1     		bne	.L116
 500:.\LCD.c       **** 				buffer[2]=0x01;
 1616              		.loc 1 500 0
 1617 005a 0123     		movs	r3, #1
 1618 005c 8DF80630 		strb	r3, [sp, #6]
 501:.\LCD.c       **** 				buffer[3]=0x00;
 1619              		.loc 1 501 0
 1620 0060 0023     		movs	r3, #0
 1621 0062 8DF80730 		strb	r3, [sp, #7]
 1622              	.L116:
 502:.\LCD.c       **** 			}			
 503:.\LCD.c       **** 			buffer[3]+=15;
 1623              		.loc 1 503 0
 1624 0066 9DF80730 		ldrb	r3, [sp, #7]	@ zero_extendqisi2
 1625 006a 0F33     		adds	r3, r3, #15
 1626 006c 8DF80730 		strb	r3, [sp, #7]
 494:.\LCD.c       **** 		for(x=1;x<=rventa.telefono[0];x++){
 1627              		.loc 1 494 0
 1628 0070 204B     		ldr	r3, .L124+4
 1629 0072 1A68     		ldr	r2, [r3]
 1630 0074 0132     		adds	r2, r2, #1
 1631 0076 1A60     		str	r2, [r3]
 1632              	.L113:
 494:.\LCD.c       **** 		for(x=1;x<=rventa.telefono[0];x++){
 1633              		.loc 1 494 0 is_stmt 0 discriminator 1
 1634 0078 95F82F20 		ldrb	r2, [r5, #47]	@ zero_extendqisi2
 1635 007c 1D4B     		ldr	r3, .L124+4
 1636 007e 1B68     		ldr	r3, [r3]
 1637 0080 9A42     		cmp	r2, r3
 1638 0082 D2D2     		bcs	.L117
 1639 0084 32E0     		b	.L111
 1640              	.L112:
 504:.\LCD.c       **** 		}
 505:.\LCD.c       ****     }
 506:.\LCD.c       ****     else{
ARM GAS  C:\Users\RECEPC~1\AppData\Local\Temp\cc89K5zt.s 			page 40


 507:.\LCD.c       **** 		for(x=1;x<=rventa.telefono[0];x++){
 1641              		.loc 1 507 0 is_stmt 1
 1642 0086 0122     		movs	r2, #1
 1643 0088 1A4B     		ldr	r3, .L124+4
 1644 008a 1A60     		str	r2, [r3]
 1645 008c 1A4D     		ldr	r5, .L124+8
 508:.\LCD.c       **** 			buffer[13]=rventa.telefono[x];			
 509:.\LCD.c       **** 			for(y=0;y<=17;y++){
 1646              		.loc 1 509 0
 1647 008e 1B4C     		ldr	r4, .L124+12
 507:.\LCD.c       **** 		for(x=1;x<=rventa.telefono[0];x++){
 1648              		.loc 1 507 0
 1649 0090 26E0     		b	.L119
 1650              	.L123:
 508:.\LCD.c       **** 			buffer[13]=rventa.telefono[x];			
 1651              		.loc 1 508 0
 1652 0092 2B44     		add	r3, r3, r5
 1653 0094 93F82F30 		ldrb	r3, [r3, #47]	@ zero_extendqisi2
 1654 0098 8DF81130 		strb	r3, [sp, #17]
 1655              		.loc 1 509 0
 1656 009c 0023     		movs	r3, #0
 1657 009e 2360     		str	r3, [r4]
 1658 00a0 08E0     		b	.L120
 1659              	.L121:
 510:.\LCD.c       ****         		LCD_2_PutChar(buffer[y]);
 1660              		.loc 1 510 0 discriminator 2
 1661 00a2 06AA     		add	r2, sp, #24
 1662 00a4 1344     		add	r3, r3, r2
 1663 00a6 13F8140C 		ldrb	r0, [r3, #-20]	@ zero_extendqisi2
 1664 00aa FFF7FEFF 		bl	LCD_2_PutChar
 1665              	.LVL103:
 509:.\LCD.c       **** 			for(y=0;y<=17;y++){
 1666              		.loc 1 509 0 discriminator 2
 1667 00ae 2368     		ldr	r3, [r4]
 1668 00b0 0133     		adds	r3, r3, #1
 1669 00b2 2360     		str	r3, [r4]
 1670              	.L120:
 509:.\LCD.c       **** 			for(y=0;y<=17;y++){
 1671              		.loc 1 509 0 is_stmt 0 discriminator 1
 1672 00b4 2368     		ldr	r3, [r4]
 1673 00b6 112B     		cmp	r3, #17
 1674 00b8 F3D9     		bls	.L121
 511:.\LCD.c       **** 			}
 512:.\LCD.c       **** 			if(buffer[3]==0xFF){
 1675              		.loc 1 512 0 is_stmt 1
 1676 00ba 9DF80730 		ldrb	r3, [sp, #7]	@ zero_extendqisi2
 1677 00be FF2B     		cmp	r3, #255
 1678 00c0 05D1     		bne	.L122
 513:.\LCD.c       **** 				buffer[2]=0x01;
 1679              		.loc 1 513 0
 1680 00c2 0123     		movs	r3, #1
 1681 00c4 8DF80630 		strb	r3, [sp, #6]
 514:.\LCD.c       **** 				buffer[3]=0x00;
 1682              		.loc 1 514 0
 1683 00c8 0023     		movs	r3, #0
 1684 00ca 8DF80730 		strb	r3, [sp, #7]
 1685              	.L122:
ARM GAS  C:\Users\RECEPC~1\AppData\Local\Temp\cc89K5zt.s 			page 41


 515:.\LCD.c       **** 			}			
 516:.\LCD.c       **** 			buffer[3]+=15;
 1686              		.loc 1 516 0
 1687 00ce 9DF80730 		ldrb	r3, [sp, #7]	@ zero_extendqisi2
 1688 00d2 0F33     		adds	r3, r3, #15
 1689 00d4 8DF80730 		strb	r3, [sp, #7]
 507:.\LCD.c       **** 		for(x=1;x<=rventa.telefono[0];x++){
 1690              		.loc 1 507 0
 1691 00d8 064B     		ldr	r3, .L124+4
 1692 00da 1A68     		ldr	r2, [r3]
 1693 00dc 0132     		adds	r2, r2, #1
 1694 00de 1A60     		str	r2, [r3]
 1695              	.L119:
 507:.\LCD.c       **** 		for(x=1;x<=rventa.telefono[0];x++){
 1696              		.loc 1 507 0 is_stmt 0 discriminator 1
 1697 00e0 95F82F20 		ldrb	r2, [r5, #47]	@ zero_extendqisi2
 1698 00e4 034B     		ldr	r3, .L124+4
 1699 00e6 1B68     		ldr	r3, [r3]
 1700 00e8 9A42     		cmp	r2, r3
 1701 00ea D2D2     		bcs	.L123
 1702              	.L111:
 517:.\LCD.c       **** 		}
 518:.\LCD.c       ****     }	
 519:.\LCD.c       **** }
 1703              		.loc 1 519 0 is_stmt 1
 1704 00ec 06B0     		add	sp, sp, #24
 1705              		@ sp needed
 1706 00ee 70BD     		pop	{r4, r5, r6, pc}
 1707              	.L125:
 1708              		.align	2
 1709              	.L124:
 1710 00f0 00000000 		.word	.LANCHOR0
 1711 00f4 00000000 		.word	x
 1712 00f8 00000000 		.word	rventa
 1713 00fc 00000000 		.word	y
 1714              		.cfi_endproc
 1715              	.LFE73:
 1716              		.size	telefono_LCD, .-telefono_LCD
 1717              		.section	.text.nit_LCD,"ax",%progbits
 1718              		.align	2
 1719              		.global	nit_LCD
 1720              		.thumb
 1721              		.thumb_func
 1722              		.type	nit_LCD, %function
 1723              	nit_LCD:
 1724              	.LFB74:
 520:.\LCD.c       **** 
 521:.\LCD.c       **** /*
 522:.\LCD.c       **** ***************************************************************************************************
 523:.\LCD.c       **** *                                 			void nit_LCD(uint8 lcd)
 524:.\LCD.c       **** *
 525:.\LCD.c       **** * Description : 
 526:.\LCD.c       **** *               
 527:.\LCD.c       **** *
 528:.\LCD.c       **** * Argument(s) : none
 529:.\LCD.c       **** *
 530:.\LCD.c       **** * Return(s)   : none
ARM GAS  C:\Users\RECEPC~1\AppData\Local\Temp\cc89K5zt.s 			page 42


 531:.\LCD.c       **** *
 532:.\LCD.c       **** * Caller(s)   : 
 533:.\LCD.c       **** *
 534:.\LCD.c       **** * Note(s)     : none.
 535:.\LCD.c       **** ***************************************************************************************************
 536:.\LCD.c       **** */
 537:.\LCD.c       **** void nit_LCD(uint8 lcd){
 1725              		.loc 1 537 0
 1726              		.cfi_startproc
 1727              		@ args = 0, pretend = 0, frame = 24
 1728              		@ frame_needed = 0, uses_anonymous_args = 0
 1729              	.LVL104:
 1730 0000 70B5     		push	{r4, r5, r6, lr}
 1731              		.cfi_def_cfa_offset 16
 1732              		.cfi_offset 4, -16
 1733              		.cfi_offset 5, -12
 1734              		.cfi_offset 6, -8
 1735              		.cfi_offset 14, -4
 1736 0002 86B0     		sub	sp, sp, #24
 1737              		.cfi_def_cfa_offset 40
 1738 0004 0646     		mov	r6, r0
 538:.\LCD.c       **** 	uint8 buffer[18]={0xAA,0x98,0x00,0xA5,0x01,0x99,0x23,0xC5,0x02,0x00,0x00,0xFF,0xFF,0x20,0xCC,0x33,
 1739              		.loc 1 538 0
 1740 0006 01AC     		add	r4, sp, #4
 1741 0008 394D     		ldr	r5, .L139
 1742 000a 55F8C40F 		ldr	r0, [r5, #196]!	@ unaligned
 1743              	.LVL105:
 1744 000e 6968     		ldr	r1, [r5, #4]	@ unaligned
 1745 0010 AA68     		ldr	r2, [r5, #8]	@ unaligned
 1746 0012 EB68     		ldr	r3, [r5, #12]	@ unaligned
 1747 0014 0FC4     		stmia	r4!, {r0, r1, r2, r3}
 1748 0016 2B8A     		ldrh	r3, [r5, #16]	@ unaligned
 1749 0018 2380     		strh	r3, [r4]	@ unaligned
 539:.\LCD.c       ****     if(lcd==1){
 1750              		.loc 1 539 0
 1751 001a 012E     		cmp	r6, #1
 1752 001c 33D1     		bne	.L127
 540:.\LCD.c       **** 		for(x=1;(x<=rventa.nit[0]&&x<=19);x++){
 1753              		.loc 1 540 0
 1754 001e 0122     		movs	r2, #1
 1755 0020 344B     		ldr	r3, .L139+4
 1756 0022 1A60     		str	r2, [r3]
 1757 0024 344D     		ldr	r5, .L139+8
 541:.\LCD.c       **** 			buffer[13]=rventa.nit[x];			
 542:.\LCD.c       **** 			for(y=0;y<=17;y++){
 1758              		.loc 1 542 0
 1759 0026 354C     		ldr	r4, .L139+12
 540:.\LCD.c       **** 		for(x=1;(x<=rventa.nit[0]&&x<=19);x++){
 1760              		.loc 1 540 0
 1761 0028 25E0     		b	.L128
 1762              	.L133:
 541:.\LCD.c       **** 			buffer[13]=rventa.nit[x];			
 1763              		.loc 1 541 0
 1764 002a 2B44     		add	r3, r3, r5
 1765 002c 9B7F     		ldrb	r3, [r3, #30]	@ zero_extendqisi2
 1766 002e 8DF81130 		strb	r3, [sp, #17]
 1767              		.loc 1 542 0
ARM GAS  C:\Users\RECEPC~1\AppData\Local\Temp\cc89K5zt.s 			page 43


 1768 0032 0023     		movs	r3, #0
 1769 0034 2360     		str	r3, [r4]
 1770 0036 08E0     		b	.L129
 1771              	.L130:
 543:.\LCD.c       ****         		LCD_1_PutChar(buffer[y]);
 1772              		.loc 1 543 0 discriminator 2
 1773 0038 06AA     		add	r2, sp, #24
 1774 003a 1344     		add	r3, r3, r2
 1775 003c 13F8140C 		ldrb	r0, [r3, #-20]	@ zero_extendqisi2
 1776 0040 FFF7FEFF 		bl	LCD_1_PutChar
 1777              	.LVL106:
 542:.\LCD.c       **** 			for(y=0;y<=17;y++){
 1778              		.loc 1 542 0 discriminator 2
 1779 0044 2368     		ldr	r3, [r4]
 1780 0046 0133     		adds	r3, r3, #1
 1781 0048 2360     		str	r3, [r4]
 1782              	.L129:
 542:.\LCD.c       **** 			for(y=0;y<=17;y++){
 1783              		.loc 1 542 0 is_stmt 0 discriminator 1
 1784 004a 2368     		ldr	r3, [r4]
 1785 004c 112B     		cmp	r3, #17
 1786 004e F3D9     		bls	.L130
 544:.\LCD.c       **** 			}
 545:.\LCD.c       **** 			if(buffer[3]==0xFF){
 1787              		.loc 1 545 0 is_stmt 1
 1788 0050 9DF80730 		ldrb	r3, [sp, #7]	@ zero_extendqisi2
 1789 0054 FF2B     		cmp	r3, #255
 1790 0056 05D1     		bne	.L131
 546:.\LCD.c       **** 				buffer[2]=0x01;
 1791              		.loc 1 546 0
 1792 0058 0123     		movs	r3, #1
 1793 005a 8DF80630 		strb	r3, [sp, #6]
 547:.\LCD.c       **** 				buffer[3]=0x00;
 1794              		.loc 1 547 0
 1795 005e 0023     		movs	r3, #0
 1796 0060 8DF80730 		strb	r3, [sp, #7]
 1797              	.L131:
 548:.\LCD.c       **** 			}			
 549:.\LCD.c       **** 			buffer[3]+=15;
 1798              		.loc 1 549 0
 1799 0064 9DF80730 		ldrb	r3, [sp, #7]	@ zero_extendqisi2
 1800 0068 0F33     		adds	r3, r3, #15
 1801 006a 8DF80730 		strb	r3, [sp, #7]
 540:.\LCD.c       **** 		for(x=1;(x<=rventa.nit[0]&&x<=19);x++){
 1802              		.loc 1 540 0
 1803 006e 214B     		ldr	r3, .L139+4
 1804 0070 1A68     		ldr	r2, [r3]
 1805 0072 0132     		adds	r2, r2, #1
 1806 0074 1A60     		str	r2, [r3]
 1807              	.L128:
 540:.\LCD.c       **** 		for(x=1;(x<=rventa.nit[0]&&x<=19);x++){
 1808              		.loc 1 540 0 is_stmt 0 discriminator 1
 1809 0076 AA7F     		ldrb	r2, [r5, #30]	@ zero_extendqisi2
 1810 0078 1E4B     		ldr	r3, .L139+4
 1811 007a 1B68     		ldr	r3, [r3]
 1812 007c 9A42     		cmp	r2, r3
 1813 007e 35D3     		bcc	.L126
ARM GAS  C:\Users\RECEPC~1\AppData\Local\Temp\cc89K5zt.s 			page 44


 540:.\LCD.c       **** 		for(x=1;(x<=rventa.nit[0]&&x<=19);x++){
 1814              		.loc 1 540 0 discriminator 2
 1815 0080 132B     		cmp	r3, #19
 1816 0082 D2D9     		bls	.L133
 1817 0084 32E0     		b	.L126
 1818              	.L127:
 550:.\LCD.c       **** 		}
 551:.\LCD.c       ****     }
 552:.\LCD.c       ****     else{
 553:.\LCD.c       **** 		for(x=1;(x<=rventa.nit[0]&&x<=19);x++){
 1819              		.loc 1 553 0 is_stmt 1
 1820 0086 0122     		movs	r2, #1
 1821 0088 1A4B     		ldr	r3, .L139+4
 1822 008a 1A60     		str	r2, [r3]
 1823 008c 1A4D     		ldr	r5, .L139+8
 554:.\LCD.c       **** 			buffer[13]=rventa.nit[x];			
 555:.\LCD.c       **** 			for(y=0;y<=17;y++){
 1824              		.loc 1 555 0
 1825 008e 1B4C     		ldr	r4, .L139+12
 553:.\LCD.c       **** 		for(x=1;(x<=rventa.nit[0]&&x<=19);x++){
 1826              		.loc 1 553 0
 1827 0090 25E0     		b	.L134
 1828              	.L138:
 554:.\LCD.c       **** 			buffer[13]=rventa.nit[x];			
 1829              		.loc 1 554 0
 1830 0092 2B44     		add	r3, r3, r5
 1831 0094 9B7F     		ldrb	r3, [r3, #30]	@ zero_extendqisi2
 1832 0096 8DF81130 		strb	r3, [sp, #17]
 1833              		.loc 1 555 0
 1834 009a 0023     		movs	r3, #0
 1835 009c 2360     		str	r3, [r4]
 1836 009e 08E0     		b	.L135
 1837              	.L136:
 556:.\LCD.c       ****         		LCD_2_PutChar(buffer[y]);
 1838              		.loc 1 556 0 discriminator 2
 1839 00a0 06AA     		add	r2, sp, #24
 1840 00a2 1344     		add	r3, r3, r2
 1841 00a4 13F8140C 		ldrb	r0, [r3, #-20]	@ zero_extendqisi2
 1842 00a8 FFF7FEFF 		bl	LCD_2_PutChar
 1843              	.LVL107:
 555:.\LCD.c       **** 			for(y=0;y<=17;y++){
 1844              		.loc 1 555 0 discriminator 2
 1845 00ac 2368     		ldr	r3, [r4]
 1846 00ae 0133     		adds	r3, r3, #1
 1847 00b0 2360     		str	r3, [r4]
 1848              	.L135:
 555:.\LCD.c       **** 			for(y=0;y<=17;y++){
 1849              		.loc 1 555 0 is_stmt 0 discriminator 1
 1850 00b2 2368     		ldr	r3, [r4]
 1851 00b4 112B     		cmp	r3, #17
 1852 00b6 F3D9     		bls	.L136
 557:.\LCD.c       **** 			}
 558:.\LCD.c       **** 			if(buffer[3]==0xFF){
 1853              		.loc 1 558 0 is_stmt 1
 1854 00b8 9DF80730 		ldrb	r3, [sp, #7]	@ zero_extendqisi2
 1855 00bc FF2B     		cmp	r3, #255
 1856 00be 05D1     		bne	.L137
ARM GAS  C:\Users\RECEPC~1\AppData\Local\Temp\cc89K5zt.s 			page 45


 559:.\LCD.c       **** 				buffer[2]=0x01;
 1857              		.loc 1 559 0
 1858 00c0 0123     		movs	r3, #1
 1859 00c2 8DF80630 		strb	r3, [sp, #6]
 560:.\LCD.c       **** 				buffer[3]=0x00;
 1860              		.loc 1 560 0
 1861 00c6 0023     		movs	r3, #0
 1862 00c8 8DF80730 		strb	r3, [sp, #7]
 1863              	.L137:
 561:.\LCD.c       **** 			}			
 562:.\LCD.c       **** 			buffer[3]+=15;
 1864              		.loc 1 562 0
 1865 00cc 9DF80730 		ldrb	r3, [sp, #7]	@ zero_extendqisi2
 1866 00d0 0F33     		adds	r3, r3, #15
 1867 00d2 8DF80730 		strb	r3, [sp, #7]
 553:.\LCD.c       **** 		for(x=1;(x<=rventa.nit[0]&&x<=19);x++){
 1868              		.loc 1 553 0
 1869 00d6 074B     		ldr	r3, .L139+4
 1870 00d8 1A68     		ldr	r2, [r3]
 1871 00da 0132     		adds	r2, r2, #1
 1872 00dc 1A60     		str	r2, [r3]
 1873              	.L134:
 553:.\LCD.c       **** 		for(x=1;(x<=rventa.nit[0]&&x<=19);x++){
 1874              		.loc 1 553 0 is_stmt 0 discriminator 1
 1875 00de AA7F     		ldrb	r2, [r5, #30]	@ zero_extendqisi2
 1876 00e0 044B     		ldr	r3, .L139+4
 1877 00e2 1B68     		ldr	r3, [r3]
 1878 00e4 9A42     		cmp	r2, r3
 1879 00e6 01D3     		bcc	.L126
 553:.\LCD.c       **** 		for(x=1;(x<=rventa.nit[0]&&x<=19);x++){
 1880              		.loc 1 553 0 discriminator 2
 1881 00e8 132B     		cmp	r3, #19
 1882 00ea D2D9     		bls	.L138
 1883              	.L126:
 563:.\LCD.c       **** 		}
 564:.\LCD.c       ****     }	
 565:.\LCD.c       **** }
 1884              		.loc 1 565 0 is_stmt 1
 1885 00ec 06B0     		add	sp, sp, #24
 1886              		@ sp needed
 1887 00ee 70BD     		pop	{r4, r5, r6, pc}
 1888              	.L140:
 1889              		.align	2
 1890              	.L139:
 1891 00f0 00000000 		.word	.LANCHOR0
 1892 00f4 00000000 		.word	x
 1893 00f8 00000000 		.word	rventa
 1894 00fc 00000000 		.word	y
 1895              		.cfi_endproc
 1896              	.LFE74:
 1897              		.size	nit_LCD, .-nit_LCD
 1898              		.section	.text.Cuenta_LCD,"ax",%progbits
 1899              		.align	2
 1900              		.global	Cuenta_LCD
 1901              		.thumb
 1902              		.thumb_func
 1903              		.type	Cuenta_LCD, %function
ARM GAS  C:\Users\RECEPC~1\AppData\Local\Temp\cc89K5zt.s 			page 46


 1904              	Cuenta_LCD:
 1905              	.LFB75:
 566:.\LCD.c       **** 
 567:.\LCD.c       **** /*
 568:.\LCD.c       **** ***************************************************************************************************
 569:.\LCD.c       **** *                                 			void Cuenta_LCD(uint8 lcd)
 570:.\LCD.c       **** *
 571:.\LCD.c       **** * Description : 
 572:.\LCD.c       **** *               
 573:.\LCD.c       **** *
 574:.\LCD.c       **** * Argument(s) : none
 575:.\LCD.c       **** *
 576:.\LCD.c       **** * Return(s)   : none
 577:.\LCD.c       **** *
 578:.\LCD.c       **** * Caller(s)   : 
 579:.\LCD.c       **** *
 580:.\LCD.c       **** * Note(s)     : none.
 581:.\LCD.c       **** ***************************************************************************************************
 582:.\LCD.c       **** */
 583:.\LCD.c       **** void Cuenta_LCD(uint8 lcd){
 1906              		.loc 1 583 0
 1907              		.cfi_startproc
 1908              		@ args = 0, pretend = 0, frame = 24
 1909              		@ frame_needed = 0, uses_anonymous_args = 0
 1910              	.LVL108:
 1911 0000 70B5     		push	{r4, r5, r6, lr}
 1912              		.cfi_def_cfa_offset 16
 1913              		.cfi_offset 4, -16
 1914              		.cfi_offset 5, -12
 1915              		.cfi_offset 6, -8
 1916              		.cfi_offset 14, -4
 1917 0002 86B0     		sub	sp, sp, #24
 1918              		.cfi_def_cfa_offset 40
 1919 0004 0646     		mov	r6, r0
 584:.\LCD.c       **** 	uint8 buffer[18]={0xAA,0x98,0x00,0xA5,0x01,0x32,0x23,0xC5,0x02,0x00,0x00,0xFF,0xFF,0x20,0xCC,0x33,
 1920              		.loc 1 584 0
 1921 0006 01AC     		add	r4, sp, #4
 1922 0008 364D     		ldr	r5, .L152
 1923 000a 55F8D80F 		ldr	r0, [r5, #216]!	@ unaligned
 1924              	.LVL109:
 1925 000e 6968     		ldr	r1, [r5, #4]	@ unaligned
 1926 0010 AA68     		ldr	r2, [r5, #8]	@ unaligned
 1927 0012 EB68     		ldr	r3, [r5, #12]	@ unaligned
 1928 0014 0FC4     		stmia	r4!, {r0, r1, r2, r3}
 1929 0016 2B8A     		ldrh	r3, [r5, #16]	@ unaligned
 1930 0018 2380     		strh	r3, [r4]	@ unaligned
 585:.\LCD.c       ****     if(lcd==1){
 1931              		.loc 1 585 0
 1932 001a 012E     		cmp	r6, #1
 1933 001c 31D1     		bne	.L142
 586:.\LCD.c       **** 		for(x=1;(x<=Buffer_LCD1.cuenta[0]&&x<=25);x++){
 1934              		.loc 1 586 0
 1935 001e 0122     		movs	r2, #1
 1936 0020 314B     		ldr	r3, .L152+4
 1937 0022 1A60     		str	r2, [r3]
 1938 0024 314D     		ldr	r5, .L152+8
 587:.\LCD.c       **** 			buffer[3]=((0xB8)+(0x0F*x))&0xFF;
ARM GAS  C:\Users\RECEPC~1\AppData\Local\Temp\cc89K5zt.s 			page 47


 588:.\LCD.c       **** 			buffer[2]=((0xB8)+(0x0F*x))>>8;			
 589:.\LCD.c       **** 			buffer[13]=Buffer_LCD1.cuenta[x];			
 590:.\LCD.c       **** 			for(y=0;y<=17;y++){
 1939              		.loc 1 590 0
 1940 0026 324C     		ldr	r4, .L152+12
 586:.\LCD.c       **** 		for(x=1;(x<=Buffer_LCD1.cuenta[0]&&x<=25);x++){
 1941              		.loc 1 586 0
 1942 0028 22E0     		b	.L143
 1943              	.L147:
 587:.\LCD.c       **** 			buffer[3]=((0xB8)+(0x0F*x))&0xFF;
 1944              		.loc 1 587 0
 1945 002a C3EB0312 		rsb	r2, r3, r3, lsl #4
 1946 002e 483A     		subs	r2, r2, #72
 1947 0030 8DF80720 		strb	r2, [sp, #7]
 588:.\LCD.c       **** 			buffer[2]=((0xB8)+(0x0F*x))>>8;			
 1948              		.loc 1 588 0
 1949 0034 C3EB0312 		rsb	r2, r3, r3, lsl #4
 1950 0038 B832     		adds	r2, r2, #184
 1951 003a 120A     		lsrs	r2, r2, #8
 1952 003c 8DF80620 		strb	r2, [sp, #6]
 589:.\LCD.c       **** 			buffer[13]=Buffer_LCD1.cuenta[x];			
 1953              		.loc 1 589 0
 1954 0040 2B44     		add	r3, r3, r5
 1955 0042 93F84730 		ldrb	r3, [r3, #71]	@ zero_extendqisi2
 1956 0046 8DF81130 		strb	r3, [sp, #17]
 1957              		.loc 1 590 0
 1958 004a 0023     		movs	r3, #0
 1959 004c 2360     		str	r3, [r4]
 1960 004e 08E0     		b	.L144
 1961              	.L145:
 591:.\LCD.c       ****         		LCD_1_PutChar(buffer[y]);
 1962              		.loc 1 591 0 discriminator 2
 1963 0050 06AA     		add	r2, sp, #24
 1964 0052 1344     		add	r3, r3, r2
 1965 0054 13F8140C 		ldrb	r0, [r3, #-20]	@ zero_extendqisi2
 1966 0058 FFF7FEFF 		bl	LCD_1_PutChar
 1967              	.LVL110:
 590:.\LCD.c       **** 			for(y=0;y<=17;y++){
 1968              		.loc 1 590 0 discriminator 2
 1969 005c 2368     		ldr	r3, [r4]
 1970 005e 0133     		adds	r3, r3, #1
 1971 0060 2360     		str	r3, [r4]
 1972              	.L144:
 590:.\LCD.c       **** 			for(y=0;y<=17;y++){
 1973              		.loc 1 590 0 is_stmt 0 discriminator 1
 1974 0062 2368     		ldr	r3, [r4]
 1975 0064 112B     		cmp	r3, #17
 1976 0066 F3D9     		bls	.L145
 586:.\LCD.c       **** 		for(x=1;(x<=Buffer_LCD1.cuenta[0]&&x<=25);x++){
 1977              		.loc 1 586 0 is_stmt 1
 1978 0068 1F4B     		ldr	r3, .L152+4
 1979 006a 1A68     		ldr	r2, [r3]
 1980 006c 0132     		adds	r2, r2, #1
 1981 006e 1A60     		str	r2, [r3]
 1982              	.L143:
 586:.\LCD.c       **** 		for(x=1;(x<=Buffer_LCD1.cuenta[0]&&x<=25);x++){
 1983              		.loc 1 586 0 is_stmt 0 discriminator 1
ARM GAS  C:\Users\RECEPC~1\AppData\Local\Temp\cc89K5zt.s 			page 48


 1984 0070 95F84720 		ldrb	r2, [r5, #71]	@ zero_extendqisi2
 1985 0074 1C4B     		ldr	r3, .L152+4
 1986 0076 1B68     		ldr	r3, [r3]
 1987 0078 9A42     		cmp	r2, r3
 1988 007a 31D3     		bcc	.L141
 586:.\LCD.c       **** 		for(x=1;(x<=Buffer_LCD1.cuenta[0]&&x<=25);x++){
 1989              		.loc 1 586 0 discriminator 2
 1990 007c 192B     		cmp	r3, #25
 1991 007e D4D9     		bls	.L147
 1992 0080 2EE0     		b	.L141
 1993              	.L142:
 592:.\LCD.c       **** 			}	
 593:.\LCD.c       **** 		}
 594:.\LCD.c       ****     }
 595:.\LCD.c       ****     else{
 596:.\LCD.c       **** 		for(x=1;x<=Buffer_LCD2.cuenta[0];x++){
 1994              		.loc 1 596 0 is_stmt 1
 1995 0082 0122     		movs	r2, #1
 1996 0084 184B     		ldr	r3, .L152+4
 1997 0086 1A60     		str	r2, [r3]
 1998 0088 1A4D     		ldr	r5, .L152+16
 597:.\LCD.c       **** 			buffer[3]=((0xB8)+(0x0F*x))&0xFF;
 598:.\LCD.c       **** 			buffer[2]=((0xB8)+(0x0F*x))>>8;				
 599:.\LCD.c       **** 			buffer[13]=Buffer_LCD2.cuenta[x];			
 600:.\LCD.c       **** 			for(y=0;y<=17;y++){
 1999              		.loc 1 600 0
 2000 008a 194C     		ldr	r4, .L152+12
 596:.\LCD.c       **** 		for(x=1;x<=Buffer_LCD2.cuenta[0];x++){
 2001              		.loc 1 596 0
 2002 008c 22E0     		b	.L148
 2003              	.L151:
 597:.\LCD.c       **** 			buffer[3]=((0xB8)+(0x0F*x))&0xFF;
 2004              		.loc 1 597 0
 2005 008e C3EB0312 		rsb	r2, r3, r3, lsl #4
 2006 0092 483A     		subs	r2, r2, #72
 2007 0094 8DF80720 		strb	r2, [sp, #7]
 598:.\LCD.c       **** 			buffer[2]=((0xB8)+(0x0F*x))>>8;				
 2008              		.loc 1 598 0
 2009 0098 C3EB0312 		rsb	r2, r3, r3, lsl #4
 2010 009c B832     		adds	r2, r2, #184
 2011 009e 120A     		lsrs	r2, r2, #8
 2012 00a0 8DF80620 		strb	r2, [sp, #6]
 599:.\LCD.c       **** 			buffer[13]=Buffer_LCD2.cuenta[x];			
 2013              		.loc 1 599 0
 2014 00a4 2B44     		add	r3, r3, r5
 2015 00a6 93F84730 		ldrb	r3, [r3, #71]	@ zero_extendqisi2
 2016 00aa 8DF81130 		strb	r3, [sp, #17]
 2017              		.loc 1 600 0
 2018 00ae 0023     		movs	r3, #0
 2019 00b0 2360     		str	r3, [r4]
 2020 00b2 08E0     		b	.L149
 2021              	.L150:
 601:.\LCD.c       ****         		LCD_2_PutChar(buffer[y]);
 2022              		.loc 1 601 0 discriminator 2
 2023 00b4 06AA     		add	r2, sp, #24
 2024 00b6 1344     		add	r3, r3, r2
 2025 00b8 13F8140C 		ldrb	r0, [r3, #-20]	@ zero_extendqisi2
ARM GAS  C:\Users\RECEPC~1\AppData\Local\Temp\cc89K5zt.s 			page 49


 2026 00bc FFF7FEFF 		bl	LCD_2_PutChar
 2027              	.LVL111:
 600:.\LCD.c       **** 			for(y=0;y<=17;y++){
 2028              		.loc 1 600 0 discriminator 2
 2029 00c0 2368     		ldr	r3, [r4]
 2030 00c2 0133     		adds	r3, r3, #1
 2031 00c4 2360     		str	r3, [r4]
 2032              	.L149:
 600:.\LCD.c       **** 			for(y=0;y<=17;y++){
 2033              		.loc 1 600 0 is_stmt 0 discriminator 1
 2034 00c6 2368     		ldr	r3, [r4]
 2035 00c8 112B     		cmp	r3, #17
 2036 00ca F3D9     		bls	.L150
 596:.\LCD.c       **** 		for(x=1;x<=Buffer_LCD2.cuenta[0];x++){
 2037              		.loc 1 596 0 is_stmt 1
 2038 00cc 064B     		ldr	r3, .L152+4
 2039 00ce 1A68     		ldr	r2, [r3]
 2040 00d0 0132     		adds	r2, r2, #1
 2041 00d2 1A60     		str	r2, [r3]
 2042              	.L148:
 596:.\LCD.c       **** 		for(x=1;x<=Buffer_LCD2.cuenta[0];x++){
 2043              		.loc 1 596 0 is_stmt 0 discriminator 1
 2044 00d4 95F84720 		ldrb	r2, [r5, #71]	@ zero_extendqisi2
 2045 00d8 034B     		ldr	r3, .L152+4
 2046 00da 1B68     		ldr	r3, [r3]
 2047 00dc 9A42     		cmp	r2, r3
 2048 00de D6D2     		bcs	.L151
 2049              	.L141:
 602:.\LCD.c       **** 			}	
 603:.\LCD.c       **** 		}
 604:.\LCD.c       ****     }	
 605:.\LCD.c       **** }
 2050              		.loc 1 605 0 is_stmt 1
 2051 00e0 06B0     		add	sp, sp, #24
 2052              		@ sp needed
 2053 00e2 70BD     		pop	{r4, r5, r6, pc}
 2054              	.L153:
 2055              		.align	2
 2056              	.L152:
 2057 00e4 00000000 		.word	.LANCHOR0
 2058 00e8 00000000 		.word	x
 2059 00ec 00000000 		.word	Buffer_LCD1
 2060 00f0 00000000 		.word	y
 2061 00f4 00000000 		.word	Buffer_LCD2
 2062              		.cfi_endproc
 2063              	.LFE75:
 2064              		.size	Cuenta_LCD, .-Cuenta_LCD
 2065              		.section	.text.Placa_LCD,"ax",%progbits
 2066              		.align	2
 2067              		.global	Placa_LCD
 2068              		.thumb
 2069              		.thumb_func
 2070              		.type	Placa_LCD, %function
 2071              	Placa_LCD:
 2072              	.LFB76:
 606:.\LCD.c       **** 
 607:.\LCD.c       **** /*
ARM GAS  C:\Users\RECEPC~1\AppData\Local\Temp\cc89K5zt.s 			page 50


 608:.\LCD.c       **** ***************************************************************************************************
 609:.\LCD.c       **** *                                 			void Cuenta_LCD(uint8 lcd)
 610:.\LCD.c       **** *
 611:.\LCD.c       **** * Description : 
 612:.\LCD.c       **** *               
 613:.\LCD.c       **** *
 614:.\LCD.c       **** * Argument(s) : none
 615:.\LCD.c       **** *
 616:.\LCD.c       **** * Return(s)   : none
 617:.\LCD.c       **** *
 618:.\LCD.c       **** * Caller(s)   : 
 619:.\LCD.c       **** *
 620:.\LCD.c       **** * Note(s)     : none.
 621:.\LCD.c       **** ***************************************************************************************************
 622:.\LCD.c       **** */
 623:.\LCD.c       **** void Placa_LCD(uint8 lcd){
 2073              		.loc 1 623 0
 2074              		.cfi_startproc
 2075              		@ args = 0, pretend = 0, frame = 24
 2076              		@ frame_needed = 0, uses_anonymous_args = 0
 2077              	.LVL112:
 2078 0000 70B5     		push	{r4, r5, r6, lr}
 2079              		.cfi_def_cfa_offset 16
 2080              		.cfi_offset 4, -16
 2081              		.cfi_offset 5, -12
 2082              		.cfi_offset 6, -8
 2083              		.cfi_offset 14, -4
 2084 0002 86B0     		sub	sp, sp, #24
 2085              		.cfi_def_cfa_offset 40
 2086 0004 0646     		mov	r6, r0
 624:.\LCD.c       **** 	uint8 buffer[18]={0xAA,0x98,0x00,0xA5,0x00,0xC1,0x23,0xC5,0x02,0x00,0x00,0xFF,0xFF,0x20,0xCC,0x33,
 2087              		.loc 1 624 0
 2088 0006 01AC     		add	r4, sp, #4
 2089 0008 374D     		ldr	r5, .L165
 2090 000a 55F8EC0F 		ldr	r0, [r5, #236]!	@ unaligned
 2091              	.LVL113:
 2092 000e 6968     		ldr	r1, [r5, #4]	@ unaligned
 2093 0010 AA68     		ldr	r2, [r5, #8]	@ unaligned
 2094 0012 EB68     		ldr	r3, [r5, #12]	@ unaligned
 2095 0014 0FC4     		stmia	r4!, {r0, r1, r2, r3}
 2096 0016 2B8A     		ldrh	r3, [r5, #16]	@ unaligned
 2097 0018 2380     		strh	r3, [r4]	@ unaligned
 625:.\LCD.c       ****     if(lcd==1){
 2098              		.loc 1 625 0
 2099 001a 012E     		cmp	r6, #1
 2100 001c 31D1     		bne	.L155
 626:.\LCD.c       **** 		for(x=1;(x<=Buffer_LCD1.placa[0]&&x<=20);x++){
 2101              		.loc 1 626 0
 2102 001e 0122     		movs	r2, #1
 2103 0020 324B     		ldr	r3, .L165+4
 2104 0022 1A60     		str	r2, [r3]
 2105 0024 324D     		ldr	r5, .L165+8
 627:.\LCD.c       **** 			buffer[3]=((0xB8)+(0x0F*x))&0xFF;
 628:.\LCD.c       **** 			buffer[2]=((0xB8)+(0x0F*x))>>8;			
 629:.\LCD.c       **** 			buffer[13]=Buffer_LCD1.placa[x];			
 630:.\LCD.c       **** 			for(y=0;y<=17;y++){
 2106              		.loc 1 630 0
ARM GAS  C:\Users\RECEPC~1\AppData\Local\Temp\cc89K5zt.s 			page 51


 2107 0026 334C     		ldr	r4, .L165+12
 626:.\LCD.c       **** 		for(x=1;(x<=Buffer_LCD1.placa[0]&&x<=20);x++){
 2108              		.loc 1 626 0
 2109 0028 22E0     		b	.L156
 2110              	.L160:
 627:.\LCD.c       **** 			buffer[3]=((0xB8)+(0x0F*x))&0xFF;
 2111              		.loc 1 627 0
 2112 002a C3EB0312 		rsb	r2, r3, r3, lsl #4
 2113 002e 483A     		subs	r2, r2, #72
 2114 0030 8DF80720 		strb	r2, [sp, #7]
 628:.\LCD.c       **** 			buffer[2]=((0xB8)+(0x0F*x))>>8;			
 2115              		.loc 1 628 0
 2116 0034 C3EB0312 		rsb	r2, r3, r3, lsl #4
 2117 0038 B832     		adds	r2, r2, #184
 2118 003a 120A     		lsrs	r2, r2, #8
 2119 003c 8DF80620 		strb	r2, [sp, #6]
 629:.\LCD.c       **** 			buffer[13]=Buffer_LCD1.placa[x];			
 2120              		.loc 1 629 0
 2121 0040 2B44     		add	r3, r3, r5
 2122 0042 93F86530 		ldrb	r3, [r3, #101]	@ zero_extendqisi2
 2123 0046 8DF81130 		strb	r3, [sp, #17]
 2124              		.loc 1 630 0
 2125 004a 0023     		movs	r3, #0
 2126 004c 2360     		str	r3, [r4]
 2127 004e 08E0     		b	.L157
 2128              	.L158:
 631:.\LCD.c       ****         		LCD_1_PutChar(buffer[y]);
 2129              		.loc 1 631 0 discriminator 2
 2130 0050 06AA     		add	r2, sp, #24
 2131 0052 1344     		add	r3, r3, r2
 2132 0054 13F8140C 		ldrb	r0, [r3, #-20]	@ zero_extendqisi2
 2133 0058 FFF7FEFF 		bl	LCD_1_PutChar
 2134              	.LVL114:
 630:.\LCD.c       **** 			for(y=0;y<=17;y++){
 2135              		.loc 1 630 0 discriminator 2
 2136 005c 2368     		ldr	r3, [r4]
 2137 005e 0133     		adds	r3, r3, #1
 2138 0060 2360     		str	r3, [r4]
 2139              	.L157:
 630:.\LCD.c       **** 			for(y=0;y<=17;y++){
 2140              		.loc 1 630 0 is_stmt 0 discriminator 1
 2141 0062 2368     		ldr	r3, [r4]
 2142 0064 112B     		cmp	r3, #17
 2143 0066 F3D9     		bls	.L158
 626:.\LCD.c       **** 		for(x=1;(x<=Buffer_LCD1.placa[0]&&x<=20);x++){
 2144              		.loc 1 626 0 is_stmt 1
 2145 0068 204B     		ldr	r3, .L165+4
 2146 006a 1A68     		ldr	r2, [r3]
 2147 006c 0132     		adds	r2, r2, #1
 2148 006e 1A60     		str	r2, [r3]
 2149              	.L156:
 626:.\LCD.c       **** 		for(x=1;(x<=Buffer_LCD1.placa[0]&&x<=20);x++){
 2150              		.loc 1 626 0 is_stmt 0 discriminator 1
 2151 0070 95F86520 		ldrb	r2, [r5, #101]	@ zero_extendqisi2
 2152 0074 1D4B     		ldr	r3, .L165+4
 2153 0076 1B68     		ldr	r3, [r3]
 2154 0078 9A42     		cmp	r2, r3
ARM GAS  C:\Users\RECEPC~1\AppData\Local\Temp\cc89K5zt.s 			page 52


 2155 007a 33D3     		bcc	.L154
 626:.\LCD.c       **** 		for(x=1;(x<=Buffer_LCD1.placa[0]&&x<=20);x++){
 2156              		.loc 1 626 0 discriminator 2
 2157 007c 142B     		cmp	r3, #20
 2158 007e D4D9     		bls	.L160
 2159 0080 30E0     		b	.L154
 2160              	.L155:
 632:.\LCD.c       **** 			}	
 633:.\LCD.c       **** 		}
 634:.\LCD.c       ****     }
 635:.\LCD.c       ****     else{
 636:.\LCD.c       **** 		for(x=1;(x<=Buffer_LCD2.placa[0]&&x<=20);x++){
 2161              		.loc 1 636 0 is_stmt 1
 2162 0082 0122     		movs	r2, #1
 2163 0084 194B     		ldr	r3, .L165+4
 2164 0086 1A60     		str	r2, [r3]
 2165 0088 1B4D     		ldr	r5, .L165+16
 637:.\LCD.c       **** 			buffer[3]=((0xB8)+(0x0F*x))&0xFF;
 638:.\LCD.c       **** 			buffer[2]=((0xB8)+(0x0F*x))>>8;				
 639:.\LCD.c       **** 			buffer[13]=Buffer_LCD2.placa[x];			
 640:.\LCD.c       **** 			for(y=0;y<=17;y++){
 2166              		.loc 1 640 0
 2167 008a 1A4C     		ldr	r4, .L165+12
 636:.\LCD.c       **** 		for(x=1;(x<=Buffer_LCD2.placa[0]&&x<=20);x++){
 2168              		.loc 1 636 0
 2169 008c 22E0     		b	.L161
 2170              	.L164:
 637:.\LCD.c       **** 			buffer[3]=((0xB8)+(0x0F*x))&0xFF;
 2171              		.loc 1 637 0
 2172 008e C3EB0312 		rsb	r2, r3, r3, lsl #4
 2173 0092 483A     		subs	r2, r2, #72
 2174 0094 8DF80720 		strb	r2, [sp, #7]
 638:.\LCD.c       **** 			buffer[2]=((0xB8)+(0x0F*x))>>8;				
 2175              		.loc 1 638 0
 2176 0098 C3EB0312 		rsb	r2, r3, r3, lsl #4
 2177 009c B832     		adds	r2, r2, #184
 2178 009e 120A     		lsrs	r2, r2, #8
 2179 00a0 8DF80620 		strb	r2, [sp, #6]
 639:.\LCD.c       **** 			buffer[13]=Buffer_LCD2.placa[x];			
 2180              		.loc 1 639 0
 2181 00a4 2B44     		add	r3, r3, r5
 2182 00a6 93F86530 		ldrb	r3, [r3, #101]	@ zero_extendqisi2
 2183 00aa 8DF81130 		strb	r3, [sp, #17]
 2184              		.loc 1 640 0
 2185 00ae 0023     		movs	r3, #0
 2186 00b0 2360     		str	r3, [r4]
 2187 00b2 08E0     		b	.L162
 2188              	.L163:
 641:.\LCD.c       ****         		LCD_2_PutChar(buffer[y]);
 2189              		.loc 1 641 0 discriminator 2
 2190 00b4 06AA     		add	r2, sp, #24
 2191 00b6 1344     		add	r3, r3, r2
 2192 00b8 13F8140C 		ldrb	r0, [r3, #-20]	@ zero_extendqisi2
 2193 00bc FFF7FEFF 		bl	LCD_2_PutChar
 2194              	.LVL115:
 640:.\LCD.c       **** 			for(y=0;y<=17;y++){
 2195              		.loc 1 640 0 discriminator 2
ARM GAS  C:\Users\RECEPC~1\AppData\Local\Temp\cc89K5zt.s 			page 53


 2196 00c0 2368     		ldr	r3, [r4]
 2197 00c2 0133     		adds	r3, r3, #1
 2198 00c4 2360     		str	r3, [r4]
 2199              	.L162:
 640:.\LCD.c       **** 			for(y=0;y<=17;y++){
 2200              		.loc 1 640 0 is_stmt 0 discriminator 1
 2201 00c6 2368     		ldr	r3, [r4]
 2202 00c8 112B     		cmp	r3, #17
 2203 00ca F3D9     		bls	.L163
 636:.\LCD.c       **** 		for(x=1;(x<=Buffer_LCD2.placa[0]&&x<=20);x++){
 2204              		.loc 1 636 0 is_stmt 1
 2205 00cc 074B     		ldr	r3, .L165+4
 2206 00ce 1A68     		ldr	r2, [r3]
 2207 00d0 0132     		adds	r2, r2, #1
 2208 00d2 1A60     		str	r2, [r3]
 2209              	.L161:
 636:.\LCD.c       **** 		for(x=1;(x<=Buffer_LCD2.placa[0]&&x<=20);x++){
 2210              		.loc 1 636 0 is_stmt 0 discriminator 1
 2211 00d4 95F86520 		ldrb	r2, [r5, #101]	@ zero_extendqisi2
 2212 00d8 044B     		ldr	r3, .L165+4
 2213 00da 1B68     		ldr	r3, [r3]
 2214 00dc 9A42     		cmp	r2, r3
 2215 00de 01D3     		bcc	.L154
 636:.\LCD.c       **** 		for(x=1;(x<=Buffer_LCD2.placa[0]&&x<=20);x++){
 2216              		.loc 1 636 0 discriminator 2
 2217 00e0 142B     		cmp	r3, #20
 2218 00e2 D4D9     		bls	.L164
 2219              	.L154:
 642:.\LCD.c       **** 			}	
 643:.\LCD.c       **** 		}
 644:.\LCD.c       ****     }	
 645:.\LCD.c       **** }
 2220              		.loc 1 645 0 is_stmt 1
 2221 00e4 06B0     		add	sp, sp, #24
 2222              		@ sp needed
 2223 00e6 70BD     		pop	{r4, r5, r6, pc}
 2224              	.L166:
 2225              		.align	2
 2226              	.L165:
 2227 00e8 00000000 		.word	.LANCHOR0
 2228 00ec 00000000 		.word	x
 2229 00f0 00000000 		.word	Buffer_LCD1
 2230 00f4 00000000 		.word	y
 2231 00f8 00000000 		.word	Buffer_LCD2
 2232              		.cfi_endproc
 2233              	.LFE76:
 2234              		.size	Placa_LCD, .-Placa_LCD
 2235              		.section	.text.writemini_LCD,"ax",%progbits
 2236              		.align	2
 2237              		.global	writemini_LCD
 2238              		.thumb
 2239              		.thumb_func
 2240              		.type	writemini_LCD, %function
 2241              	writemini_LCD:
 2242              	.LFB77:
 646:.\LCD.c       **** 
 647:.\LCD.c       **** /*
ARM GAS  C:\Users\RECEPC~1\AppData\Local\Temp\cc89K5zt.s 			page 54


 648:.\LCD.c       **** ***************************************************************************************************
 649:.\LCD.c       **** *                             void writemini_LCD(uint8 lcd, uint8 dato, uint8 pos)
 650:.\LCD.c       **** *
 651:.\LCD.c       **** * Description : 
 652:.\LCD.c       **** *               
 653:.\LCD.c       **** *
 654:.\LCD.c       **** * Argument(s) : none
 655:.\LCD.c       **** *
 656:.\LCD.c       **** * Return(s)   : none
 657:.\LCD.c       **** *
 658:.\LCD.c       **** * Caller(s)   : 
 659:.\LCD.c       **** *
 660:.\LCD.c       **** * Note(s)     : none.
 661:.\LCD.c       **** ***************************************************************************************************
 662:.\LCD.c       **** */
 663:.\LCD.c       **** void writemini_LCD(uint8 lcd, uint8 dato, uint16 pos){
 2243              		.loc 1 663 0
 2244              		.cfi_startproc
 2245              		@ args = 0, pretend = 0, frame = 0
 2246              		@ frame_needed = 0, uses_anonymous_args = 0
 2247              	.LVL116:
 2248 0000 38B5     		push	{r3, r4, r5, lr}
 2249              		.cfi_def_cfa_offset 16
 2250              		.cfi_offset 3, -16
 2251              		.cfi_offset 4, -12
 2252              		.cfi_offset 5, -8
 2253              		.cfi_offset 14, -4
 2254 0002 0D46     		mov	r5, r1
 2255 0004 1446     		mov	r4, r2
 664:.\LCD.c       ****     if(lcd==1){
 2256              		.loc 1 664 0
 2257 0006 0128     		cmp	r0, #1
 2258 0008 3ED1     		bne	.L168
 665:.\LCD.c       ****         LCD_1_PutChar(0xAA);
 2259              		.loc 1 665 0
 2260 000a AA20     		movs	r0, #170
 2261              	.LVL117:
 2262 000c FFF7FEFF 		bl	LCD_1_PutChar
 2263              	.LVL118:
 666:.\LCD.c       ****         LCD_1_PutChar(0x98);
 2264              		.loc 1 666 0
 2265 0010 9820     		movs	r0, #152
 2266 0012 FFF7FEFF 		bl	LCD_1_PutChar
 2267              	.LVL119:
 667:.\LCD.c       ****         LCD_1_PutChar(((0x30)+(0x0F*pos))>>8);
 2268              		.loc 1 667 0
 2269 0016 C4EB0410 		rsb	r0, r4, r4, lsl #4
 2270 001a 3030     		adds	r0, r0, #48
 2271 001c C0F30720 		ubfx	r0, r0, #8, #8
 2272 0020 FFF7FEFF 		bl	LCD_1_PutChar
 2273              	.LVL120:
 668:.\LCD.c       ****         LCD_1_PutChar(((0x30)+(0x0F*pos))&0xFF);
 2274              		.loc 1 668 0
 2275 0024 C4EB0414 		rsb	r4, r4, r4, lsl #4
 2276 0028 04F13000 		add	r0, r4, #48
 2277 002c C0B2     		uxtb	r0, r0
 2278 002e FFF7FEFF 		bl	LCD_1_PutChar
ARM GAS  C:\Users\RECEPC~1\AppData\Local\Temp\cc89K5zt.s 			page 55


 2279              	.LVL121:
 669:.\LCD.c       ****         LCD_1_PutChar(0x00);
 2280              		.loc 1 669 0
 2281 0032 0020     		movs	r0, #0
 2282 0034 FFF7FEFF 		bl	LCD_1_PutChar
 2283              	.LVL122:
 670:.\LCD.c       ****         LCD_1_PutChar(0x30);
 2284              		.loc 1 670 0
 2285 0038 3020     		movs	r0, #48
 2286 003a FFF7FEFF 		bl	LCD_1_PutChar
 2287              	.LVL123:
 671:.\LCD.c       ****         LCD_1_PutChar(0x23);
 2288              		.loc 1 671 0
 2289 003e 2320     		movs	r0, #35
 2290 0040 FFF7FEFF 		bl	LCD_1_PutChar
 2291              	.LVL124:
 672:.\LCD.c       ****         LCD_1_PutChar(0xC5);
 2292              		.loc 1 672 0
 2293 0044 C520     		movs	r0, #197
 2294 0046 FFF7FEFF 		bl	LCD_1_PutChar
 2295              	.LVL125:
 673:.\LCD.c       ****         LCD_1_PutChar(0x02);
 2296              		.loc 1 673 0
 2297 004a 0220     		movs	r0, #2
 2298 004c FFF7FEFF 		bl	LCD_1_PutChar
 2299              	.LVL126:
 674:.\LCD.c       ****         LCD_1_PutChar(0x00);
 2300              		.loc 1 674 0
 2301 0050 0020     		movs	r0, #0
 2302 0052 FFF7FEFF 		bl	LCD_1_PutChar
 2303              	.LVL127:
 675:.\LCD.c       ****         LCD_1_PutChar(0x00);
 2304              		.loc 1 675 0
 2305 0056 0020     		movs	r0, #0
 2306 0058 FFF7FEFF 		bl	LCD_1_PutChar
 2307              	.LVL128:
 676:.\LCD.c       ****         LCD_1_PutChar(0xFF);
 2308              		.loc 1 676 0
 2309 005c FF20     		movs	r0, #255
 2310 005e FFF7FEFF 		bl	LCD_1_PutChar
 2311              	.LVL129:
 677:.\LCD.c       ****         LCD_1_PutChar(0xFF);
 2312              		.loc 1 677 0
 2313 0062 FF20     		movs	r0, #255
 2314 0064 FFF7FEFF 		bl	LCD_1_PutChar
 2315              	.LVL130:
 678:.\LCD.c       ****         LCD_1_PutChar(dato);
 2316              		.loc 1 678 0
 2317 0068 2846     		mov	r0, r5
 2318 006a FFF7FEFF 		bl	LCD_1_PutChar
 2319              	.LVL131:
 679:.\LCD.c       ****         LCD_1_PutChar(0xCC);
 2320              		.loc 1 679 0
 2321 006e CC20     		movs	r0, #204
 2322 0070 FFF7FEFF 		bl	LCD_1_PutChar
 2323              	.LVL132:
 680:.\LCD.c       ****         LCD_1_PutChar(0x33);
ARM GAS  C:\Users\RECEPC~1\AppData\Local\Temp\cc89K5zt.s 			page 56


 2324              		.loc 1 680 0
 2325 0074 3320     		movs	r0, #51
 2326 0076 FFF7FEFF 		bl	LCD_1_PutChar
 2327              	.LVL133:
 681:.\LCD.c       ****         LCD_1_PutChar(0xC3);
 2328              		.loc 1 681 0
 2329 007a C320     		movs	r0, #195
 2330 007c FFF7FEFF 		bl	LCD_1_PutChar
 2331              	.LVL134:
 682:.\LCD.c       ****         LCD_1_PutChar(0x3C);
 2332              		.loc 1 682 0
 2333 0080 3C20     		movs	r0, #60
 2334 0082 FFF7FEFF 		bl	LCD_1_PutChar
 2335              	.LVL135:
 2336 0086 38BD     		pop	{r3, r4, r5, pc}
 2337              	.LVL136:
 2338              	.L168:
 683:.\LCD.c       ****     }
 684:.\LCD.c       ****     else{
 685:.\LCD.c       ****         LCD_2_PutChar(0xAA);
 2339              		.loc 1 685 0
 2340 0088 AA20     		movs	r0, #170
 2341              	.LVL137:
 2342 008a FFF7FEFF 		bl	LCD_2_PutChar
 2343              	.LVL138:
 686:.\LCD.c       ****         LCD_2_PutChar(0x98);
 2344              		.loc 1 686 0
 2345 008e 9820     		movs	r0, #152
 2346 0090 FFF7FEFF 		bl	LCD_2_PutChar
 2347              	.LVL139:
 687:.\LCD.c       ****         LCD_2_PutChar(((0x30)+(0x0F*pos))>>8);
 2348              		.loc 1 687 0
 2349 0094 C4EB0410 		rsb	r0, r4, r4, lsl #4
 2350 0098 3030     		adds	r0, r0, #48
 2351 009a C0F30720 		ubfx	r0, r0, #8, #8
 2352 009e FFF7FEFF 		bl	LCD_2_PutChar
 2353              	.LVL140:
 688:.\LCD.c       ****         LCD_2_PutChar(((0x30)+(0x0F*pos))&0xFF);
 2354              		.loc 1 688 0
 2355 00a2 C4EB0414 		rsb	r4, r4, r4, lsl #4
 2356 00a6 04F13000 		add	r0, r4, #48
 2357 00aa C0B2     		uxtb	r0, r0
 2358 00ac FFF7FEFF 		bl	LCD_2_PutChar
 2359              	.LVL141:
 689:.\LCD.c       ****         LCD_2_PutChar(0x00);
 2360              		.loc 1 689 0
 2361 00b0 0020     		movs	r0, #0
 2362 00b2 FFF7FEFF 		bl	LCD_2_PutChar
 2363              	.LVL142:
 690:.\LCD.c       ****         LCD_2_PutChar(0x30);
 2364              		.loc 1 690 0
 2365 00b6 3020     		movs	r0, #48
 2366 00b8 FFF7FEFF 		bl	LCD_2_PutChar
 2367              	.LVL143:
 691:.\LCD.c       ****         LCD_2_PutChar(0x23);
 2368              		.loc 1 691 0
 2369 00bc 2320     		movs	r0, #35
ARM GAS  C:\Users\RECEPC~1\AppData\Local\Temp\cc89K5zt.s 			page 57


 2370 00be FFF7FEFF 		bl	LCD_2_PutChar
 2371              	.LVL144:
 692:.\LCD.c       ****         LCD_2_PutChar(0xC5);
 2372              		.loc 1 692 0
 2373 00c2 C520     		movs	r0, #197
 2374 00c4 FFF7FEFF 		bl	LCD_2_PutChar
 2375              	.LVL145:
 693:.\LCD.c       ****         LCD_2_PutChar(0x02);
 2376              		.loc 1 693 0
 2377 00c8 0220     		movs	r0, #2
 2378 00ca FFF7FEFF 		bl	LCD_2_PutChar
 2379              	.LVL146:
 694:.\LCD.c       ****         LCD_2_PutChar(0x00);
 2380              		.loc 1 694 0
 2381 00ce 0020     		movs	r0, #0
 2382 00d0 FFF7FEFF 		bl	LCD_2_PutChar
 2383              	.LVL147:
 695:.\LCD.c       ****         LCD_2_PutChar(0x00);
 2384              		.loc 1 695 0
 2385 00d4 0020     		movs	r0, #0
 2386 00d6 FFF7FEFF 		bl	LCD_2_PutChar
 2387              	.LVL148:
 696:.\LCD.c       ****         LCD_2_PutChar(0xFF);
 2388              		.loc 1 696 0
 2389 00da FF20     		movs	r0, #255
 2390 00dc FFF7FEFF 		bl	LCD_2_PutChar
 2391              	.LVL149:
 697:.\LCD.c       ****         LCD_2_PutChar(0xFF);
 2392              		.loc 1 697 0
 2393 00e0 FF20     		movs	r0, #255
 2394 00e2 FFF7FEFF 		bl	LCD_2_PutChar
 2395              	.LVL150:
 698:.\LCD.c       ****         LCD_2_PutChar(dato);
 2396              		.loc 1 698 0
 2397 00e6 2846     		mov	r0, r5
 2398 00e8 FFF7FEFF 		bl	LCD_2_PutChar
 2399              	.LVL151:
 699:.\LCD.c       ****         LCD_2_PutChar(0xCC);
 2400              		.loc 1 699 0
 2401 00ec CC20     		movs	r0, #204
 2402 00ee FFF7FEFF 		bl	LCD_2_PutChar
 2403              	.LVL152:
 700:.\LCD.c       ****         LCD_2_PutChar(0x33);
 2404              		.loc 1 700 0
 2405 00f2 3320     		movs	r0, #51
 2406 00f4 FFF7FEFF 		bl	LCD_2_PutChar
 2407              	.LVL153:
 701:.\LCD.c       ****         LCD_2_PutChar(0xC3);
 2408              		.loc 1 701 0
 2409 00f8 C320     		movs	r0, #195
 2410 00fa FFF7FEFF 		bl	LCD_2_PutChar
 2411              	.LVL154:
 702:.\LCD.c       ****         LCD_2_PutChar(0x3C);   
 2412              		.loc 1 702 0
 2413 00fe 3C20     		movs	r0, #60
 2414 0100 FFF7FEFF 		bl	LCD_2_PutChar
 2415              	.LVL155:
ARM GAS  C:\Users\RECEPC~1\AppData\Local\Temp\cc89K5zt.s 			page 58


 2416 0104 38BD     		pop	{r3, r4, r5, pc}
 2417              		.cfi_endproc
 2418              	.LFE77:
 2419              		.size	writemini_LCD, .-writemini_LCD
 2420              		.comm	rventa2,225,4
 2421              		.comm	rventa,225,4
 2422              		.comm	lado,8,4
 2423              		.comm	producto,1,1
 2424              		.comm	producto2,1,1
 2425              		.comm	producto1,1,1
 2426              		.comm	modulo,400,4
 2427              		.comm	w,4,4
 2428              		.comm	z,4,4
 2429              		.comm	y,4,4
 2430              		.comm	x,4,4
 2431              		.comm	estado_0,1,1
 2432              		.comm	Buffer_LCD2,152,4
 2433              		.comm	Buffer_LCD1,152,4
 2434              		.comm	no_venta,4,4
 2435              		.comm	id_venta,6,4
 2436              		.comm	id_corte,2,2
 2437              		.comm	copia_recibo,2,4
 2438              		.comm	print2,2,4
 2439              		.comm	print1,2,4
 2440              		.comm	crc_total,1,1
 2441              		.comm	pos_ibutton,1,1
 2442              		.comm	fecha_corte,6,4
 2443              		.comm	decimalD,1,1
 2444              		.comm	decimalV,1,1
 2445              		.comm	tipo_imp,2,4
 2446              		.comm	bandera,2,4
 2447              		.comm	ppux10,1,1
 2448              		.comm	teclado2,1,1
 2449              		.comm	teclado,1,1
 2450              		.comm	resultado,14,4
 2451              		.comm	buffer_i2c,64,4
 2452              		.comm	kero2,1,1
 2453              		.comm	diesel2,1,1
 2454              		.comm	corriente2,1,1
 2455              		.comm	extra2,1,1
 2456              		.comm	kero,1,1
 2457              		.comm	corriente,1,1
 2458              		.comm	diesel,1,1
 2459              		.comm	extra,1,1
 2460              		.comm	versurt,1,1
 2461              		.comm	version,1,1
 2462              		.comm	comas2,1,1
 2463              		.comm	comas1,1,1
 2464              		.comm	teclas2,1,1
 2465              		.comm	teclas1,1,1
 2466              		.comm	cont1,1,1
 2467              		.comm	ok_LCD2,1,1
 2468              		.comm	ok_LCD1,1,1
 2469              		.comm	count_protector2,1,1
 2470              		.comm	count_protector,1,1
 2471              		.comm	flujo_LCD2,1,1
 2472              		.comm	flujo_LCD,1,1
ARM GAS  C:\Users\RECEPC~1\AppData\Local\Temp\cc89K5zt.s 			page 59


 2473 0106 00BF     		.section	.rodata
 2474              		.align	2
 2475              		.set	.LANCHOR0,. + 0
 2476              	.LC0:
 2477 0000 AA       		.byte	-86
 2478 0001 98       		.byte	-104
 2479 0002 00       		.byte	0
 2480 0003 D0       		.byte	-48
 2481 0004 00       		.byte	0
 2482 0005 BB       		.byte	-69
 2483 0006 24       		.byte	36
 2484 0007 C5       		.byte	-59
 2485 0008 02       		.byte	2
 2486 0009 00       		.byte	0
 2487 000a 00       		.byte	0
 2488 000b FF       		.byte	-1
 2489 000c FF       		.byte	-1
 2490 000d 30       		.byte	48
 2491 000e 30       		.byte	48
 2492 000f 3A       		.byte	58
 2493 0010 30       		.byte	48
 2494 0011 30       		.byte	48
 2495 0012 41       		.byte	65
 2496 0013 6D       		.byte	109
 2497 0014 CC       		.byte	-52
 2498 0015 33       		.byte	51
 2499 0016 C3       		.byte	-61
 2500 0017 3C       		.byte	60
 2501              	.LC1:
 2502 0018 AA       		.byte	-86
 2503 0019 98       		.byte	-104
 2504 001a 00       		.byte	0
 2505 001b CB       		.byte	-53
 2506 001c 01       		.byte	1
 2507 001d 27       		.byte	39
 2508 001e 24       		.byte	36
 2509 001f C5       		.byte	-59
 2510 0020 02       		.byte	2
 2511 0021 00       		.byte	0
 2512 0022 00       		.byte	0
 2513 0023 FF       		.byte	-1
 2514 0024 FF       		.byte	-1
 2515 0025 30       		.byte	48
 2516 0026 30       		.byte	48
 2517 0027 2F       		.byte	47
 2518 0028 30       		.byte	48
 2519 0029 30       		.byte	48
 2520 002a 2F       		.byte	47
 2521 002b 30       		.byte	48
 2522 002c 30       		.byte	48
 2523 002d CC       		.byte	-52
 2524 002e 33       		.byte	51
 2525 002f C3       		.byte	-61
 2526 0030 3C       		.byte	60
 2527 0031 000000   		.space	3
 2528              	.LC2:
 2529 0034 AA       		.byte	-86
ARM GAS  C:\Users\RECEPC~1\AppData\Local\Temp\cc89K5zt.s 			page 60


 2530 0035 98       		.byte	-104
 2531 0036 00       		.byte	0
 2532 0037 A5       		.byte	-91
 2533 0038 00       		.byte	0
 2534 0039 7E       		.byte	126
 2535 003a 23       		.byte	35
 2536 003b C5       		.byte	-59
 2537 003c 02       		.byte	2
 2538 003d 00       		.byte	0
 2539 003e 00       		.byte	0
 2540 003f FF       		.byte	-1
 2541 0040 FF       		.byte	-1
 2542 0041 20       		.byte	32
 2543 0042 CC       		.byte	-52
 2544 0043 33       		.byte	51
 2545 0044 C3       		.byte	-61
 2546 0045 3C       		.byte	60
 2547 0046 0000     		.space	2
 2548              	.LC3:
 2549 0048 AA       		.byte	-86
 2550 0049 98       		.byte	-104
 2551 004a 01       		.byte	1
 2552 004b 80       		.byte	-128
 2553 004c 01       		.byte	1
 2554 004d 60       		.byte	96
 2555 004e 24       		.byte	36
 2556 004f C5       		.byte	-59
 2557 0050 02       		.byte	2
 2558 0051 00       		.byte	0
 2559 0052 00       		.byte	0
 2560 0053 FF       		.byte	-1
 2561 0054 FF       		.byte	-1
 2562 0055 24       		.byte	36
 2563 0056 20       		.byte	32
 2564 0057 20       		.byte	32
 2565 0058 20       		.byte	32
 2566 0059 20       		.byte	32
 2567 005a 20       		.byte	32
 2568 005b CC       		.byte	-52
 2569 005c 33       		.byte	51
 2570 005d C3       		.byte	-61
 2571 005e 3C       		.byte	60
 2572 005f 00       		.space	1
 2573              	.LC4:
 2574 0060 AA       		.byte	-86
 2575 0061 98       		.byte	-104
 2576 0062 02       		.byte	2
 2577 0063 20       		.byte	32
 2578 0064 01       		.byte	1
 2579 0065 60       		.byte	96
 2580 0066 24       		.byte	36
 2581 0067 C5       		.byte	-59
 2582 0068 02       		.byte	2
 2583 0069 00       		.byte	0
 2584 006a 00       		.byte	0
 2585 006b FF       		.byte	-1
 2586 006c FF       		.byte	-1
ARM GAS  C:\Users\RECEPC~1\AppData\Local\Temp\cc89K5zt.s 			page 61


 2587 006d 20       		.byte	32
 2588 006e CC       		.byte	-52
 2589 006f 33       		.byte	51
 2590 0070 C3       		.byte	-61
 2591 0071 3C       		.byte	60
 2592 0072 0000     		.space	2
 2593              	.LC5:
 2594 0074 AA       		.byte	-86
 2595 0075 98       		.byte	-104
 2596 0076 00       		.byte	0
 2597 0077 A5       		.byte	-91
 2598 0078 00       		.byte	0
 2599 0079 B7       		.byte	-73
 2600 007a 23       		.byte	35
 2601 007b C5       		.byte	-59
 2602 007c 02       		.byte	2
 2603 007d 00       		.byte	0
 2604 007e 00       		.byte	0
 2605 007f FF       		.byte	-1
 2606 0080 FF       		.byte	-1
 2607 0081 20       		.byte	32
 2608 0082 CC       		.byte	-52
 2609 0083 33       		.byte	51
 2610 0084 C3       		.byte	-61
 2611 0085 3C       		.byte	60
 2612 0086 0000     		.space	2
 2613              	.LC6:
 2614 0088 AA       		.byte	-86
 2615 0089 98       		.byte	-104
 2616 008a 00       		.byte	0
 2617 008b A5       		.byte	-91
 2618 008c 01       		.byte	1
 2619 008d 27       		.byte	39
 2620 008e 23       		.byte	35
 2621 008f C5       		.byte	-59
 2622 0090 02       		.byte	2
 2623 0091 00       		.byte	0
 2624 0092 00       		.byte	0
 2625 0093 FF       		.byte	-1
 2626 0094 FF       		.byte	-1
 2627 0095 20       		.byte	32
 2628 0096 CC       		.byte	-52
 2629 0097 33       		.byte	51
 2630 0098 C3       		.byte	-61
 2631 0099 3C       		.byte	60
 2632 009a 0000     		.space	2
 2633              	.LC7:
 2634 009c AA       		.byte	-86
 2635 009d 98       		.byte	-104
 2636 009e 00       		.byte	0
 2637 009f A5       		.byte	-91
 2638 00a0 01       		.byte	1
 2639 00a1 5F       		.byte	95
 2640 00a2 23       		.byte	35
 2641 00a3 C5       		.byte	-59
 2642 00a4 02       		.byte	2
 2643 00a5 00       		.byte	0
ARM GAS  C:\Users\RECEPC~1\AppData\Local\Temp\cc89K5zt.s 			page 62


 2644 00a6 00       		.byte	0
 2645 00a7 FF       		.byte	-1
 2646 00a8 FF       		.byte	-1
 2647 00a9 20       		.byte	32
 2648 00aa CC       		.byte	-52
 2649 00ab 33       		.byte	51
 2650 00ac C3       		.byte	-61
 2651 00ad 3C       		.byte	60
 2652 00ae 0000     		.space	2
 2653              	.LC8:
 2654 00b0 AA       		.byte	-86
 2655 00b1 98       		.byte	-104
 2656 00b2 00       		.byte	0
 2657 00b3 A5       		.byte	-91
 2658 00b4 00       		.byte	0
 2659 00b5 EE       		.byte	-18
 2660 00b6 23       		.byte	35
 2661 00b7 C5       		.byte	-59
 2662 00b8 02       		.byte	2
 2663 00b9 00       		.byte	0
 2664 00ba 00       		.byte	0
 2665 00bb FF       		.byte	-1
 2666 00bc FF       		.byte	-1
 2667 00bd 20       		.byte	32
 2668 00be CC       		.byte	-52
 2669 00bf 33       		.byte	51
 2670 00c0 C3       		.byte	-61
 2671 00c1 3C       		.byte	60
 2672 00c2 0000     		.space	2
 2673              	.LC9:
 2674 00c4 AA       		.byte	-86
 2675 00c5 98       		.byte	-104
 2676 00c6 00       		.byte	0
 2677 00c7 A5       		.byte	-91
 2678 00c8 01       		.byte	1
 2679 00c9 99       		.byte	-103
 2680 00ca 23       		.byte	35
 2681 00cb C5       		.byte	-59
 2682 00cc 02       		.byte	2
 2683 00cd 00       		.byte	0
 2684 00ce 00       		.byte	0
 2685 00cf FF       		.byte	-1
 2686 00d0 FF       		.byte	-1
 2687 00d1 20       		.byte	32
 2688 00d2 CC       		.byte	-52
 2689 00d3 33       		.byte	51
 2690 00d4 C3       		.byte	-61
 2691 00d5 3C       		.byte	60
 2692 00d6 0000     		.space	2
 2693              	.LC10:
 2694 00d8 AA       		.byte	-86
 2695 00d9 98       		.byte	-104
 2696 00da 00       		.byte	0
 2697 00db A5       		.byte	-91
 2698 00dc 01       		.byte	1
 2699 00dd 32       		.byte	50
 2700 00de 23       		.byte	35
ARM GAS  C:\Users\RECEPC~1\AppData\Local\Temp\cc89K5zt.s 			page 63


 2701 00df C5       		.byte	-59
 2702 00e0 02       		.byte	2
 2703 00e1 00       		.byte	0
 2704 00e2 00       		.byte	0
 2705 00e3 FF       		.byte	-1
 2706 00e4 FF       		.byte	-1
 2707 00e5 20       		.byte	32
 2708 00e6 CC       		.byte	-52
 2709 00e7 33       		.byte	51
 2710 00e8 C3       		.byte	-61
 2711 00e9 3C       		.byte	60
 2712 00ea 0000     		.space	2
 2713              	.LC11:
 2714 00ec AA       		.byte	-86
 2715 00ed 98       		.byte	-104
 2716 00ee 00       		.byte	0
 2717 00ef A5       		.byte	-91
 2718 00f0 00       		.byte	0
 2719 00f1 C1       		.byte	-63
 2720 00f2 23       		.byte	35
 2721 00f3 C5       		.byte	-59
 2722 00f4 02       		.byte	2
 2723 00f5 00       		.byte	0
 2724 00f6 00       		.byte	0
 2725 00f7 FF       		.byte	-1
 2726 00f8 FF       		.byte	-1
 2727 00f9 20       		.byte	32
 2728 00fa CC       		.byte	-52
 2729 00fb 33       		.byte	51
 2730 00fc C3       		.byte	-61
 2731 00fd 3C       		.byte	60
 2732 00fe 0000     		.text
 2733              	.Letext0:
 2734              		.file 2 "c:\\program files (x86)\\cypress\\psoc creator\\3.2\\psoc creator\\import\\gnu\\arm\\4.8.
 2735              		.file 3 "c:\\program files (x86)\\cypress\\psoc creator\\3.2\\psoc creator\\import\\gnu\\arm\\4.8.
 2736              		.file 4 "Generated_Source\\PSoC5/cytypes.h"
 2737              		.file 5 ".\\VariablesG.h"
 2738              		.file 6 "Generated_Source\\PSoC5/core_cm3.h"
 2739              		.file 7 "Generated_Source\\PSoC5/LCD_1.h"
 2740              		.file 8 "Generated_Source\\PSoC5/LCD_2.h"
 2741              		.file 9 ".\\I2C.h"
 2742              		.section	.debug_info,"",%progbits
 2743              	.Ldebug_info0:
 2744 0000 08130000 		.4byte	0x1308
 2745 0004 0400     		.2byte	0x4
 2746 0006 00000000 		.4byte	.Ldebug_abbrev0
 2747 000a 04       		.byte	0x4
 2748 000b 01       		.uleb128 0x1
 2749 000c F3020000 		.4byte	.LASF117
 2750 0010 01       		.byte	0x1
 2751 0011 58000000 		.4byte	.LASF118
 2752 0015 41020000 		.4byte	.LASF119
 2753 0019 00000000 		.4byte	.Ldebug_ranges0+0
 2754 001d 00000000 		.4byte	0
 2755 0021 00000000 		.4byte	.Ldebug_line0
 2756 0025 02       		.uleb128 0x2
 2757 0026 01       		.byte	0x1
ARM GAS  C:\Users\RECEPC~1\AppData\Local\Temp\cc89K5zt.s 			page 64


 2758 0027 06       		.byte	0x6
 2759 0028 81040000 		.4byte	.LASF0
 2760 002c 02       		.uleb128 0x2
 2761 002d 01       		.byte	0x1
 2762 002e 08       		.byte	0x8
 2763 002f 59040000 		.4byte	.LASF1
 2764 0033 02       		.uleb128 0x2
 2765 0034 02       		.byte	0x2
 2766 0035 05       		.byte	0x5
 2767 0036 B6030000 		.4byte	.LASF2
 2768 003a 02       		.uleb128 0x2
 2769 003b 02       		.byte	0x2
 2770 003c 07       		.byte	0x7
 2771 003d A3040000 		.4byte	.LASF3
 2772 0041 03       		.uleb128 0x3
 2773 0042 87000000 		.4byte	.LASF9
 2774 0046 02       		.byte	0x2
 2775 0047 37       		.byte	0x37
 2776 0048 4C000000 		.4byte	0x4c
 2777 004c 02       		.uleb128 0x2
 2778 004d 04       		.byte	0x4
 2779 004e 05       		.byte	0x5
 2780 004f C0030000 		.4byte	.LASF4
 2781 0053 02       		.uleb128 0x2
 2782 0054 04       		.byte	0x4
 2783 0055 07       		.byte	0x7
 2784 0056 37040000 		.4byte	.LASF5
 2785 005a 02       		.uleb128 0x2
 2786 005b 08       		.byte	0x8
 2787 005c 05       		.byte	0x5
 2788 005d 20020000 		.4byte	.LASF6
 2789 0061 02       		.uleb128 0x2
 2790 0062 08       		.byte	0x8
 2791 0063 07       		.byte	0x7
 2792 0064 57010000 		.4byte	.LASF7
 2793 0068 04       		.uleb128 0x4
 2794 0069 04       		.byte	0x4
 2795 006a 05       		.byte	0x5
 2796 006b 696E7400 		.ascii	"int\000"
 2797 006f 02       		.uleb128 0x2
 2798 0070 04       		.byte	0x4
 2799 0071 07       		.byte	0x7
 2800 0072 67000000 		.4byte	.LASF8
 2801 0076 03       		.uleb128 0x3
 2802 0077 51040000 		.4byte	.LASF10
 2803 007b 03       		.byte	0x3
 2804 007c 41       		.byte	0x41
 2805 007d 41000000 		.4byte	0x41
 2806 0081 03       		.uleb128 0x3
 2807 0082 CD040000 		.4byte	.LASF11
 2808 0086 04       		.byte	0x4
 2809 0087 B4       		.byte	0xb4
 2810 0088 2C000000 		.4byte	0x2c
 2811 008c 03       		.uleb128 0x3
 2812 008d E7010000 		.4byte	.LASF12
 2813 0091 04       		.byte	0x4
 2814 0092 B5       		.byte	0xb5
ARM GAS  C:\Users\RECEPC~1\AppData\Local\Temp\cc89K5zt.s 			page 65


 2815 0093 3A000000 		.4byte	0x3a
 2816 0097 03       		.uleb128 0x3
 2817 0098 AC020000 		.4byte	.LASF13
 2818 009c 04       		.byte	0x4
 2819 009d B6       		.byte	0xb6
 2820 009e 53000000 		.4byte	0x53
 2821 00a2 02       		.uleb128 0x2
 2822 00a3 04       		.byte	0x4
 2823 00a4 04       		.byte	0x4
 2824 00a5 3A010000 		.4byte	.LASF14
 2825 00a9 02       		.uleb128 0x2
 2826 00aa 08       		.byte	0x8
 2827 00ab 04       		.byte	0x4
 2828 00ac D3040000 		.4byte	.LASF15
 2829 00b0 02       		.uleb128 0x2
 2830 00b1 01       		.byte	0x1
 2831 00b2 08       		.byte	0x8
 2832 00b3 E2010000 		.4byte	.LASF16
 2833 00b7 02       		.uleb128 0x2
 2834 00b8 04       		.byte	0x4
 2835 00b9 07       		.byte	0x7
 2836 00ba 2E040000 		.4byte	.LASF17
 2837 00be 05       		.uleb128 0x5
 2838 00bf 60000000 		.4byte	.LASF28
 2839 00c3 98       		.byte	0x98
 2840 00c4 05       		.byte	0x5
 2841 00c5 80       		.byte	0x80
 2842 00c6 65010000 		.4byte	0x165
 2843 00ca 06       		.uleb128 0x6
 2844 00cb 9D020000 		.4byte	.LASF18
 2845 00cf 05       		.byte	0x5
 2846 00d0 81       		.byte	0x81
 2847 00d1 81000000 		.4byte	0x81
 2848 00d5 00       		.byte	0
 2849 00d6 07       		.uleb128 0x7
 2850 00d7 706F7300 		.ascii	"pos\000"
 2851 00db 05       		.byte	0x5
 2852 00dc 82       		.byte	0x82
 2853 00dd 81000000 		.4byte	0x81
 2854 00e1 01       		.byte	0x1
 2855 00e2 06       		.uleb128 0x6
 2856 00e3 D5000000 		.4byte	.LASF19
 2857 00e7 05       		.byte	0x5
 2858 00e8 83       		.byte	0x83
 2859 00e9 81000000 		.4byte	0x81
 2860 00ed 02       		.byte	0x2
 2861 00ee 06       		.uleb128 0x6
 2862 00ef 33010000 		.4byte	.LASF20
 2863 00f3 05       		.byte	0x5
 2864 00f4 84       		.byte	0x84
 2865 00f5 81000000 		.4byte	0x81
 2866 00f9 03       		.byte	0x3
 2867 00fa 07       		.uleb128 0x7
 2868 00fb 6B6D00   		.ascii	"km\000"
 2869 00fe 05       		.byte	0x5
 2870 00ff 85       		.byte	0x85
 2871 0100 65010000 		.4byte	0x165
ARM GAS  C:\Users\RECEPC~1\AppData\Local\Temp\cc89K5zt.s 			page 66


 2872 0104 04       		.byte	0x4
 2873 0105 06       		.uleb128 0x6
 2874 0106 8D040000 		.4byte	.LASF21
 2875 010a 05       		.byte	0x5
 2876 010b 86       		.byte	0x86
 2877 010c 75010000 		.4byte	0x175
 2878 0110 0B       		.byte	0xb
 2879 0111 07       		.uleb128 0x7
 2880 0112 696400   		.ascii	"id\000"
 2881 0115 05       		.byte	0x5
 2882 0116 87       		.byte	0x87
 2883 0117 75010000 		.4byte	0x175
 2884 011b 29       		.byte	0x29
 2885 011c 06       		.uleb128 0x6
 2886 011d 84010000 		.4byte	.LASF22
 2887 0121 05       		.byte	0x5
 2888 0122 88       		.byte	0x88
 2889 0123 75010000 		.4byte	0x175
 2890 0127 47       		.byte	0x47
 2891 0128 06       		.uleb128 0x6
 2892 0129 8B010000 		.4byte	.LASF23
 2893 012d 05       		.byte	0x5
 2894 012e 89       		.byte	0x89
 2895 012f 75010000 		.4byte	0x175
 2896 0133 65       		.byte	0x65
 2897 0134 06       		.uleb128 0x6
 2898 0135 9B000000 		.4byte	.LASF24
 2899 0139 05       		.byte	0x5
 2900 013a 8A       		.byte	0x8a
 2901 013b 81000000 		.4byte	0x81
 2902 013f 83       		.byte	0x83
 2903 0140 06       		.uleb128 0x6
 2904 0141 7D020000 		.4byte	.LASF25
 2905 0145 05       		.byte	0x5
 2906 0146 8B       		.byte	0x8b
 2907 0147 85010000 		.4byte	0x185
 2908 014b 84       		.byte	0x84
 2909 014c 06       		.uleb128 0x6
 2910 014d 0E000000 		.4byte	.LASF26
 2911 0151 05       		.byte	0x5
 2912 0152 8C       		.byte	0x8c
 2913 0153 95010000 		.4byte	0x195
 2914 0157 8E       		.byte	0x8e
 2915 0158 06       		.uleb128 0x6
 2916 0159 08020000 		.4byte	.LASF27
 2917 015d 05       		.byte	0x5
 2918 015e 8D       		.byte	0x8d
 2919 015f 81000000 		.4byte	0x81
 2920 0163 97       		.byte	0x97
 2921 0164 00       		.byte	0
 2922 0165 08       		.uleb128 0x8
 2923 0166 81000000 		.4byte	0x81
 2924 016a 75010000 		.4byte	0x175
 2925 016e 09       		.uleb128 0x9
 2926 016f B7000000 		.4byte	0xb7
 2927 0173 06       		.byte	0x6
 2928 0174 00       		.byte	0
ARM GAS  C:\Users\RECEPC~1\AppData\Local\Temp\cc89K5zt.s 			page 67


 2929 0175 08       		.uleb128 0x8
 2930 0176 81000000 		.4byte	0x81
 2931 017a 85010000 		.4byte	0x185
 2932 017e 09       		.uleb128 0x9
 2933 017f B7000000 		.4byte	0xb7
 2934 0183 1D       		.byte	0x1d
 2935 0184 00       		.byte	0
 2936 0185 08       		.uleb128 0x8
 2937 0186 81000000 		.4byte	0x81
 2938 018a 95010000 		.4byte	0x195
 2939 018e 09       		.uleb128 0x9
 2940 018f B7000000 		.4byte	0xb7
 2941 0193 09       		.byte	0x9
 2942 0194 00       		.byte	0
 2943 0195 08       		.uleb128 0x8
 2944 0196 81000000 		.4byte	0x81
 2945 019a A5010000 		.4byte	0x1a5
 2946 019e 09       		.uleb128 0x9
 2947 019f B7000000 		.4byte	0xb7
 2948 01a3 08       		.byte	0x8
 2949 01a4 00       		.byte	0
 2950 01a5 0A       		.uleb128 0xa
 2951 01a6 706F7300 		.ascii	"pos\000"
 2952 01aa 04       		.byte	0x4
 2953 01ab 05       		.byte	0x5
 2954 01ac 95       		.byte	0x95
 2955 01ad E2010000 		.4byte	0x1e2
 2956 01b1 07       		.uleb128 0x7
 2957 01b2 64697200 		.ascii	"dir\000"
 2958 01b6 05       		.byte	0x5
 2959 01b7 96       		.byte	0x96
 2960 01b8 81000000 		.4byte	0x81
 2961 01bc 00       		.byte	0
 2962 01bd 06       		.uleb128 0x6
 2963 01be D6020000 		.4byte	.LASF29
 2964 01c2 05       		.byte	0x5
 2965 01c3 97       		.byte	0x97
 2966 01c4 81000000 		.4byte	0x81
 2967 01c8 01       		.byte	0x1
 2968 01c9 06       		.uleb128 0x6
 2969 01ca E8040000 		.4byte	.LASF30
 2970 01ce 05       		.byte	0x5
 2971 01cf 98       		.byte	0x98
 2972 01d0 81000000 		.4byte	0x81
 2973 01d4 02       		.byte	0x2
 2974 01d5 06       		.uleb128 0x6
 2975 01d6 22000000 		.4byte	.LASF31
 2976 01da 05       		.byte	0x5
 2977 01db 99       		.byte	0x99
 2978 01dc 81000000 		.4byte	0x81
 2979 01e0 03       		.byte	0x3
 2980 01e1 00       		.byte	0
 2981 01e2 05       		.uleb128 0x5
 2982 01e3 E3030000 		.4byte	.LASF32
 2983 01e7 08       		.byte	0x8
 2984 01e8 05       		.byte	0x5
 2985 01e9 9D       		.byte	0x9d
ARM GAS  C:\Users\RECEPC~1\AppData\Local\Temp\cc89K5zt.s 			page 68


 2986 01ea 03020000 		.4byte	0x203
 2987 01ee 07       		.uleb128 0x7
 2988 01ef 6100     		.ascii	"a\000"
 2989 01f1 05       		.byte	0x5
 2990 01f2 9E       		.byte	0x9e
 2991 01f3 A5010000 		.4byte	0x1a5
 2992 01f7 00       		.byte	0
 2993 01f8 07       		.uleb128 0x7
 2994 01f9 6200     		.ascii	"b\000"
 2995 01fb 05       		.byte	0x5
 2996 01fc 9F       		.byte	0x9f
 2997 01fd A5010000 		.4byte	0x1a5
 2998 0201 04       		.byte	0x4
 2999 0202 00       		.byte	0
 3000 0203 05       		.uleb128 0x5
 3001 0204 BC020000 		.4byte	.LASF33
 3002 0208 E1       		.byte	0xe1
 3003 0209 05       		.byte	0x5
 3004 020a A2       		.byte	0xa2
 3005 020b E8020000 		.4byte	0x2e8
 3006 020f 06       		.uleb128 0x6
 3007 0210 8F030000 		.4byte	.LASF34
 3008 0214 05       		.byte	0x5
 3009 0215 A3       		.byte	0xa3
 3010 0216 75010000 		.4byte	0x175
 3011 021a 00       		.byte	0
 3012 021b 07       		.uleb128 0x7
 3013 021c 6E697400 		.ascii	"nit\000"
 3014 0220 05       		.byte	0x5
 3015 0221 A4       		.byte	0xa4
 3016 0222 E8020000 		.4byte	0x2e8
 3017 0226 1E       		.byte	0x1e
 3018 0227 06       		.uleb128 0x6
 3019 0228 37020000 		.4byte	.LASF35
 3020 022c 05       		.byte	0x5
 3021 022d A5       		.byte	0xa5
 3022 022e F8020000 		.4byte	0x2f8
 3023 0232 2D       		.byte	0x2d
 3024 0233 06       		.uleb128 0x6
 3025 0234 AC010000 		.4byte	.LASF36
 3026 0238 05       		.byte	0x5
 3027 0239 A6       		.byte	0xa6
 3028 023a 08030000 		.4byte	0x308
 3029 023e 2F       		.byte	0x2f
 3030 023f 06       		.uleb128 0x6
 3031 0240 29010000 		.4byte	.LASF37
 3032 0244 05       		.byte	0x5
 3033 0245 A7       		.byte	0xa7
 3034 0246 75010000 		.4byte	0x175
 3035 024a 43       		.byte	0x43
 3036 024b 06       		.uleb128 0x6
 3037 024c 4B010000 		.4byte	.LASF38
 3038 0250 05       		.byte	0x5
 3039 0251 A8       		.byte	0xa8
 3040 0252 75010000 		.4byte	0x175
 3041 0256 61       		.byte	0x61
 3042 0257 06       		.uleb128 0x6
ARM GAS  C:\Users\RECEPC~1\AppData\Local\Temp\cc89K5zt.s 			page 69


 3043 0258 51010000 		.4byte	.LASF39
 3044 025c 05       		.byte	0x5
 3045 025d A9       		.byte	0xa9
 3046 025e 75010000 		.4byte	0x175
 3047 0262 7F       		.byte	0x7f
 3048 0263 06       		.uleb128 0x6
 3049 0264 71040000 		.4byte	.LASF40
 3050 0268 05       		.byte	0x5
 3051 0269 AA       		.byte	0xaa
 3052 026a 18030000 		.4byte	0x318
 3053 026e 9D       		.byte	0x9d
 3054 026f 06       		.uleb128 0x6
 3055 0270 E5000000 		.4byte	.LASF41
 3056 0274 05       		.byte	0x5
 3057 0275 AB       		.byte	0xab
 3058 0276 F8020000 		.4byte	0x2f8
 3059 027a A0       		.byte	0xa0
 3060 027b 06       		.uleb128 0x6
 3061 027c 0F010000 		.4byte	.LASF42
 3062 0280 05       		.byte	0x5
 3063 0281 AC       		.byte	0xac
 3064 0282 81000000 		.4byte	0x81
 3065 0286 A2       		.byte	0xa2
 3066 0287 06       		.uleb128 0x6
 3067 0288 2E020000 		.4byte	.LASF43
 3068 028c 05       		.byte	0x5
 3069 028d AD       		.byte	0xad
 3070 028e 81000000 		.4byte	0x81
 3071 0292 A3       		.byte	0xa3
 3072 0293 07       		.uleb128 0x7
 3073 0294 70707500 		.ascii	"ppu\000"
 3074 0298 05       		.byte	0x5
 3075 0299 AE       		.byte	0xae
 3076 029a 65010000 		.4byte	0x165
 3077 029e A4       		.byte	0xa4
 3078 029f 06       		.uleb128 0x6
 3079 02a0 C3020000 		.4byte	.LASF44
 3080 02a4 05       		.byte	0x5
 3081 02a5 AF       		.byte	0xaf
 3082 02a6 95010000 		.4byte	0x195
 3083 02aa AB       		.byte	0xab
 3084 02ab 06       		.uleb128 0x6
 3085 02ac A4010000 		.4byte	.LASF45
 3086 02b0 05       		.byte	0x5
 3087 02b1 B0       		.byte	0xb0
 3088 02b2 95010000 		.4byte	0x195
 3089 02b6 B4       		.byte	0xb4
 3090 02b7 06       		.uleb128 0x6
 3091 02b8 C5010000 		.4byte	.LASF46
 3092 02bc 05       		.byte	0x5
 3093 02bd B1       		.byte	0xb1
 3094 02be 28030000 		.4byte	0x328
 3095 02c2 BD       		.byte	0xbd
 3096 02c3 06       		.uleb128 0x6
 3097 02c4 07010000 		.4byte	.LASF47
 3098 02c8 05       		.byte	0x5
 3099 02c9 B2       		.byte	0xb2
ARM GAS  C:\Users\RECEPC~1\AppData\Local\Temp\cc89K5zt.s 			page 70


 3100 02ca 28030000 		.4byte	0x328
 3101 02ce CA       		.byte	0xca
 3102 02cf 06       		.uleb128 0x6
 3103 02d0 0E000000 		.4byte	.LASF26
 3104 02d4 05       		.byte	0x5
 3105 02d5 B3       		.byte	0xb3
 3106 02d6 95010000 		.4byte	0x195
 3107 02da D7       		.byte	0xd7
 3108 02db 06       		.uleb128 0x6
 3109 02dc E8040000 		.4byte	.LASF30
 3110 02e0 05       		.byte	0x5
 3111 02e1 B4       		.byte	0xb4
 3112 02e2 81000000 		.4byte	0x81
 3113 02e6 E0       		.byte	0xe0
 3114 02e7 00       		.byte	0
 3115 02e8 08       		.uleb128 0x8
 3116 02e9 81000000 		.4byte	0x81
 3117 02ed F8020000 		.4byte	0x2f8
 3118 02f1 09       		.uleb128 0x9
 3119 02f2 B7000000 		.4byte	0xb7
 3120 02f6 0E       		.byte	0xe
 3121 02f7 00       		.byte	0
 3122 02f8 08       		.uleb128 0x8
 3123 02f9 81000000 		.4byte	0x81
 3124 02fd 08030000 		.4byte	0x308
 3125 0301 09       		.uleb128 0x9
 3126 0302 B7000000 		.4byte	0xb7
 3127 0306 01       		.byte	0x1
 3128 0307 00       		.byte	0
 3129 0308 08       		.uleb128 0x8
 3130 0309 81000000 		.4byte	0x81
 3131 030d 18030000 		.4byte	0x318
 3132 0311 09       		.uleb128 0x9
 3133 0312 B7000000 		.4byte	0xb7
 3134 0316 13       		.byte	0x13
 3135 0317 00       		.byte	0
 3136 0318 08       		.uleb128 0x8
 3137 0319 81000000 		.4byte	0x81
 3138 031d 28030000 		.4byte	0x328
 3139 0321 09       		.uleb128 0x9
 3140 0322 B7000000 		.4byte	0xb7
 3141 0326 02       		.byte	0x2
 3142 0327 00       		.byte	0
 3143 0328 08       		.uleb128 0x8
 3144 0329 81000000 		.4byte	0x81
 3145 032d 38030000 		.4byte	0x338
 3146 0331 09       		.uleb128 0x9
 3147 0332 B7000000 		.4byte	0xb7
 3148 0336 0C       		.byte	0xc
 3149 0337 00       		.byte	0
 3150 0338 0B       		.uleb128 0xb
 3151 0339 FA030000 		.4byte	.LASF48
 3152 033d 01       		.byte	0x1
 3153 033e 37       		.byte	0x37
 3154 033f 00000000 		.4byte	.LFB63
 3155 0343 6C000000 		.4byte	.LFE63-.LFB63
 3156 0347 01       		.uleb128 0x1
ARM GAS  C:\Users\RECEPC~1\AppData\Local\Temp\cc89K5zt.s 			page 71


 3157 0348 9C       		.byte	0x9c
 3158 0349 AB040000 		.4byte	0x4ab
 3159 034d 0C       		.uleb128 0xc
 3160 034e 6C636400 		.ascii	"lcd\000"
 3161 0352 01       		.byte	0x1
 3162 0353 37       		.byte	0x37
 3163 0354 81000000 		.4byte	0x81
 3164 0358 00000000 		.4byte	.LLST0
 3165 035c 0C       		.uleb128 0xc
 3166 035d 696400   		.ascii	"id\000"
 3167 0360 01       		.byte	0x1
 3168 0361 37       		.byte	0x37
 3169 0362 8C000000 		.4byte	0x8c
 3170 0366 3A000000 		.4byte	.LLST1
 3171 036a 0D       		.uleb128 0xd
 3172 036b 0E000000 		.4byte	.LVL2
 3173 036f D3120000 		.4byte	0x12d3
 3174 0373 7E030000 		.4byte	0x37e
 3175 0377 0E       		.uleb128 0xe
 3176 0378 01       		.uleb128 0x1
 3177 0379 50       		.byte	0x50
 3178 037a 02       		.uleb128 0x2
 3179 037b 09       		.byte	0x9
 3180 037c AA       		.byte	0xaa
 3181 037d 00       		.byte	0
 3182 037e 0D       		.uleb128 0xd
 3183 037f 14000000 		.4byte	.LVL3
 3184 0383 D3120000 		.4byte	0x12d3
 3185 0387 92030000 		.4byte	0x392
 3186 038b 0E       		.uleb128 0xe
 3187 038c 01       		.uleb128 0x1
 3188 038d 50       		.byte	0x50
 3189 038e 02       		.uleb128 0x2
 3190 038f 08       		.byte	0x8
 3191 0390 70       		.byte	0x70
 3192 0391 00       		.byte	0
 3193 0392 0D       		.uleb128 0xd
 3194 0393 1A000000 		.4byte	.LVL4
 3195 0397 D3120000 		.4byte	0x12d3
 3196 039b A8030000 		.4byte	0x3a8
 3197 039f 0E       		.uleb128 0xe
 3198 03a0 01       		.uleb128 0x1
 3199 03a1 50       		.byte	0x50
 3200 03a2 04       		.uleb128 0x4
 3201 03a3 74       		.byte	0x74
 3202 03a4 00       		.sleb128 0
 3203 03a5 38       		.byte	0x38
 3204 03a6 25       		.byte	0x25
 3205 03a7 00       		.byte	0
 3206 03a8 0D       		.uleb128 0xd
 3207 03a9 20000000 		.4byte	.LVL5
 3208 03ad D3120000 		.4byte	0x12d3
 3209 03b1 BC030000 		.4byte	0x3bc
 3210 03b5 0E       		.uleb128 0xe
 3211 03b6 01       		.uleb128 0x1
 3212 03b7 50       		.byte	0x50
 3213 03b8 02       		.uleb128 0x2
ARM GAS  C:\Users\RECEPC~1\AppData\Local\Temp\cc89K5zt.s 			page 72


 3214 03b9 74       		.byte	0x74
 3215 03ba 00       		.sleb128 0
 3216 03bb 00       		.byte	0
 3217 03bc 0D       		.uleb128 0xd
 3218 03bd 26000000 		.4byte	.LVL6
 3219 03c1 D3120000 		.4byte	0x12d3
 3220 03c5 D0030000 		.4byte	0x3d0
 3221 03c9 0E       		.uleb128 0xe
 3222 03ca 01       		.uleb128 0x1
 3223 03cb 50       		.byte	0x50
 3224 03cc 02       		.uleb128 0x2
 3225 03cd 09       		.byte	0x9
 3226 03ce CC       		.byte	0xcc
 3227 03cf 00       		.byte	0
 3228 03d0 0D       		.uleb128 0xd
 3229 03d1 2C000000 		.4byte	.LVL7
 3230 03d5 D3120000 		.4byte	0x12d3
 3231 03d9 E4030000 		.4byte	0x3e4
 3232 03dd 0E       		.uleb128 0xe
 3233 03de 01       		.uleb128 0x1
 3234 03df 50       		.byte	0x50
 3235 03e0 02       		.uleb128 0x2
 3236 03e1 08       		.byte	0x8
 3237 03e2 33       		.byte	0x33
 3238 03e3 00       		.byte	0
 3239 03e4 0D       		.uleb128 0xd
 3240 03e5 32000000 		.4byte	.LVL8
 3241 03e9 D3120000 		.4byte	0x12d3
 3242 03ed F8030000 		.4byte	0x3f8
 3243 03f1 0E       		.uleb128 0xe
 3244 03f2 01       		.uleb128 0x1
 3245 03f3 50       		.byte	0x50
 3246 03f4 02       		.uleb128 0x2
 3247 03f5 09       		.byte	0x9
 3248 03f6 C3       		.byte	0xc3
 3249 03f7 00       		.byte	0
 3250 03f8 0D       		.uleb128 0xd
 3251 03f9 38000000 		.4byte	.LVL9
 3252 03fd D3120000 		.4byte	0x12d3
 3253 0401 0C040000 		.4byte	0x40c
 3254 0405 0E       		.uleb128 0xe
 3255 0406 01       		.uleb128 0x1
 3256 0407 50       		.byte	0x50
 3257 0408 02       		.uleb128 0x2
 3258 0409 08       		.byte	0x8
 3259 040a 3C       		.byte	0x3c
 3260 040b 00       		.byte	0
 3261 040c 0D       		.uleb128 0xd
 3262 040d 40000000 		.4byte	.LVL12
 3263 0411 E4120000 		.4byte	0x12e4
 3264 0415 20040000 		.4byte	0x420
 3265 0419 0E       		.uleb128 0xe
 3266 041a 01       		.uleb128 0x1
 3267 041b 50       		.byte	0x50
 3268 041c 02       		.uleb128 0x2
 3269 041d 09       		.byte	0x9
 3270 041e AA       		.byte	0xaa
ARM GAS  C:\Users\RECEPC~1\AppData\Local\Temp\cc89K5zt.s 			page 73


 3271 041f 00       		.byte	0
 3272 0420 0D       		.uleb128 0xd
 3273 0421 46000000 		.4byte	.LVL13
 3274 0425 E4120000 		.4byte	0x12e4
 3275 0429 34040000 		.4byte	0x434
 3276 042d 0E       		.uleb128 0xe
 3277 042e 01       		.uleb128 0x1
 3278 042f 50       		.byte	0x50
 3279 0430 02       		.uleb128 0x2
 3280 0431 08       		.byte	0x8
 3281 0432 70       		.byte	0x70
 3282 0433 00       		.byte	0
 3283 0434 0D       		.uleb128 0xd
 3284 0435 4C000000 		.4byte	.LVL14
 3285 0439 E4120000 		.4byte	0x12e4
 3286 043d 4A040000 		.4byte	0x44a
 3287 0441 0E       		.uleb128 0xe
 3288 0442 01       		.uleb128 0x1
 3289 0443 50       		.byte	0x50
 3290 0444 04       		.uleb128 0x4
 3291 0445 74       		.byte	0x74
 3292 0446 00       		.sleb128 0
 3293 0447 38       		.byte	0x38
 3294 0448 25       		.byte	0x25
 3295 0449 00       		.byte	0
 3296 044a 0D       		.uleb128 0xd
 3297 044b 52000000 		.4byte	.LVL15
 3298 044f E4120000 		.4byte	0x12e4
 3299 0453 5E040000 		.4byte	0x45e
 3300 0457 0E       		.uleb128 0xe
 3301 0458 01       		.uleb128 0x1
 3302 0459 50       		.byte	0x50
 3303 045a 02       		.uleb128 0x2
 3304 045b 74       		.byte	0x74
 3305 045c 00       		.sleb128 0
 3306 045d 00       		.byte	0
 3307 045e 0D       		.uleb128 0xd
 3308 045f 58000000 		.4byte	.LVL16
 3309 0463 E4120000 		.4byte	0x12e4
 3310 0467 72040000 		.4byte	0x472
 3311 046b 0E       		.uleb128 0xe
 3312 046c 01       		.uleb128 0x1
 3313 046d 50       		.byte	0x50
 3314 046e 02       		.uleb128 0x2
 3315 046f 09       		.byte	0x9
 3316 0470 CC       		.byte	0xcc
 3317 0471 00       		.byte	0
 3318 0472 0D       		.uleb128 0xd
 3319 0473 5E000000 		.4byte	.LVL17
 3320 0477 E4120000 		.4byte	0x12e4
 3321 047b 86040000 		.4byte	0x486
 3322 047f 0E       		.uleb128 0xe
 3323 0480 01       		.uleb128 0x1
 3324 0481 50       		.byte	0x50
 3325 0482 02       		.uleb128 0x2
 3326 0483 08       		.byte	0x8
 3327 0484 33       		.byte	0x33
ARM GAS  C:\Users\RECEPC~1\AppData\Local\Temp\cc89K5zt.s 			page 74


 3328 0485 00       		.byte	0
 3329 0486 0D       		.uleb128 0xd
 3330 0487 64000000 		.4byte	.LVL18
 3331 048b E4120000 		.4byte	0x12e4
 3332 048f 9A040000 		.4byte	0x49a
 3333 0493 0E       		.uleb128 0xe
 3334 0494 01       		.uleb128 0x1
 3335 0495 50       		.byte	0x50
 3336 0496 02       		.uleb128 0x2
 3337 0497 09       		.byte	0x9
 3338 0498 C3       		.byte	0xc3
 3339 0499 00       		.byte	0
 3340 049a 0F       		.uleb128 0xf
 3341 049b 6A000000 		.4byte	.LVL19
 3342 049f E4120000 		.4byte	0x12e4
 3343 04a3 0E       		.uleb128 0xe
 3344 04a4 01       		.uleb128 0x1
 3345 04a5 50       		.byte	0x50
 3346 04a6 02       		.uleb128 0x2
 3347 04a7 08       		.byte	0x8
 3348 04a8 3C       		.byte	0x3c
 3349 04a9 00       		.byte	0
 3350 04aa 00       		.byte	0
 3351 04ab 0B       		.uleb128 0xb
 3352 04ac A2020000 		.4byte	.LASF49
 3353 04b0 01       		.byte	0x1
 3354 04b1 5E       		.byte	0x5e
 3355 04b2 00000000 		.4byte	.LFB64
 3356 04b6 FE000000 		.4byte	.LFE64-.LFB64
 3357 04ba 01       		.uleb128 0x1
 3358 04bb 9C       		.byte	0x9c
 3359 04bc B0070000 		.4byte	0x7b0
 3360 04c0 0C       		.uleb128 0xc
 3361 04c1 6C636400 		.ascii	"lcd\000"
 3362 04c5 01       		.byte	0x1
 3363 04c6 5E       		.byte	0x5e
 3364 04c7 81000000 		.4byte	0x81
 3365 04cb 74000000 		.4byte	.LLST2
 3366 04cf 10       		.uleb128 0x10
 3367 04d0 03020000 		.4byte	.LASF50
 3368 04d4 01       		.byte	0x1
 3369 04d5 5E       		.byte	0x5e
 3370 04d6 81000000 		.4byte	0x81
 3371 04da AE000000 		.4byte	.LLST3
 3372 04de 0C       		.uleb128 0xc
 3373 04df 706F7300 		.ascii	"pos\000"
 3374 04e3 01       		.byte	0x1
 3375 04e4 5E       		.byte	0x5e
 3376 04e5 81000000 		.4byte	0x81
 3377 04e9 E8000000 		.4byte	.LLST4
 3378 04ed 0D       		.uleb128 0xd
 3379 04ee 10000000 		.4byte	.LVL22
 3380 04f2 D3120000 		.4byte	0x12d3
 3381 04f6 01050000 		.4byte	0x501
 3382 04fa 0E       		.uleb128 0xe
 3383 04fb 01       		.uleb128 0x1
 3384 04fc 50       		.byte	0x50
ARM GAS  C:\Users\RECEPC~1\AppData\Local\Temp\cc89K5zt.s 			page 75


 3385 04fd 02       		.uleb128 0x2
 3386 04fe 09       		.byte	0x9
 3387 04ff AA       		.byte	0xaa
 3388 0500 00       		.byte	0
 3389 0501 0D       		.uleb128 0xd
 3390 0502 16000000 		.4byte	.LVL23
 3391 0506 D3120000 		.4byte	0x12d3
 3392 050a 15050000 		.4byte	0x515
 3393 050e 0E       		.uleb128 0xe
 3394 050f 01       		.uleb128 0x1
 3395 0510 50       		.byte	0x50
 3396 0511 02       		.uleb128 0x2
 3397 0512 09       		.byte	0x9
 3398 0513 98       		.byte	0x98
 3399 0514 00       		.byte	0
 3400 0515 0D       		.uleb128 0xd
 3401 0516 1C000000 		.4byte	.LVL24
 3402 051a D3120000 		.4byte	0x12d3
 3403 051e 28050000 		.4byte	0x528
 3404 0522 0E       		.uleb128 0xe
 3405 0523 01       		.uleb128 0x1
 3406 0524 50       		.byte	0x50
 3407 0525 01       		.uleb128 0x1
 3408 0526 30       		.byte	0x30
 3409 0527 00       		.byte	0
 3410 0528 0D       		.uleb128 0xd
 3411 0529 2E000000 		.4byte	.LVL25
 3412 052d D3120000 		.4byte	0x12d3
 3413 0531 3C050000 		.4byte	0x53c
 3414 0535 0E       		.uleb128 0xe
 3415 0536 01       		.uleb128 0x1
 3416 0537 50       		.byte	0x50
 3417 0538 02       		.uleb128 0x2
 3418 0539 74       		.byte	0x74
 3419 053a 3F       		.sleb128 63
 3420 053b 00       		.byte	0
 3421 053c 0D       		.uleb128 0xd
 3422 053d 34000000 		.4byte	.LVL26
 3423 0541 D3120000 		.4byte	0x12d3
 3424 0545 4F050000 		.4byte	0x54f
 3425 0549 0E       		.uleb128 0xe
 3426 054a 01       		.uleb128 0x1
 3427 054b 50       		.byte	0x50
 3428 054c 01       		.uleb128 0x1
 3429 054d 30       		.byte	0x30
 3430 054e 00       		.byte	0
 3431 054f 0D       		.uleb128 0xd
 3432 0550 3A000000 		.4byte	.LVL27
 3433 0554 D3120000 		.4byte	0x12d3
 3434 0558 63050000 		.4byte	0x563
 3435 055c 0E       		.uleb128 0xe
 3436 055d 01       		.uleb128 0x1
 3437 055e 50       		.byte	0x50
 3438 055f 02       		.uleb128 0x2
 3439 0560 08       		.byte	0x8
 3440 0561 23       		.byte	0x23
 3441 0562 00       		.byte	0
ARM GAS  C:\Users\RECEPC~1\AppData\Local\Temp\cc89K5zt.s 			page 76


 3442 0563 0D       		.uleb128 0xd
 3443 0564 40000000 		.4byte	.LVL28
 3444 0568 D3120000 		.4byte	0x12d3
 3445 056c 77050000 		.4byte	0x577
 3446 0570 0E       		.uleb128 0xe
 3447 0571 01       		.uleb128 0x1
 3448 0572 50       		.byte	0x50
 3449 0573 02       		.uleb128 0x2
 3450 0574 08       		.byte	0x8
 3451 0575 24       		.byte	0x24
 3452 0576 00       		.byte	0
 3453 0577 0D       		.uleb128 0xd
 3454 0578 46000000 		.4byte	.LVL29
 3455 057c D3120000 		.4byte	0x12d3
 3456 0580 8B050000 		.4byte	0x58b
 3457 0584 0E       		.uleb128 0xe
 3458 0585 01       		.uleb128 0x1
 3459 0586 50       		.byte	0x50
 3460 0587 02       		.uleb128 0x2
 3461 0588 09       		.byte	0x9
 3462 0589 C5       		.byte	0xc5
 3463 058a 00       		.byte	0
 3464 058b 0D       		.uleb128 0xd
 3465 058c 4C000000 		.4byte	.LVL30
 3466 0590 D3120000 		.4byte	0x12d3
 3467 0594 9E050000 		.4byte	0x59e
 3468 0598 0E       		.uleb128 0xe
 3469 0599 01       		.uleb128 0x1
 3470 059a 50       		.byte	0x50
 3471 059b 01       		.uleb128 0x1
 3472 059c 32       		.byte	0x32
 3473 059d 00       		.byte	0
 3474 059e 0D       		.uleb128 0xd
 3475 059f 52000000 		.4byte	.LVL31
 3476 05a3 D3120000 		.4byte	0x12d3
 3477 05a7 B1050000 		.4byte	0x5b1
 3478 05ab 0E       		.uleb128 0xe
 3479 05ac 01       		.uleb128 0x1
 3480 05ad 50       		.byte	0x50
 3481 05ae 01       		.uleb128 0x1
 3482 05af 30       		.byte	0x30
 3483 05b0 00       		.byte	0
 3484 05b1 0D       		.uleb128 0xd
 3485 05b2 58000000 		.4byte	.LVL32
 3486 05b6 D3120000 		.4byte	0x12d3
 3487 05ba C4050000 		.4byte	0x5c4
 3488 05be 0E       		.uleb128 0xe
 3489 05bf 01       		.uleb128 0x1
 3490 05c0 50       		.byte	0x50
 3491 05c1 01       		.uleb128 0x1
 3492 05c2 30       		.byte	0x30
 3493 05c3 00       		.byte	0
 3494 05c4 0D       		.uleb128 0xd
 3495 05c5 5E000000 		.4byte	.LVL33
 3496 05c9 D3120000 		.4byte	0x12d3
 3497 05cd D8050000 		.4byte	0x5d8
 3498 05d1 0E       		.uleb128 0xe
ARM GAS  C:\Users\RECEPC~1\AppData\Local\Temp\cc89K5zt.s 			page 77


 3499 05d2 01       		.uleb128 0x1
 3500 05d3 50       		.byte	0x50
 3501 05d4 02       		.uleb128 0x2
 3502 05d5 09       		.byte	0x9
 3503 05d6 FF       		.byte	0xff
 3504 05d7 00       		.byte	0
 3505 05d8 0D       		.uleb128 0xd
 3506 05d9 64000000 		.4byte	.LVL34
 3507 05dd D3120000 		.4byte	0x12d3
 3508 05e1 EC050000 		.4byte	0x5ec
 3509 05e5 0E       		.uleb128 0xe
 3510 05e6 01       		.uleb128 0x1
 3511 05e7 50       		.byte	0x50
 3512 05e8 02       		.uleb128 0x2
 3513 05e9 09       		.byte	0x9
 3514 05ea FF       		.byte	0xff
 3515 05eb 00       		.byte	0
 3516 05ec 0D       		.uleb128 0xd
 3517 05ed 6A000000 		.4byte	.LVL35
 3518 05f1 D3120000 		.4byte	0x12d3
 3519 05f5 00060000 		.4byte	0x600
 3520 05f9 0E       		.uleb128 0xe
 3521 05fa 01       		.uleb128 0x1
 3522 05fb 50       		.byte	0x50
 3523 05fc 02       		.uleb128 0x2
 3524 05fd 75       		.byte	0x75
 3525 05fe 00       		.sleb128 0
 3526 05ff 00       		.byte	0
 3527 0600 0D       		.uleb128 0xd
 3528 0601 70000000 		.4byte	.LVL36
 3529 0605 D3120000 		.4byte	0x12d3
 3530 0609 14060000 		.4byte	0x614
 3531 060d 0E       		.uleb128 0xe
 3532 060e 01       		.uleb128 0x1
 3533 060f 50       		.byte	0x50
 3534 0610 02       		.uleb128 0x2
 3535 0611 09       		.byte	0x9
 3536 0612 CC       		.byte	0xcc
 3537 0613 00       		.byte	0
 3538 0614 0D       		.uleb128 0xd
 3539 0615 76000000 		.4byte	.LVL37
 3540 0619 D3120000 		.4byte	0x12d3
 3541 061d 28060000 		.4byte	0x628
 3542 0621 0E       		.uleb128 0xe
 3543 0622 01       		.uleb128 0x1
 3544 0623 50       		.byte	0x50
 3545 0624 02       		.uleb128 0x2
 3546 0625 08       		.byte	0x8
 3547 0626 33       		.byte	0x33
 3548 0627 00       		.byte	0
 3549 0628 0D       		.uleb128 0xd
 3550 0629 7C000000 		.4byte	.LVL38
 3551 062d D3120000 		.4byte	0x12d3
 3552 0631 3C060000 		.4byte	0x63c
 3553 0635 0E       		.uleb128 0xe
 3554 0636 01       		.uleb128 0x1
 3555 0637 50       		.byte	0x50
ARM GAS  C:\Users\RECEPC~1\AppData\Local\Temp\cc89K5zt.s 			page 78


 3556 0638 02       		.uleb128 0x2
 3557 0639 09       		.byte	0x9
 3558 063a C3       		.byte	0xc3
 3559 063b 00       		.byte	0
 3560 063c 0D       		.uleb128 0xd
 3561 063d 82000000 		.4byte	.LVL39
 3562 0641 D3120000 		.4byte	0x12d3
 3563 0645 50060000 		.4byte	0x650
 3564 0649 0E       		.uleb128 0xe
 3565 064a 01       		.uleb128 0x1
 3566 064b 50       		.byte	0x50
 3567 064c 02       		.uleb128 0x2
 3568 064d 08       		.byte	0x8
 3569 064e 3C       		.byte	0x3c
 3570 064f 00       		.byte	0
 3571 0650 0D       		.uleb128 0xd
 3572 0651 8A000000 		.4byte	.LVL42
 3573 0655 E4120000 		.4byte	0x12e4
 3574 0659 64060000 		.4byte	0x664
 3575 065d 0E       		.uleb128 0xe
 3576 065e 01       		.uleb128 0x1
 3577 065f 50       		.byte	0x50
 3578 0660 02       		.uleb128 0x2
 3579 0661 09       		.byte	0x9
 3580 0662 AA       		.byte	0xaa
 3581 0663 00       		.byte	0
 3582 0664 0D       		.uleb128 0xd
 3583 0665 90000000 		.4byte	.LVL43
 3584 0669 E4120000 		.4byte	0x12e4
 3585 066d 78060000 		.4byte	0x678
 3586 0671 0E       		.uleb128 0xe
 3587 0672 01       		.uleb128 0x1
 3588 0673 50       		.byte	0x50
 3589 0674 02       		.uleb128 0x2
 3590 0675 09       		.byte	0x9
 3591 0676 98       		.byte	0x98
 3592 0677 00       		.byte	0
 3593 0678 0D       		.uleb128 0xd
 3594 0679 96000000 		.4byte	.LVL44
 3595 067d E4120000 		.4byte	0x12e4
 3596 0681 8B060000 		.4byte	0x68b
 3597 0685 0E       		.uleb128 0xe
 3598 0686 01       		.uleb128 0x1
 3599 0687 50       		.byte	0x50
 3600 0688 01       		.uleb128 0x1
 3601 0689 30       		.byte	0x30
 3602 068a 00       		.byte	0
 3603 068b 0D       		.uleb128 0xd
 3604 068c A8000000 		.4byte	.LVL45
 3605 0690 E4120000 		.4byte	0x12e4
 3606 0694 9F060000 		.4byte	0x69f
 3607 0698 0E       		.uleb128 0xe
 3608 0699 01       		.uleb128 0x1
 3609 069a 50       		.byte	0x50
 3610 069b 02       		.uleb128 0x2
 3611 069c 74       		.byte	0x74
 3612 069d 3F       		.sleb128 63
ARM GAS  C:\Users\RECEPC~1\AppData\Local\Temp\cc89K5zt.s 			page 79


 3613 069e 00       		.byte	0
 3614 069f 0D       		.uleb128 0xd
 3615 06a0 AE000000 		.4byte	.LVL46
 3616 06a4 E4120000 		.4byte	0x12e4
 3617 06a8 B2060000 		.4byte	0x6b2
 3618 06ac 0E       		.uleb128 0xe
 3619 06ad 01       		.uleb128 0x1
 3620 06ae 50       		.byte	0x50
 3621 06af 01       		.uleb128 0x1
 3622 06b0 30       		.byte	0x30
 3623 06b1 00       		.byte	0
 3624 06b2 0D       		.uleb128 0xd
 3625 06b3 B4000000 		.4byte	.LVL47
 3626 06b7 E4120000 		.4byte	0x12e4
 3627 06bb C6060000 		.4byte	0x6c6
 3628 06bf 0E       		.uleb128 0xe
 3629 06c0 01       		.uleb128 0x1
 3630 06c1 50       		.byte	0x50
 3631 06c2 02       		.uleb128 0x2
 3632 06c3 08       		.byte	0x8
 3633 06c4 23       		.byte	0x23
 3634 06c5 00       		.byte	0
 3635 06c6 0D       		.uleb128 0xd
 3636 06c7 BA000000 		.4byte	.LVL48
 3637 06cb E4120000 		.4byte	0x12e4
 3638 06cf DA060000 		.4byte	0x6da
 3639 06d3 0E       		.uleb128 0xe
 3640 06d4 01       		.uleb128 0x1
 3641 06d5 50       		.byte	0x50
 3642 06d6 02       		.uleb128 0x2
 3643 06d7 08       		.byte	0x8
 3644 06d8 24       		.byte	0x24
 3645 06d9 00       		.byte	0
 3646 06da 0D       		.uleb128 0xd
 3647 06db C0000000 		.4byte	.LVL49
 3648 06df E4120000 		.4byte	0x12e4
 3649 06e3 EE060000 		.4byte	0x6ee
 3650 06e7 0E       		.uleb128 0xe
 3651 06e8 01       		.uleb128 0x1
 3652 06e9 50       		.byte	0x50
 3653 06ea 02       		.uleb128 0x2
 3654 06eb 09       		.byte	0x9
 3655 06ec C5       		.byte	0xc5
 3656 06ed 00       		.byte	0
 3657 06ee 0D       		.uleb128 0xd
 3658 06ef C6000000 		.4byte	.LVL50
 3659 06f3 E4120000 		.4byte	0x12e4
 3660 06f7 01070000 		.4byte	0x701
 3661 06fb 0E       		.uleb128 0xe
 3662 06fc 01       		.uleb128 0x1
 3663 06fd 50       		.byte	0x50
 3664 06fe 01       		.uleb128 0x1
 3665 06ff 32       		.byte	0x32
 3666 0700 00       		.byte	0
 3667 0701 0D       		.uleb128 0xd
 3668 0702 CC000000 		.4byte	.LVL51
 3669 0706 E4120000 		.4byte	0x12e4
ARM GAS  C:\Users\RECEPC~1\AppData\Local\Temp\cc89K5zt.s 			page 80


 3670 070a 14070000 		.4byte	0x714
 3671 070e 0E       		.uleb128 0xe
 3672 070f 01       		.uleb128 0x1
 3673 0710 50       		.byte	0x50
 3674 0711 01       		.uleb128 0x1
 3675 0712 30       		.byte	0x30
 3676 0713 00       		.byte	0
 3677 0714 0D       		.uleb128 0xd
 3678 0715 D2000000 		.4byte	.LVL52
 3679 0719 E4120000 		.4byte	0x12e4
 3680 071d 27070000 		.4byte	0x727
 3681 0721 0E       		.uleb128 0xe
 3682 0722 01       		.uleb128 0x1
 3683 0723 50       		.byte	0x50
 3684 0724 01       		.uleb128 0x1
 3685 0725 30       		.byte	0x30
 3686 0726 00       		.byte	0
 3687 0727 0D       		.uleb128 0xd
 3688 0728 D8000000 		.4byte	.LVL53
 3689 072c E4120000 		.4byte	0x12e4
 3690 0730 3B070000 		.4byte	0x73b
 3691 0734 0E       		.uleb128 0xe
 3692 0735 01       		.uleb128 0x1
 3693 0736 50       		.byte	0x50
 3694 0737 02       		.uleb128 0x2
 3695 0738 09       		.byte	0x9
 3696 0739 FF       		.byte	0xff
 3697 073a 00       		.byte	0
 3698 073b 0D       		.uleb128 0xd
 3699 073c DE000000 		.4byte	.LVL54
 3700 0740 E4120000 		.4byte	0x12e4
 3701 0744 4F070000 		.4byte	0x74f
 3702 0748 0E       		.uleb128 0xe
 3703 0749 01       		.uleb128 0x1
 3704 074a 50       		.byte	0x50
 3705 074b 02       		.uleb128 0x2
 3706 074c 09       		.byte	0x9
 3707 074d FF       		.byte	0xff
 3708 074e 00       		.byte	0
 3709 074f 0D       		.uleb128 0xd
 3710 0750 E4000000 		.4byte	.LVL55
 3711 0754 E4120000 		.4byte	0x12e4
 3712 0758 63070000 		.4byte	0x763
 3713 075c 0E       		.uleb128 0xe
 3714 075d 01       		.uleb128 0x1
 3715 075e 50       		.byte	0x50
 3716 075f 02       		.uleb128 0x2
 3717 0760 75       		.byte	0x75
 3718 0761 00       		.sleb128 0
 3719 0762 00       		.byte	0
 3720 0763 0D       		.uleb128 0xd
 3721 0764 EA000000 		.4byte	.LVL56
 3722 0768 E4120000 		.4byte	0x12e4
 3723 076c 77070000 		.4byte	0x777
 3724 0770 0E       		.uleb128 0xe
 3725 0771 01       		.uleb128 0x1
 3726 0772 50       		.byte	0x50
ARM GAS  C:\Users\RECEPC~1\AppData\Local\Temp\cc89K5zt.s 			page 81


 3727 0773 02       		.uleb128 0x2
 3728 0774 09       		.byte	0x9
 3729 0775 CC       		.byte	0xcc
 3730 0776 00       		.byte	0
 3731 0777 0D       		.uleb128 0xd
 3732 0778 F0000000 		.4byte	.LVL57
 3733 077c E4120000 		.4byte	0x12e4
 3734 0780 8B070000 		.4byte	0x78b
 3735 0784 0E       		.uleb128 0xe
 3736 0785 01       		.uleb128 0x1
 3737 0786 50       		.byte	0x50
 3738 0787 02       		.uleb128 0x2
 3739 0788 08       		.byte	0x8
 3740 0789 33       		.byte	0x33
 3741 078a 00       		.byte	0
 3742 078b 0D       		.uleb128 0xd
 3743 078c F6000000 		.4byte	.LVL58
 3744 0790 E4120000 		.4byte	0x12e4
 3745 0794 9F070000 		.4byte	0x79f
 3746 0798 0E       		.uleb128 0xe
 3747 0799 01       		.uleb128 0x1
 3748 079a 50       		.byte	0x50
 3749 079b 02       		.uleb128 0x2
 3750 079c 09       		.byte	0x9
 3751 079d C3       		.byte	0xc3
 3752 079e 00       		.byte	0
 3753 079f 0F       		.uleb128 0xf
 3754 07a0 FC000000 		.4byte	.LVL59
 3755 07a4 E4120000 		.4byte	0x12e4
 3756 07a8 0E       		.uleb128 0xe
 3757 07a9 01       		.uleb128 0x1
 3758 07aa 50       		.byte	0x50
 3759 07ab 02       		.uleb128 0x2
 3760 07ac 08       		.byte	0x8
 3761 07ad 3C       		.byte	0x3c
 3762 07ae 00       		.byte	0
 3763 07af 00       		.byte	0
 3764 07b0 0B       		.uleb128 0xb
 3765 07b1 BF000000 		.4byte	.LASF51
 3766 07b5 01       		.byte	0x1
 3767 07b6 99       		.byte	0x99
 3768 07b7 00000000 		.4byte	.LFB65
 3769 07bb B8000000 		.4byte	.LFE65-.LFB65
 3770 07bf 01       		.uleb128 0x1
 3771 07c0 9C       		.byte	0x9c
 3772 07c1 F5070000 		.4byte	0x7f5
 3773 07c5 0C       		.uleb128 0xc
 3774 07c6 6C636400 		.ascii	"lcd\000"
 3775 07ca 01       		.byte	0x1
 3776 07cb 99       		.byte	0x99
 3777 07cc 81000000 		.4byte	0x81
 3778 07d0 22010000 		.4byte	.LLST5
 3779 07d4 11       		.uleb128 0x11
 3780 07d5 E5000000 		.4byte	.LASF41
 3781 07d9 01       		.byte	0x1
 3782 07da 9A       		.byte	0x9a
 3783 07db F5070000 		.4byte	0x7f5
ARM GAS  C:\Users\RECEPC~1\AppData\Local\Temp\cc89K5zt.s 			page 82


 3784 07df 02       		.uleb128 0x2
 3785 07e0 91       		.byte	0x91
 3786 07e1 58       		.sleb128 -40
 3787 07e2 12       		.uleb128 0x12
 3788 07e3 78000000 		.4byte	.LVL62
 3789 07e7 D3120000 		.4byte	0x12d3
 3790 07eb 12       		.uleb128 0x12
 3791 07ec 9C000000 		.4byte	.LVL63
 3792 07f0 E4120000 		.4byte	0x12e4
 3793 07f4 00       		.byte	0
 3794 07f5 08       		.uleb128 0x8
 3795 07f6 81000000 		.4byte	0x81
 3796 07fa 05080000 		.4byte	0x805
 3797 07fe 09       		.uleb128 0x9
 3798 07ff B7000000 		.4byte	0xb7
 3799 0803 17       		.byte	0x17
 3800 0804 00       		.byte	0
 3801 0805 0B       		.uleb128 0xb
 3802 0806 E9020000 		.4byte	.LASF52
 3803 080a 01       		.byte	0x1
 3804 080b C1       		.byte	0xc1
 3805 080c 00000000 		.4byte	.LFB66
 3806 0810 C4000000 		.4byte	.LFE66-.LFB66
 3807 0814 01       		.uleb128 0x1
 3808 0815 9C       		.byte	0x9c
 3809 0816 4A080000 		.4byte	0x84a
 3810 081a 0C       		.uleb128 0xc
 3811 081b 6C636400 		.ascii	"lcd\000"
 3812 081f 01       		.byte	0x1
 3813 0820 C1       		.byte	0xc1
 3814 0821 81000000 		.4byte	0x81
 3815 0825 43010000 		.4byte	.LLST6
 3816 0829 11       		.uleb128 0x11
 3817 082a 71040000 		.4byte	.LASF40
 3818 082e 01       		.byte	0x1
 3819 082f C2       		.byte	0xc2
 3820 0830 4A080000 		.4byte	0x84a
 3821 0834 02       		.uleb128 0x2
 3822 0835 91       		.byte	0x91
 3823 0836 54       		.sleb128 -44
 3824 0837 12       		.uleb128 0x12
 3825 0838 82000000 		.4byte	.LVL66
 3826 083c D3120000 		.4byte	0x12d3
 3827 0840 12       		.uleb128 0x12
 3828 0841 A6000000 		.4byte	.LVL67
 3829 0845 E4120000 		.4byte	0x12e4
 3830 0849 00       		.byte	0
 3831 084a 08       		.uleb128 0x8
 3832 084b 81000000 		.4byte	0x81
 3833 084f 5A080000 		.4byte	0x85a
 3834 0853 09       		.uleb128 0x9
 3835 0854 B7000000 		.4byte	0xb7
 3836 0858 18       		.byte	0x18
 3837 0859 00       		.byte	0
 3838 085a 0B       		.uleb128 0xb
 3839 085b A4000000 		.4byte	.LASF53
 3840 085f 01       		.byte	0x1
ARM GAS  C:\Users\RECEPC~1\AppData\Local\Temp\cc89K5zt.s 			page 83


 3841 0860 E5       		.byte	0xe5
 3842 0861 00000000 		.4byte	.LFB67
 3843 0865 F8000000 		.4byte	.LFE67-.LFB67
 3844 0869 01       		.uleb128 0x1
 3845 086a 9C       		.byte	0x9c
 3846 086b 9F080000 		.4byte	0x89f
 3847 086f 0C       		.uleb128 0xc
 3848 0870 6C636400 		.ascii	"lcd\000"
 3849 0874 01       		.byte	0x1
 3850 0875 E5       		.byte	0xe5
 3851 0876 81000000 		.4byte	0x81
 3852 087a 64010000 		.4byte	.LLST7
 3853 087e 11       		.uleb128 0x11
 3854 087f 60000000 		.4byte	.LASF28
 3855 0883 01       		.byte	0x1
 3856 0884 E6       		.byte	0xe6
 3857 0885 9F080000 		.4byte	0x89f
 3858 0889 02       		.uleb128 0x2
 3859 088a 91       		.byte	0x91
 3860 088b 5C       		.sleb128 -36
 3861 088c 12       		.uleb128 0x12
 3862 088d 42000000 		.4byte	.LVL70
 3863 0891 D3120000 		.4byte	0x12d3
 3864 0895 12       		.uleb128 0x12
 3865 0896 A8000000 		.4byte	.LVL71
 3866 089a E4120000 		.4byte	0x12e4
 3867 089e 00       		.byte	0
 3868 089f 08       		.uleb128 0x8
 3869 08a0 81000000 		.4byte	0x81
 3870 08a4 AF080000 		.4byte	0x8af
 3871 08a8 09       		.uleb128 0x9
 3872 08a9 B7000000 		.4byte	0xb7
 3873 08ad 11       		.byte	0x11
 3874 08ae 00       		.byte	0
 3875 08af 13       		.uleb128 0x13
 3876 08b0 EA000000 		.4byte	.LASF54
 3877 08b4 01       		.byte	0x1
 3878 08b5 1301     		.2byte	0x113
 3879 08b7 00000000 		.4byte	.LFB68
 3880 08bb C0000000 		.4byte	.LFE68-.LFB68
 3881 08bf 01       		.uleb128 0x1
 3882 08c0 9C       		.byte	0x9c
 3883 08c1 3E090000 		.4byte	0x93e
 3884 08c5 14       		.uleb128 0x14
 3885 08c6 6C636400 		.ascii	"lcd\000"
 3886 08ca 01       		.byte	0x1
 3887 08cb 1301     		.2byte	0x113
 3888 08cd 81000000 		.4byte	0x81
 3889 08d1 85010000 		.4byte	.LLST8
 3890 08d5 14       		.uleb128 0x14
 3891 08d6 793100   		.ascii	"y1\000"
 3892 08d9 01       		.byte	0x1
 3893 08da 1301     		.2byte	0x113
 3894 08dc 81000000 		.4byte	0x81
 3895 08e0 A6010000 		.4byte	.LLST9
 3896 08e4 14       		.uleb128 0x14
 3897 08e5 793200   		.ascii	"y2\000"
ARM GAS  C:\Users\RECEPC~1\AppData\Local\Temp\cc89K5zt.s 			page 84


 3898 08e8 01       		.byte	0x1
 3899 08e9 1301     		.2byte	0x113
 3900 08eb 81000000 		.4byte	0x81
 3901 08ef C7010000 		.4byte	.LLST10
 3902 08f3 15       		.uleb128 0x15
 3903 08f4 79030000 		.4byte	.LASF55
 3904 08f8 01       		.byte	0x1
 3905 08f9 1301     		.2byte	0x113
 3906 08fb 8C000000 		.4byte	0x8c
 3907 08ff E8010000 		.4byte	.LLST11
 3908 0903 16       		.uleb128 0x16
 3909 0904 E5000000 		.4byte	.LASF41
 3910 0908 01       		.byte	0x1
 3911 0909 1401     		.2byte	0x114
 3912 090b 3E090000 		.4byte	0x93e
 3913 090f 02       		.uleb128 0x2
 3914 0910 91       		.byte	0x91
 3915 0911 50       		.sleb128 -48
 3916 0912 0D       		.uleb128 0xd
 3917 0913 38000000 		.4byte	.LVL77
 3918 0917 F5120000 		.4byte	0x12f5
 3919 091b 2B090000 		.4byte	0x92b
 3920 091f 0E       		.uleb128 0xe
 3921 0920 01       		.uleb128 0x1
 3922 0921 51       		.byte	0x51
 3923 0922 01       		.uleb128 0x1
 3924 0923 36       		.byte	0x36
 3925 0924 0E       		.uleb128 0xe
 3926 0925 01       		.uleb128 0x1
 3927 0926 50       		.byte	0x50
 3928 0927 02       		.uleb128 0x2
 3929 0928 77       		.byte	0x77
 3930 0929 00       		.sleb128 0
 3931 092a 00       		.byte	0
 3932 092b 12       		.uleb128 0x12
 3933 092c 7E000000 		.4byte	.LVL78
 3934 0930 D3120000 		.4byte	0x12d3
 3935 0934 12       		.uleb128 0x12
 3936 0935 A2000000 		.4byte	.LVL79
 3937 0939 E4120000 		.4byte	0x12e4
 3938 093d 00       		.byte	0
 3939 093e 08       		.uleb128 0x8
 3940 093f 81000000 		.4byte	0x81
 3941 0943 4E090000 		.4byte	0x94e
 3942 0947 09       		.uleb128 0x9
 3943 0948 B7000000 		.4byte	0xb7
 3944 094c 16       		.byte	0x16
 3945 094d 00       		.byte	0
 3946 094e 13       		.uleb128 0x13
 3947 094f 91000000 		.4byte	.LASF56
 3948 0953 01       		.byte	0x1
 3949 0954 3A01     		.2byte	0x13a
 3950 0956 00000000 		.4byte	.LFB69
 3951 095a B8000000 		.4byte	.LFE69-.LFB69
 3952 095e 01       		.uleb128 0x1
 3953 095f 9C       		.byte	0x9c
 3954 0960 DD090000 		.4byte	0x9dd
ARM GAS  C:\Users\RECEPC~1\AppData\Local\Temp\cc89K5zt.s 			page 85


 3955 0964 14       		.uleb128 0x14
 3956 0965 6C636400 		.ascii	"lcd\000"
 3957 0969 01       		.byte	0x1
 3958 096a 3A01     		.2byte	0x13a
 3959 096c 81000000 		.4byte	0x81
 3960 0970 09020000 		.4byte	.LLST12
 3961 0974 14       		.uleb128 0x14
 3962 0975 793100   		.ascii	"y1\000"
 3963 0978 01       		.byte	0x1
 3964 0979 3A01     		.2byte	0x13a
 3965 097b 81000000 		.4byte	0x81
 3966 097f 2A020000 		.4byte	.LLST13
 3967 0983 14       		.uleb128 0x14
 3968 0984 793200   		.ascii	"y2\000"
 3969 0987 01       		.byte	0x1
 3970 0988 3A01     		.2byte	0x13a
 3971 098a 81000000 		.4byte	0x81
 3972 098e 4B020000 		.4byte	.LLST14
 3973 0992 15       		.uleb128 0x15
 3974 0993 79030000 		.4byte	.LASF55
 3975 0997 01       		.byte	0x1
 3976 0998 3A01     		.2byte	0x13a
 3977 099a 8C000000 		.4byte	0x8c
 3978 099e 6C020000 		.4byte	.LLST15
 3979 09a2 16       		.uleb128 0x16
 3980 09a3 E5000000 		.4byte	.LASF41
 3981 09a7 01       		.byte	0x1
 3982 09a8 3B01     		.2byte	0x13b
 3983 09aa 9F080000 		.4byte	0x89f
 3984 09ae 02       		.uleb128 0x2
 3985 09af 91       		.byte	0x91
 3986 09b0 54       		.sleb128 -44
 3987 09b1 0D       		.uleb128 0xd
 3988 09b2 30000000 		.4byte	.LVL85
 3989 09b6 F5120000 		.4byte	0x12f5
 3990 09ba CA090000 		.4byte	0x9ca
 3991 09be 0E       		.uleb128 0xe
 3992 09bf 01       		.uleb128 0x1
 3993 09c0 51       		.byte	0x51
 3994 09c1 01       		.uleb128 0x1
 3995 09c2 32       		.byte	0x32
 3996 09c3 0E       		.uleb128 0xe
 3997 09c4 01       		.uleb128 0x1
 3998 09c5 50       		.byte	0x50
 3999 09c6 02       		.uleb128 0x2
 4000 09c7 77       		.byte	0x77
 4001 09c8 00       		.sleb128 0
 4002 09c9 00       		.byte	0
 4003 09ca 12       		.uleb128 0x12
 4004 09cb 76000000 		.4byte	.LVL86
 4005 09cf D3120000 		.4byte	0x12d3
 4006 09d3 12       		.uleb128 0x12
 4007 09d4 9A000000 		.4byte	.LVL87
 4008 09d8 E4120000 		.4byte	0x12e4
 4009 09dc 00       		.byte	0
 4010 09dd 13       		.uleb128 0x13
 4011 09de 00000000 		.4byte	.LASF57
ARM GAS  C:\Users\RECEPC~1\AppData\Local\Temp\cc89K5zt.s 			page 86


 4012 09e2 01       		.byte	0x1
 4013 09e3 6101     		.2byte	0x161
 4014 09e5 00000000 		.4byte	.LFB70
 4015 09e9 00010000 		.4byte	.LFE70-.LFB70
 4016 09ed 01       		.uleb128 0x1
 4017 09ee 9C       		.byte	0x9c
 4018 09ef 250A0000 		.4byte	0xa25
 4019 09f3 14       		.uleb128 0x14
 4020 09f4 6C636400 		.ascii	"lcd\000"
 4021 09f8 01       		.byte	0x1
 4022 09f9 6101     		.2byte	0x161
 4023 09fb 81000000 		.4byte	0x81
 4024 09ff 8D020000 		.4byte	.LLST16
 4025 0a03 16       		.uleb128 0x16
 4026 0a04 60000000 		.4byte	.LASF28
 4027 0a08 01       		.byte	0x1
 4028 0a09 6201     		.2byte	0x162
 4029 0a0b 9F080000 		.4byte	0x89f
 4030 0a0f 02       		.uleb128 0x2
 4031 0a10 91       		.byte	0x91
 4032 0a11 5C       		.sleb128 -36
 4033 0a12 12       		.uleb128 0x12
 4034 0a13 46000000 		.4byte	.LVL90
 4035 0a17 D3120000 		.4byte	0x12d3
 4036 0a1b 12       		.uleb128 0x12
 4037 0a1c AE000000 		.4byte	.LVL91
 4038 0a20 E4120000 		.4byte	0x12e4
 4039 0a24 00       		.byte	0
 4040 0a25 13       		.uleb128 0x13
 4041 0a26 6F030000 		.4byte	.LASF58
 4042 0a2a 01       		.byte	0x1
 4043 0a2b 8F01     		.2byte	0x18f
 4044 0a2d 00000000 		.4byte	.LFB71
 4045 0a31 00010000 		.4byte	.LFE71-.LFB71
 4046 0a35 01       		.uleb128 0x1
 4047 0a36 9C       		.byte	0x9c
 4048 0a37 6D0A0000 		.4byte	0xa6d
 4049 0a3b 14       		.uleb128 0x14
 4050 0a3c 6C636400 		.ascii	"lcd\000"
 4051 0a40 01       		.byte	0x1
 4052 0a41 8F01     		.2byte	0x18f
 4053 0a43 81000000 		.4byte	0x81
 4054 0a47 AE020000 		.4byte	.LLST17
 4055 0a4b 16       		.uleb128 0x16
 4056 0a4c 60000000 		.4byte	.LASF28
 4057 0a50 01       		.byte	0x1
 4058 0a51 9001     		.2byte	0x190
 4059 0a53 9F080000 		.4byte	0x89f
 4060 0a57 02       		.uleb128 0x2
 4061 0a58 91       		.byte	0x91
 4062 0a59 5C       		.sleb128 -36
 4063 0a5a 12       		.uleb128 0x12
 4064 0a5b 46000000 		.4byte	.LVL94
 4065 0a5f D3120000 		.4byte	0x12d3
 4066 0a63 12       		.uleb128 0x12
 4067 0a64 AE000000 		.4byte	.LVL95
 4068 0a68 E4120000 		.4byte	0x12e4
ARM GAS  C:\Users\RECEPC~1\AppData\Local\Temp\cc89K5zt.s 			page 87


 4069 0a6c 00       		.byte	0
 4070 0a6d 13       		.uleb128 0x13
 4071 0a6e FD000000 		.4byte	.LASF59
 4072 0a72 01       		.byte	0x1
 4073 0a73 BD01     		.2byte	0x1bd
 4074 0a75 00000000 		.4byte	.LFB72
 4075 0a79 00010000 		.4byte	.LFE72-.LFB72
 4076 0a7d 01       		.uleb128 0x1
 4077 0a7e 9C       		.byte	0x9c
 4078 0a7f B50A0000 		.4byte	0xab5
 4079 0a83 14       		.uleb128 0x14
 4080 0a84 6C636400 		.ascii	"lcd\000"
 4081 0a88 01       		.byte	0x1
 4082 0a89 BD01     		.2byte	0x1bd
 4083 0a8b 81000000 		.4byte	0x81
 4084 0a8f CF020000 		.4byte	.LLST18
 4085 0a93 16       		.uleb128 0x16
 4086 0a94 60000000 		.4byte	.LASF28
 4087 0a98 01       		.byte	0x1
 4088 0a99 BE01     		.2byte	0x1be
 4089 0a9b 9F080000 		.4byte	0x89f
 4090 0a9f 02       		.uleb128 0x2
 4091 0aa0 91       		.byte	0x91
 4092 0aa1 5C       		.sleb128 -36
 4093 0aa2 12       		.uleb128 0x12
 4094 0aa3 46000000 		.4byte	.LVL98
 4095 0aa7 D3120000 		.4byte	0x12d3
 4096 0aab 12       		.uleb128 0x12
 4097 0aac AE000000 		.4byte	.LVL99
 4098 0ab0 E4120000 		.4byte	0x12e4
 4099 0ab4 00       		.byte	0
 4100 0ab5 13       		.uleb128 0x13
 4101 0ab6 C8000000 		.4byte	.LASF60
 4102 0aba 01       		.byte	0x1
 4103 0abb EB01     		.2byte	0x1eb
 4104 0abd 00000000 		.4byte	.LFB73
 4105 0ac1 00010000 		.4byte	.LFE73-.LFB73
 4106 0ac5 01       		.uleb128 0x1
 4107 0ac6 9C       		.byte	0x9c
 4108 0ac7 FD0A0000 		.4byte	0xafd
 4109 0acb 14       		.uleb128 0x14
 4110 0acc 6C636400 		.ascii	"lcd\000"
 4111 0ad0 01       		.byte	0x1
 4112 0ad1 EB01     		.2byte	0x1eb
 4113 0ad3 81000000 		.4byte	0x81
 4114 0ad7 F0020000 		.4byte	.LLST19
 4115 0adb 16       		.uleb128 0x16
 4116 0adc 60000000 		.4byte	.LASF28
 4117 0ae0 01       		.byte	0x1
 4118 0ae1 EC01     		.2byte	0x1ec
 4119 0ae3 9F080000 		.4byte	0x89f
 4120 0ae7 02       		.uleb128 0x2
 4121 0ae8 91       		.byte	0x91
 4122 0ae9 5C       		.sleb128 -36
 4123 0aea 12       		.uleb128 0x12
 4124 0aeb 46000000 		.4byte	.LVL102
 4125 0aef D3120000 		.4byte	0x12d3
ARM GAS  C:\Users\RECEPC~1\AppData\Local\Temp\cc89K5zt.s 			page 88


 4126 0af3 12       		.uleb128 0x12
 4127 0af4 AE000000 		.4byte	.LVL103
 4128 0af8 E4120000 		.4byte	0x12e4
 4129 0afc 00       		.byte	0
 4130 0afd 13       		.uleb128 0x13
 4131 0afe CE010000 		.4byte	.LASF61
 4132 0b02 01       		.byte	0x1
 4133 0b03 1902     		.2byte	0x219
 4134 0b05 00000000 		.4byte	.LFB74
 4135 0b09 00010000 		.4byte	.LFE74-.LFB74
 4136 0b0d 01       		.uleb128 0x1
 4137 0b0e 9C       		.byte	0x9c
 4138 0b0f 450B0000 		.4byte	0xb45
 4139 0b13 14       		.uleb128 0x14
 4140 0b14 6C636400 		.ascii	"lcd\000"
 4141 0b18 01       		.byte	0x1
 4142 0b19 1902     		.2byte	0x219
 4143 0b1b 81000000 		.4byte	0x81
 4144 0b1f 11030000 		.4byte	.LLST20
 4145 0b23 16       		.uleb128 0x16
 4146 0b24 60000000 		.4byte	.LASF28
 4147 0b28 01       		.byte	0x1
 4148 0b29 1A02     		.2byte	0x21a
 4149 0b2b 9F080000 		.4byte	0x89f
 4150 0b2f 02       		.uleb128 0x2
 4151 0b30 91       		.byte	0x91
 4152 0b31 5C       		.sleb128 -36
 4153 0b32 12       		.uleb128 0x12
 4154 0b33 44000000 		.4byte	.LVL106
 4155 0b37 D3120000 		.4byte	0x12d3
 4156 0b3b 12       		.uleb128 0x12
 4157 0b3c AC000000 		.4byte	.LVL107
 4158 0b40 E4120000 		.4byte	0x12e4
 4159 0b44 00       		.byte	0
 4160 0b45 13       		.uleb128 0x13
 4161 0b46 92020000 		.4byte	.LASF62
 4162 0b4a 01       		.byte	0x1
 4163 0b4b 4702     		.2byte	0x247
 4164 0b4d 00000000 		.4byte	.LFB75
 4165 0b51 F8000000 		.4byte	.LFE75-.LFB75
 4166 0b55 01       		.uleb128 0x1
 4167 0b56 9C       		.byte	0x9c
 4168 0b57 8D0B0000 		.4byte	0xb8d
 4169 0b5b 14       		.uleb128 0x14
 4170 0b5c 6C636400 		.ascii	"lcd\000"
 4171 0b60 01       		.byte	0x1
 4172 0b61 4702     		.2byte	0x247
 4173 0b63 81000000 		.4byte	0x81
 4174 0b67 32030000 		.4byte	.LLST21
 4175 0b6b 16       		.uleb128 0x16
 4176 0b6c 60000000 		.4byte	.LASF28
 4177 0b70 01       		.byte	0x1
 4178 0b71 4802     		.2byte	0x248
 4179 0b73 9F080000 		.4byte	0x89f
 4180 0b77 02       		.uleb128 0x2
 4181 0b78 91       		.byte	0x91
 4182 0b79 5C       		.sleb128 -36
ARM GAS  C:\Users\RECEPC~1\AppData\Local\Temp\cc89K5zt.s 			page 89


 4183 0b7a 12       		.uleb128 0x12
 4184 0b7b 5C000000 		.4byte	.LVL110
 4185 0b7f D3120000 		.4byte	0x12d3
 4186 0b83 12       		.uleb128 0x12
 4187 0b84 C0000000 		.4byte	.LVL111
 4188 0b88 E4120000 		.4byte	0x12e4
 4189 0b8c 00       		.byte	0
 4190 0b8d 13       		.uleb128 0x13
 4191 0b8e 77040000 		.4byte	.LASF63
 4192 0b92 01       		.byte	0x1
 4193 0b93 6F02     		.2byte	0x26f
 4194 0b95 00000000 		.4byte	.LFB76
 4195 0b99 FC000000 		.4byte	.LFE76-.LFB76
 4196 0b9d 01       		.uleb128 0x1
 4197 0b9e 9C       		.byte	0x9c
 4198 0b9f D50B0000 		.4byte	0xbd5
 4199 0ba3 14       		.uleb128 0x14
 4200 0ba4 6C636400 		.ascii	"lcd\000"
 4201 0ba8 01       		.byte	0x1
 4202 0ba9 6F02     		.2byte	0x26f
 4203 0bab 81000000 		.4byte	0x81
 4204 0baf 53030000 		.4byte	.LLST22
 4205 0bb3 16       		.uleb128 0x16
 4206 0bb4 60000000 		.4byte	.LASF28
 4207 0bb8 01       		.byte	0x1
 4208 0bb9 7002     		.2byte	0x270
 4209 0bbb 9F080000 		.4byte	0x89f
 4210 0bbf 02       		.uleb128 0x2
 4211 0bc0 91       		.byte	0x91
 4212 0bc1 5C       		.sleb128 -36
 4213 0bc2 12       		.uleb128 0x12
 4214 0bc3 5C000000 		.4byte	.LVL114
 4215 0bc7 D3120000 		.4byte	0x12d3
 4216 0bcb 12       		.uleb128 0x12
 4217 0bcc C0000000 		.4byte	.LVL115
 4218 0bd0 E4120000 		.4byte	0x12e4
 4219 0bd4 00       		.byte	0
 4220 0bd5 13       		.uleb128 0x13
 4221 0bd6 B6040000 		.4byte	.LASF64
 4222 0bda 01       		.byte	0x1
 4223 0bdb 9702     		.2byte	0x297
 4224 0bdd 00000000 		.4byte	.LFB77
 4225 0be1 06010000 		.4byte	.LFE77-.LFB77
 4226 0be5 01       		.uleb128 0x1
 4227 0be6 9C       		.byte	0x9c
 4228 0be7 FA0E0000 		.4byte	0xefa
 4229 0beb 14       		.uleb128 0x14
 4230 0bec 6C636400 		.ascii	"lcd\000"
 4231 0bf0 01       		.byte	0x1
 4232 0bf1 9702     		.2byte	0x297
 4233 0bf3 81000000 		.4byte	0x81
 4234 0bf7 74030000 		.4byte	.LLST23
 4235 0bfb 15       		.uleb128 0x15
 4236 0bfc 03020000 		.4byte	.LASF50
 4237 0c00 01       		.byte	0x1
 4238 0c01 9702     		.2byte	0x297
 4239 0c03 81000000 		.4byte	0x81
ARM GAS  C:\Users\RECEPC~1\AppData\Local\Temp\cc89K5zt.s 			page 90


 4240 0c07 AE030000 		.4byte	.LLST24
 4241 0c0b 14       		.uleb128 0x14
 4242 0c0c 706F7300 		.ascii	"pos\000"
 4243 0c10 01       		.byte	0x1
 4244 0c11 9702     		.2byte	0x297
 4245 0c13 8C000000 		.4byte	0x8c
 4246 0c17 E8030000 		.4byte	.LLST25
 4247 0c1b 0D       		.uleb128 0xd
 4248 0c1c 10000000 		.4byte	.LVL118
 4249 0c20 D3120000 		.4byte	0x12d3
 4250 0c24 2F0C0000 		.4byte	0xc2f
 4251 0c28 0E       		.uleb128 0xe
 4252 0c29 01       		.uleb128 0x1
 4253 0c2a 50       		.byte	0x50
 4254 0c2b 02       		.uleb128 0x2
 4255 0c2c 09       		.byte	0x9
 4256 0c2d AA       		.byte	0xaa
 4257 0c2e 00       		.byte	0
 4258 0c2f 0D       		.uleb128 0xd
 4259 0c30 16000000 		.4byte	.LVL119
 4260 0c34 D3120000 		.4byte	0x12d3
 4261 0c38 430C0000 		.4byte	0xc43
 4262 0c3c 0E       		.uleb128 0xe
 4263 0c3d 01       		.uleb128 0x1
 4264 0c3e 50       		.byte	0x50
 4265 0c3f 02       		.uleb128 0x2
 4266 0c40 09       		.byte	0x9
 4267 0c41 98       		.byte	0x98
 4268 0c42 00       		.byte	0
 4269 0c43 0D       		.uleb128 0xd
 4270 0c44 24000000 		.4byte	.LVL120
 4271 0c48 D3120000 		.4byte	0x12d3
 4272 0c4c 640C0000 		.4byte	0xc64
 4273 0c50 0E       		.uleb128 0xe
 4274 0c51 01       		.uleb128 0x1
 4275 0c52 50       		.byte	0x50
 4276 0c53 0F       		.uleb128 0xf
 4277 0c54 74       		.byte	0x74
 4278 0c55 00       		.sleb128 0
 4279 0c56 34       		.byte	0x34
 4280 0c57 24       		.byte	0x24
 4281 0c58 74       		.byte	0x74
 4282 0c59 00       		.sleb128 0
 4283 0c5a 1C       		.byte	0x1c
 4284 0c5b 23       		.byte	0x23
 4285 0c5c 30       		.uleb128 0x30
 4286 0c5d 09       		.byte	0x9
 4287 0c5e F4       		.byte	0xf4
 4288 0c5f 24       		.byte	0x24
 4289 0c60 09       		.byte	0x9
 4290 0c61 FC       		.byte	0xfc
 4291 0c62 25       		.byte	0x25
 4292 0c63 00       		.byte	0
 4293 0c64 0D       		.uleb128 0xd
 4294 0c65 32000000 		.4byte	.LVL121
 4295 0c69 D3120000 		.4byte	0x12d3
 4296 0c6d 780C0000 		.4byte	0xc78
ARM GAS  C:\Users\RECEPC~1\AppData\Local\Temp\cc89K5zt.s 			page 91


 4297 0c71 0E       		.uleb128 0xe
 4298 0c72 01       		.uleb128 0x1
 4299 0c73 50       		.byte	0x50
 4300 0c74 02       		.uleb128 0x2
 4301 0c75 74       		.byte	0x74
 4302 0c76 30       		.sleb128 48
 4303 0c77 00       		.byte	0
 4304 0c78 0D       		.uleb128 0xd
 4305 0c79 38000000 		.4byte	.LVL122
 4306 0c7d D3120000 		.4byte	0x12d3
 4307 0c81 8B0C0000 		.4byte	0xc8b
 4308 0c85 0E       		.uleb128 0xe
 4309 0c86 01       		.uleb128 0x1
 4310 0c87 50       		.byte	0x50
 4311 0c88 01       		.uleb128 0x1
 4312 0c89 30       		.byte	0x30
 4313 0c8a 00       		.byte	0
 4314 0c8b 0D       		.uleb128 0xd
 4315 0c8c 3E000000 		.4byte	.LVL123
 4316 0c90 D3120000 		.4byte	0x12d3
 4317 0c94 9F0C0000 		.4byte	0xc9f
 4318 0c98 0E       		.uleb128 0xe
 4319 0c99 01       		.uleb128 0x1
 4320 0c9a 50       		.byte	0x50
 4321 0c9b 02       		.uleb128 0x2
 4322 0c9c 08       		.byte	0x8
 4323 0c9d 30       		.byte	0x30
 4324 0c9e 00       		.byte	0
 4325 0c9f 0D       		.uleb128 0xd
 4326 0ca0 44000000 		.4byte	.LVL124
 4327 0ca4 D3120000 		.4byte	0x12d3
 4328 0ca8 B30C0000 		.4byte	0xcb3
 4329 0cac 0E       		.uleb128 0xe
 4330 0cad 01       		.uleb128 0x1
 4331 0cae 50       		.byte	0x50
 4332 0caf 02       		.uleb128 0x2
 4333 0cb0 08       		.byte	0x8
 4334 0cb1 23       		.byte	0x23
 4335 0cb2 00       		.byte	0
 4336 0cb3 0D       		.uleb128 0xd
 4337 0cb4 4A000000 		.4byte	.LVL125
 4338 0cb8 D3120000 		.4byte	0x12d3
 4339 0cbc C70C0000 		.4byte	0xcc7
 4340 0cc0 0E       		.uleb128 0xe
 4341 0cc1 01       		.uleb128 0x1
 4342 0cc2 50       		.byte	0x50
 4343 0cc3 02       		.uleb128 0x2
 4344 0cc4 09       		.byte	0x9
 4345 0cc5 C5       		.byte	0xc5
 4346 0cc6 00       		.byte	0
 4347 0cc7 0D       		.uleb128 0xd
 4348 0cc8 50000000 		.4byte	.LVL126
 4349 0ccc D3120000 		.4byte	0x12d3
 4350 0cd0 DA0C0000 		.4byte	0xcda
 4351 0cd4 0E       		.uleb128 0xe
 4352 0cd5 01       		.uleb128 0x1
 4353 0cd6 50       		.byte	0x50
ARM GAS  C:\Users\RECEPC~1\AppData\Local\Temp\cc89K5zt.s 			page 92


 4354 0cd7 01       		.uleb128 0x1
 4355 0cd8 32       		.byte	0x32
 4356 0cd9 00       		.byte	0
 4357 0cda 0D       		.uleb128 0xd
 4358 0cdb 56000000 		.4byte	.LVL127
 4359 0cdf D3120000 		.4byte	0x12d3
 4360 0ce3 ED0C0000 		.4byte	0xced
 4361 0ce7 0E       		.uleb128 0xe
 4362 0ce8 01       		.uleb128 0x1
 4363 0ce9 50       		.byte	0x50
 4364 0cea 01       		.uleb128 0x1
 4365 0ceb 30       		.byte	0x30
 4366 0cec 00       		.byte	0
 4367 0ced 0D       		.uleb128 0xd
 4368 0cee 5C000000 		.4byte	.LVL128
 4369 0cf2 D3120000 		.4byte	0x12d3
 4370 0cf6 000D0000 		.4byte	0xd00
 4371 0cfa 0E       		.uleb128 0xe
 4372 0cfb 01       		.uleb128 0x1
 4373 0cfc 50       		.byte	0x50
 4374 0cfd 01       		.uleb128 0x1
 4375 0cfe 30       		.byte	0x30
 4376 0cff 00       		.byte	0
 4377 0d00 0D       		.uleb128 0xd
 4378 0d01 62000000 		.4byte	.LVL129
 4379 0d05 D3120000 		.4byte	0x12d3
 4380 0d09 140D0000 		.4byte	0xd14
 4381 0d0d 0E       		.uleb128 0xe
 4382 0d0e 01       		.uleb128 0x1
 4383 0d0f 50       		.byte	0x50
 4384 0d10 02       		.uleb128 0x2
 4385 0d11 09       		.byte	0x9
 4386 0d12 FF       		.byte	0xff
 4387 0d13 00       		.byte	0
 4388 0d14 0D       		.uleb128 0xd
 4389 0d15 68000000 		.4byte	.LVL130
 4390 0d19 D3120000 		.4byte	0x12d3
 4391 0d1d 280D0000 		.4byte	0xd28
 4392 0d21 0E       		.uleb128 0xe
 4393 0d22 01       		.uleb128 0x1
 4394 0d23 50       		.byte	0x50
 4395 0d24 02       		.uleb128 0x2
 4396 0d25 09       		.byte	0x9
 4397 0d26 FF       		.byte	0xff
 4398 0d27 00       		.byte	0
 4399 0d28 0D       		.uleb128 0xd
 4400 0d29 6E000000 		.4byte	.LVL131
 4401 0d2d D3120000 		.4byte	0x12d3
 4402 0d31 3C0D0000 		.4byte	0xd3c
 4403 0d35 0E       		.uleb128 0xe
 4404 0d36 01       		.uleb128 0x1
 4405 0d37 50       		.byte	0x50
 4406 0d38 02       		.uleb128 0x2
 4407 0d39 75       		.byte	0x75
 4408 0d3a 00       		.sleb128 0
 4409 0d3b 00       		.byte	0
 4410 0d3c 0D       		.uleb128 0xd
ARM GAS  C:\Users\RECEPC~1\AppData\Local\Temp\cc89K5zt.s 			page 93


 4411 0d3d 74000000 		.4byte	.LVL132
 4412 0d41 D3120000 		.4byte	0x12d3
 4413 0d45 500D0000 		.4byte	0xd50
 4414 0d49 0E       		.uleb128 0xe
 4415 0d4a 01       		.uleb128 0x1
 4416 0d4b 50       		.byte	0x50
 4417 0d4c 02       		.uleb128 0x2
 4418 0d4d 09       		.byte	0x9
 4419 0d4e CC       		.byte	0xcc
 4420 0d4f 00       		.byte	0
 4421 0d50 0D       		.uleb128 0xd
 4422 0d51 7A000000 		.4byte	.LVL133
 4423 0d55 D3120000 		.4byte	0x12d3
 4424 0d59 640D0000 		.4byte	0xd64
 4425 0d5d 0E       		.uleb128 0xe
 4426 0d5e 01       		.uleb128 0x1
 4427 0d5f 50       		.byte	0x50
 4428 0d60 02       		.uleb128 0x2
 4429 0d61 08       		.byte	0x8
 4430 0d62 33       		.byte	0x33
 4431 0d63 00       		.byte	0
 4432 0d64 0D       		.uleb128 0xd
 4433 0d65 80000000 		.4byte	.LVL134
 4434 0d69 D3120000 		.4byte	0x12d3
 4435 0d6d 780D0000 		.4byte	0xd78
 4436 0d71 0E       		.uleb128 0xe
 4437 0d72 01       		.uleb128 0x1
 4438 0d73 50       		.byte	0x50
 4439 0d74 02       		.uleb128 0x2
 4440 0d75 09       		.byte	0x9
 4441 0d76 C3       		.byte	0xc3
 4442 0d77 00       		.byte	0
 4443 0d78 0D       		.uleb128 0xd
 4444 0d79 86000000 		.4byte	.LVL135
 4445 0d7d D3120000 		.4byte	0x12d3
 4446 0d81 8C0D0000 		.4byte	0xd8c
 4447 0d85 0E       		.uleb128 0xe
 4448 0d86 01       		.uleb128 0x1
 4449 0d87 50       		.byte	0x50
 4450 0d88 02       		.uleb128 0x2
 4451 0d89 08       		.byte	0x8
 4452 0d8a 3C       		.byte	0x3c
 4453 0d8b 00       		.byte	0
 4454 0d8c 0D       		.uleb128 0xd
 4455 0d8d 8E000000 		.4byte	.LVL138
 4456 0d91 E4120000 		.4byte	0x12e4
 4457 0d95 A00D0000 		.4byte	0xda0
 4458 0d99 0E       		.uleb128 0xe
 4459 0d9a 01       		.uleb128 0x1
 4460 0d9b 50       		.byte	0x50
 4461 0d9c 02       		.uleb128 0x2
 4462 0d9d 09       		.byte	0x9
 4463 0d9e AA       		.byte	0xaa
 4464 0d9f 00       		.byte	0
 4465 0da0 0D       		.uleb128 0xd
 4466 0da1 94000000 		.4byte	.LVL139
 4467 0da5 E4120000 		.4byte	0x12e4
ARM GAS  C:\Users\RECEPC~1\AppData\Local\Temp\cc89K5zt.s 			page 94


 4468 0da9 B40D0000 		.4byte	0xdb4
 4469 0dad 0E       		.uleb128 0xe
 4470 0dae 01       		.uleb128 0x1
 4471 0daf 50       		.byte	0x50
 4472 0db0 02       		.uleb128 0x2
 4473 0db1 09       		.byte	0x9
 4474 0db2 98       		.byte	0x98
 4475 0db3 00       		.byte	0
 4476 0db4 0D       		.uleb128 0xd
 4477 0db5 A2000000 		.4byte	.LVL140
 4478 0db9 E4120000 		.4byte	0x12e4
 4479 0dbd D50D0000 		.4byte	0xdd5
 4480 0dc1 0E       		.uleb128 0xe
 4481 0dc2 01       		.uleb128 0x1
 4482 0dc3 50       		.byte	0x50
 4483 0dc4 0F       		.uleb128 0xf
 4484 0dc5 74       		.byte	0x74
 4485 0dc6 00       		.sleb128 0
 4486 0dc7 34       		.byte	0x34
 4487 0dc8 24       		.byte	0x24
 4488 0dc9 74       		.byte	0x74
 4489 0dca 00       		.sleb128 0
 4490 0dcb 1C       		.byte	0x1c
 4491 0dcc 23       		.byte	0x23
 4492 0dcd 30       		.uleb128 0x30
 4493 0dce 09       		.byte	0x9
 4494 0dcf F4       		.byte	0xf4
 4495 0dd0 24       		.byte	0x24
 4496 0dd1 09       		.byte	0x9
 4497 0dd2 FC       		.byte	0xfc
 4498 0dd3 25       		.byte	0x25
 4499 0dd4 00       		.byte	0
 4500 0dd5 0D       		.uleb128 0xd
 4501 0dd6 B0000000 		.4byte	.LVL141
 4502 0dda E4120000 		.4byte	0x12e4
 4503 0dde E90D0000 		.4byte	0xde9
 4504 0de2 0E       		.uleb128 0xe
 4505 0de3 01       		.uleb128 0x1
 4506 0de4 50       		.byte	0x50
 4507 0de5 02       		.uleb128 0x2
 4508 0de6 74       		.byte	0x74
 4509 0de7 30       		.sleb128 48
 4510 0de8 00       		.byte	0
 4511 0de9 0D       		.uleb128 0xd
 4512 0dea B6000000 		.4byte	.LVL142
 4513 0dee E4120000 		.4byte	0x12e4
 4514 0df2 FC0D0000 		.4byte	0xdfc
 4515 0df6 0E       		.uleb128 0xe
 4516 0df7 01       		.uleb128 0x1
 4517 0df8 50       		.byte	0x50
 4518 0df9 01       		.uleb128 0x1
 4519 0dfa 30       		.byte	0x30
 4520 0dfb 00       		.byte	0
 4521 0dfc 0D       		.uleb128 0xd
 4522 0dfd BC000000 		.4byte	.LVL143
 4523 0e01 E4120000 		.4byte	0x12e4
 4524 0e05 100E0000 		.4byte	0xe10
ARM GAS  C:\Users\RECEPC~1\AppData\Local\Temp\cc89K5zt.s 			page 95


 4525 0e09 0E       		.uleb128 0xe
 4526 0e0a 01       		.uleb128 0x1
 4527 0e0b 50       		.byte	0x50
 4528 0e0c 02       		.uleb128 0x2
 4529 0e0d 08       		.byte	0x8
 4530 0e0e 30       		.byte	0x30
 4531 0e0f 00       		.byte	0
 4532 0e10 0D       		.uleb128 0xd
 4533 0e11 C2000000 		.4byte	.LVL144
 4534 0e15 E4120000 		.4byte	0x12e4
 4535 0e19 240E0000 		.4byte	0xe24
 4536 0e1d 0E       		.uleb128 0xe
 4537 0e1e 01       		.uleb128 0x1
 4538 0e1f 50       		.byte	0x50
 4539 0e20 02       		.uleb128 0x2
 4540 0e21 08       		.byte	0x8
 4541 0e22 23       		.byte	0x23
 4542 0e23 00       		.byte	0
 4543 0e24 0D       		.uleb128 0xd
 4544 0e25 C8000000 		.4byte	.LVL145
 4545 0e29 E4120000 		.4byte	0x12e4
 4546 0e2d 380E0000 		.4byte	0xe38
 4547 0e31 0E       		.uleb128 0xe
 4548 0e32 01       		.uleb128 0x1
 4549 0e33 50       		.byte	0x50
 4550 0e34 02       		.uleb128 0x2
 4551 0e35 09       		.byte	0x9
 4552 0e36 C5       		.byte	0xc5
 4553 0e37 00       		.byte	0
 4554 0e38 0D       		.uleb128 0xd
 4555 0e39 CE000000 		.4byte	.LVL146
 4556 0e3d E4120000 		.4byte	0x12e4
 4557 0e41 4B0E0000 		.4byte	0xe4b
 4558 0e45 0E       		.uleb128 0xe
 4559 0e46 01       		.uleb128 0x1
 4560 0e47 50       		.byte	0x50
 4561 0e48 01       		.uleb128 0x1
 4562 0e49 32       		.byte	0x32
 4563 0e4a 00       		.byte	0
 4564 0e4b 0D       		.uleb128 0xd
 4565 0e4c D4000000 		.4byte	.LVL147
 4566 0e50 E4120000 		.4byte	0x12e4
 4567 0e54 5E0E0000 		.4byte	0xe5e
 4568 0e58 0E       		.uleb128 0xe
 4569 0e59 01       		.uleb128 0x1
 4570 0e5a 50       		.byte	0x50
 4571 0e5b 01       		.uleb128 0x1
 4572 0e5c 30       		.byte	0x30
 4573 0e5d 00       		.byte	0
 4574 0e5e 0D       		.uleb128 0xd
 4575 0e5f DA000000 		.4byte	.LVL148
 4576 0e63 E4120000 		.4byte	0x12e4
 4577 0e67 710E0000 		.4byte	0xe71
 4578 0e6b 0E       		.uleb128 0xe
 4579 0e6c 01       		.uleb128 0x1
 4580 0e6d 50       		.byte	0x50
 4581 0e6e 01       		.uleb128 0x1
ARM GAS  C:\Users\RECEPC~1\AppData\Local\Temp\cc89K5zt.s 			page 96


 4582 0e6f 30       		.byte	0x30
 4583 0e70 00       		.byte	0
 4584 0e71 0D       		.uleb128 0xd
 4585 0e72 E0000000 		.4byte	.LVL149
 4586 0e76 E4120000 		.4byte	0x12e4
 4587 0e7a 850E0000 		.4byte	0xe85
 4588 0e7e 0E       		.uleb128 0xe
 4589 0e7f 01       		.uleb128 0x1
 4590 0e80 50       		.byte	0x50
 4591 0e81 02       		.uleb128 0x2
 4592 0e82 09       		.byte	0x9
 4593 0e83 FF       		.byte	0xff
 4594 0e84 00       		.byte	0
 4595 0e85 0D       		.uleb128 0xd
 4596 0e86 E6000000 		.4byte	.LVL150
 4597 0e8a E4120000 		.4byte	0x12e4
 4598 0e8e 990E0000 		.4byte	0xe99
 4599 0e92 0E       		.uleb128 0xe
 4600 0e93 01       		.uleb128 0x1
 4601 0e94 50       		.byte	0x50
 4602 0e95 02       		.uleb128 0x2
 4603 0e96 09       		.byte	0x9
 4604 0e97 FF       		.byte	0xff
 4605 0e98 00       		.byte	0
 4606 0e99 0D       		.uleb128 0xd
 4607 0e9a EC000000 		.4byte	.LVL151
 4608 0e9e E4120000 		.4byte	0x12e4
 4609 0ea2 AD0E0000 		.4byte	0xead
 4610 0ea6 0E       		.uleb128 0xe
 4611 0ea7 01       		.uleb128 0x1
 4612 0ea8 50       		.byte	0x50
 4613 0ea9 02       		.uleb128 0x2
 4614 0eaa 75       		.byte	0x75
 4615 0eab 00       		.sleb128 0
 4616 0eac 00       		.byte	0
 4617 0ead 0D       		.uleb128 0xd
 4618 0eae F2000000 		.4byte	.LVL152
 4619 0eb2 E4120000 		.4byte	0x12e4
 4620 0eb6 C10E0000 		.4byte	0xec1
 4621 0eba 0E       		.uleb128 0xe
 4622 0ebb 01       		.uleb128 0x1
 4623 0ebc 50       		.byte	0x50
 4624 0ebd 02       		.uleb128 0x2
 4625 0ebe 09       		.byte	0x9
 4626 0ebf CC       		.byte	0xcc
 4627 0ec0 00       		.byte	0
 4628 0ec1 0D       		.uleb128 0xd
 4629 0ec2 F8000000 		.4byte	.LVL153
 4630 0ec6 E4120000 		.4byte	0x12e4
 4631 0eca D50E0000 		.4byte	0xed5
 4632 0ece 0E       		.uleb128 0xe
 4633 0ecf 01       		.uleb128 0x1
 4634 0ed0 50       		.byte	0x50
 4635 0ed1 02       		.uleb128 0x2
 4636 0ed2 08       		.byte	0x8
 4637 0ed3 33       		.byte	0x33
 4638 0ed4 00       		.byte	0
ARM GAS  C:\Users\RECEPC~1\AppData\Local\Temp\cc89K5zt.s 			page 97


 4639 0ed5 0D       		.uleb128 0xd
 4640 0ed6 FE000000 		.4byte	.LVL154
 4641 0eda E4120000 		.4byte	0x12e4
 4642 0ede E90E0000 		.4byte	0xee9
 4643 0ee2 0E       		.uleb128 0xe
 4644 0ee3 01       		.uleb128 0x1
 4645 0ee4 50       		.byte	0x50
 4646 0ee5 02       		.uleb128 0x2
 4647 0ee6 09       		.byte	0x9
 4648 0ee7 C3       		.byte	0xc3
 4649 0ee8 00       		.byte	0
 4650 0ee9 0F       		.uleb128 0xf
 4651 0eea 04010000 		.4byte	.LVL155
 4652 0eee E4120000 		.4byte	0x12e4
 4653 0ef2 0E       		.uleb128 0xe
 4654 0ef3 01       		.uleb128 0x1
 4655 0ef4 50       		.byte	0x50
 4656 0ef5 02       		.uleb128 0x2
 4657 0ef6 08       		.byte	0x8
 4658 0ef7 3C       		.byte	0x3c
 4659 0ef8 00       		.byte	0
 4660 0ef9 00       		.byte	0
 4661 0efa 17       		.uleb128 0x17
 4662 0efb D6030000 		.4byte	.LASF65
 4663 0eff 06       		.byte	0x6
 4664 0f00 2A06     		.2byte	0x62a
 4665 0f02 060F0000 		.4byte	0xf06
 4666 0f06 18       		.uleb128 0x18
 4667 0f07 76000000 		.4byte	0x76
 4668 0f0b 19       		.uleb128 0x19
 4669 0f0c A0030000 		.4byte	.LASF66
 4670 0f10 05       		.byte	0x5
 4671 0f11 2F       		.byte	0x2f
 4672 0f12 81000000 		.4byte	0x81
 4673 0f16 05       		.uleb128 0x5
 4674 0f17 03       		.byte	0x3
 4675 0f18 00000000 		.4byte	flujo_LCD
 4676 0f1c 19       		.uleb128 0x19
 4677 0f1d 17000000 		.4byte	.LASF67
 4678 0f21 05       		.byte	0x5
 4679 0f22 2F       		.byte	0x2f
 4680 0f23 81000000 		.4byte	0x81
 4681 0f27 05       		.uleb128 0x5
 4682 0f28 03       		.byte	0x3
 4683 0f29 00000000 		.4byte	flujo_LCD2
 4684 0f2d 19       		.uleb128 0x19
 4685 0f2e 93040000 		.4byte	.LASF68
 4686 0f32 05       		.byte	0x5
 4687 0f33 5D       		.byte	0x5d
 4688 0f34 81000000 		.4byte	0x81
 4689 0f38 05       		.uleb128 0x5
 4690 0f39 03       		.byte	0x3
 4691 0f3a 00000000 		.4byte	count_protector
 4692 0f3e 19       		.uleb128 0x19
 4693 0f3f 2A000000 		.4byte	.LASF69
 4694 0f43 05       		.byte	0x5
 4695 0f44 5D       		.byte	0x5d
ARM GAS  C:\Users\RECEPC~1\AppData\Local\Temp\cc89K5zt.s 			page 98


 4696 0f45 81000000 		.4byte	0x81
 4697 0f49 05       		.uleb128 0x5
 4698 0f4a 03       		.byte	0x3
 4699 0f4b 00000000 		.4byte	count_protector2
 4700 0f4f 19       		.uleb128 0x19
 4701 0f50 40000000 		.4byte	.LASF70
 4702 0f54 05       		.byte	0x5
 4703 0f55 5E       		.byte	0x5e
 4704 0f56 81000000 		.4byte	0x81
 4705 0f5a 05       		.uleb128 0x5
 4706 0f5b 03       		.byte	0x3
 4707 0f5c 00000000 		.4byte	ok_LCD1
 4708 0f60 19       		.uleb128 0x19
 4709 0f61 48000000 		.4byte	.LASF71
 4710 0f65 05       		.byte	0x5
 4711 0f66 5E       		.byte	0x5e
 4712 0f67 81000000 		.4byte	0x81
 4713 0f6b 05       		.uleb128 0x5
 4714 0f6c 03       		.byte	0x3
 4715 0f6d 00000000 		.4byte	ok_LCD2
 4716 0f71 19       		.uleb128 0x19
 4717 0f72 28040000 		.4byte	.LASF72
 4718 0f76 05       		.byte	0x5
 4719 0f77 5F       		.byte	0x5f
 4720 0f78 81000000 		.4byte	0x81
 4721 0f7c 05       		.uleb128 0x5
 4722 0f7d 03       		.byte	0x3
 4723 0f7e 00000000 		.4byte	cont1
 4724 0f82 19       		.uleb128 0x19
 4725 0f83 87030000 		.4byte	.LASF73
 4726 0f87 05       		.byte	0x5
 4727 0f88 5F       		.byte	0x5f
 4728 0f89 81000000 		.4byte	0x81
 4729 0f8d 05       		.uleb128 0x5
 4730 0f8e 03       		.byte	0x3
 4731 0f8f 00000000 		.4byte	teclas1
 4732 0f93 19       		.uleb128 0x19
 4733 0f94 F5000000 		.4byte	.LASF74
 4734 0f98 05       		.byte	0x5
 4735 0f99 5F       		.byte	0x5f
 4736 0f9a 81000000 		.4byte	0x81
 4737 0f9e 05       		.uleb128 0x5
 4738 0f9f 03       		.byte	0x3
 4739 0fa0 00000000 		.4byte	teclas2
 4740 0fa4 19       		.uleb128 0x19
 4741 0fa5 EC030000 		.4byte	.LASF75
 4742 0fa9 05       		.byte	0x5
 4743 0faa 5F       		.byte	0x5f
 4744 0fab 81000000 		.4byte	0x81
 4745 0faf 05       		.uleb128 0x5
 4746 0fb0 03       		.byte	0x3
 4747 0fb1 00000000 		.4byte	comas1
 4748 0fb5 19       		.uleb128 0x19
 4749 0fb6 F3030000 		.4byte	.LASF76
 4750 0fba 05       		.byte	0x5
 4751 0fbb 5F       		.byte	0x5f
 4752 0fbc 81000000 		.4byte	0x81
ARM GAS  C:\Users\RECEPC~1\AppData\Local\Temp\cc89K5zt.s 			page 99


 4753 0fc0 05       		.uleb128 0x5
 4754 0fc1 03       		.byte	0x3
 4755 0fc2 00000000 		.4byte	comas2
 4756 0fc6 19       		.uleb128 0x19
 4757 0fc7 74000000 		.4byte	.LASF77
 4758 0fcb 05       		.byte	0x5
 4759 0fcc 60       		.byte	0x60
 4760 0fcd 81000000 		.4byte	0x81
 4761 0fd1 05       		.uleb128 0x5
 4762 0fd2 03       		.byte	0x3
 4763 0fd3 00000000 		.4byte	version
 4764 0fd7 19       		.uleb128 0x19
 4765 0fd8 50000000 		.4byte	.LASF78
 4766 0fdc 05       		.byte	0x5
 4767 0fdd 61       		.byte	0x61
 4768 0fde 81000000 		.4byte	0x81
 4769 0fe2 05       		.uleb128 0x5
 4770 0fe3 03       		.byte	0x3
 4771 0fe4 00000000 		.4byte	versurt
 4772 0fe8 19       		.uleb128 0x19
 4773 0fe9 22040000 		.4byte	.LASF79
 4774 0fed 05       		.byte	0x5
 4775 0fee 62       		.byte	0x62
 4776 0fef 81000000 		.4byte	0x81
 4777 0ff3 05       		.uleb128 0x5
 4778 0ff4 03       		.byte	0x3
 4779 0ff5 00000000 		.4byte	extra
 4780 0ff9 19       		.uleb128 0x19
 4781 0ffa B8000000 		.4byte	.LASF80
 4782 0ffe 05       		.byte	0x5
 4783 0fff 62       		.byte	0x62
 4784 1000 81000000 		.4byte	0x81
 4785 1004 05       		.uleb128 0x5
 4786 1005 03       		.byte	0x3
 4787 1006 00000000 		.4byte	diesel
 4788 100a 19       		.uleb128 0x19
 4789 100b 91010000 		.4byte	.LASF81
 4790 100f 05       		.byte	0x5
 4791 1010 62       		.byte	0x62
 4792 1011 81000000 		.4byte	0x81
 4793 1015 05       		.uleb128 0x5
 4794 1016 03       		.byte	0x3
 4795 1017 00000000 		.4byte	corriente
 4796 101b 19       		.uleb128 0x19
 4797 101c DA040000 		.4byte	.LASF82
 4798 1020 05       		.byte	0x5
 4799 1021 62       		.byte	0x62
 4800 1022 81000000 		.4byte	0x81
 4801 1026 05       		.uleb128 0x5
 4802 1027 03       		.byte	0x3
 4803 1028 00000000 		.4byte	kero
 4804 102c 19       		.uleb128 0x19
 4805 102d B5010000 		.4byte	.LASF83
 4806 1031 05       		.byte	0x5
 4807 1032 62       		.byte	0x62
 4808 1033 81000000 		.4byte	0x81
 4809 1037 05       		.uleb128 0x5
ARM GAS  C:\Users\RECEPC~1\AppData\Local\Temp\cc89K5zt.s 			page 100


 4810 1038 03       		.byte	0x3
 4811 1039 00000000 		.4byte	extra2
 4812 103d 19       		.uleb128 0x19
 4813 103e 7C000000 		.4byte	.LASF84
 4814 1042 05       		.byte	0x5
 4815 1043 62       		.byte	0x62
 4816 1044 81000000 		.4byte	0x81
 4817 1048 05       		.uleb128 0x5
 4818 1049 03       		.byte	0x3
 4819 104a 00000000 		.4byte	corriente2
 4820 104e 19       		.uleb128 0x19
 4821 104f DD000000 		.4byte	.LASF85
 4822 1053 05       		.byte	0x5
 4823 1054 62       		.byte	0x62
 4824 1055 81000000 		.4byte	0x81
 4825 1059 05       		.uleb128 0x5
 4826 105a 03       		.byte	0x3
 4827 105b 00000000 		.4byte	diesel2
 4828 105f 19       		.uleb128 0x19
 4829 1060 0E020000 		.4byte	.LASF86
 4830 1064 05       		.byte	0x5
 4831 1065 62       		.byte	0x62
 4832 1066 81000000 		.4byte	0x81
 4833 106a 05       		.uleb128 0x5
 4834 106b 03       		.byte	0x3
 4835 106c 00000000 		.4byte	kero2
 4836 1070 08       		.uleb128 0x8
 4837 1071 81000000 		.4byte	0x81
 4838 1075 80100000 		.4byte	0x1080
 4839 1079 09       		.uleb128 0x9
 4840 107a B7000000 		.4byte	0xb7
 4841 107e 3F       		.byte	0x3f
 4842 107f 00       		.byte	0
 4843 1080 19       		.uleb128 0x19
 4844 1081 40010000 		.4byte	.LASF87
 4845 1085 05       		.byte	0x5
 4846 1086 63       		.byte	0x63
 4847 1087 70100000 		.4byte	0x1070
 4848 108b 05       		.uleb128 0x5
 4849 108c 03       		.byte	0x3
 4850 108d 00000000 		.4byte	buffer_i2c
 4851 1091 08       		.uleb128 0x8
 4852 1092 81000000 		.4byte	0x81
 4853 1096 A1100000 		.4byte	0x10a1
 4854 109a 09       		.uleb128 0x9
 4855 109b B7000000 		.4byte	0xb7
 4856 109f 0D       		.byte	0xd
 4857 10a0 00       		.byte	0
 4858 10a1 19       		.uleb128 0x19
 4859 10a2 67040000 		.4byte	.LASF88
 4860 10a6 05       		.byte	0x5
 4861 10a7 64       		.byte	0x64
 4862 10a8 91100000 		.4byte	0x1091
 4863 10ac 05       		.uleb128 0x5
 4864 10ad 03       		.byte	0x3
 4865 10ae 00000000 		.4byte	resultado
 4866 10b2 19       		.uleb128 0x19
ARM GAS  C:\Users\RECEPC~1\AppData\Local\Temp\cc89K5zt.s 			page 101


 4867 10b3 7C010000 		.4byte	.LASF89
 4868 10b7 05       		.byte	0x5
 4869 10b8 65       		.byte	0x65
 4870 10b9 81000000 		.4byte	0x81
 4871 10bd 05       		.uleb128 0x5
 4872 10be 03       		.byte	0x3
 4873 10bf 00000000 		.4byte	teclado
 4874 10c3 19       		.uleb128 0x19
 4875 10c4 AF000000 		.4byte	.LASF90
 4876 10c8 05       		.byte	0x5
 4877 10c9 65       		.byte	0x65
 4878 10ca 81000000 		.4byte	0x81
 4879 10ce 05       		.uleb128 0x5
 4880 10cf 03       		.byte	0x3
 4881 10d0 00000000 		.4byte	teclado2
 4882 10d4 19       		.uleb128 0x19
 4883 10d5 80030000 		.4byte	.LASF91
 4884 10d9 05       		.byte	0x5
 4885 10da 66       		.byte	0x66
 4886 10db 81000000 		.4byte	0x81
 4887 10df 05       		.uleb128 0x5
 4888 10e0 03       		.byte	0x3
 4889 10e1 00000000 		.4byte	ppux10
 4890 10e5 19       		.uleb128 0x19
 4891 10e6 49040000 		.4byte	.LASF92
 4892 10ea 05       		.byte	0x5
 4893 10eb 67       		.byte	0x67
 4894 10ec F8020000 		.4byte	0x2f8
 4895 10f0 05       		.uleb128 0x5
 4896 10f1 03       		.byte	0x3
 4897 10f2 00000000 		.4byte	bandera
 4898 10f6 19       		.uleb128 0x19
 4899 10f7 DF040000 		.4byte	.LASF93
 4900 10fb 05       		.byte	0x5
 4901 10fc 68       		.byte	0x68
 4902 10fd F8020000 		.4byte	0x2f8
 4903 1101 05       		.uleb128 0x5
 4904 1102 03       		.byte	0x3
 4905 1103 00000000 		.4byte	tipo_imp
 4906 1107 19       		.uleb128 0x19
 4907 1108 C4040000 		.4byte	.LASF94
 4908 110c 05       		.byte	0x5
 4909 110d 69       		.byte	0x69
 4910 110e 81000000 		.4byte	0x81
 4911 1112 05       		.uleb128 0x5
 4912 1113 03       		.byte	0x3
 4913 1114 00000000 		.4byte	decimalV
 4914 1118 19       		.uleb128 0x19
 4915 1119 20010000 		.4byte	.LASF95
 4916 111d 05       		.byte	0x5
 4917 111e 6A       		.byte	0x6a
 4918 111f 81000000 		.4byte	0x81
 4919 1123 05       		.uleb128 0x5
 4920 1124 03       		.byte	0x3
 4921 1125 00000000 		.4byte	decimalD
 4922 1129 08       		.uleb128 0x8
 4923 112a 81000000 		.4byte	0x81
ARM GAS  C:\Users\RECEPC~1\AppData\Local\Temp\cc89K5zt.s 			page 102


 4924 112e 39110000 		.4byte	0x1139
 4925 1132 09       		.uleb128 0x9
 4926 1133 B7000000 		.4byte	0xb7
 4927 1137 05       		.byte	0x5
 4928 1138 00       		.byte	0
 4929 1139 19       		.uleb128 0x19
 4930 113a D6010000 		.4byte	.LASF96
 4931 113e 05       		.byte	0x5
 4932 113f 6B       		.byte	0x6b
 4933 1140 29110000 		.4byte	0x1129
 4934 1144 05       		.uleb128 0x5
 4935 1145 03       		.byte	0x3
 4936 1146 00000000 		.4byte	fecha_corte
 4937 114a 19       		.uleb128 0x19
 4938 114b AA030000 		.4byte	.LASF97
 4939 114f 05       		.byte	0x5
 4940 1150 6C       		.byte	0x6c
 4941 1151 81000000 		.4byte	0x81
 4942 1155 05       		.uleb128 0x5
 4943 1156 03       		.byte	0x3
 4944 1157 00000000 		.4byte	pos_ibutton
 4945 115b 19       		.uleb128 0x19
 4946 115c 96030000 		.4byte	.LASF98
 4947 1160 05       		.byte	0x5
 4948 1161 6D       		.byte	0x6d
 4949 1162 81000000 		.4byte	0x81
 4950 1166 05       		.uleb128 0x5
 4951 1167 03       		.byte	0x3
 4952 1168 00000000 		.4byte	crc_total
 4953 116c 19       		.uleb128 0x19
 4954 116d F5010000 		.4byte	.LASF99
 4955 1171 05       		.byte	0x5
 4956 1172 6E       		.byte	0x6e
 4957 1173 F8020000 		.4byte	0x2f8
 4958 1177 05       		.uleb128 0x5
 4959 1178 03       		.byte	0x3
 4960 1179 00000000 		.4byte	print1
 4961 117d 19       		.uleb128 0x19
 4962 117e FC010000 		.4byte	.LASF100
 4963 1182 05       		.byte	0x5
 4964 1183 6E       		.byte	0x6e
 4965 1184 F8020000 		.4byte	0x2f8
 4966 1188 05       		.uleb128 0x5
 4967 1189 03       		.byte	0x3
 4968 118a 00000000 		.4byte	print2
 4969 118e 19       		.uleb128 0x19
 4970 118f C9030000 		.4byte	.LASF101
 4971 1193 05       		.byte	0x5
 4972 1194 6F       		.byte	0x6f
 4973 1195 F8020000 		.4byte	0x2f8
 4974 1199 05       		.uleb128 0x5
 4975 119a 03       		.byte	0x3
 4976 119b 00000000 		.4byte	copia_recibo
 4977 119f 19       		.uleb128 0x19
 4978 11a0 B3020000 		.4byte	.LASF102
 4979 11a4 05       		.byte	0x5
 4980 11a5 70       		.byte	0x70
ARM GAS  C:\Users\RECEPC~1\AppData\Local\Temp\cc89K5zt.s 			page 103


 4981 11a6 8C000000 		.4byte	0x8c
 4982 11aa 05       		.uleb128 0x5
 4983 11ab 03       		.byte	0x3
 4984 11ac 00000000 		.4byte	id_corte
 4985 11b0 19       		.uleb128 0x19
 4986 11b1 BC010000 		.4byte	.LASF103
 4987 11b5 05       		.byte	0x5
 4988 11b6 71       		.byte	0x71
 4989 11b7 29110000 		.4byte	0x1129
 4990 11bb 05       		.uleb128 0x5
 4991 11bc 03       		.byte	0x3
 4992 11bd 00000000 		.4byte	id_venta
 4993 11c1 19       		.uleb128 0x19
 4994 11c2 9B010000 		.4byte	.LASF104
 4995 11c6 05       		.byte	0x5
 4996 11c7 72       		.byte	0x72
 4997 11c8 D2110000 		.4byte	0x11d2
 4998 11cc 05       		.uleb128 0x5
 4999 11cd 03       		.byte	0x3
 5000 11ce 00000000 		.4byte	no_venta
 5001 11d2 18       		.uleb128 0x18
 5002 11d3 68000000 		.4byte	0x68
 5003 11d7 19       		.uleb128 0x19
 5004 11d8 CA020000 		.4byte	.LASF105
 5005 11dc 05       		.byte	0x5
 5006 11dd 8F       		.byte	0x8f
 5007 11de BE000000 		.4byte	0xbe
 5008 11e2 05       		.uleb128 0x5
 5009 11e3 03       		.byte	0x3
 5010 11e4 00000000 		.4byte	Buffer_LCD1
 5011 11e8 19       		.uleb128 0x19
 5012 11e9 14020000 		.4byte	.LASF106
 5013 11ed 05       		.byte	0x5
 5014 11ee 90       		.byte	0x90
 5015 11ef BE000000 		.4byte	0xbe
 5016 11f3 05       		.uleb128 0x5
 5017 11f4 03       		.byte	0x3
 5018 11f5 00000000 		.4byte	Buffer_LCD2
 5019 11f9 19       		.uleb128 0x19
 5020 11fa 19040000 		.4byte	.LASF107
 5021 11fe 05       		.byte	0x5
 5022 11ff 93       		.byte	0x93
 5023 1200 81000000 		.4byte	0x81
 5024 1204 05       		.uleb128 0x5
 5025 1205 03       		.byte	0x3
 5026 1206 00000000 		.4byte	estado_0
 5027 120a 1A       		.uleb128 0x1a
 5028 120b 7800     		.ascii	"x\000"
 5029 120d 05       		.byte	0x5
 5030 120e B6       		.byte	0xb6
 5031 120f 97000000 		.4byte	0x97
 5032 1213 05       		.uleb128 0x5
 5033 1214 03       		.byte	0x3
 5034 1215 00000000 		.4byte	x
 5035 1219 1A       		.uleb128 0x1a
 5036 121a 7900     		.ascii	"y\000"
 5037 121c 05       		.byte	0x5
ARM GAS  C:\Users\RECEPC~1\AppData\Local\Temp\cc89K5zt.s 			page 104


 5038 121d B6       		.byte	0xb6
 5039 121e 97000000 		.4byte	0x97
 5040 1222 05       		.uleb128 0x5
 5041 1223 03       		.byte	0x3
 5042 1224 00000000 		.4byte	y
 5043 1228 1A       		.uleb128 0x1a
 5044 1229 7A00     		.ascii	"z\000"
 5045 122b 05       		.byte	0x5
 5046 122c B6       		.byte	0xb6
 5047 122d 97000000 		.4byte	0x97
 5048 1231 05       		.uleb128 0x5
 5049 1232 03       		.byte	0x3
 5050 1233 00000000 		.4byte	z
 5051 1237 1A       		.uleb128 0x1a
 5052 1238 7700     		.ascii	"w\000"
 5053 123a 05       		.byte	0x5
 5054 123b B6       		.byte	0xb6
 5055 123c 97000000 		.4byte	0x97
 5056 1240 05       		.uleb128 0x5
 5057 1241 03       		.byte	0x3
 5058 1242 00000000 		.4byte	w
 5059 1246 08       		.uleb128 0x8
 5060 1247 81000000 		.4byte	0x81
 5061 124b 5C120000 		.4byte	0x125c
 5062 124f 09       		.uleb128 0x9
 5063 1250 B7000000 		.4byte	0xb7
 5064 1254 01       		.byte	0x1
 5065 1255 09       		.uleb128 0x9
 5066 1256 B7000000 		.4byte	0xb7
 5067 125a C7       		.byte	0xc7
 5068 125b 00       		.byte	0
 5069 125c 19       		.uleb128 0x19
 5070 125d EE010000 		.4byte	.LASF108
 5071 1261 05       		.byte	0x5
 5072 1262 B7       		.byte	0xb7
 5073 1263 46120000 		.4byte	0x1246
 5074 1267 05       		.uleb128 0x5
 5075 1268 03       		.byte	0x3
 5076 1269 00000000 		.4byte	modulo
 5077 126d 19       		.uleb128 0x19
 5078 126e 05040000 		.4byte	.LASF109
 5079 1272 05       		.byte	0x5
 5080 1273 B8       		.byte	0xb8
 5081 1274 81000000 		.4byte	0x81
 5082 1278 05       		.uleb128 0x5
 5083 1279 03       		.byte	0x3
 5084 127a 00000000 		.4byte	producto1
 5085 127e 19       		.uleb128 0x19
 5086 127f 0F040000 		.4byte	.LASF110
 5087 1283 05       		.byte	0x5
 5088 1284 B8       		.byte	0xb8
 5089 1285 81000000 		.4byte	0x81
 5090 1289 05       		.uleb128 0x5
 5091 128a 03       		.byte	0x3
 5092 128b 00000000 		.4byte	producto2
 5093 128f 19       		.uleb128 0x19
 5094 1290 2E020000 		.4byte	.LASF43
ARM GAS  C:\Users\RECEPC~1\AppData\Local\Temp\cc89K5zt.s 			page 105


 5095 1294 05       		.byte	0x5
 5096 1295 B8       		.byte	0xb8
 5097 1296 81000000 		.4byte	0x81
 5098 129a 05       		.uleb128 0x5
 5099 129b 03       		.byte	0x3
 5100 129c 00000000 		.4byte	producto
 5101 12a0 19       		.uleb128 0x19
 5102 12a1 3B000000 		.4byte	.LASF111
 5103 12a5 05       		.byte	0x5
 5104 12a6 B9       		.byte	0xb9
 5105 12a7 E2010000 		.4byte	0x1e2
 5106 12ab 05       		.uleb128 0x5
 5107 12ac 03       		.byte	0x3
 5108 12ad 00000000 		.4byte	lado
 5109 12b1 19       		.uleb128 0x19
 5110 12b2 F1040000 		.4byte	.LASF112
 5111 12b6 05       		.byte	0x5
 5112 12b7 BA       		.byte	0xba
 5113 12b8 03020000 		.4byte	0x203
 5114 12bc 05       		.uleb128 0x5
 5115 12bd 03       		.byte	0x3
 5116 12be 00000000 		.4byte	rventa
 5117 12c2 19       		.uleb128 0x19
 5118 12c3 18010000 		.4byte	.LASF113
 5119 12c7 05       		.byte	0x5
 5120 12c8 BB       		.byte	0xbb
 5121 12c9 03020000 		.4byte	0x203
 5122 12cd 05       		.uleb128 0x5
 5123 12ce 03       		.byte	0x3
 5124 12cf 00000000 		.4byte	rventa2
 5125 12d3 1B       		.uleb128 0x1b
 5126 12d4 6E010000 		.4byte	.LASF114
 5127 12d8 07       		.byte	0x7
 5128 12d9 9F       		.byte	0x9f
 5129 12da E4120000 		.4byte	0x12e4
 5130 12de 1C       		.uleb128 0x1c
 5131 12df 81000000 		.4byte	0x81
 5132 12e3 00       		.byte	0
 5133 12e4 1B       		.uleb128 0x1b
 5134 12e5 84020000 		.4byte	.LASF115
 5135 12e9 08       		.byte	0x8
 5136 12ea 9F       		.byte	0x9f
 5137 12eb F5120000 		.4byte	0x12f5
 5138 12ef 1C       		.uleb128 0x1c
 5139 12f0 81000000 		.4byte	0x81
 5140 12f4 00       		.byte	0
 5141 12f5 1D       		.uleb128 0x1d
 5142 12f6 DD020000 		.4byte	.LASF116
 5143 12fa 09       		.byte	0x9
 5144 12fb 26       		.byte	0x26
 5145 12fc 81000000 		.4byte	0x81
 5146 1300 1C       		.uleb128 0x1c
 5147 1301 8C000000 		.4byte	0x8c
 5148 1305 1C       		.uleb128 0x1c
 5149 1306 81000000 		.4byte	0x81
 5150 130a 00       		.byte	0
 5151 130b 00       		.byte	0
ARM GAS  C:\Users\RECEPC~1\AppData\Local\Temp\cc89K5zt.s 			page 106


 5152              		.section	.debug_abbrev,"",%progbits
 5153              	.Ldebug_abbrev0:
 5154 0000 01       		.uleb128 0x1
 5155 0001 11       		.uleb128 0x11
 5156 0002 01       		.byte	0x1
 5157 0003 25       		.uleb128 0x25
 5158 0004 0E       		.uleb128 0xe
 5159 0005 13       		.uleb128 0x13
 5160 0006 0B       		.uleb128 0xb
 5161 0007 03       		.uleb128 0x3
 5162 0008 0E       		.uleb128 0xe
 5163 0009 1B       		.uleb128 0x1b
 5164 000a 0E       		.uleb128 0xe
 5165 000b 55       		.uleb128 0x55
 5166 000c 17       		.uleb128 0x17
 5167 000d 11       		.uleb128 0x11
 5168 000e 01       		.uleb128 0x1
 5169 000f 10       		.uleb128 0x10
 5170 0010 17       		.uleb128 0x17
 5171 0011 00       		.byte	0
 5172 0012 00       		.byte	0
 5173 0013 02       		.uleb128 0x2
 5174 0014 24       		.uleb128 0x24
 5175 0015 00       		.byte	0
 5176 0016 0B       		.uleb128 0xb
 5177 0017 0B       		.uleb128 0xb
 5178 0018 3E       		.uleb128 0x3e
 5179 0019 0B       		.uleb128 0xb
 5180 001a 03       		.uleb128 0x3
 5181 001b 0E       		.uleb128 0xe
 5182 001c 00       		.byte	0
 5183 001d 00       		.byte	0
 5184 001e 03       		.uleb128 0x3
 5185 001f 16       		.uleb128 0x16
 5186 0020 00       		.byte	0
 5187 0021 03       		.uleb128 0x3
 5188 0022 0E       		.uleb128 0xe
 5189 0023 3A       		.uleb128 0x3a
 5190 0024 0B       		.uleb128 0xb
 5191 0025 3B       		.uleb128 0x3b
 5192 0026 0B       		.uleb128 0xb
 5193 0027 49       		.uleb128 0x49
 5194 0028 13       		.uleb128 0x13
 5195 0029 00       		.byte	0
 5196 002a 00       		.byte	0
 5197 002b 04       		.uleb128 0x4
 5198 002c 24       		.uleb128 0x24
 5199 002d 00       		.byte	0
 5200 002e 0B       		.uleb128 0xb
 5201 002f 0B       		.uleb128 0xb
 5202 0030 3E       		.uleb128 0x3e
 5203 0031 0B       		.uleb128 0xb
 5204 0032 03       		.uleb128 0x3
 5205 0033 08       		.uleb128 0x8
 5206 0034 00       		.byte	0
 5207 0035 00       		.byte	0
 5208 0036 05       		.uleb128 0x5
ARM GAS  C:\Users\RECEPC~1\AppData\Local\Temp\cc89K5zt.s 			page 107


 5209 0037 13       		.uleb128 0x13
 5210 0038 01       		.byte	0x1
 5211 0039 03       		.uleb128 0x3
 5212 003a 0E       		.uleb128 0xe
 5213 003b 0B       		.uleb128 0xb
 5214 003c 0B       		.uleb128 0xb
 5215 003d 3A       		.uleb128 0x3a
 5216 003e 0B       		.uleb128 0xb
 5217 003f 3B       		.uleb128 0x3b
 5218 0040 0B       		.uleb128 0xb
 5219 0041 01       		.uleb128 0x1
 5220 0042 13       		.uleb128 0x13
 5221 0043 00       		.byte	0
 5222 0044 00       		.byte	0
 5223 0045 06       		.uleb128 0x6
 5224 0046 0D       		.uleb128 0xd
 5225 0047 00       		.byte	0
 5226 0048 03       		.uleb128 0x3
 5227 0049 0E       		.uleb128 0xe
 5228 004a 3A       		.uleb128 0x3a
 5229 004b 0B       		.uleb128 0xb
 5230 004c 3B       		.uleb128 0x3b
 5231 004d 0B       		.uleb128 0xb
 5232 004e 49       		.uleb128 0x49
 5233 004f 13       		.uleb128 0x13
 5234 0050 38       		.uleb128 0x38
 5235 0051 0B       		.uleb128 0xb
 5236 0052 00       		.byte	0
 5237 0053 00       		.byte	0
 5238 0054 07       		.uleb128 0x7
 5239 0055 0D       		.uleb128 0xd
 5240 0056 00       		.byte	0
 5241 0057 03       		.uleb128 0x3
 5242 0058 08       		.uleb128 0x8
 5243 0059 3A       		.uleb128 0x3a
 5244 005a 0B       		.uleb128 0xb
 5245 005b 3B       		.uleb128 0x3b
 5246 005c 0B       		.uleb128 0xb
 5247 005d 49       		.uleb128 0x49
 5248 005e 13       		.uleb128 0x13
 5249 005f 38       		.uleb128 0x38
 5250 0060 0B       		.uleb128 0xb
 5251 0061 00       		.byte	0
 5252 0062 00       		.byte	0
 5253 0063 08       		.uleb128 0x8
 5254 0064 01       		.uleb128 0x1
 5255 0065 01       		.byte	0x1
 5256 0066 49       		.uleb128 0x49
 5257 0067 13       		.uleb128 0x13
 5258 0068 01       		.uleb128 0x1
 5259 0069 13       		.uleb128 0x13
 5260 006a 00       		.byte	0
 5261 006b 00       		.byte	0
 5262 006c 09       		.uleb128 0x9
 5263 006d 21       		.uleb128 0x21
 5264 006e 00       		.byte	0
 5265 006f 49       		.uleb128 0x49
ARM GAS  C:\Users\RECEPC~1\AppData\Local\Temp\cc89K5zt.s 			page 108


 5266 0070 13       		.uleb128 0x13
 5267 0071 2F       		.uleb128 0x2f
 5268 0072 0B       		.uleb128 0xb
 5269 0073 00       		.byte	0
 5270 0074 00       		.byte	0
 5271 0075 0A       		.uleb128 0xa
 5272 0076 13       		.uleb128 0x13
 5273 0077 01       		.byte	0x1
 5274 0078 03       		.uleb128 0x3
 5275 0079 08       		.uleb128 0x8
 5276 007a 0B       		.uleb128 0xb
 5277 007b 0B       		.uleb128 0xb
 5278 007c 3A       		.uleb128 0x3a
 5279 007d 0B       		.uleb128 0xb
 5280 007e 3B       		.uleb128 0x3b
 5281 007f 0B       		.uleb128 0xb
 5282 0080 01       		.uleb128 0x1
 5283 0081 13       		.uleb128 0x13
 5284 0082 00       		.byte	0
 5285 0083 00       		.byte	0
 5286 0084 0B       		.uleb128 0xb
 5287 0085 2E       		.uleb128 0x2e
 5288 0086 01       		.byte	0x1
 5289 0087 3F       		.uleb128 0x3f
 5290 0088 19       		.uleb128 0x19
 5291 0089 03       		.uleb128 0x3
 5292 008a 0E       		.uleb128 0xe
 5293 008b 3A       		.uleb128 0x3a
 5294 008c 0B       		.uleb128 0xb
 5295 008d 3B       		.uleb128 0x3b
 5296 008e 0B       		.uleb128 0xb
 5297 008f 27       		.uleb128 0x27
 5298 0090 19       		.uleb128 0x19
 5299 0091 11       		.uleb128 0x11
 5300 0092 01       		.uleb128 0x1
 5301 0093 12       		.uleb128 0x12
 5302 0094 06       		.uleb128 0x6
 5303 0095 40       		.uleb128 0x40
 5304 0096 18       		.uleb128 0x18
 5305 0097 9742     		.uleb128 0x2117
 5306 0099 19       		.uleb128 0x19
 5307 009a 01       		.uleb128 0x1
 5308 009b 13       		.uleb128 0x13
 5309 009c 00       		.byte	0
 5310 009d 00       		.byte	0
 5311 009e 0C       		.uleb128 0xc
 5312 009f 05       		.uleb128 0x5
 5313 00a0 00       		.byte	0
 5314 00a1 03       		.uleb128 0x3
 5315 00a2 08       		.uleb128 0x8
 5316 00a3 3A       		.uleb128 0x3a
 5317 00a4 0B       		.uleb128 0xb
 5318 00a5 3B       		.uleb128 0x3b
 5319 00a6 0B       		.uleb128 0xb
 5320 00a7 49       		.uleb128 0x49
 5321 00a8 13       		.uleb128 0x13
 5322 00a9 02       		.uleb128 0x2
ARM GAS  C:\Users\RECEPC~1\AppData\Local\Temp\cc89K5zt.s 			page 109


 5323 00aa 17       		.uleb128 0x17
 5324 00ab 00       		.byte	0
 5325 00ac 00       		.byte	0
 5326 00ad 0D       		.uleb128 0xd
 5327 00ae 898201   		.uleb128 0x4109
 5328 00b1 01       		.byte	0x1
 5329 00b2 11       		.uleb128 0x11
 5330 00b3 01       		.uleb128 0x1
 5331 00b4 31       		.uleb128 0x31
 5332 00b5 13       		.uleb128 0x13
 5333 00b6 01       		.uleb128 0x1
 5334 00b7 13       		.uleb128 0x13
 5335 00b8 00       		.byte	0
 5336 00b9 00       		.byte	0
 5337 00ba 0E       		.uleb128 0xe
 5338 00bb 8A8201   		.uleb128 0x410a
 5339 00be 00       		.byte	0
 5340 00bf 02       		.uleb128 0x2
 5341 00c0 18       		.uleb128 0x18
 5342 00c1 9142     		.uleb128 0x2111
 5343 00c3 18       		.uleb128 0x18
 5344 00c4 00       		.byte	0
 5345 00c5 00       		.byte	0
 5346 00c6 0F       		.uleb128 0xf
 5347 00c7 898201   		.uleb128 0x4109
 5348 00ca 01       		.byte	0x1
 5349 00cb 11       		.uleb128 0x11
 5350 00cc 01       		.uleb128 0x1
 5351 00cd 31       		.uleb128 0x31
 5352 00ce 13       		.uleb128 0x13
 5353 00cf 00       		.byte	0
 5354 00d0 00       		.byte	0
 5355 00d1 10       		.uleb128 0x10
 5356 00d2 05       		.uleb128 0x5
 5357 00d3 00       		.byte	0
 5358 00d4 03       		.uleb128 0x3
 5359 00d5 0E       		.uleb128 0xe
 5360 00d6 3A       		.uleb128 0x3a
 5361 00d7 0B       		.uleb128 0xb
 5362 00d8 3B       		.uleb128 0x3b
 5363 00d9 0B       		.uleb128 0xb
 5364 00da 49       		.uleb128 0x49
 5365 00db 13       		.uleb128 0x13
 5366 00dc 02       		.uleb128 0x2
 5367 00dd 17       		.uleb128 0x17
 5368 00de 00       		.byte	0
 5369 00df 00       		.byte	0
 5370 00e0 11       		.uleb128 0x11
 5371 00e1 34       		.uleb128 0x34
 5372 00e2 00       		.byte	0
 5373 00e3 03       		.uleb128 0x3
 5374 00e4 0E       		.uleb128 0xe
 5375 00e5 3A       		.uleb128 0x3a
 5376 00e6 0B       		.uleb128 0xb
 5377 00e7 3B       		.uleb128 0x3b
 5378 00e8 0B       		.uleb128 0xb
 5379 00e9 49       		.uleb128 0x49
ARM GAS  C:\Users\RECEPC~1\AppData\Local\Temp\cc89K5zt.s 			page 110


 5380 00ea 13       		.uleb128 0x13
 5381 00eb 02       		.uleb128 0x2
 5382 00ec 18       		.uleb128 0x18
 5383 00ed 00       		.byte	0
 5384 00ee 00       		.byte	0
 5385 00ef 12       		.uleb128 0x12
 5386 00f0 898201   		.uleb128 0x4109
 5387 00f3 00       		.byte	0
 5388 00f4 11       		.uleb128 0x11
 5389 00f5 01       		.uleb128 0x1
 5390 00f6 31       		.uleb128 0x31
 5391 00f7 13       		.uleb128 0x13
 5392 00f8 00       		.byte	0
 5393 00f9 00       		.byte	0
 5394 00fa 13       		.uleb128 0x13
 5395 00fb 2E       		.uleb128 0x2e
 5396 00fc 01       		.byte	0x1
 5397 00fd 3F       		.uleb128 0x3f
 5398 00fe 19       		.uleb128 0x19
 5399 00ff 03       		.uleb128 0x3
 5400 0100 0E       		.uleb128 0xe
 5401 0101 3A       		.uleb128 0x3a
 5402 0102 0B       		.uleb128 0xb
 5403 0103 3B       		.uleb128 0x3b
 5404 0104 05       		.uleb128 0x5
 5405 0105 27       		.uleb128 0x27
 5406 0106 19       		.uleb128 0x19
 5407 0107 11       		.uleb128 0x11
 5408 0108 01       		.uleb128 0x1
 5409 0109 12       		.uleb128 0x12
 5410 010a 06       		.uleb128 0x6
 5411 010b 40       		.uleb128 0x40
 5412 010c 18       		.uleb128 0x18
 5413 010d 9742     		.uleb128 0x2117
 5414 010f 19       		.uleb128 0x19
 5415 0110 01       		.uleb128 0x1
 5416 0111 13       		.uleb128 0x13
 5417 0112 00       		.byte	0
 5418 0113 00       		.byte	0
 5419 0114 14       		.uleb128 0x14
 5420 0115 05       		.uleb128 0x5
 5421 0116 00       		.byte	0
 5422 0117 03       		.uleb128 0x3
 5423 0118 08       		.uleb128 0x8
 5424 0119 3A       		.uleb128 0x3a
 5425 011a 0B       		.uleb128 0xb
 5426 011b 3B       		.uleb128 0x3b
 5427 011c 05       		.uleb128 0x5
 5428 011d 49       		.uleb128 0x49
 5429 011e 13       		.uleb128 0x13
 5430 011f 02       		.uleb128 0x2
 5431 0120 17       		.uleb128 0x17
 5432 0121 00       		.byte	0
 5433 0122 00       		.byte	0
 5434 0123 15       		.uleb128 0x15
 5435 0124 05       		.uleb128 0x5
 5436 0125 00       		.byte	0
ARM GAS  C:\Users\RECEPC~1\AppData\Local\Temp\cc89K5zt.s 			page 111


 5437 0126 03       		.uleb128 0x3
 5438 0127 0E       		.uleb128 0xe
 5439 0128 3A       		.uleb128 0x3a
 5440 0129 0B       		.uleb128 0xb
 5441 012a 3B       		.uleb128 0x3b
 5442 012b 05       		.uleb128 0x5
 5443 012c 49       		.uleb128 0x49
 5444 012d 13       		.uleb128 0x13
 5445 012e 02       		.uleb128 0x2
 5446 012f 17       		.uleb128 0x17
 5447 0130 00       		.byte	0
 5448 0131 00       		.byte	0
 5449 0132 16       		.uleb128 0x16
 5450 0133 34       		.uleb128 0x34
 5451 0134 00       		.byte	0
 5452 0135 03       		.uleb128 0x3
 5453 0136 0E       		.uleb128 0xe
 5454 0137 3A       		.uleb128 0x3a
 5455 0138 0B       		.uleb128 0xb
 5456 0139 3B       		.uleb128 0x3b
 5457 013a 05       		.uleb128 0x5
 5458 013b 49       		.uleb128 0x49
 5459 013c 13       		.uleb128 0x13
 5460 013d 02       		.uleb128 0x2
 5461 013e 18       		.uleb128 0x18
 5462 013f 00       		.byte	0
 5463 0140 00       		.byte	0
 5464 0141 17       		.uleb128 0x17
 5465 0142 34       		.uleb128 0x34
 5466 0143 00       		.byte	0
 5467 0144 03       		.uleb128 0x3
 5468 0145 0E       		.uleb128 0xe
 5469 0146 3A       		.uleb128 0x3a
 5470 0147 0B       		.uleb128 0xb
 5471 0148 3B       		.uleb128 0x3b
 5472 0149 05       		.uleb128 0x5
 5473 014a 49       		.uleb128 0x49
 5474 014b 13       		.uleb128 0x13
 5475 014c 3F       		.uleb128 0x3f
 5476 014d 19       		.uleb128 0x19
 5477 014e 3C       		.uleb128 0x3c
 5478 014f 19       		.uleb128 0x19
 5479 0150 00       		.byte	0
 5480 0151 00       		.byte	0
 5481 0152 18       		.uleb128 0x18
 5482 0153 35       		.uleb128 0x35
 5483 0154 00       		.byte	0
 5484 0155 49       		.uleb128 0x49
 5485 0156 13       		.uleb128 0x13
 5486 0157 00       		.byte	0
 5487 0158 00       		.byte	0
 5488 0159 19       		.uleb128 0x19
 5489 015a 34       		.uleb128 0x34
 5490 015b 00       		.byte	0
 5491 015c 03       		.uleb128 0x3
 5492 015d 0E       		.uleb128 0xe
 5493 015e 3A       		.uleb128 0x3a
ARM GAS  C:\Users\RECEPC~1\AppData\Local\Temp\cc89K5zt.s 			page 112


 5494 015f 0B       		.uleb128 0xb
 5495 0160 3B       		.uleb128 0x3b
 5496 0161 0B       		.uleb128 0xb
 5497 0162 49       		.uleb128 0x49
 5498 0163 13       		.uleb128 0x13
 5499 0164 3F       		.uleb128 0x3f
 5500 0165 19       		.uleb128 0x19
 5501 0166 02       		.uleb128 0x2
 5502 0167 18       		.uleb128 0x18
 5503 0168 00       		.byte	0
 5504 0169 00       		.byte	0
 5505 016a 1A       		.uleb128 0x1a
 5506 016b 34       		.uleb128 0x34
 5507 016c 00       		.byte	0
 5508 016d 03       		.uleb128 0x3
 5509 016e 08       		.uleb128 0x8
 5510 016f 3A       		.uleb128 0x3a
 5511 0170 0B       		.uleb128 0xb
 5512 0171 3B       		.uleb128 0x3b
 5513 0172 0B       		.uleb128 0xb
 5514 0173 49       		.uleb128 0x49
 5515 0174 13       		.uleb128 0x13
 5516 0175 3F       		.uleb128 0x3f
 5517 0176 19       		.uleb128 0x19
 5518 0177 02       		.uleb128 0x2
 5519 0178 18       		.uleb128 0x18
 5520 0179 00       		.byte	0
 5521 017a 00       		.byte	0
 5522 017b 1B       		.uleb128 0x1b
 5523 017c 2E       		.uleb128 0x2e
 5524 017d 01       		.byte	0x1
 5525 017e 3F       		.uleb128 0x3f
 5526 017f 19       		.uleb128 0x19
 5527 0180 03       		.uleb128 0x3
 5528 0181 0E       		.uleb128 0xe
 5529 0182 3A       		.uleb128 0x3a
 5530 0183 0B       		.uleb128 0xb
 5531 0184 3B       		.uleb128 0x3b
 5532 0185 0B       		.uleb128 0xb
 5533 0186 27       		.uleb128 0x27
 5534 0187 19       		.uleb128 0x19
 5535 0188 3C       		.uleb128 0x3c
 5536 0189 19       		.uleb128 0x19
 5537 018a 01       		.uleb128 0x1
 5538 018b 13       		.uleb128 0x13
 5539 018c 00       		.byte	0
 5540 018d 00       		.byte	0
 5541 018e 1C       		.uleb128 0x1c
 5542 018f 05       		.uleb128 0x5
 5543 0190 00       		.byte	0
 5544 0191 49       		.uleb128 0x49
 5545 0192 13       		.uleb128 0x13
 5546 0193 00       		.byte	0
 5547 0194 00       		.byte	0
 5548 0195 1D       		.uleb128 0x1d
 5549 0196 2E       		.uleb128 0x2e
 5550 0197 01       		.byte	0x1
ARM GAS  C:\Users\RECEPC~1\AppData\Local\Temp\cc89K5zt.s 			page 113


 5551 0198 3F       		.uleb128 0x3f
 5552 0199 19       		.uleb128 0x19
 5553 019a 03       		.uleb128 0x3
 5554 019b 0E       		.uleb128 0xe
 5555 019c 3A       		.uleb128 0x3a
 5556 019d 0B       		.uleb128 0xb
 5557 019e 3B       		.uleb128 0x3b
 5558 019f 0B       		.uleb128 0xb
 5559 01a0 27       		.uleb128 0x27
 5560 01a1 19       		.uleb128 0x19
 5561 01a2 49       		.uleb128 0x49
 5562 01a3 13       		.uleb128 0x13
 5563 01a4 3C       		.uleb128 0x3c
 5564 01a5 19       		.uleb128 0x19
 5565 01a6 00       		.byte	0
 5566 01a7 00       		.byte	0
 5567 01a8 00       		.byte	0
 5568              		.section	.debug_loc,"",%progbits
 5569              	.Ldebug_loc0:
 5570              	.LLST0:
 5571 0000 00000000 		.4byte	.LVL0
 5572 0004 0A000000 		.4byte	.LVL1
 5573 0008 0100     		.2byte	0x1
 5574 000a 50       		.byte	0x50
 5575 000b 0A000000 		.4byte	.LVL1
 5576 000f 3A000000 		.4byte	.LVL10
 5577 0013 0400     		.2byte	0x4
 5578 0015 F3       		.byte	0xf3
 5579 0016 01       		.uleb128 0x1
 5580 0017 50       		.byte	0x50
 5581 0018 9F       		.byte	0x9f
 5582 0019 3A000000 		.4byte	.LVL10
 5583 001d 3C000000 		.4byte	.LVL11
 5584 0021 0100     		.2byte	0x1
 5585 0023 50       		.byte	0x50
 5586 0024 3C000000 		.4byte	.LVL11
 5587 0028 6C000000 		.4byte	.LFE63
 5588 002c 0400     		.2byte	0x4
 5589 002e F3       		.byte	0xf3
 5590 002f 01       		.uleb128 0x1
 5591 0030 50       		.byte	0x50
 5592 0031 9F       		.byte	0x9f
 5593 0032 00000000 		.4byte	0
 5594 0036 00000000 		.4byte	0
 5595              	.LLST1:
 5596 003a 00000000 		.4byte	.LVL0
 5597 003e 0D000000 		.4byte	.LVL2-1
 5598 0042 0100     		.2byte	0x1
 5599 0044 51       		.byte	0x51
 5600 0045 0D000000 		.4byte	.LVL2-1
 5601 0049 3A000000 		.4byte	.LVL10
 5602 004d 0400     		.2byte	0x4
 5603 004f F3       		.byte	0xf3
 5604 0050 01       		.uleb128 0x1
 5605 0051 51       		.byte	0x51
 5606 0052 9F       		.byte	0x9f
 5607 0053 3A000000 		.4byte	.LVL10
ARM GAS  C:\Users\RECEPC~1\AppData\Local\Temp\cc89K5zt.s 			page 114


 5608 0057 3F000000 		.4byte	.LVL12-1
 5609 005b 0100     		.2byte	0x1
 5610 005d 51       		.byte	0x51
 5611 005e 3F000000 		.4byte	.LVL12-1
 5612 0062 6C000000 		.4byte	.LFE63
 5613 0066 0400     		.2byte	0x4
 5614 0068 F3       		.byte	0xf3
 5615 0069 01       		.uleb128 0x1
 5616 006a 51       		.byte	0x51
 5617 006b 9F       		.byte	0x9f
 5618 006c 00000000 		.4byte	0
 5619 0070 00000000 		.4byte	0
 5620              	.LLST2:
 5621 0074 00000000 		.4byte	.LVL20
 5622 0078 0C000000 		.4byte	.LVL21
 5623 007c 0100     		.2byte	0x1
 5624 007e 50       		.byte	0x50
 5625 007f 0C000000 		.4byte	.LVL21
 5626 0083 84000000 		.4byte	.LVL40
 5627 0087 0400     		.2byte	0x4
 5628 0089 F3       		.byte	0xf3
 5629 008a 01       		.uleb128 0x1
 5630 008b 50       		.byte	0x50
 5631 008c 9F       		.byte	0x9f
 5632 008d 84000000 		.4byte	.LVL40
 5633 0091 86000000 		.4byte	.LVL41
 5634 0095 0100     		.2byte	0x1
 5635 0097 50       		.byte	0x50
 5636 0098 86000000 		.4byte	.LVL41
 5637 009c FE000000 		.4byte	.LFE64
 5638 00a0 0400     		.2byte	0x4
 5639 00a2 F3       		.byte	0xf3
 5640 00a3 01       		.uleb128 0x1
 5641 00a4 50       		.byte	0x50
 5642 00a5 9F       		.byte	0x9f
 5643 00a6 00000000 		.4byte	0
 5644 00aa 00000000 		.4byte	0
 5645              	.LLST3:
 5646 00ae 00000000 		.4byte	.LVL20
 5647 00b2 0F000000 		.4byte	.LVL22-1
 5648 00b6 0100     		.2byte	0x1
 5649 00b8 51       		.byte	0x51
 5650 00b9 0F000000 		.4byte	.LVL22-1
 5651 00bd 84000000 		.4byte	.LVL40
 5652 00c1 0400     		.2byte	0x4
 5653 00c3 F3       		.byte	0xf3
 5654 00c4 01       		.uleb128 0x1
 5655 00c5 51       		.byte	0x51
 5656 00c6 9F       		.byte	0x9f
 5657 00c7 84000000 		.4byte	.LVL40
 5658 00cb 89000000 		.4byte	.LVL42-1
 5659 00cf 0100     		.2byte	0x1
 5660 00d1 51       		.byte	0x51
 5661 00d2 89000000 		.4byte	.LVL42-1
 5662 00d6 FE000000 		.4byte	.LFE64
 5663 00da 0400     		.2byte	0x4
 5664 00dc F3       		.byte	0xf3
ARM GAS  C:\Users\RECEPC~1\AppData\Local\Temp\cc89K5zt.s 			page 115


 5665 00dd 01       		.uleb128 0x1
 5666 00de 51       		.byte	0x51
 5667 00df 9F       		.byte	0x9f
 5668 00e0 00000000 		.4byte	0
 5669 00e4 00000000 		.4byte	0
 5670              	.LLST4:
 5671 00e8 00000000 		.4byte	.LVL20
 5672 00ec 0F000000 		.4byte	.LVL22-1
 5673 00f0 0100     		.2byte	0x1
 5674 00f2 52       		.byte	0x52
 5675 00f3 0F000000 		.4byte	.LVL22-1
 5676 00f7 84000000 		.4byte	.LVL40
 5677 00fb 0400     		.2byte	0x4
 5678 00fd F3       		.byte	0xf3
 5679 00fe 01       		.uleb128 0x1
 5680 00ff 52       		.byte	0x52
 5681 0100 9F       		.byte	0x9f
 5682 0101 84000000 		.4byte	.LVL40
 5683 0105 89000000 		.4byte	.LVL42-1
 5684 0109 0100     		.2byte	0x1
 5685 010b 52       		.byte	0x52
 5686 010c 89000000 		.4byte	.LVL42-1
 5687 0110 FE000000 		.4byte	.LFE64
 5688 0114 0400     		.2byte	0x4
 5689 0116 F3       		.byte	0xf3
 5690 0117 01       		.uleb128 0x1
 5691 0118 52       		.byte	0x52
 5692 0119 9F       		.byte	0x9f
 5693 011a 00000000 		.4byte	0
 5694 011e 00000000 		.4byte	0
 5695              	.LLST5:
 5696 0122 00000000 		.4byte	.LVL60
 5697 0126 0C000000 		.4byte	.LVL61
 5698 012a 0100     		.2byte	0x1
 5699 012c 50       		.byte	0x50
 5700 012d 0C000000 		.4byte	.LVL61
 5701 0131 B8000000 		.4byte	.LFE65
 5702 0135 0400     		.2byte	0x4
 5703 0137 F3       		.byte	0xf3
 5704 0138 01       		.uleb128 0x1
 5705 0139 50       		.byte	0x50
 5706 013a 9F       		.byte	0x9f
 5707 013b 00000000 		.4byte	0
 5708 013f 00000000 		.4byte	0
 5709              	.LLST6:
 5710 0143 00000000 		.4byte	.LVL64
 5711 0147 0E000000 		.4byte	.LVL65
 5712 014b 0100     		.2byte	0x1
 5713 014d 50       		.byte	0x50
 5714 014e 0E000000 		.4byte	.LVL65
 5715 0152 C4000000 		.4byte	.LFE66
 5716 0156 0400     		.2byte	0x4
 5717 0158 F3       		.byte	0xf3
 5718 0159 01       		.uleb128 0x1
 5719 015a 50       		.byte	0x50
 5720 015b 9F       		.byte	0x9f
 5721 015c 00000000 		.4byte	0
ARM GAS  C:\Users\RECEPC~1\AppData\Local\Temp\cc89K5zt.s 			page 116


 5722 0160 00000000 		.4byte	0
 5723              	.LLST7:
 5724 0164 00000000 		.4byte	.LVL68
 5725 0168 0E000000 		.4byte	.LVL69
 5726 016c 0100     		.2byte	0x1
 5727 016e 50       		.byte	0x50
 5728 016f 0E000000 		.4byte	.LVL69
 5729 0173 F8000000 		.4byte	.LFE67
 5730 0177 0400     		.2byte	0x4
 5731 0179 F3       		.byte	0xf3
 5732 017a 01       		.uleb128 0x1
 5733 017b 50       		.byte	0x50
 5734 017c 9F       		.byte	0x9f
 5735 017d 00000000 		.4byte	0
 5736 0181 00000000 		.4byte	0
 5737              	.LLST8:
 5738 0185 00000000 		.4byte	.LVL72
 5739 0189 14000000 		.4byte	.LVL73
 5740 018d 0100     		.2byte	0x1
 5741 018f 50       		.byte	0x50
 5742 0190 14000000 		.4byte	.LVL73
 5743 0194 C0000000 		.4byte	.LFE68
 5744 0198 0400     		.2byte	0x4
 5745 019a F3       		.byte	0xf3
 5746 019b 01       		.uleb128 0x1
 5747 019c 50       		.byte	0x50
 5748 019d 9F       		.byte	0x9f
 5749 019e 00000000 		.4byte	0
 5750 01a2 00000000 		.4byte	0
 5751              	.LLST9:
 5752 01a6 00000000 		.4byte	.LVL72
 5753 01aa 16000000 		.4byte	.LVL74
 5754 01ae 0100     		.2byte	0x1
 5755 01b0 51       		.byte	0x51
 5756 01b1 16000000 		.4byte	.LVL74
 5757 01b5 C0000000 		.4byte	.LFE68
 5758 01b9 0400     		.2byte	0x4
 5759 01bb F3       		.byte	0xf3
 5760 01bc 01       		.uleb128 0x1
 5761 01bd 51       		.byte	0x51
 5762 01be 9F       		.byte	0x9f
 5763 01bf 00000000 		.4byte	0
 5764 01c3 00000000 		.4byte	0
 5765              	.LLST10:
 5766 01c7 00000000 		.4byte	.LVL72
 5767 01cb 18000000 		.4byte	.LVL75
 5768 01cf 0100     		.2byte	0x1
 5769 01d1 52       		.byte	0x52
 5770 01d2 18000000 		.4byte	.LVL75
 5771 01d6 C0000000 		.4byte	.LFE68
 5772 01da 0400     		.2byte	0x4
 5773 01dc F3       		.byte	0xf3
 5774 01dd 01       		.uleb128 0x1
 5775 01de 52       		.byte	0x52
 5776 01df 9F       		.byte	0x9f
 5777 01e0 00000000 		.4byte	0
 5778 01e4 00000000 		.4byte	0
ARM GAS  C:\Users\RECEPC~1\AppData\Local\Temp\cc89K5zt.s 			page 117


 5779              	.LLST11:
 5780 01e8 00000000 		.4byte	.LVL72
 5781 01ec 1A000000 		.4byte	.LVL76
 5782 01f0 0100     		.2byte	0x1
 5783 01f2 53       		.byte	0x53
 5784 01f3 1A000000 		.4byte	.LVL76
 5785 01f7 C0000000 		.4byte	.LFE68
 5786 01fb 0400     		.2byte	0x4
 5787 01fd F3       		.byte	0xf3
 5788 01fe 01       		.uleb128 0x1
 5789 01ff 53       		.byte	0x53
 5790 0200 9F       		.byte	0x9f
 5791 0201 00000000 		.4byte	0
 5792 0205 00000000 		.4byte	0
 5793              	.LLST12:
 5794 0209 00000000 		.4byte	.LVL80
 5795 020d 14000000 		.4byte	.LVL81
 5796 0211 0100     		.2byte	0x1
 5797 0213 50       		.byte	0x50
 5798 0214 14000000 		.4byte	.LVL81
 5799 0218 B8000000 		.4byte	.LFE69
 5800 021c 0400     		.2byte	0x4
 5801 021e F3       		.byte	0xf3
 5802 021f 01       		.uleb128 0x1
 5803 0220 50       		.byte	0x50
 5804 0221 9F       		.byte	0x9f
 5805 0222 00000000 		.4byte	0
 5806 0226 00000000 		.4byte	0
 5807              	.LLST13:
 5808 022a 00000000 		.4byte	.LVL80
 5809 022e 16000000 		.4byte	.LVL82
 5810 0232 0100     		.2byte	0x1
 5811 0234 51       		.byte	0x51
 5812 0235 16000000 		.4byte	.LVL82
 5813 0239 B8000000 		.4byte	.LFE69
 5814 023d 0400     		.2byte	0x4
 5815 023f F3       		.byte	0xf3
 5816 0240 01       		.uleb128 0x1
 5817 0241 51       		.byte	0x51
 5818 0242 9F       		.byte	0x9f
 5819 0243 00000000 		.4byte	0
 5820 0247 00000000 		.4byte	0
 5821              	.LLST14:
 5822 024b 00000000 		.4byte	.LVL80
 5823 024f 18000000 		.4byte	.LVL83
 5824 0253 0100     		.2byte	0x1
 5825 0255 52       		.byte	0x52
 5826 0256 18000000 		.4byte	.LVL83
 5827 025a B8000000 		.4byte	.LFE69
 5828 025e 0400     		.2byte	0x4
 5829 0260 F3       		.byte	0xf3
 5830 0261 01       		.uleb128 0x1
 5831 0262 52       		.byte	0x52
 5832 0263 9F       		.byte	0x9f
 5833 0264 00000000 		.4byte	0
 5834 0268 00000000 		.4byte	0
 5835              	.LLST15:
ARM GAS  C:\Users\RECEPC~1\AppData\Local\Temp\cc89K5zt.s 			page 118


 5836 026c 00000000 		.4byte	.LVL80
 5837 0270 1A000000 		.4byte	.LVL84
 5838 0274 0100     		.2byte	0x1
 5839 0276 53       		.byte	0x53
 5840 0277 1A000000 		.4byte	.LVL84
 5841 027b B8000000 		.4byte	.LFE69
 5842 027f 0400     		.2byte	0x4
 5843 0281 F3       		.byte	0xf3
 5844 0282 01       		.uleb128 0x1
 5845 0283 53       		.byte	0x53
 5846 0284 9F       		.byte	0x9f
 5847 0285 00000000 		.4byte	0
 5848 0289 00000000 		.4byte	0
 5849              	.LLST16:
 5850 028d 00000000 		.4byte	.LVL88
 5851 0291 0E000000 		.4byte	.LVL89
 5852 0295 0100     		.2byte	0x1
 5853 0297 50       		.byte	0x50
 5854 0298 0E000000 		.4byte	.LVL89
 5855 029c 00010000 		.4byte	.LFE70
 5856 02a0 0400     		.2byte	0x4
 5857 02a2 F3       		.byte	0xf3
 5858 02a3 01       		.uleb128 0x1
 5859 02a4 50       		.byte	0x50
 5860 02a5 9F       		.byte	0x9f
 5861 02a6 00000000 		.4byte	0
 5862 02aa 00000000 		.4byte	0
 5863              	.LLST17:
 5864 02ae 00000000 		.4byte	.LVL92
 5865 02b2 0E000000 		.4byte	.LVL93
 5866 02b6 0100     		.2byte	0x1
 5867 02b8 50       		.byte	0x50
 5868 02b9 0E000000 		.4byte	.LVL93
 5869 02bd 00010000 		.4byte	.LFE71
 5870 02c1 0400     		.2byte	0x4
 5871 02c3 F3       		.byte	0xf3
 5872 02c4 01       		.uleb128 0x1
 5873 02c5 50       		.byte	0x50
 5874 02c6 9F       		.byte	0x9f
 5875 02c7 00000000 		.4byte	0
 5876 02cb 00000000 		.4byte	0
 5877              	.LLST18:
 5878 02cf 00000000 		.4byte	.LVL96
 5879 02d3 0E000000 		.4byte	.LVL97
 5880 02d7 0100     		.2byte	0x1
 5881 02d9 50       		.byte	0x50
 5882 02da 0E000000 		.4byte	.LVL97
 5883 02de 00010000 		.4byte	.LFE72
 5884 02e2 0400     		.2byte	0x4
 5885 02e4 F3       		.byte	0xf3
 5886 02e5 01       		.uleb128 0x1
 5887 02e6 50       		.byte	0x50
 5888 02e7 9F       		.byte	0x9f
 5889 02e8 00000000 		.4byte	0
 5890 02ec 00000000 		.4byte	0
 5891              	.LLST19:
 5892 02f0 00000000 		.4byte	.LVL100
ARM GAS  C:\Users\RECEPC~1\AppData\Local\Temp\cc89K5zt.s 			page 119


 5893 02f4 0E000000 		.4byte	.LVL101
 5894 02f8 0100     		.2byte	0x1
 5895 02fa 50       		.byte	0x50
 5896 02fb 0E000000 		.4byte	.LVL101
 5897 02ff 00010000 		.4byte	.LFE73
 5898 0303 0400     		.2byte	0x4
 5899 0305 F3       		.byte	0xf3
 5900 0306 01       		.uleb128 0x1
 5901 0307 50       		.byte	0x50
 5902 0308 9F       		.byte	0x9f
 5903 0309 00000000 		.4byte	0
 5904 030d 00000000 		.4byte	0
 5905              	.LLST20:
 5906 0311 00000000 		.4byte	.LVL104
 5907 0315 0E000000 		.4byte	.LVL105
 5908 0319 0100     		.2byte	0x1
 5909 031b 50       		.byte	0x50
 5910 031c 0E000000 		.4byte	.LVL105
 5911 0320 00010000 		.4byte	.LFE74
 5912 0324 0400     		.2byte	0x4
 5913 0326 F3       		.byte	0xf3
 5914 0327 01       		.uleb128 0x1
 5915 0328 50       		.byte	0x50
 5916 0329 9F       		.byte	0x9f
 5917 032a 00000000 		.4byte	0
 5918 032e 00000000 		.4byte	0
 5919              	.LLST21:
 5920 0332 00000000 		.4byte	.LVL108
 5921 0336 0E000000 		.4byte	.LVL109
 5922 033a 0100     		.2byte	0x1
 5923 033c 50       		.byte	0x50
 5924 033d 0E000000 		.4byte	.LVL109
 5925 0341 F8000000 		.4byte	.LFE75
 5926 0345 0400     		.2byte	0x4
 5927 0347 F3       		.byte	0xf3
 5928 0348 01       		.uleb128 0x1
 5929 0349 50       		.byte	0x50
 5930 034a 9F       		.byte	0x9f
 5931 034b 00000000 		.4byte	0
 5932 034f 00000000 		.4byte	0
 5933              	.LLST22:
 5934 0353 00000000 		.4byte	.LVL112
 5935 0357 0E000000 		.4byte	.LVL113
 5936 035b 0100     		.2byte	0x1
 5937 035d 50       		.byte	0x50
 5938 035e 0E000000 		.4byte	.LVL113
 5939 0362 FC000000 		.4byte	.LFE76
 5940 0366 0400     		.2byte	0x4
 5941 0368 F3       		.byte	0xf3
 5942 0369 01       		.uleb128 0x1
 5943 036a 50       		.byte	0x50
 5944 036b 9F       		.byte	0x9f
 5945 036c 00000000 		.4byte	0
 5946 0370 00000000 		.4byte	0
 5947              	.LLST23:
 5948 0374 00000000 		.4byte	.LVL116
 5949 0378 0C000000 		.4byte	.LVL117
ARM GAS  C:\Users\RECEPC~1\AppData\Local\Temp\cc89K5zt.s 			page 120


 5950 037c 0100     		.2byte	0x1
 5951 037e 50       		.byte	0x50
 5952 037f 0C000000 		.4byte	.LVL117
 5953 0383 88000000 		.4byte	.LVL136
 5954 0387 0400     		.2byte	0x4
 5955 0389 F3       		.byte	0xf3
 5956 038a 01       		.uleb128 0x1
 5957 038b 50       		.byte	0x50
 5958 038c 9F       		.byte	0x9f
 5959 038d 88000000 		.4byte	.LVL136
 5960 0391 8A000000 		.4byte	.LVL137
 5961 0395 0100     		.2byte	0x1
 5962 0397 50       		.byte	0x50
 5963 0398 8A000000 		.4byte	.LVL137
 5964 039c 06010000 		.4byte	.LFE77
 5965 03a0 0400     		.2byte	0x4
 5966 03a2 F3       		.byte	0xf3
 5967 03a3 01       		.uleb128 0x1
 5968 03a4 50       		.byte	0x50
 5969 03a5 9F       		.byte	0x9f
 5970 03a6 00000000 		.4byte	0
 5971 03aa 00000000 		.4byte	0
 5972              	.LLST24:
 5973 03ae 00000000 		.4byte	.LVL116
 5974 03b2 0F000000 		.4byte	.LVL118-1
 5975 03b6 0100     		.2byte	0x1
 5976 03b8 51       		.byte	0x51
 5977 03b9 0F000000 		.4byte	.LVL118-1
 5978 03bd 88000000 		.4byte	.LVL136
 5979 03c1 0400     		.2byte	0x4
 5980 03c3 F3       		.byte	0xf3
 5981 03c4 01       		.uleb128 0x1
 5982 03c5 51       		.byte	0x51
 5983 03c6 9F       		.byte	0x9f
 5984 03c7 88000000 		.4byte	.LVL136
 5985 03cb 8D000000 		.4byte	.LVL138-1
 5986 03cf 0100     		.2byte	0x1
 5987 03d1 51       		.byte	0x51
 5988 03d2 8D000000 		.4byte	.LVL138-1
 5989 03d6 06010000 		.4byte	.LFE77
 5990 03da 0400     		.2byte	0x4
 5991 03dc F3       		.byte	0xf3
 5992 03dd 01       		.uleb128 0x1
 5993 03de 51       		.byte	0x51
 5994 03df 9F       		.byte	0x9f
 5995 03e0 00000000 		.4byte	0
 5996 03e4 00000000 		.4byte	0
 5997              	.LLST25:
 5998 03e8 00000000 		.4byte	.LVL116
 5999 03ec 0F000000 		.4byte	.LVL118-1
 6000 03f0 0100     		.2byte	0x1
 6001 03f2 52       		.byte	0x52
 6002 03f3 0F000000 		.4byte	.LVL118-1
 6003 03f7 88000000 		.4byte	.LVL136
 6004 03fb 0400     		.2byte	0x4
 6005 03fd F3       		.byte	0xf3
 6006 03fe 01       		.uleb128 0x1
ARM GAS  C:\Users\RECEPC~1\AppData\Local\Temp\cc89K5zt.s 			page 121


 6007 03ff 52       		.byte	0x52
 6008 0400 9F       		.byte	0x9f
 6009 0401 88000000 		.4byte	.LVL136
 6010 0405 8D000000 		.4byte	.LVL138-1
 6011 0409 0100     		.2byte	0x1
 6012 040b 52       		.byte	0x52
 6013 040c 8D000000 		.4byte	.LVL138-1
 6014 0410 06010000 		.4byte	.LFE77
 6015 0414 0400     		.2byte	0x4
 6016 0416 F3       		.byte	0xf3
 6017 0417 01       		.uleb128 0x1
 6018 0418 52       		.byte	0x52
 6019 0419 9F       		.byte	0x9f
 6020 041a 00000000 		.4byte	0
 6021 041e 00000000 		.4byte	0
 6022              		.section	.debug_aranges,"",%progbits
 6023 0000 8C000000 		.4byte	0x8c
 6024 0004 0200     		.2byte	0x2
 6025 0006 00000000 		.4byte	.Ldebug_info0
 6026 000a 04       		.byte	0x4
 6027 000b 00       		.byte	0
 6028 000c 0000     		.2byte	0
 6029 000e 0000     		.2byte	0
 6030 0010 00000000 		.4byte	.LFB63
 6031 0014 6C000000 		.4byte	.LFE63-.LFB63
 6032 0018 00000000 		.4byte	.LFB64
 6033 001c FE000000 		.4byte	.LFE64-.LFB64
 6034 0020 00000000 		.4byte	.LFB65
 6035 0024 B8000000 		.4byte	.LFE65-.LFB65
 6036 0028 00000000 		.4byte	.LFB66
 6037 002c C4000000 		.4byte	.LFE66-.LFB66
 6038 0030 00000000 		.4byte	.LFB67
 6039 0034 F8000000 		.4byte	.LFE67-.LFB67
 6040 0038 00000000 		.4byte	.LFB68
 6041 003c C0000000 		.4byte	.LFE68-.LFB68
 6042 0040 00000000 		.4byte	.LFB69
 6043 0044 B8000000 		.4byte	.LFE69-.LFB69
 6044 0048 00000000 		.4byte	.LFB70
 6045 004c 00010000 		.4byte	.LFE70-.LFB70
 6046 0050 00000000 		.4byte	.LFB71
 6047 0054 00010000 		.4byte	.LFE71-.LFB71
 6048 0058 00000000 		.4byte	.LFB72
 6049 005c 00010000 		.4byte	.LFE72-.LFB72
 6050 0060 00000000 		.4byte	.LFB73
 6051 0064 00010000 		.4byte	.LFE73-.LFB73
 6052 0068 00000000 		.4byte	.LFB74
 6053 006c 00010000 		.4byte	.LFE74-.LFB74
 6054 0070 00000000 		.4byte	.LFB75
 6055 0074 F8000000 		.4byte	.LFE75-.LFB75
 6056 0078 00000000 		.4byte	.LFB76
 6057 007c FC000000 		.4byte	.LFE76-.LFB76
 6058 0080 00000000 		.4byte	.LFB77
 6059 0084 06010000 		.4byte	.LFE77-.LFB77
 6060 0088 00000000 		.4byte	0
 6061 008c 00000000 		.4byte	0
 6062              		.section	.debug_ranges,"",%progbits
 6063              	.Ldebug_ranges0:
ARM GAS  C:\Users\RECEPC~1\AppData\Local\Temp\cc89K5zt.s 			page 122


 6064 0000 00000000 		.4byte	.LFB63
 6065 0004 6C000000 		.4byte	.LFE63
 6066 0008 00000000 		.4byte	.LFB64
 6067 000c FE000000 		.4byte	.LFE64
 6068 0010 00000000 		.4byte	.LFB65
 6069 0014 B8000000 		.4byte	.LFE65
 6070 0018 00000000 		.4byte	.LFB66
 6071 001c C4000000 		.4byte	.LFE66
 6072 0020 00000000 		.4byte	.LFB67
 6073 0024 F8000000 		.4byte	.LFE67
 6074 0028 00000000 		.4byte	.LFB68
 6075 002c C0000000 		.4byte	.LFE68
 6076 0030 00000000 		.4byte	.LFB69
 6077 0034 B8000000 		.4byte	.LFE69
 6078 0038 00000000 		.4byte	.LFB70
 6079 003c 00010000 		.4byte	.LFE70
 6080 0040 00000000 		.4byte	.LFB71
 6081 0044 00010000 		.4byte	.LFE71
 6082 0048 00000000 		.4byte	.LFB72
 6083 004c 00010000 		.4byte	.LFE72
 6084 0050 00000000 		.4byte	.LFB73
 6085 0054 00010000 		.4byte	.LFE73
 6086 0058 00000000 		.4byte	.LFB74
 6087 005c 00010000 		.4byte	.LFE74
 6088 0060 00000000 		.4byte	.LFB75
 6089 0064 F8000000 		.4byte	.LFE75
 6090 0068 00000000 		.4byte	.LFB76
 6091 006c FC000000 		.4byte	.LFE76
 6092 0070 00000000 		.4byte	.LFB77
 6093 0074 06010000 		.4byte	.LFE77
 6094 0078 00000000 		.4byte	0
 6095 007c 00000000 		.4byte	0
 6096              		.section	.debug_line,"",%progbits
 6097              	.Ldebug_line0:
 6098 0000 2A060000 		.section	.debug_str,"MS",%progbits,1
 6098      02007B01 
 6098      00000201 
 6098      FB0E0D00 
 6098      01010101 
 6099              	.LASF57:
 6100 0000 64697265 		.ascii	"direccion_LCD\000"
 6100      6363696F 
 6100      6E5F4C43 
 6100      4400
 6101              	.LASF26:
 6102 000e 70617373 		.ascii	"password\000"
 6102      776F7264 
 6102      00
 6103              	.LASF67:
 6104 0017 666C756A 		.ascii	"flujo_LCD2\000"
 6104      6F5F4C43 
 6104      443200
 6105              	.LASF31:
 6106 0022 66756E63 		.ascii	"funcion\000"
 6106      696F6E00 
 6107              	.LASF69:
 6108 002a 636F756E 		.ascii	"count_protector2\000"
ARM GAS  C:\Users\RECEPC~1\AppData\Local\Temp\cc89K5zt.s 			page 123


 6108      745F7072 
 6108      6F746563 
 6108      746F7232 
 6108      00
 6109              	.LASF111:
 6110 003b 6C61646F 		.ascii	"lado\000"
 6110      00
 6111              	.LASF70:
 6112 0040 6F6B5F4C 		.ascii	"ok_LCD1\000"
 6112      43443100 
 6113              	.LASF71:
 6114 0048 6F6B5F4C 		.ascii	"ok_LCD2\000"
 6114      43443200 
 6115              	.LASF78:
 6116 0050 76657273 		.ascii	"versurt\000"
 6116      75727400 
 6117              	.LASF118:
 6118 0058 2E5C4C43 		.ascii	".\\LCD.c\000"
 6118      442E6300 
 6119              	.LASF28:
 6120 0060 62756666 		.ascii	"buffer\000"
 6120      657200
 6121              	.LASF8:
 6122 0067 756E7369 		.ascii	"unsigned int\000"
 6122      676E6564 
 6122      20696E74 
 6122      00
 6123              	.LASF77:
 6124 0074 76657273 		.ascii	"version\000"
 6124      696F6E00 
 6125              	.LASF84:
 6126 007c 636F7272 		.ascii	"corriente2\000"
 6126      69656E74 
 6126      653200
 6127              	.LASF9:
 6128 0087 5F5F696E 		.ascii	"__int32_t\000"
 6128      7433325F 
 6128      7400
 6129              	.LASF56:
 6130 0091 47726164 		.ascii	"Grado_LCD\000"
 6130      6F5F4C43 
 6130      4400
 6131              	.LASF24:
 6132 009b 706F7376 		.ascii	"posventa\000"
 6132      656E7461 
 6132      00
 6133              	.LASF53:
 6134 00a4 4E6F6D62 		.ascii	"Nombre_LCD\000"
 6134      72655F4C 
 6134      434400
 6135              	.LASF90:
 6136 00af 7465636C 		.ascii	"teclado2\000"
 6136      61646F32 
 6136      00
 6137              	.LASF80:
 6138 00b8 64696573 		.ascii	"diesel\000"
 6138      656C00
ARM GAS  C:\Users\RECEPC~1\AppData\Local\Temp\cc89K5zt.s 			page 124


 6139              	.LASF51:
 6140 00bf 486F7261 		.ascii	"Hora_LCD\000"
 6140      5F4C4344 
 6140      00
 6141              	.LASF60:
 6142 00c8 74656C65 		.ascii	"telefono_LCD\000"
 6142      666F6E6F 
 6142      5F4C4344 
 6142      00
 6143              	.LASF19:
 6144 00d5 636F6D61 		.ascii	"comando\000"
 6144      6E646F00 
 6145              	.LASF85:
 6146 00dd 64696573 		.ascii	"diesel2\000"
 6146      656C3200 
 6147              	.LASF41:
 6148 00e5 686F7261 		.ascii	"hora\000"
 6148      00
 6149              	.LASF54:
 6150 00ea 50726563 		.ascii	"Precio_LCD\000"
 6150      696F5F4C 
 6150      434400
 6151              	.LASF74:
 6152 00f5 7465636C 		.ascii	"teclas2\000"
 6152      61733200 
 6153              	.LASF59:
 6154 00fd 6C656D61 		.ascii	"lema2_LCD\000"
 6154      325F4C43 
 6154      4400
 6155              	.LASF47:
 6156 0107 7464696E 		.ascii	"tdinero\000"
 6156      65726F00 
 6157              	.LASF42:
 6158 010f 706F7369 		.ascii	"posicion\000"
 6158      63696F6E 
 6158      00
 6159              	.LASF113:
 6160 0118 7276656E 		.ascii	"rventa2\000"
 6160      74613200 
 6161              	.LASF95:
 6162 0120 64656369 		.ascii	"decimalD\000"
 6162      6D616C44 
 6162      00
 6163              	.LASF37:
 6164 0129 64697265 		.ascii	"direccion\000"
 6164      6363696F 
 6164      6E00
 6165              	.LASF20:
 6166 0133 70726573 		.ascii	"preset\000"
 6166      657400
 6167              	.LASF14:
 6168 013a 666C6F61 		.ascii	"float\000"
 6168      7400
 6169              	.LASF87:
 6170 0140 62756666 		.ascii	"buffer_i2c\000"
 6170      65725F69 
 6170      326300
ARM GAS  C:\Users\RECEPC~1\AppData\Local\Temp\cc89K5zt.s 			page 125


 6171              	.LASF38:
 6172 014b 6C656D61 		.ascii	"lema1\000"
 6172      3100
 6173              	.LASF39:
 6174 0151 6C656D61 		.ascii	"lema2\000"
 6174      3200
 6175              	.LASF7:
 6176 0157 6C6F6E67 		.ascii	"long long unsigned int\000"
 6176      206C6F6E 
 6176      6720756E 
 6176      7369676E 
 6176      65642069 
 6177              	.LASF114:
 6178 016e 4C43445F 		.ascii	"LCD_1_PutChar\000"
 6178      315F5075 
 6178      74436861 
 6178      7200
 6179              	.LASF89:
 6180 017c 7465636C 		.ascii	"teclado\000"
 6180      61646F00 
 6181              	.LASF22:
 6182 0184 6375656E 		.ascii	"cuenta\000"
 6182      746100
 6183              	.LASF23:
 6184 018b 706C6163 		.ascii	"placa\000"
 6184      6100
 6185              	.LASF81:
 6186 0191 636F7272 		.ascii	"corriente\000"
 6186      69656E74 
 6186      6500
 6187              	.LASF104:
 6188 019b 6E6F5F76 		.ascii	"no_venta\000"
 6188      656E7461 
 6188      00
 6189              	.LASF45:
 6190 01a4 766F6C75 		.ascii	"volumen\000"
 6190      6D656E00 
 6191              	.LASF36:
 6192 01ac 74656C65 		.ascii	"telefono\000"
 6192      666F6E6F 
 6192      00
 6193              	.LASF83:
 6194 01b5 65787472 		.ascii	"extra2\000"
 6194      613200
 6195              	.LASF103:
 6196 01bc 69645F76 		.ascii	"id_venta\000"
 6196      656E7461 
 6196      00
 6197              	.LASF46:
 6198 01c5 74766F6C 		.ascii	"tvolumen\000"
 6198      756D656E 
 6198      00
 6199              	.LASF61:
 6200 01ce 6E69745F 		.ascii	"nit_LCD\000"
 6200      4C434400 
 6201              	.LASF96:
 6202 01d6 66656368 		.ascii	"fecha_corte\000"
ARM GAS  C:\Users\RECEPC~1\AppData\Local\Temp\cc89K5zt.s 			page 126


 6202      615F636F 
 6202      72746500 
 6203              	.LASF16:
 6204 01e2 63686172 		.ascii	"char\000"
 6204      00
 6205              	.LASF12:
 6206 01e7 75696E74 		.ascii	"uint16\000"
 6206      313600
 6207              	.LASF108:
 6208 01ee 6D6F6475 		.ascii	"modulo\000"
 6208      6C6F00
 6209              	.LASF99:
 6210 01f5 7072696E 		.ascii	"print1\000"
 6210      743100
 6211              	.LASF100:
 6212 01fc 7072696E 		.ascii	"print2\000"
 6212      743200
 6213              	.LASF50:
 6214 0203 6461746F 		.ascii	"dato\000"
 6214      00
 6215              	.LASF27:
 6216 0208 7475726E 		.ascii	"turno\000"
 6216      6F00
 6217              	.LASF86:
 6218 020e 6B65726F 		.ascii	"kero2\000"
 6218      3200
 6219              	.LASF106:
 6220 0214 42756666 		.ascii	"Buffer_LCD2\000"
 6220      65725F4C 
 6220      43443200 
 6221              	.LASF6:
 6222 0220 6C6F6E67 		.ascii	"long long int\000"
 6222      206C6F6E 
 6222      6720696E 
 6222      7400
 6223              	.LASF43:
 6224 022e 70726F64 		.ascii	"producto\000"
 6224      7563746F 
 6224      00
 6225              	.LASF35:
 6226 0237 636F6E66 		.ascii	"configppu\000"
 6226      69677070 
 6226      7500
 6227              	.LASF119:
 6228 0241 433A5C55 		.ascii	"C:\\Users\\Recepcion\\Documents\\NMUX\\Unificada\\U"
 6228      73657273 
 6228      5C526563 
 6228      65706369 
 6228      6F6E5C44 
 6229 026e 6E696669 		.ascii	"nificada.cydsn\000"
 6229      63616461 
 6229      2E637964 
 6229      736E00
 6230              	.LASF25:
 6231 027d 63656475 		.ascii	"cedula\000"
 6231      6C6100
 6232              	.LASF115:
ARM GAS  C:\Users\RECEPC~1\AppData\Local\Temp\cc89K5zt.s 			page 127


 6233 0284 4C43445F 		.ascii	"LCD_2_PutChar\000"
 6233      325F5075 
 6233      74436861 
 6233      7200
 6234              	.LASF62:
 6235 0292 4375656E 		.ascii	"Cuenta_LCD\000"
 6235      74615F4C 
 6235      434400
 6236              	.LASF18:
 6237 029d 73697A65 		.ascii	"size\000"
 6237      00
 6238              	.LASF49:
 6239 02a2 77726974 		.ascii	"write_LCD\000"
 6239      655F4C43 
 6239      4400
 6240              	.LASF13:
 6241 02ac 75696E74 		.ascii	"uint32\000"
 6241      333200
 6242              	.LASF102:
 6243 02b3 69645F63 		.ascii	"id_corte\000"
 6243      6F727465 
 6243      00
 6244              	.LASF33:
 6245 02bc 72656369 		.ascii	"recibo\000"
 6245      626F00
 6246              	.LASF44:
 6247 02c3 64696E65 		.ascii	"dinero\000"
 6247      726F00
 6248              	.LASF105:
 6249 02ca 42756666 		.ascii	"Buffer_LCD1\000"
 6249      65725F4C 
 6249      43443100 
 6250              	.LASF29:
 6251 02d6 65737461 		.ascii	"estado\000"
 6251      646F00
 6252              	.LASF116:
 6253 02dd 6C656572 		.ascii	"leer_eeprom\000"
 6253      5F656570 
 6253      726F6D00 
 6254              	.LASF52:
 6255 02e9 46656368 		.ascii	"Fecha_LCD\000"
 6255      615F4C43 
 6255      4400
 6256              	.LASF117:
 6257 02f3 474E5520 		.ascii	"GNU C 4.8.4 20140526 (release) [ARM/embedded-4_8-br"
 6257      4320342E 
 6257      382E3420 
 6257      32303134 
 6257      30353236 
 6258 0326 616E6368 		.ascii	"anch revision 211358] -mcpu=cortex-m3 -mthumb -g -O"
 6258      20726576 
 6258      6973696F 
 6258      6E203231 
 6258      31333538 
 6259 0359 67202D66 		.ascii	"g -ffunction-sections\000"
 6259      66756E63 
 6259      74696F6E 
ARM GAS  C:\Users\RECEPC~1\AppData\Local\Temp\cc89K5zt.s 			page 128


 6259      2D736563 
 6259      74696F6E 
 6260              	.LASF58:
 6261 036f 6C656D61 		.ascii	"lema1_LCD\000"
 6261      315F4C43 
 6261      4400
 6262              	.LASF55:
 6263 0379 65657072 		.ascii	"eeprom\000"
 6263      6F6D00
 6264              	.LASF91:
 6265 0380 70707578 		.ascii	"ppux10\000"
 6265      313000
 6266              	.LASF73:
 6267 0387 7465636C 		.ascii	"teclas1\000"
 6267      61733100 
 6268              	.LASF34:
 6269 038f 6E6F6D62 		.ascii	"nombre\000"
 6269      726500
 6270              	.LASF98:
 6271 0396 6372635F 		.ascii	"crc_total\000"
 6271      746F7461 
 6271      6C00
 6272              	.LASF66:
 6273 03a0 666C756A 		.ascii	"flujo_LCD\000"
 6273      6F5F4C43 
 6273      4400
 6274              	.LASF97:
 6275 03aa 706F735F 		.ascii	"pos_ibutton\000"
 6275      69627574 
 6275      746F6E00 
 6276              	.LASF2:
 6277 03b6 73686F72 		.ascii	"short int\000"
 6277      7420696E 
 6277      7400
 6278              	.LASF4:
 6279 03c0 6C6F6E67 		.ascii	"long int\000"
 6279      20696E74 
 6279      00
 6280              	.LASF101:
 6281 03c9 636F7069 		.ascii	"copia_recibo\000"
 6281      615F7265 
 6281      6369626F 
 6281      00
 6282              	.LASF65:
 6283 03d6 49544D5F 		.ascii	"ITM_RxBuffer\000"
 6283      52784275 
 6283      66666572 
 6283      00
 6284              	.LASF32:
 6285 03e3 73757274 		.ascii	"surtidor\000"
 6285      69646F72 
 6285      00
 6286              	.LASF75:
 6287 03ec 636F6D61 		.ascii	"comas1\000"
 6287      733100
 6288              	.LASF76:
 6289 03f3 636F6D61 		.ascii	"comas2\000"
ARM GAS  C:\Users\RECEPC~1\AppData\Local\Temp\cc89K5zt.s 			page 129


 6289      733200
 6290              	.LASF48:
 6291 03fa 7365745F 		.ascii	"set_imagen\000"
 6291      696D6167 
 6291      656E00
 6292              	.LASF109:
 6293 0405 70726F64 		.ascii	"producto1\000"
 6293      7563746F 
 6293      3100
 6294              	.LASF110:
 6295 040f 70726F64 		.ascii	"producto2\000"
 6295      7563746F 
 6295      3200
 6296              	.LASF107:
 6297 0419 65737461 		.ascii	"estado_0\000"
 6297      646F5F30 
 6297      00
 6298              	.LASF79:
 6299 0422 65787472 		.ascii	"extra\000"
 6299      6100
 6300              	.LASF72:
 6301 0428 636F6E74 		.ascii	"cont1\000"
 6301      3100
 6302              	.LASF17:
 6303 042e 73697A65 		.ascii	"sizetype\000"
 6303      74797065 
 6303      00
 6304              	.LASF5:
 6305 0437 6C6F6E67 		.ascii	"long unsigned int\000"
 6305      20756E73 
 6305      69676E65 
 6305      6420696E 
 6305      7400
 6306              	.LASF92:
 6307 0449 62616E64 		.ascii	"bandera\000"
 6307      65726100 
 6308              	.LASF10:
 6309 0451 696E7433 		.ascii	"int32_t\000"
 6309      325F7400 
 6310              	.LASF1:
 6311 0459 756E7369 		.ascii	"unsigned char\000"
 6311      676E6564 
 6311      20636861 
 6311      7200
 6312              	.LASF88:
 6313 0467 72657375 		.ascii	"resultado\000"
 6313      6C746164 
 6313      6F00
 6314              	.LASF40:
 6315 0471 66656368 		.ascii	"fecha\000"
 6315      6100
 6316              	.LASF63:
 6317 0477 506C6163 		.ascii	"Placa_LCD\000"
 6317      615F4C43 
 6317      4400
 6318              	.LASF0:
 6319 0481 7369676E 		.ascii	"signed char\000"
ARM GAS  C:\Users\RECEPC~1\AppData\Local\Temp\cc89K5zt.s 			page 130


 6319      65642063 
 6319      68617200 
 6320              	.LASF21:
 6321 048d 76616C6F 		.ascii	"valor\000"
 6321      7200
 6322              	.LASF68:
 6323 0493 636F756E 		.ascii	"count_protector\000"
 6323      745F7072 
 6323      6F746563 
 6323      746F7200 
 6324              	.LASF3:
 6325 04a3 73686F72 		.ascii	"short unsigned int\000"
 6325      7420756E 
 6325      7369676E 
 6325      65642069 
 6325      6E7400
 6326              	.LASF64:
 6327 04b6 77726974 		.ascii	"writemini_LCD\000"
 6327      656D696E 
 6327      695F4C43 
 6327      4400
 6328              	.LASF94:
 6329 04c4 64656369 		.ascii	"decimalV\000"
 6329      6D616C56 
 6329      00
 6330              	.LASF11:
 6331 04cd 75696E74 		.ascii	"uint8\000"
 6331      3800
 6332              	.LASF15:
 6333 04d3 646F7562 		.ascii	"double\000"
 6333      6C6500
 6334              	.LASF82:
 6335 04da 6B65726F 		.ascii	"kero\000"
 6335      00
 6336              	.LASF93:
 6337 04df 7469706F 		.ascii	"tipo_imp\000"
 6337      5F696D70 
 6337      00
 6338              	.LASF30:
 6339 04e8 6D616E67 		.ascii	"manguera\000"
 6339      75657261 
 6339      00
 6340              	.LASF112:
 6341 04f1 7276656E 		.ascii	"rventa\000"
 6341      746100
 6342              		.ident	"GCC: (GNU Tools for ARM Embedded Processors) 4.8.4 20140526 (release) [ARM/embedded-4_8-br
