ARM GAS  C:\Users\RECEPC~1\AppData\Local\Temp\cc89K5zt.s 			page 1


   1              		.syntax unified
   2              		.cpu cortex-m3
   3              		.fpu softvfp
   4              		.eabi_attribute 20, 1
   5              		.eabi_attribute 21, 1
   6              		.eabi_attribute 23, 3
   7              		.eabi_attribute 24, 1
   8              		.eabi_attribute 25, 1
   9              		.eabi_attribute 26, 1
  10              		.eabi_attribute 30, 1
  11              		.eabi_attribute 34, 1
  12              		.eabi_attribute 18, 4
  13              		.thumb
  14              		.file	"LCD.c"
  15              		.text
  16              	.Ltext0:
  17              		.cfi_sections	.debug_frame
  18              		.section	.text.set_imagen,"ax",%progbits
  19              		.align	2
  20              		.global	set_imagen
  21              		.thumb
  22              		.thumb_func
  23              		.type	set_imagen, %function
  24              	set_imagen:
  25              	.LFB63:
  26              		.file 1 ".\\LCD.c"
   1:.\LCD.c       **** /*
   2:.\LCD.c       **** ***************************************************************************************************
   3:.\LCD.c       **** *                                           GRP550M CODE
   4:.\LCD.c       **** *
   5:.\LCD.c       **** *                             (c) Copyright 2013; Sistemas Insepet LTDA
   6:.\LCD.c       **** *
   7:.\LCD.c       **** *               All rights reserved.  Protected by international copyright laws.
   8:.\LCD.c       **** *               Knowledge of the source code may NOT be used to develop a similar product.
   9:.\LCD.c       **** *               Please help us continue to provide the Embedded community with the finest
  10:.\LCD.c       **** *               software available.  Your honesty is greatly appreciated.
  11:.\LCD.c       **** ***************************************************************************************************
  12:.\LCD.c       **** */
  13:.\LCD.c       **** 
  14:.\LCD.c       **** /*
  15:.\LCD.c       **** ***************************************************************************************************
  16:.\LCD.c       **** *
  17:.\LCD.c       **** *                                               GRP550M CODE
  18:.\LCD.c       **** *
  19:.\LCD.c       **** *                                             CYPRESS PSoC5LP
  20:.\LCD.c       **** *                                                with the
  21:.\LCD.c       **** *                                            CY8C5969AXI-LP035
  22:.\LCD.c       **** *
  23:.\LCD.c       **** * Filename      : LCD.c
  24:.\LCD.c       **** * Version       : V1.00
  25:.\LCD.c       **** * Programmer(s) : 
  26:.\LCD.c       ****                   
  27:.\LCD.c       **** ***************************************************************************************************
  28:.\LCD.c       **** */
  29:.\LCD.c       **** 
  30:.\LCD.c       **** /*
  31:.\LCD.c       **** ***************************************************************************************************
ARM GAS  C:\Users\RECEPC~1\AppData\Local\Temp\cc89K5zt.s 			page 2


  32:.\LCD.c       **** *                                             INCLUDE FILES
  33:.\LCD.c       **** ***************************************************************************************************
  34:.\LCD.c       **** */
  35:.\LCD.c       **** #include <device.h>
  36:.\LCD.c       **** #include "VariablesG.h"
  37:.\LCD.c       **** #include "I2C.h"
  38:.\LCD.c       **** 
  39:.\LCD.c       **** /*
  40:.\LCD.c       **** ***************************************************************************************************
  41:.\LCD.c       **** *                                        void set_imagen(uint8 lcd, uint16 id)
  42:.\LCD.c       **** *
  43:.\LCD.c       **** * Description : 
  44:.\LCD.c       **** *               
  45:.\LCD.c       **** *
  46:.\LCD.c       **** * Argument(s) : none
  47:.\LCD.c       **** *
  48:.\LCD.c       **** * Return(s)   : none
  49:.\LCD.c       **** *
  50:.\LCD.c       **** * Caller(s)   : 
  51:.\LCD.c       **** *
  52:.\LCD.c       **** * Note(s)     : none.
  53:.\LCD.c       **** ***************************************************************************************************
  54:.\LCD.c       **** */
  55:.\LCD.c       **** void set_imagen(uint8 lcd, uint16 id){
  27              		.loc 1 55 0
  28              		.cfi_startproc
  29              		@ args = 0, pretend = 0, frame = 0
  30              		@ frame_needed = 0, uses_anonymous_args = 0
  31              	.LVL0:
  32 0000 10B5     		push	{r4, lr}
  33              		.cfi_def_cfa_offset 8
  34              		.cfi_offset 4, -8
  35              		.cfi_offset 14, -4
  36 0002 0C46     		mov	r4, r1
  56:.\LCD.c       ****     if(lcd==1){
  37              		.loc 1 56 0
  38 0004 0128     		cmp	r0, #1
  39 0006 18D1     		bne	.L2
  57:.\LCD.c       ****         LCD_1_PutChar(0xAA);
  40              		.loc 1 57 0
  41 0008 AA20     		movs	r0, #170
  42              	.LVL1:
  43 000a FFF7FEFF 		bl	LCD_1_PutChar
  44              	.LVL2:
  58:.\LCD.c       ****         LCD_1_PutChar(0x70);
  45              		.loc 1 58 0
  46 000e 7020     		movs	r0, #112
  47 0010 FFF7FEFF 		bl	LCD_1_PutChar
  48              	.LVL3:
  59:.\LCD.c       ****         LCD_1_PutChar(((id>>8)&0xFF));
  49              		.loc 1 59 0
  50 0014 200A     		lsrs	r0, r4, #8
  51 0016 FFF7FEFF 		bl	LCD_1_PutChar
  52              	.LVL4:
  60:.\LCD.c       ****         LCD_1_PutChar((id&0xFF));
  53              		.loc 1 60 0
  54 001a E0B2     		uxtb	r0, r4
ARM GAS  C:\Users\RECEPC~1\AppData\Local\Temp\cc89K5zt.s 			page 3


  55 001c FFF7FEFF 		bl	LCD_1_PutChar
  56              	.LVL5:
  61:.\LCD.c       ****         LCD_1_PutChar(0xCC);
  57              		.loc 1 61 0
  58 0020 CC20     		movs	r0, #204
  59 0022 FFF7FEFF 		bl	LCD_1_PutChar
  60              	.LVL6:
  62:.\LCD.c       ****         LCD_1_PutChar(0x33);
  61              		.loc 1 62 0
  62 0026 3320     		movs	r0, #51
  63 0028 FFF7FEFF 		bl	LCD_1_PutChar
  64              	.LVL7:
  63:.\LCD.c       ****         LCD_1_PutChar(0xC3);
  65              		.loc 1 63 0
  66 002c C320     		movs	r0, #195
  67 002e FFF7FEFF 		bl	LCD_1_PutChar
  68              	.LVL8:
  64:.\LCD.c       ****         LCD_1_PutChar(0x3C);
  69              		.loc 1 64 0
  70 0032 3C20     		movs	r0, #60
  71 0034 FFF7FEFF 		bl	LCD_1_PutChar
  72              	.LVL9:
  73 0038 10BD     		pop	{r4, pc}
  74              	.LVL10:
  75              	.L2:
  65:.\LCD.c       ****     }
  66:.\LCD.c       ****     else{
  67:.\LCD.c       ****        	LCD_2_PutChar(0xAA);
  76              		.loc 1 67 0
  77 003a AA20     		movs	r0, #170
  78              	.LVL11:
  79 003c FFF7FEFF 		bl	LCD_2_PutChar
  80              	.LVL12:
  68:.\LCD.c       ****         LCD_2_PutChar(0x70);
  81              		.loc 1 68 0
  82 0040 7020     		movs	r0, #112
  83 0042 FFF7FEFF 		bl	LCD_2_PutChar
  84              	.LVL13:
  69:.\LCD.c       ****         LCD_2_PutChar(((id>>8)&0xFF));
  85              		.loc 1 69 0
  86 0046 200A     		lsrs	r0, r4, #8
  87 0048 FFF7FEFF 		bl	LCD_2_PutChar
  88              	.LVL14:
  70:.\LCD.c       ****         LCD_2_PutChar((id&0xFF));
  89              		.loc 1 70 0
  90 004c E0B2     		uxtb	r0, r4
  91 004e FFF7FEFF 		bl	LCD_2_PutChar
  92              	.LVL15:
  71:.\LCD.c       ****         LCD_2_PutChar(0xCC);
  93              		.loc 1 71 0
  94 0052 CC20     		movs	r0, #204
  95 0054 FFF7FEFF 		bl	LCD_2_PutChar
  96              	.LVL16:
  72:.\LCD.c       ****         LCD_2_PutChar(0x33);
  97              		.loc 1 72 0
  98 0058 3320     		movs	r0, #51
  99 005a FFF7FEFF 		bl	LCD_2_PutChar
ARM GAS  C:\Users\RECEPC~1\AppData\Local\Temp\cc89K5zt.s 			page 4


 100              	.LVL17:
  73:.\LCD.c       ****         LCD_2_PutChar(0xC3);
 101              		.loc 1 73 0
 102 005e C320     		movs	r0, #195
 103 0060 FFF7FEFF 		bl	LCD_2_PutChar
 104              	.LVL18:
  74:.\LCD.c       ****         LCD_2_PutChar(0x3C);   		 
 105              		.loc 1 74 0
 106 0064 3C20     		movs	r0, #60
 107 0066 FFF7FEFF 		bl	LCD_2_PutChar
 108              	.LVL19:
 109 006a 10BD     		pop	{r4, pc}
 110              		.cfi_endproc
 111              	.LFE63:
 112              		.size	set_imagen, .-set_imagen
 113              		.section	.text.write_LCD,"ax",%progbits
 114              		.align	2
 115              		.global	write_LCD
 116              		.thumb
 117              		.thumb_func
 118              		.type	write_LCD, %function
 119              	write_LCD:
 120              	.LFB64:
  75:.\LCD.c       ****     }
  76:.\LCD.c       **** }
  77:.\LCD.c       **** 
  78:.\LCD.c       **** /*
  79:.\LCD.c       **** ***************************************************************************************************
  80:.\LCD.c       **** *                                 void write_LCD(uint8 lcd, uint8 dato, uint8 pos)
  81:.\LCD.c       **** *
  82:.\LCD.c       **** * Description : 
  83:.\LCD.c       **** *               
  84:.\LCD.c       **** *
  85:.\LCD.c       **** * Argument(s) : none
  86:.\LCD.c       **** *
  87:.\LCD.c       **** * Return(s)   : none
  88:.\LCD.c       **** *
  89:.\LCD.c       **** * Caller(s)   : 
  90:.\LCD.c       **** *
  91:.\LCD.c       **** * Note(s)     : none.
  92:.\LCD.c       **** ***************************************************************************************************
  93:.\LCD.c       **** */
  94:.\LCD.c       **** void write_LCD(uint8 lcd, uint8 dato, uint8 pos){
 121              		.loc 1 94 0
 122              		.cfi_startproc
 123              		@ args = 0, pretend = 0, frame = 0
 124              		@ frame_needed = 0, uses_anonymous_args = 0
 125              	.LVL20:
 126 0000 38B5     		push	{r3, r4, r5, lr}
 127              		.cfi_def_cfa_offset 16
 128              		.cfi_offset 3, -16
 129              		.cfi_offset 4, -12
 130              		.cfi_offset 5, -8
 131              		.cfi_offset 14, -4
 132 0002 0D46     		mov	r5, r1
 133 0004 1446     		mov	r4, r2
  95:.\LCD.c       ****     if(lcd==1){
ARM GAS  C:\Users\RECEPC~1\AppData\Local\Temp\cc89K5zt.s 			page 5


 134              		.loc 1 95 0
 135 0006 0128     		cmp	r0, #1
 136 0008 3CD1     		bne	.L5
  96:.\LCD.c       ****         LCD_1_PutChar(0xAA);
 137              		.loc 1 96 0
 138 000a AA20     		movs	r0, #170
 139              	.LVL21:
 140 000c FFF7FEFF 		bl	LCD_1_PutChar
 141              	.LVL22:
  97:.\LCD.c       ****         LCD_1_PutChar(0x98);
 142              		.loc 1 97 0
 143 0010 9820     		movs	r0, #152
 144 0012 FFF7FEFF 		bl	LCD_1_PutChar
 145              	.LVL23:
  98:.\LCD.c       ****         LCD_1_PutChar(0x00);
 146              		.loc 1 98 0
 147 0016 0020     		movs	r0, #0
 148 0018 FFF7FEFF 		bl	LCD_1_PutChar
 149              	.LVL24:
  99:.\LCD.c       ****         LCD_1_PutChar((0x3F)+(0x19*pos));
 150              		.loc 1 99 0
 151 001c 04EB8404 		add	r4, r4, r4, lsl #2
 152 0020 04EB8404 		add	r4, r4, r4, lsl #2
 153 0024 04F13F00 		add	r0, r4, #63
 154 0028 C0B2     		uxtb	r0, r0
 155 002a FFF7FEFF 		bl	LCD_1_PutChar
 156              	.LVL25:
 100:.\LCD.c       ****         LCD_1_PutChar(0x00);
 157              		.loc 1 100 0
 158 002e 0020     		movs	r0, #0
 159 0030 FFF7FEFF 		bl	LCD_1_PutChar
 160              	.LVL26:
 101:.\LCD.c       ****         LCD_1_PutChar(0x23);
 161              		.loc 1 101 0
 162 0034 2320     		movs	r0, #35
 163 0036 FFF7FEFF 		bl	LCD_1_PutChar
 164              	.LVL27:
 102:.\LCD.c       ****         LCD_1_PutChar(0x24);
 165              		.loc 1 102 0
 166 003a 2420     		movs	r0, #36
 167 003c FFF7FEFF 		bl	LCD_1_PutChar
 168              	.LVL28:
 103:.\LCD.c       ****         LCD_1_PutChar(0xC5);
 169              		.loc 1 103 0
 170 0040 C520     		movs	r0, #197
 171 0042 FFF7FEFF 		bl	LCD_1_PutChar
 172              	.LVL29:
 104:.\LCD.c       ****         LCD_1_PutChar(0x02);
 173              		.loc 1 104 0
 174 0046 0220     		movs	r0, #2
 175 0048 FFF7FEFF 		bl	LCD_1_PutChar
 176              	.LVL30:
 105:.\LCD.c       ****         LCD_1_PutChar(0x00);
 177              		.loc 1 105 0
 178 004c 0020     		movs	r0, #0
 179 004e FFF7FEFF 		bl	LCD_1_PutChar
 180              	.LVL31:
ARM GAS  C:\Users\RECEPC~1\AppData\Local\Temp\cc89K5zt.s 			page 6


 106:.\LCD.c       ****         LCD_1_PutChar(0x00);
 181              		.loc 1 106 0
 182 0052 0020     		movs	r0, #0
 183 0054 FFF7FEFF 		bl	LCD_1_PutChar
 184              	.LVL32:
 107:.\LCD.c       ****         LCD_1_PutChar(0xFF);
 185              		.loc 1 107 0
 186 0058 FF20     		movs	r0, #255
 187 005a FFF7FEFF 		bl	LCD_1_PutChar
 188              	.LVL33:
 108:.\LCD.c       ****         LCD_1_PutChar(0xFF);
 189              		.loc 1 108 0
 190 005e FF20     		movs	r0, #255
 191 0060 FFF7FEFF 		bl	LCD_1_PutChar
 192              	.LVL34:
 109:.\LCD.c       ****         LCD_1_PutChar(dato);
 193              		.loc 1 109 0
 194 0064 2846     		mov	r0, r5
 195 0066 FFF7FEFF 		bl	LCD_1_PutChar
 196              	.LVL35:
 110:.\LCD.c       ****         LCD_1_PutChar(0xCC);
 197              		.loc 1 110 0
 198 006a CC20     		movs	r0, #204
 199 006c FFF7FEFF 		bl	LCD_1_PutChar
 200              	.LVL36:
 111:.\LCD.c       ****         LCD_1_PutChar(0x33);
 201              		.loc 1 111 0
 202 0070 3320     		movs	r0, #51
 203 0072 FFF7FEFF 		bl	LCD_1_PutChar
 204              	.LVL37:
 112:.\LCD.c       ****         LCD_1_PutChar(0xC3);
 205              		.loc 1 112 0
 206 0076 C320     		movs	r0, #195
 207 0078 FFF7FEFF 		bl	LCD_1_PutChar
 208              	.LVL38:
 113:.\LCD.c       ****         LCD_1_PutChar(0x3C);
 209              		.loc 1 113 0
 210 007c 3C20     		movs	r0, #60
 211 007e FFF7FEFF 		bl	LCD_1_PutChar
 212              	.LVL39:
 213 0082 38BD     		pop	{r3, r4, r5, pc}
 214              	.LVL40:
 215              	.L5:
 114:.\LCD.c       ****     }
 115:.\LCD.c       ****     else{
 116:.\LCD.c       ****         LCD_2_PutChar(0xAA);
 216              		.loc 1 116 0
 217 0084 AA20     		movs	r0, #170
 218              	.LVL41:
 219 0086 FFF7FEFF 		bl	LCD_2_PutChar
 220              	.LVL42:
 117:.\LCD.c       ****         LCD_2_PutChar(0x98);
 221              		.loc 1 117 0
 222 008a 9820     		movs	r0, #152
 223 008c FFF7FEFF 		bl	LCD_2_PutChar
 224              	.LVL43:
 118:.\LCD.c       ****         LCD_2_PutChar(0x00);
ARM GAS  C:\Users\RECEPC~1\AppData\Local\Temp\cc89K5zt.s 			page 7


 225              		.loc 1 118 0
 226 0090 0020     		movs	r0, #0
 227 0092 FFF7FEFF 		bl	LCD_2_PutChar
 228              	.LVL44:
 119:.\LCD.c       ****         LCD_2_PutChar((0x3F)+(0x19*pos));
 229              		.loc 1 119 0
 230 0096 04EB8404 		add	r4, r4, r4, lsl #2
 231 009a 04EB8404 		add	r4, r4, r4, lsl #2
 232 009e 04F13F00 		add	r0, r4, #63
 233 00a2 C0B2     		uxtb	r0, r0
 234 00a4 FFF7FEFF 		bl	LCD_2_PutChar
 235              	.LVL45:
 120:.\LCD.c       ****         LCD_2_PutChar(0x00);
 236              		.loc 1 120 0
 237 00a8 0020     		movs	r0, #0
 238 00aa FFF7FEFF 		bl	LCD_2_PutChar
 239              	.LVL46:
 121:.\LCD.c       ****         LCD_2_PutChar(0x23);
 240              		.loc 1 121 0
 241 00ae 2320     		movs	r0, #35
 242 00b0 FFF7FEFF 		bl	LCD_2_PutChar
 243              	.LVL47:
 122:.\LCD.c       ****         LCD_2_PutChar(0x24);
 244              		.loc 1 122 0
 245 00b4 2420     		movs	r0, #36
 246 00b6 FFF7FEFF 		bl	LCD_2_PutChar
 247              	.LVL48:
 123:.\LCD.c       ****         LCD_2_PutChar(0xC5);
 248              		.loc 1 123 0
 249 00ba C520     		movs	r0, #197
 250 00bc FFF7FEFF 		bl	LCD_2_PutChar
 251              	.LVL49:
 124:.\LCD.c       ****         LCD_2_PutChar(0x02);
 252              		.loc 1 124 0
 253 00c0 0220     		movs	r0, #2
 254 00c2 FFF7FEFF 		bl	LCD_2_PutChar
 255              	.LVL50:
 125:.\LCD.c       ****         LCD_2_PutChar(0x00);
 256              		.loc 1 125 0
 257 00c6 0020     		movs	r0, #0
 258 00c8 FFF7FEFF 		bl	LCD_2_PutChar
 259              	.LVL51:
 126:.\LCD.c       ****         LCD_2_PutChar(0x00);
 260              		.loc 1 126 0
 261 00cc 0020     		movs	r0, #0
 262 00ce FFF7FEFF 		bl	LCD_2_PutChar
 263              	.LVL52:
 127:.\LCD.c       ****         LCD_2_PutChar(0xFF);
 264              		.loc 1 127 0
 265 00d2 FF20     		movs	r0, #255
 266 00d4 FFF7FEFF 		bl	LCD_2_PutChar
 267              	.LVL53:
 128:.\LCD.c       ****         LCD_2_PutChar(0xFF);
 268              		.loc 1 128 0
 269 00d8 FF20     		movs	r0, #255
 270 00da FFF7FEFF 		bl	LCD_2_PutChar
 271              	.LVL54:
ARM GAS  C:\Users\RECEPC~1\AppData\Local\Temp\cc89K5zt.s 			page 8


 129:.\LCD.c       ****         LCD_2_PutChar(dato);
 272              		.loc 1 129 0
 273 00de 2846     		mov	r0, r5
 274 00e0 FFF7FEFF 		bl	LCD_2_PutChar
 275              	.LVL55:
 130:.\LCD.c       ****         LCD_2_PutChar(0xCC);
 276              		.loc 1 130 0
 277 00e4 CC20     		movs	r0, #204
 278 00e6 FFF7FEFF 		bl	LCD_2_PutChar
 279              	.LVL56:
 131:.\LCD.c       ****         LCD_2_PutChar(0x33);
 280              		.loc 1 131 0
 281 00ea 3320     		movs	r0, #51
 282 00ec FFF7FEFF 		bl	LCD_2_PutChar
 283              	.LVL57:
 132:.\LCD.c       ****         LCD_2_PutChar(0xC3);
 284              		.loc 1 132 0
 285 00f0 C320     		movs	r0, #195
 286 00f2 FFF7FEFF 		bl	LCD_2_PutChar
 287              	.LVL58:
 133:.\LCD.c       ****         LCD_2_PutChar(0x3C);    
 288              		.loc 1 133 0
 289 00f6 3C20     		movs	r0, #60
 290 00f8 FFF7FEFF 		bl	LCD_2_PutChar
 291              	.LVL59:
 292 00fc 38BD     		pop	{r3, r4, r5, pc}
 293              		.cfi_endproc
 294              	.LFE64:
 295              		.size	write_LCD, .-write_LCD
 296 00fe 00BF     		.section	.text.Hora_LCD,"ax",%progbits
 297              		.align	2
 298              		.global	Hora_LCD
 299              		.thumb
 300              		.thumb_func
 301              		.type	Hora_LCD, %function
 302              	Hora_LCD:
 303              	.LFB65:
 134:.\LCD.c       ****     }
 135:.\LCD.c       **** }
 136:.\LCD.c       **** 
 137:.\LCD.c       **** /*
 138:.\LCD.c       **** ***************************************************************************************************
 139:.\LCD.c       **** *                                 			void Hora_LCD(uint8 lcd)
 140:.\LCD.c       **** *
 141:.\LCD.c       **** * Description : 
 142:.\LCD.c       **** *               
 143:.\LCD.c       **** *
 144:.\LCD.c       **** * Argument(s) : none
 145:.\LCD.c       **** *
 146:.\LCD.c       **** * Return(s)   : none
 147:.\LCD.c       **** *
 148:.\LCD.c       **** * Caller(s)   : 
 149:.\LCD.c       **** *
 150:.\LCD.c       **** * Note(s)     : none.
 151:.\LCD.c       **** ***************************************************************************************************
 152:.\LCD.c       **** */
 153:.\LCD.c       **** void Hora_LCD(uint8 lcd){
ARM GAS  C:\Users\RECEPC~1\AppData\Local\Temp\cc89K5zt.s 			page 9


 304              		.loc 1 153 0
 305              		.cfi_startproc
 306              		@ args = 0, pretend = 0, frame = 24
 307              		@ frame_needed = 0, uses_anonymous_args = 0
 308              	.LVL60:
 309 0000 70B5     		push	{r4, r5, r6, lr}
 310              		.cfi_def_cfa_offset 16
 311              		.cfi_offset 4, -16
 312              		.cfi_offset 5, -12
 313              		.cfi_offset 6, -8
 314              		.cfi_offset 14, -4
 315 0002 86B0     		sub	sp, sp, #24
 316              		.cfi_def_cfa_offset 40
 317 0004 0646     		mov	r6, r0
 154:.\LCD.c       **** 	uint8 hora[24]={0xAA,0x98,0x00,0xd0,0x00,0xbb,0x24,0xC5,0x02,0x00,0x00,0xFF,0xFF,0X30,0x30,':',0x3
 318              		.loc 1 154 0
 319 0006 294D     		ldr	r5, .L16
 320 0008 6C46     		mov	r4, sp
 321 000a 2868     		ldr	r0, [r5]	@ unaligned
 322              	.LVL61:
 323 000c 6968     		ldr	r1, [r5, #4]	@ unaligned
 324 000e AA68     		ldr	r2, [r5, #8]	@ unaligned
 325 0010 EB68     		ldr	r3, [r5, #12]	@ unaligned
 326 0012 0FC4     		stmia	r4!, {r0, r1, r2, r3}
 327 0014 2869     		ldr	r0, [r5, #16]	@ unaligned
 328 0016 6969     		ldr	r1, [r5, #20]	@ unaligned
 329 0018 03C4     		stmia	r4!, {r0, r1}
 155:.\LCD.c       **** 	hora[13]=(((rventa.hora[1]&0x10)>>4)+48);
 330              		.loc 1 155 0
 331 001a 254A     		ldr	r2, .L16+4
 332 001c 92F8A130 		ldrb	r3, [r2, #161]	@ zero_extendqisi2
 333 0020 C3F30011 		ubfx	r1, r3, #4, #1
 334 0024 3031     		adds	r1, r1, #48
 335 0026 8DF80D10 		strb	r1, [sp, #13]
 156:.\LCD.c       **** 	hora[14]=((rventa.hora[1]&0x0F)+48);
 336              		.loc 1 156 0
 337 002a 03F00F01 		and	r1, r3, #15
 338 002e 3031     		adds	r1, r1, #48
 339 0030 8DF80E10 		strb	r1, [sp, #14]
 157:.\LCD.c       **** 	hora[16]=(((rventa.hora[0]&0xF0)>>4)+48);
 340              		.loc 1 157 0
 341 0034 92F8A020 		ldrb	r2, [r2, #160]	@ zero_extendqisi2
 342 0038 1109     		lsrs	r1, r2, #4
 343 003a 3031     		adds	r1, r1, #48
 344 003c 8DF81010 		strb	r1, [sp, #16]
 158:.\LCD.c       **** 	hora[17]=((rventa.hora[0]&0x0F)+48);
 345              		.loc 1 158 0
 346 0040 02F00F02 		and	r2, r2, #15
 347 0044 3032     		adds	r2, r2, #48
 348 0046 8DF81120 		strb	r2, [sp, #17]
 159:.\LCD.c       **** 	if((rventa.hora[1]&0x20)==0x20){
 349              		.loc 1 159 0
 350 004a 13F0200F 		tst	r3, #32
 351 004e 03D0     		beq	.L8
 160:.\LCD.c       **** 		hora[18]='p';
 352              		.loc 1 160 0
 353 0050 7023     		movs	r3, #112
ARM GAS  C:\Users\RECEPC~1\AppData\Local\Temp\cc89K5zt.s 			page 10


 354 0052 8DF81230 		strb	r3, [sp, #18]
 355 0056 02E0     		b	.L9
 356              	.L8:
 161:.\LCD.c       **** 	}
 162:.\LCD.c       **** 	else{
 163:.\LCD.c       **** 		hora[18]='a';						
 357              		.loc 1 163 0
 358 0058 6123     		movs	r3, #97
 359 005a 8DF81230 		strb	r3, [sp, #18]
 360              	.L9:
 164:.\LCD.c       **** 	}	
 165:.\LCD.c       ****     if(lcd==1){
 361              		.loc 1 165 0
 362 005e 012E     		cmp	r6, #1
 363 0060 11D1     		bne	.L10
 166:.\LCD.c       **** 		for(x=0;x<=23;x++){
 364              		.loc 1 166 0
 365 0062 0022     		movs	r2, #0
 366 0064 134B     		ldr	r3, .L16+8
 367 0066 1A60     		str	r2, [r3]
 368 0068 1C46     		mov	r4, r3
 369 006a 08E0     		b	.L11
 370              	.L12:
 167:.\LCD.c       ****         	LCD_1_PutChar(hora[x]);
 371              		.loc 1 167 0 discriminator 2
 372 006c 06AA     		add	r2, sp, #24
 373 006e 1344     		add	r3, r3, r2
 374 0070 13F8180C 		ldrb	r0, [r3, #-24]	@ zero_extendqisi2
 375 0074 FFF7FEFF 		bl	LCD_1_PutChar
 376              	.LVL62:
 166:.\LCD.c       **** 		for(x=0;x<=23;x++){
 377              		.loc 1 166 0 discriminator 2
 378 0078 2368     		ldr	r3, [r4]
 379 007a 0133     		adds	r3, r3, #1
 380 007c 2360     		str	r3, [r4]
 381              	.L11:
 166:.\LCD.c       **** 		for(x=0;x<=23;x++){
 382              		.loc 1 166 0 is_stmt 0 discriminator 1
 383 007e 2368     		ldr	r3, [r4]
 384 0080 172B     		cmp	r3, #23
 385 0082 F3D9     		bls	.L12
 386 0084 10E0     		b	.L7
 387              	.L10:
 168:.\LCD.c       **** 		}
 169:.\LCD.c       ****     }
 170:.\LCD.c       ****     else{
 171:.\LCD.c       **** 		for(x=0;x<=23;x++){
 388              		.loc 1 171 0 is_stmt 1
 389 0086 0022     		movs	r2, #0
 390 0088 0A4B     		ldr	r3, .L16+8
 391 008a 1A60     		str	r2, [r3]
 392 008c 1C46     		mov	r4, r3
 393 008e 08E0     		b	.L14
 394              	.L15:
 172:.\LCD.c       **** 	        LCD_2_PutChar(hora[x]);
 395              		.loc 1 172 0 discriminator 2
 396 0090 06AA     		add	r2, sp, #24
ARM GAS  C:\Users\RECEPC~1\AppData\Local\Temp\cc89K5zt.s 			page 11


 397 0092 1344     		add	r3, r3, r2
 398 0094 13F8180C 		ldrb	r0, [r3, #-24]	@ zero_extendqisi2
 399 0098 FFF7FEFF 		bl	LCD_2_PutChar
 400              	.LVL63:
 171:.\LCD.c       **** 		for(x=0;x<=23;x++){
 401              		.loc 1 171 0 discriminator 2
 402 009c 2368     		ldr	r3, [r4]
 403 009e 0133     		adds	r3, r3, #1
 404 00a0 2360     		str	r3, [r4]
 405              	.L14:
 171:.\LCD.c       **** 		for(x=0;x<=23;x++){
 406              		.loc 1 171 0 is_stmt 0 discriminator 1
 407 00a2 2368     		ldr	r3, [r4]
 408 00a4 172B     		cmp	r3, #23
 409 00a6 F3D9     		bls	.L15
 410              	.L7:
 173:.\LCD.c       **** 		}
 174:.\LCD.c       ****     }
 175:.\LCD.c       **** }
 411              		.loc 1 175 0 is_stmt 1
 412 00a8 06B0     		add	sp, sp, #24
 413              		@ sp needed
 414 00aa 70BD     		pop	{r4, r5, r6, pc}
 415              	.L17:
 416              		.align	2
 417              	.L16:
 418 00ac 00000000 		.word	.LANCHOR0
 419 00b0 00000000 		.word	rventa
 420 00b4 00000000 		.word	x
 421              		.cfi_endproc
 422              	.LFE65:
 423              		.size	Hora_LCD, .-Hora_LCD
 424              		.section	.text.Fecha_LCD,"ax",%progbits
 425              		.align	2
 426              		.global	Fecha_LCD
 427              		.thumb
 428              		.thumb_func
 429              		.type	Fecha_LCD, %function
 430              	Fecha_LCD:
 431              	.LFB66:
 176:.\LCD.c       **** 
 177:.\LCD.c       **** /*
 178:.\LCD.c       **** ***************************************************************************************************
 179:.\LCD.c       **** *                                 			void Fecha_LCD(uint8 lcd)
 180:.\LCD.c       **** *
 181:.\LCD.c       **** * Description : 
 182:.\LCD.c       **** *               
 183:.\LCD.c       **** *
 184:.\LCD.c       **** * Argument(s) : none
 185:.\LCD.c       **** *
 186:.\LCD.c       **** * Return(s)   : none
 187:.\LCD.c       **** *
 188:.\LCD.c       **** * Caller(s)   : 
 189:.\LCD.c       **** *
 190:.\LCD.c       **** * Note(s)     : none.
 191:.\LCD.c       **** ***************************************************************************************************
 192:.\LCD.c       **** */
ARM GAS  C:\Users\RECEPC~1\AppData\Local\Temp\cc89K5zt.s 			page 12


 193:.\LCD.c       **** void Fecha_LCD(uint8 lcd){
 432              		.loc 1 193 0
 433              		.cfi_startproc
 434              		@ args = 0, pretend = 0, frame = 32
 435              		@ frame_needed = 0, uses_anonymous_args = 0
 436              	.LVL64:
 437 0000 70B5     		push	{r4, r5, r6, lr}
 438              		.cfi_def_cfa_offset 16
 439              		.cfi_offset 4, -16
 440              		.cfi_offset 5, -12
 441              		.cfi_offset 6, -8
 442              		.cfi_offset 14, -4
 443 0002 88B0     		sub	sp, sp, #32
 444              		.cfi_def_cfa_offset 48
 445 0004 0646     		mov	r6, r0
 194:.\LCD.c       **** 	uint8 fecha[25]={0xAA,0x98,0x00,0xcb,0x01,0x27,0x24,0xC5,0x02,0x00,0x00,0xFF,0xFF,0x30,0x30,0x2f,0
 446              		.loc 1 194 0
 447 0006 01AC     		add	r4, sp, #4
 448 0008 2B4D     		ldr	r5, .L25
 449 000a 55F8180F 		ldr	r0, [r5, #24]!	@ unaligned
 450              	.LVL65:
 451 000e 6968     		ldr	r1, [r5, #4]	@ unaligned
 452 0010 AA68     		ldr	r2, [r5, #8]	@ unaligned
 453 0012 EB68     		ldr	r3, [r5, #12]	@ unaligned
 454 0014 0FC4     		stmia	r4!, {r0, r1, r2, r3}
 455 0016 2869     		ldr	r0, [r5, #16]	@ unaligned
 456 0018 6969     		ldr	r1, [r5, #20]	@ unaligned
 457 001a 03C4     		stmia	r4!, {r0, r1}
 458 001c 2B7E     		ldrb	r3, [r5, #24]	@ zero_extendqisi2
 459 001e 2370     		strb	r3, [r4]
 195:.\LCD.c       **** 	fecha[13]=(((rventa.fecha[0]&0x30)>>4)+48);
 460              		.loc 1 195 0
 461 0020 264B     		ldr	r3, .L25+4
 462 0022 93F89D20 		ldrb	r2, [r3, #157]	@ zero_extendqisi2
 463 0026 C2F30111 		ubfx	r1, r2, #4, #2
 464 002a 3031     		adds	r1, r1, #48
 465 002c 8DF81110 		strb	r1, [sp, #17]
 196:.\LCD.c       **** 	fecha[14]=((rventa.fecha[0]&0x0F)+48);
 466              		.loc 1 196 0
 467 0030 02F00F02 		and	r2, r2, #15
 468 0034 3032     		adds	r2, r2, #48
 469 0036 8DF81220 		strb	r2, [sp, #18]
 197:.\LCD.c       **** 	fecha[16]=(((rventa.fecha[1]&0x10)>>4)+48);
 470              		.loc 1 197 0
 471 003a 93F89E20 		ldrb	r2, [r3, #158]	@ zero_extendqisi2
 472 003e C2F30011 		ubfx	r1, r2, #4, #1
 473 0042 3031     		adds	r1, r1, #48
 474 0044 8DF81410 		strb	r1, [sp, #20]
 198:.\LCD.c       **** 	fecha[17]=((rventa.fecha[1]&0x0F)+48);
 475              		.loc 1 198 0
 476 0048 02F00F02 		and	r2, r2, #15
 477 004c 3032     		adds	r2, r2, #48
 478 004e 8DF81520 		strb	r2, [sp, #21]
 199:.\LCD.c       **** 	fecha[19]=(((rventa.fecha[2]&0xF0)>>4)+48);
 479              		.loc 1 199 0
 480 0052 93F89F30 		ldrb	r3, [r3, #159]	@ zero_extendqisi2
 481 0056 1A09     		lsrs	r2, r3, #4
ARM GAS  C:\Users\RECEPC~1\AppData\Local\Temp\cc89K5zt.s 			page 13


 482 0058 3032     		adds	r2, r2, #48
 483 005a 8DF81720 		strb	r2, [sp, #23]
 200:.\LCD.c       **** 	fecha[20]=((rventa.fecha[2]&0x0F)+48);	
 484              		.loc 1 200 0
 485 005e 03F00F03 		and	r3, r3, #15
 486 0062 3033     		adds	r3, r3, #48
 487 0064 8DF81830 		strb	r3, [sp, #24]
 201:.\LCD.c       ****     if(lcd==1){
 488              		.loc 1 201 0
 489 0068 012E     		cmp	r6, #1
 490 006a 11D1     		bne	.L19
 202:.\LCD.c       **** 		for(x=0;x<=24;x++){
 491              		.loc 1 202 0
 492 006c 0022     		movs	r2, #0
 493 006e 144B     		ldr	r3, .L25+8
 494 0070 1A60     		str	r2, [r3]
 495 0072 1C46     		mov	r4, r3
 496 0074 08E0     		b	.L20
 497              	.L21:
 203:.\LCD.c       ****         	LCD_1_PutChar(fecha[x]);
 498              		.loc 1 203 0 discriminator 2
 499 0076 08AA     		add	r2, sp, #32
 500 0078 1344     		add	r3, r3, r2
 501 007a 13F81C0C 		ldrb	r0, [r3, #-28]	@ zero_extendqisi2
 502 007e FFF7FEFF 		bl	LCD_1_PutChar
 503              	.LVL66:
 202:.\LCD.c       **** 		for(x=0;x<=24;x++){
 504              		.loc 1 202 0 discriminator 2
 505 0082 2368     		ldr	r3, [r4]
 506 0084 0133     		adds	r3, r3, #1
 507 0086 2360     		str	r3, [r4]
 508              	.L20:
 202:.\LCD.c       **** 		for(x=0;x<=24;x++){
 509              		.loc 1 202 0 is_stmt 0 discriminator 1
 510 0088 2368     		ldr	r3, [r4]
 511 008a 182B     		cmp	r3, #24
 512 008c F3D9     		bls	.L21
 513 008e 10E0     		b	.L18
 514              	.L19:
 204:.\LCD.c       **** 		}
 205:.\LCD.c       ****     }
 206:.\LCD.c       ****     else{
 207:.\LCD.c       **** 		for(x=0;x<=24;x++){
 515              		.loc 1 207 0 is_stmt 1
 516 0090 0022     		movs	r2, #0
 517 0092 0B4B     		ldr	r3, .L25+8
 518 0094 1A60     		str	r2, [r3]
 519 0096 1C46     		mov	r4, r3
 520 0098 08E0     		b	.L23
 521              	.L24:
 208:.\LCD.c       **** 	        LCD_2_PutChar(fecha[x]);
 522              		.loc 1 208 0 discriminator 2
 523 009a 08AA     		add	r2, sp, #32
 524 009c 1344     		add	r3, r3, r2
 525 009e 13F81C0C 		ldrb	r0, [r3, #-28]	@ zero_extendqisi2
 526 00a2 FFF7FEFF 		bl	LCD_2_PutChar
 527              	.LVL67:
ARM GAS  C:\Users\RECEPC~1\AppData\Local\Temp\cc89K5zt.s 			page 14


 207:.\LCD.c       **** 		for(x=0;x<=24;x++){
 528              		.loc 1 207 0 discriminator 2
 529 00a6 2368     		ldr	r3, [r4]
 530 00a8 0133     		adds	r3, r3, #1
 531 00aa 2360     		str	r3, [r4]
 532              	.L23:
 207:.\LCD.c       **** 		for(x=0;x<=24;x++){
 533              		.loc 1 207 0 is_stmt 0 discriminator 1
 534 00ac 2368     		ldr	r3, [r4]
 535 00ae 182B     		cmp	r3, #24
 536 00b0 F3D9     		bls	.L24
 537              	.L18:
 209:.\LCD.c       **** 		}
 210:.\LCD.c       ****     }
 211:.\LCD.c       **** }
 538              		.loc 1 211 0 is_stmt 1
 539 00b2 08B0     		add	sp, sp, #32
 540              		@ sp needed
 541 00b4 70BD     		pop	{r4, r5, r6, pc}
 542              	.L26:
 543 00b6 00BF     		.align	2
 544              	.L25:
 545 00b8 00000000 		.word	.LANCHOR0
 546 00bc 00000000 		.word	rventa
 547 00c0 00000000 		.word	x
 548              		.cfi_endproc
 549              	.LFE66:
 550              		.size	Fecha_LCD, .-Fecha_LCD
 551              		.section	.text.Nombre_LCD,"ax",%progbits
 552              		.align	2
 553              		.global	Nombre_LCD
 554              		.thumb
 555              		.thumb_func
 556              		.type	Nombre_LCD, %function
 557              	Nombre_LCD:
 558              	.LFB67:
 212:.\LCD.c       **** 
 213:.\LCD.c       **** /*
 214:.\LCD.c       **** ***************************************************************************************************
 215:.\LCD.c       **** *                                 			void Nombre_LCD(uint8 lcd)
 216:.\LCD.c       **** *
 217:.\LCD.c       **** * Description : 
 218:.\LCD.c       **** *               
 219:.\LCD.c       **** *
 220:.\LCD.c       **** * Argument(s) : none
 221:.\LCD.c       **** *
 222:.\LCD.c       **** * Return(s)   : none
 223:.\LCD.c       **** *
 224:.\LCD.c       **** * Caller(s)   : 
 225:.\LCD.c       **** *
 226:.\LCD.c       **** * Note(s)     : none.
 227:.\LCD.c       **** ***************************************************************************************************
 228:.\LCD.c       **** */
 229:.\LCD.c       **** void Nombre_LCD(uint8 lcd){
 559              		.loc 1 229 0
 560              		.cfi_startproc
 561              		@ args = 0, pretend = 0, frame = 24
ARM GAS  C:\Users\RECEPC~1\AppData\Local\Temp\cc89K5zt.s 			page 15


 562              		@ frame_needed = 0, uses_anonymous_args = 0
 563              	.LVL68:
 564 0000 70B5     		push	{r4, r5, r6, lr}
 565              		.cfi_def_cfa_offset 16
 566              		.cfi_offset 4, -16
 567              		.cfi_offset 5, -12
 568              		.cfi_offset 6, -8
 569              		.cfi_offset 14, -4
 570 0002 86B0     		sub	sp, sp, #24
 571              		.cfi_def_cfa_offset 40
 572 0004 0646     		mov	r6, r0
 230:.\LCD.c       **** 	uint8 buffer[18]={0xAA,0x98,0x00,0xA5,0x00,0x7E,0x23,0xC5,0x02,0x00,0x00,0xFF,0xFF,0x20,0xCC,0x33,
 573              		.loc 1 230 0
 574 0006 01AC     		add	r4, sp, #4
 575 0008 374D     		ldr	r5, .L40
 576 000a 55F8340F 		ldr	r0, [r5, #52]!	@ unaligned
 577              	.LVL69:
 578 000e 6968     		ldr	r1, [r5, #4]	@ unaligned
 579 0010 AA68     		ldr	r2, [r5, #8]	@ unaligned
 580 0012 EB68     		ldr	r3, [r5, #12]	@ unaligned
 581 0014 0FC4     		stmia	r4!, {r0, r1, r2, r3}
 582 0016 2B8A     		ldrh	r3, [r5, #16]	@ unaligned
 583 0018 2380     		strh	r3, [r4]	@ unaligned
 231:.\LCD.c       ****     if(lcd==1){
 584              		.loc 1 231 0
 585 001a 012E     		cmp	r6, #1
 586 001c 32D1     		bne	.L28
 232:.\LCD.c       **** 		for(x=1;(x<=rventa.nombre[0]&&x<=25);x++){
 587              		.loc 1 232 0
 588 001e 0122     		movs	r2, #1
 589 0020 324B     		ldr	r3, .L40+4
 590 0022 1A60     		str	r2, [r3]
 591 0024 324D     		ldr	r5, .L40+8
 233:.\LCD.c       **** 			buffer[13]=rventa.nombre[x];			
 234:.\LCD.c       **** 			for(y=0;y<=17;y++){
 592              		.loc 1 234 0
 593 0026 334C     		ldr	r4, .L40+12
 232:.\LCD.c       **** 		for(x=1;(x<=rventa.nombre[0]&&x<=25);x++){
 594              		.loc 1 232 0
 595 0028 24E0     		b	.L29
 596              	.L34:
 233:.\LCD.c       **** 			buffer[13]=rventa.nombre[x];			
 597              		.loc 1 233 0
 598 002a EB5C     		ldrb	r3, [r5, r3]	@ zero_extendqisi2
 599 002c 8DF81130 		strb	r3, [sp, #17]
 600              		.loc 1 234 0
 601 0030 0023     		movs	r3, #0
 602 0032 2360     		str	r3, [r4]
 603 0034 08E0     		b	.L30
 604              	.L31:
 235:.\LCD.c       ****         		LCD_1_PutChar(buffer[y]);
 605              		.loc 1 235 0 discriminator 2
 606 0036 06AA     		add	r2, sp, #24
 607 0038 1344     		add	r3, r3, r2
 608 003a 13F8140C 		ldrb	r0, [r3, #-20]	@ zero_extendqisi2
 609 003e FFF7FEFF 		bl	LCD_1_PutChar
 610              	.LVL70:
ARM GAS  C:\Users\RECEPC~1\AppData\Local\Temp\cc89K5zt.s 			page 16


 234:.\LCD.c       **** 			for(y=0;y<=17;y++){
 611              		.loc 1 234 0 discriminator 2
 612 0042 2368     		ldr	r3, [r4]
 613 0044 0133     		adds	r3, r3, #1
 614 0046 2360     		str	r3, [r4]
 615              	.L30:
 234:.\LCD.c       **** 			for(y=0;y<=17;y++){
 616              		.loc 1 234 0 is_stmt 0 discriminator 1
 617 0048 2368     		ldr	r3, [r4]
 618 004a 112B     		cmp	r3, #17
 619 004c F3D9     		bls	.L31
 236:.\LCD.c       **** 			}
 237:.\LCD.c       **** 			if(buffer[3]==0xFF){
 620              		.loc 1 237 0 is_stmt 1
 621 004e 9DF80730 		ldrb	r3, [sp, #7]	@ zero_extendqisi2
 622 0052 FF2B     		cmp	r3, #255
 623 0054 05D1     		bne	.L32
 238:.\LCD.c       **** 				buffer[2]=0x01;
 624              		.loc 1 238 0
 625 0056 0123     		movs	r3, #1
 626 0058 8DF80630 		strb	r3, [sp, #6]
 239:.\LCD.c       **** 				buffer[3]=0x00;
 627              		.loc 1 239 0
 628 005c 0023     		movs	r3, #0
 629 005e 8DF80730 		strb	r3, [sp, #7]
 630              	.L32:
 240:.\LCD.c       **** 			}			
 241:.\LCD.c       **** 			buffer[3]+=15;
 631              		.loc 1 241 0
 632 0062 9DF80730 		ldrb	r3, [sp, #7]	@ zero_extendqisi2
 633 0066 0F33     		adds	r3, r3, #15
 634 0068 8DF80730 		strb	r3, [sp, #7]
 232:.\LCD.c       **** 		for(x=1;(x<=rventa.nombre[0]&&x<=25);x++){
 635              		.loc 1 232 0
 636 006c 1F4B     		ldr	r3, .L40+4
 637 006e 1A68     		ldr	r2, [r3]
 638 0070 0132     		adds	r2, r2, #1
 639 0072 1A60     		str	r2, [r3]
 640              	.L29:
 232:.\LCD.c       **** 		for(x=1;(x<=rventa.nombre[0]&&x<=25);x++){
 641              		.loc 1 232 0 is_stmt 0 discriminator 1
 642 0074 2A78     		ldrb	r2, [r5]	@ zero_extendqisi2
 643 0076 1D4B     		ldr	r3, .L40+4
 644 0078 1B68     		ldr	r3, [r3]
 645 007a 9A42     		cmp	r2, r3
 646 007c 32D3     		bcc	.L27
 232:.\LCD.c       **** 		for(x=1;(x<=rventa.nombre[0]&&x<=25);x++){
 647              		.loc 1 232 0 discriminator 2
 648 007e 192B     		cmp	r3, #25
 649 0080 D3D9     		bls	.L34
 650 0082 2FE0     		b	.L27
 651              	.L28:
 242:.\LCD.c       **** 		}
 243:.\LCD.c       ****     }
 244:.\LCD.c       ****     else{
 245:.\LCD.c       **** 		for(x=1;x<=rventa.nombre[0];x++){
 652              		.loc 1 245 0 is_stmt 1
ARM GAS  C:\Users\RECEPC~1\AppData\Local\Temp\cc89K5zt.s 			page 17


 653 0084 0122     		movs	r2, #1
 654 0086 194B     		ldr	r3, .L40+4
 655 0088 1A60     		str	r2, [r3]
 656 008a 194D     		ldr	r5, .L40+8
 246:.\LCD.c       **** 			buffer[13]=rventa.nombre[x];			
 247:.\LCD.c       **** 			for(y=0;y<=17;y++){
 657              		.loc 1 247 0
 658 008c 194C     		ldr	r4, .L40+12
 245:.\LCD.c       **** 		for(x=1;x<=rventa.nombre[0];x++){
 659              		.loc 1 245 0
 660 008e 24E0     		b	.L35
 661              	.L39:
 246:.\LCD.c       **** 			buffer[13]=rventa.nombre[x];			
 662              		.loc 1 246 0
 663 0090 EB5C     		ldrb	r3, [r5, r3]	@ zero_extendqisi2
 664 0092 8DF81130 		strb	r3, [sp, #17]
 665              		.loc 1 247 0
 666 0096 0023     		movs	r3, #0
 667 0098 2360     		str	r3, [r4]
 668 009a 08E0     		b	.L36
 669              	.L37:
 248:.\LCD.c       ****         		LCD_2_PutChar(buffer[y]);
 670              		.loc 1 248 0 discriminator 2
 671 009c 06AA     		add	r2, sp, #24
 672 009e 1344     		add	r3, r3, r2
 673 00a0 13F8140C 		ldrb	r0, [r3, #-20]	@ zero_extendqisi2
 674 00a4 FFF7FEFF 		bl	LCD_2_PutChar
 675              	.LVL71:
 247:.\LCD.c       **** 			for(y=0;y<=17;y++){
 676              		.loc 1 247 0 discriminator 2
 677 00a8 2368     		ldr	r3, [r4]
 678 00aa 0133     		adds	r3, r3, #1
 679 00ac 2360     		str	r3, [r4]
 680              	.L36:
 247:.\LCD.c       **** 			for(y=0;y<=17;y++){
 681              		.loc 1 247 0 is_stmt 0 discriminator 1
 682 00ae 2368     		ldr	r3, [r4]
 683 00b0 112B     		cmp	r3, #17
 684 00b2 F3D9     		bls	.L37
 249:.\LCD.c       **** 			}
 250:.\LCD.c       **** 			if(buffer[3]==0xFF){
 685              		.loc 1 250 0 is_stmt 1
 686 00b4 9DF80730 		ldrb	r3, [sp, #7]	@ zero_extendqisi2
 687 00b8 FF2B     		cmp	r3, #255
 688 00ba 05D1     		bne	.L38
 251:.\LCD.c       **** 				buffer[2]=0x01;
 689              		.loc 1 251 0
 690 00bc 0123     		movs	r3, #1
 691 00be 8DF80630 		strb	r3, [sp, #6]
 252:.\LCD.c       **** 				buffer[3]=0x00;
 692              		.loc 1 252 0
 693 00c2 0023     		movs	r3, #0
 694 00c4 8DF80730 		strb	r3, [sp, #7]
 695              	.L38:
 253:.\LCD.c       **** 			}			
 254:.\LCD.c       **** 			buffer[3]+=15;
 696              		.loc 1 254 0
ARM GAS  C:\Users\RECEPC~1\AppData\Local\Temp\cc89K5zt.s 			page 18


 697 00c8 9DF80730 		ldrb	r3, [sp, #7]	@ zero_extendqisi2
 698 00cc 0F33     		adds	r3, r3, #15
 699 00ce 8DF80730 		strb	r3, [sp, #7]
 245:.\LCD.c       **** 		for(x=1;x<=rventa.nombre[0];x++){
 700              		.loc 1 245 0
 701 00d2 064B     		ldr	r3, .L40+4
 702 00d4 1A68     		ldr	r2, [r3]
 703 00d6 0132     		adds	r2, r2, #1
 704 00d8 1A60     		str	r2, [r3]
 705              	.L35:
 245:.\LCD.c       **** 		for(x=1;x<=rventa.nombre[0];x++){
 706              		.loc 1 245 0 is_stmt 0 discriminator 1
 707 00da 2A78     		ldrb	r2, [r5]	@ zero_extendqisi2
 708 00dc 034B     		ldr	r3, .L40+4
 709 00de 1B68     		ldr	r3, [r3]
 710 00e0 9A42     		cmp	r2, r3
 711 00e2 D5D2     		bcs	.L39
 712              	.L27:
 255:.\LCD.c       **** 		}
 256:.\LCD.c       ****     }	
 257:.\LCD.c       **** }
 713              		.loc 1 257 0 is_stmt 1
 714 00e4 06B0     		add	sp, sp, #24
 715              		@ sp needed
 716 00e6 70BD     		pop	{r4, r5, r6, pc}
 717              	.L41:
 718              		.align	2
 719              	.L40:
 720 00e8 00000000 		.word	.LANCHOR0
 721 00ec 00000000 		.word	x
 722 00f0 00000000 		.word	rventa
 723 00f4 00000000 		.word	y
 724              		.cfi_endproc
 725              	.LFE67:
 726              		.size	Nombre_LCD, .-Nombre_LCD
 727              		.section	.text.Precio_LCD,"ax",%progbits
 728              		.align	2
 729              		.global	Precio_LCD
 730              		.thumb
 731              		.thumb_func
 732              		.type	Precio_LCD, %function
 733              	Precio_LCD:
 734              	.LFB68:
 258:.\LCD.c       **** 
 259:.\LCD.c       **** /*
 260:.\LCD.c       **** ***************************************************************************************************
 261:.\LCD.c       **** *                          void Precio_LCD(uint8 lcd, uint8 y1, uint8 y2, uint8 eeprom)
 262:.\LCD.c       **** *
 263:.\LCD.c       **** * Description : 
 264:.\LCD.c       **** *               
 265:.\LCD.c       **** *
 266:.\LCD.c       **** * Argument(s) : none
 267:.\LCD.c       **** *
 268:.\LCD.c       **** * Return(s)   : none
 269:.\LCD.c       **** *
 270:.\LCD.c       **** * Caller(s)   : 
 271:.\LCD.c       **** *
ARM GAS  C:\Users\RECEPC~1\AppData\Local\Temp\cc89K5zt.s 			page 19


 272:.\LCD.c       **** * Note(s)     : none.
 273:.\LCD.c       **** ***************************************************************************************************
 274:.\LCD.c       **** */
 275:.\LCD.c       **** void Precio_LCD(uint8 lcd, uint8 y1, uint8 y2, uint16 eeprom){
 735              		.loc 1 275 0
 736              		.cfi_startproc
 737              		@ args = 0, pretend = 0, frame = 24
 738              		@ frame_needed = 0, uses_anonymous_args = 0
 739              	.LVL72:
 740 0000 F0B5     		push	{r4, r5, r6, r7, lr}
 741              		.cfi_def_cfa_offset 20
 742              		.cfi_offset 4, -20
 743              		.cfi_offset 5, -16
 744              		.cfi_offset 6, -12
 745              		.cfi_offset 7, -8
 746              		.cfi_offset 14, -4
 747 0002 87B0     		sub	sp, sp, #28
 748              		.cfi_def_cfa_offset 48
 749 0004 0646     		mov	r6, r0
 750 0006 8C46     		mov	ip, r1
 751 0008 9646     		mov	lr, r2
 752 000a 1F46     		mov	r7, r3
 276:.\LCD.c       **** 	uint8 hora[23]={0xAA,0x98,0x01,0x80,0x01,0x60,0x24,0xC5,0x02,0x00,0x00,0xFF,0xFF,'$',0X20,0x20,0X2
 753              		.loc 1 276 0
 754 000c 6C46     		mov	r4, sp
 755 000e 294D     		ldr	r5, .L52
 756 0010 55F8480F 		ldr	r0, [r5, #72]!	@ unaligned
 757              	.LVL73:
 758 0014 6968     		ldr	r1, [r5, #4]	@ unaligned
 759              	.LVL74:
 760 0016 AA68     		ldr	r2, [r5, #8]	@ unaligned
 761              	.LVL75:
 762 0018 EB68     		ldr	r3, [r5, #12]	@ unaligned
 763              	.LVL76:
 764 001a 0FC4     		stmia	r4!, {r0, r1, r2, r3}
 765 001c 2869     		ldr	r0, [r5, #16]	@ unaligned
 766 001e 2060     		str	r0, [r4]	@ unaligned
 767 0020 AB8A     		ldrh	r3, [r5, #20]	@ unaligned
 768 0022 AD7D     		ldrb	r5, [r5, #22]	@ zero_extendqisi2
 769 0024 A380     		strh	r3, [r4, #4]	@ unaligned
 770 0026 A571     		strb	r5, [r4, #6]
 277:.\LCD.c       **** 	hora[4]=y1;
 771              		.loc 1 277 0
 772 0028 8DF804C0 		strb	ip, [sp, #4]
 278:.\LCD.c       **** 	hora[5]=y2;
 773              		.loc 1 278 0
 774 002c 8DF805E0 		strb	lr, [sp, #5]
 279:.\LCD.c       **** 	if(leer_eeprom(eeprom,6)==1){
 775              		.loc 1 279 0
 776 0030 3846     		mov	r0, r7
 777 0032 0621     		movs	r1, #6
 778 0034 FFF7FEFF 		bl	leer_eeprom
 779              	.LVL77:
 780 0038 0128     		cmp	r0, #1
 781 003a 38D1     		bne	.L42
 280:.\LCD.c       **** 		if((buffer_i2c[0]<=0x05)&&(buffer_i2c[0]>=0x00)){
 782              		.loc 1 280 0
ARM GAS  C:\Users\RECEPC~1\AppData\Local\Temp\cc89K5zt.s 			page 20


 783 003c 1E4B     		ldr	r3, .L52+4
 784 003e 1878     		ldrb	r0, [r3]	@ zero_extendqisi2
 785 0040 0528     		cmp	r0, #5
 786 0042 0FD8     		bhi	.L44
 281:.\LCD.c       **** 			for(x=1;x<=buffer_i2c[0];x++){
 787              		.loc 1 281 0
 788 0044 0122     		movs	r2, #1
 789 0046 1D4B     		ldr	r3, .L52+8
 790 0048 1A60     		str	r2, [r3]
 791 004a 1A46     		mov	r2, r3
 282:.\LCD.c       **** 				hora[x+13]=buffer_i2c[x];
 792              		.loc 1 282 0
 793 004c 1A4D     		ldr	r5, .L52+4
 281:.\LCD.c       **** 			for(x=1;x<=buffer_i2c[0];x++){
 794              		.loc 1 281 0
 795 004e 06E0     		b	.L45
 796              	.L46:
 797              		.loc 1 282 0 discriminator 2
 798 0050 EC5C     		ldrb	r4, [r5, r3]	@ zero_extendqisi2
 799 0052 06A9     		add	r1, sp, #24
 800 0054 1944     		add	r1, r1, r3
 801 0056 01F80B4C 		strb	r4, [r1, #-11]
 281:.\LCD.c       **** 			for(x=1;x<=buffer_i2c[0];x++){
 802              		.loc 1 281 0 discriminator 2
 803 005a 0133     		adds	r3, r3, #1
 804 005c 1360     		str	r3, [r2]
 805              	.L45:
 281:.\LCD.c       **** 			for(x=1;x<=buffer_i2c[0];x++){
 806              		.loc 1 281 0 is_stmt 0 discriminator 1
 807 005e 1368     		ldr	r3, [r2]
 808 0060 9842     		cmp	r0, r3
 809 0062 F5D2     		bcs	.L46
 810              	.L44:
 283:.\LCD.c       **** 			}
 284:.\LCD.c       **** 		}
 285:.\LCD.c       **** 	    if(lcd==1){
 811              		.loc 1 285 0 is_stmt 1
 812 0064 012E     		cmp	r6, #1
 813 0066 11D1     		bne	.L47
 286:.\LCD.c       **** 			for(x=0;x<=22;x++){
 814              		.loc 1 286 0
 815 0068 0022     		movs	r2, #0
 816 006a 144B     		ldr	r3, .L52+8
 817 006c 1A60     		str	r2, [r3]
 818 006e 1C46     		mov	r4, r3
 819 0070 08E0     		b	.L48
 820              	.L49:
 287:.\LCD.c       **** 	        	LCD_1_PutChar(hora[x]);
 821              		.loc 1 287 0 discriminator 2
 822 0072 06AA     		add	r2, sp, #24
 823 0074 1344     		add	r3, r3, r2
 824 0076 13F8180C 		ldrb	r0, [r3, #-24]	@ zero_extendqisi2
 825 007a FFF7FEFF 		bl	LCD_1_PutChar
 826              	.LVL78:
 286:.\LCD.c       **** 			for(x=0;x<=22;x++){
 827              		.loc 1 286 0 discriminator 2
 828 007e 2368     		ldr	r3, [r4]
ARM GAS  C:\Users\RECEPC~1\AppData\Local\Temp\cc89K5zt.s 			page 21


 829 0080 0133     		adds	r3, r3, #1
 830 0082 2360     		str	r3, [r4]
 831              	.L48:
 286:.\LCD.c       **** 			for(x=0;x<=22;x++){
 832              		.loc 1 286 0 is_stmt 0 discriminator 1
 833 0084 2368     		ldr	r3, [r4]
 834 0086 162B     		cmp	r3, #22
 835 0088 F3D9     		bls	.L49
 836 008a 10E0     		b	.L42
 837              	.L47:
 288:.\LCD.c       **** 			}
 289:.\LCD.c       **** 	    }
 290:.\LCD.c       **** 	    else{
 291:.\LCD.c       **** 			for(x=0;x<=22;x++){
 838              		.loc 1 291 0 is_stmt 1
 839 008c 0022     		movs	r2, #0
 840 008e 0B4B     		ldr	r3, .L52+8
 841 0090 1A60     		str	r2, [r3]
 842 0092 1C46     		mov	r4, r3
 843 0094 08E0     		b	.L50
 844              	.L51:
 292:.\LCD.c       **** 		        LCD_2_PutChar(hora[x]);
 845              		.loc 1 292 0 discriminator 2
 846 0096 06AA     		add	r2, sp, #24
 847 0098 1344     		add	r3, r3, r2
 848 009a 13F8180C 		ldrb	r0, [r3, #-24]	@ zero_extendqisi2
 849 009e FFF7FEFF 		bl	LCD_2_PutChar
 850              	.LVL79:
 291:.\LCD.c       **** 			for(x=0;x<=22;x++){
 851              		.loc 1 291 0 discriminator 2
 852 00a2 2368     		ldr	r3, [r4]
 853 00a4 0133     		adds	r3, r3, #1
 854 00a6 2360     		str	r3, [r4]
 855              	.L50:
 291:.\LCD.c       **** 			for(x=0;x<=22;x++){
 856              		.loc 1 291 0 is_stmt 0 discriminator 1
 857 00a8 2368     		ldr	r3, [r4]
 858 00aa 162B     		cmp	r3, #22
 859 00ac F3D9     		bls	.L51
 860              	.L42:
 293:.\LCD.c       **** 			}
 294:.\LCD.c       **** 	    }
 295:.\LCD.c       **** 	}
 296:.\LCD.c       **** }
 861              		.loc 1 296 0 is_stmt 1
 862 00ae 07B0     		add	sp, sp, #28
 863              		@ sp needed
 864 00b0 F0BD     		pop	{r4, r5, r6, r7, pc}
 865              	.L53:
 866 00b2 00BF     		.align	2
 867              	.L52:
 868 00b4 00000000 		.word	.LANCHOR0
 869 00b8 00000000 		.word	buffer_i2c
 870 00bc 00000000 		.word	x
 871              		.cfi_endproc
 872              	.LFE68:
 873              		.size	Precio_LCD, .-Precio_LCD
ARM GAS  C:\Users\RECEPC~1\AppData\Local\Temp\cc89K5zt.s 			page 22


 874              		.section	.text.Grado_LCD,"ax",%progbits
 875              		.align	2
 876              		.global	Grado_LCD
 877              		.thumb
 878              		.thumb_func
 879              		.type	Grado_LCD, %function
 880              	Grado_LCD:
 881              	.LFB69:
 297:.\LCD.c       **** 
 298:.\LCD.c       **** /*
 299:.\LCD.c       **** ***************************************************************************************************
 300:.\LCD.c       **** *                          void Grado_LCD(uint8 lcd, uint8 y1, uint8 y2, uint8 eeprom)
 301:.\LCD.c       **** *
 302:.\LCD.c       **** * Description : 
 303:.\LCD.c       **** *               
 304:.\LCD.c       **** *
 305:.\LCD.c       **** * Argument(s) : none
 306:.\LCD.c       **** *
 307:.\LCD.c       **** * Return(s)   : none
 308:.\LCD.c       **** *
 309:.\LCD.c       **** * Caller(s)   : 
 310:.\LCD.c       **** *
 311:.\LCD.c       **** * Note(s)     : none.
 312:.\LCD.c       **** ***************************************************************************************************
 313:.\LCD.c       **** */
 314:.\LCD.c       **** void Grado_LCD(uint8 lcd, uint8 y1, uint8 y2, uint16 eeprom){
 882              		.loc 1 314 0
 883              		.cfi_startproc
 884              		@ args = 0, pretend = 0, frame = 24
 885              		@ frame_needed = 0, uses_anonymous_args = 0
 886              	.LVL80:
 887 0000 F0B5     		push	{r4, r5, r6, r7, lr}
 888              		.cfi_def_cfa_offset 20
 889              		.cfi_offset 4, -20
 890              		.cfi_offset 5, -16
 891              		.cfi_offset 6, -12
 892              		.cfi_offset 7, -8
 893              		.cfi_offset 14, -4
 894 0002 87B0     		sub	sp, sp, #28
 895              		.cfi_def_cfa_offset 48
 896 0004 0646     		mov	r6, r0
 897 0006 8C46     		mov	ip, r1
 898 0008 9646     		mov	lr, r2
 899 000a 1F46     		mov	r7, r3
 315:.\LCD.c       **** 	uint8 hora[18]={0xAA,0x98,0x02,0x20,0x01,0x60,0x24,0xC5,0x02,0x00,0x00,0xFF,0xFF,0x20,0xCC,0x33,0x
 900              		.loc 1 315 0
 901 000c 01AC     		add	r4, sp, #4
 902 000e 274D     		ldr	r5, .L64
 903 0010 55F8600F 		ldr	r0, [r5, #96]!	@ unaligned
 904              	.LVL81:
 905 0014 6968     		ldr	r1, [r5, #4]	@ unaligned
 906              	.LVL82:
 907 0016 AA68     		ldr	r2, [r5, #8]	@ unaligned
 908              	.LVL83:
 909 0018 EB68     		ldr	r3, [r5, #12]	@ unaligned
 910              	.LVL84:
 911 001a 0FC4     		stmia	r4!, {r0, r1, r2, r3}
ARM GAS  C:\Users\RECEPC~1\AppData\Local\Temp\cc89K5zt.s 			page 23


 912 001c 2B8A     		ldrh	r3, [r5, #16]	@ unaligned
 913 001e 2380     		strh	r3, [r4]	@ unaligned
 316:.\LCD.c       **** 	hora[4]=y1;
 914              		.loc 1 316 0
 915 0020 8DF808C0 		strb	ip, [sp, #8]
 317:.\LCD.c       **** 	hora[5]=y2;
 916              		.loc 1 317 0
 917 0024 8DF809E0 		strb	lr, [sp, #9]
 318:.\LCD.c       **** 	if(leer_eeprom(eeprom,2)==1){
 918              		.loc 1 318 0
 919 0028 3846     		mov	r0, r7
 920 002a 0221     		movs	r1, #2
 921 002c FFF7FEFF 		bl	leer_eeprom
 922              	.LVL85:
 923 0030 0128     		cmp	r0, #1
 924 0032 38D1     		bne	.L54
 319:.\LCD.c       **** 		if(buffer_i2c[0]==0x01){
 925              		.loc 1 319 0
 926 0034 1E4B     		ldr	r3, .L64+4
 927 0036 1878     		ldrb	r0, [r3]	@ zero_extendqisi2
 928 0038 0128     		cmp	r0, #1
 929 003a 0FD1     		bne	.L56
 320:.\LCD.c       **** 			for(x=1;x<=buffer_i2c[0];x++){
 930              		.loc 1 320 0
 931 003c 0122     		movs	r2, #1
 932 003e 1D4B     		ldr	r3, .L64+8
 933 0040 1A60     		str	r2, [r3]
 934 0042 1A46     		mov	r2, r3
 321:.\LCD.c       **** 				hora[x+12]=buffer_i2c[x];
 935              		.loc 1 321 0
 936 0044 1A4D     		ldr	r5, .L64+4
 320:.\LCD.c       **** 			for(x=1;x<=buffer_i2c[0];x++){
 937              		.loc 1 320 0
 938 0046 06E0     		b	.L57
 939              	.L58:
 940              		.loc 1 321 0 discriminator 2
 941 0048 EC5C     		ldrb	r4, [r5, r3]	@ zero_extendqisi2
 942 004a 06A9     		add	r1, sp, #24
 943 004c 1944     		add	r1, r1, r3
 944 004e 01F8084C 		strb	r4, [r1, #-8]
 320:.\LCD.c       **** 			for(x=1;x<=buffer_i2c[0];x++){
 945              		.loc 1 320 0 discriminator 2
 946 0052 0133     		adds	r3, r3, #1
 947 0054 1360     		str	r3, [r2]
 948              	.L57:
 320:.\LCD.c       **** 			for(x=1;x<=buffer_i2c[0];x++){
 949              		.loc 1 320 0 is_stmt 0 discriminator 1
 950 0056 1368     		ldr	r3, [r2]
 951 0058 9842     		cmp	r0, r3
 952 005a F5D2     		bcs	.L58
 953              	.L56:
 322:.\LCD.c       **** 			}
 323:.\LCD.c       **** 		}
 324:.\LCD.c       **** 	    if(lcd==1){
 954              		.loc 1 324 0 is_stmt 1
 955 005c 012E     		cmp	r6, #1
 956 005e 11D1     		bne	.L59
ARM GAS  C:\Users\RECEPC~1\AppData\Local\Temp\cc89K5zt.s 			page 24


 325:.\LCD.c       **** 			for(x=0;x<=22;x++){
 957              		.loc 1 325 0
 958 0060 0022     		movs	r2, #0
 959 0062 144B     		ldr	r3, .L64+8
 960 0064 1A60     		str	r2, [r3]
 961 0066 1C46     		mov	r4, r3
 962 0068 08E0     		b	.L60
 963              	.L61:
 326:.\LCD.c       **** 	        	LCD_1_PutChar(hora[x]);
 964              		.loc 1 326 0 discriminator 2
 965 006a 06AA     		add	r2, sp, #24
 966 006c 1344     		add	r3, r3, r2
 967 006e 13F8140C 		ldrb	r0, [r3, #-20]	@ zero_extendqisi2
 968 0072 FFF7FEFF 		bl	LCD_1_PutChar
 969              	.LVL86:
 325:.\LCD.c       **** 			for(x=0;x<=22;x++){
 970              		.loc 1 325 0 discriminator 2
 971 0076 2368     		ldr	r3, [r4]
 972 0078 0133     		adds	r3, r3, #1
 973 007a 2360     		str	r3, [r4]
 974              	.L60:
 325:.\LCD.c       **** 			for(x=0;x<=22;x++){
 975              		.loc 1 325 0 is_stmt 0 discriminator 1
 976 007c 2368     		ldr	r3, [r4]
 977 007e 162B     		cmp	r3, #22
 978 0080 F3D9     		bls	.L61
 979 0082 10E0     		b	.L54
 980              	.L59:
 327:.\LCD.c       **** 			}
 328:.\LCD.c       **** 	    }
 329:.\LCD.c       **** 	    else{
 330:.\LCD.c       **** 			for(x=0;x<=22;x++){
 981              		.loc 1 330 0 is_stmt 1
 982 0084 0022     		movs	r2, #0
 983 0086 0B4B     		ldr	r3, .L64+8
 984 0088 1A60     		str	r2, [r3]
 985 008a 1C46     		mov	r4, r3
 986 008c 08E0     		b	.L62
 987              	.L63:
 331:.\LCD.c       **** 		        LCD_2_PutChar(hora[x]);
 988              		.loc 1 331 0 discriminator 2
 989 008e 06AA     		add	r2, sp, #24
 990 0090 1344     		add	r3, r3, r2
 991 0092 13F8140C 		ldrb	r0, [r3, #-20]	@ zero_extendqisi2
 992 0096 FFF7FEFF 		bl	LCD_2_PutChar
 993              	.LVL87:
 330:.\LCD.c       **** 			for(x=0;x<=22;x++){
 994              		.loc 1 330 0 discriminator 2
 995 009a 2368     		ldr	r3, [r4]
 996 009c 0133     		adds	r3, r3, #1
 997 009e 2360     		str	r3, [r4]
 998              	.L62:
 330:.\LCD.c       **** 			for(x=0;x<=22;x++){
 999              		.loc 1 330 0 is_stmt 0 discriminator 1
 1000 00a0 2368     		ldr	r3, [r4]
 1001 00a2 162B     		cmp	r3, #22
 1002 00a4 F3D9     		bls	.L63
ARM GAS  C:\Users\RECEPC~1\AppData\Local\Temp\cc89K5zt.s 			page 25


 1003              	.L54:
 332:.\LCD.c       **** 			}
 333:.\LCD.c       **** 	    }
 334:.\LCD.c       **** 	}
 335:.\LCD.c       **** }
 1004              		.loc 1 335 0 is_stmt 1
 1005 00a6 07B0     		add	sp, sp, #28
 1006              		@ sp needed
 1007 00a8 F0BD     		pop	{r4, r5, r6, r7, pc}
 1008              	.L65:
 1009 00aa 00BF     		.align	2
 1010              	.L64:
 1011 00ac 00000000 		.word	.LANCHOR0
 1012 00b0 00000000 		.word	buffer_i2c
 1013 00b4 00000000 		.word	x
 1014              		.cfi_endproc
 1015              	.LFE69:
 1016              		.size	Grado_LCD, .-Grado_LCD
 1017              		.section	.text.direccion_LCD,"ax",%progbits
 1018              		.align	2
 1019              		.global	direccion_LCD
 1020              		.thumb
 1021              		.thumb_func
 1022              		.type	direccion_LCD, %function
 1023              	direccion_LCD:
 1024              	.LFB70:
 336:.\LCD.c       **** 
 337:.\LCD.c       **** /*
 338:.\LCD.c       **** ***************************************************************************************************
 339:.\LCD.c       **** *                                 			void direccion_LCD(uint8 lcd)
 340:.\LCD.c       **** *
 341:.\LCD.c       **** * Description : 
 342:.\LCD.c       **** *               
 343:.\LCD.c       **** *
 344:.\LCD.c       **** * Argument(s) : none
 345:.\LCD.c       **** *
 346:.\LCD.c       **** * Return(s)   : none
 347:.\LCD.c       **** *
 348:.\LCD.c       **** * Caller(s)   : 
 349:.\LCD.c       **** *
 350:.\LCD.c       **** * Note(s)     : none.
 351:.\LCD.c       **** ***************************************************************************************************
 352:.\LCD.c       **** */
 353:.\LCD.c       **** void direccion_LCD(uint8 lcd){
 1025              		.loc 1 353 0
 1026              		.cfi_startproc
 1027              		@ args = 0, pretend = 0, frame = 24
 1028              		@ frame_needed = 0, uses_anonymous_args = 0
 1029              	.LVL88:
 1030 0000 70B5     		push	{r4, r5, r6, lr}
 1031              		.cfi_def_cfa_offset 16
 1032              		.cfi_offset 4, -16
 1033              		.cfi_offset 5, -12
 1034              		.cfi_offset 6, -8
 1035              		.cfi_offset 14, -4
 1036 0002 86B0     		sub	sp, sp, #24
 1037              		.cfi_def_cfa_offset 40
ARM GAS  C:\Users\RECEPC~1\AppData\Local\Temp\cc89K5zt.s 			page 26


 1038 0004 0646     		mov	r6, r0
 354:.\LCD.c       **** 	uint8 buffer[18]={0xAA,0x98,0x00,0xA5,0x00,0xB7,0x23,0xC5,0x02,0x00,0x00,0xFF,0xFF,0x20,0xCC,0x33,
 1039              		.loc 1 354 0
 1040 0006 01AC     		add	r4, sp, #4
 1041 0008 394D     		ldr	r5, .L79
 1042 000a 55F8740F 		ldr	r0, [r5, #116]!	@ unaligned
 1043              	.LVL89:
 1044 000e 6968     		ldr	r1, [r5, #4]	@ unaligned
 1045 0010 AA68     		ldr	r2, [r5, #8]	@ unaligned
 1046 0012 EB68     		ldr	r3, [r5, #12]	@ unaligned
 1047 0014 0FC4     		stmia	r4!, {r0, r1, r2, r3}
 1048 0016 2B8A     		ldrh	r3, [r5, #16]	@ unaligned
 1049 0018 2380     		strh	r3, [r4]	@ unaligned
 355:.\LCD.c       ****     if(lcd==1){
 1050              		.loc 1 355 0
 1051 001a 012E     		cmp	r6, #1
 1052 001c 33D1     		bne	.L67
 356:.\LCD.c       **** 		for(x=1;x<=rventa.direccion[0];x++){
 1053              		.loc 1 356 0
 1054 001e 0122     		movs	r2, #1
 1055 0020 344B     		ldr	r3, .L79+4
 1056 0022 1A60     		str	r2, [r3]
 1057 0024 344D     		ldr	r5, .L79+8
 357:.\LCD.c       **** 			buffer[13]=rventa.direccion[x];			
 358:.\LCD.c       **** 			for(y=0;y<=17;y++){
 1058              		.loc 1 358 0
 1059 0026 354C     		ldr	r4, .L79+12
 356:.\LCD.c       **** 		for(x=1;x<=rventa.direccion[0];x++){
 1060              		.loc 1 356 0
 1061 0028 26E0     		b	.L68
 1062              	.L72:
 357:.\LCD.c       **** 			buffer[13]=rventa.direccion[x];			
 1063              		.loc 1 357 0
 1064 002a 2B44     		add	r3, r3, r5
 1065 002c 93F84330 		ldrb	r3, [r3, #67]	@ zero_extendqisi2
 1066 0030 8DF81130 		strb	r3, [sp, #17]
 1067              		.loc 1 358 0
 1068 0034 0023     		movs	r3, #0
 1069 0036 2360     		str	r3, [r4]
 1070 0038 08E0     		b	.L69
 1071              	.L70:
 359:.\LCD.c       ****         		LCD_1_PutChar(buffer[y]);
 1072              		.loc 1 359 0 discriminator 2
 1073 003a 06AA     		add	r2, sp, #24
 1074 003c 1344     		add	r3, r3, r2
 1075 003e 13F8140C 		ldrb	r0, [r3, #-20]	@ zero_extendqisi2
 1076 0042 FFF7FEFF 		bl	LCD_1_PutChar
 1077              	.LVL90:
 358:.\LCD.c       **** 			for(y=0;y<=17;y++){
 1078              		.loc 1 358 0 discriminator 2
 1079 0046 2368     		ldr	r3, [r4]
 1080 0048 0133     		adds	r3, r3, #1
 1081 004a 2360     		str	r3, [r4]
 1082              	.L69:
 358:.\LCD.c       **** 			for(y=0;y<=17;y++){
 1083              		.loc 1 358 0 is_stmt 0 discriminator 1
 1084 004c 2368     		ldr	r3, [r4]
ARM GAS  C:\Users\RECEPC~1\AppData\Local\Temp\cc89K5zt.s 			page 27


 1085 004e 112B     		cmp	r3, #17
 1086 0050 F3D9     		bls	.L70
 360:.\LCD.c       **** 			}
 361:.\LCD.c       **** 			if(buffer[3]==0xFF){
 1087              		.loc 1 361 0 is_stmt 1
 1088 0052 9DF80730 		ldrb	r3, [sp, #7]	@ zero_extendqisi2
 1089 0056 FF2B     		cmp	r3, #255
 1090 0058 05D1     		bne	.L71
 362:.\LCD.c       **** 				buffer[2]=0x01;
 1091              		.loc 1 362 0
 1092 005a 0123     		movs	r3, #1
 1093 005c 8DF80630 		strb	r3, [sp, #6]
 363:.\LCD.c       **** 				buffer[3]=0x00;
 1094              		.loc 1 363 0
 1095 0060 0023     		movs	r3, #0
 1096 0062 8DF80730 		strb	r3, [sp, #7]
 1097              	.L71:
 364:.\LCD.c       **** 			}			
 365:.\LCD.c       **** 			buffer[3]+=15;
 1098              		.loc 1 365 0
 1099 0066 9DF80730 		ldrb	r3, [sp, #7]	@ zero_extendqisi2
 1100 006a 0F33     		adds	r3, r3, #15
 1101 006c 8DF80730 		strb	r3, [sp, #7]
 356:.\LCD.c       **** 		for(x=1;x<=rventa.direccion[0];x++){
 1102              		.loc 1 356 0
 1103 0070 204B     		ldr	r3, .L79+4
 1104 0072 1A68     		ldr	r2, [r3]
 1105 0074 0132     		adds	r2, r2, #1
 1106 0076 1A60     		str	r2, [r3]
 1107              	.L68:
 356:.\LCD.c       **** 		for(x=1;x<=rventa.direccion[0];x++){
 1108              		.loc 1 356 0 is_stmt 0 discriminator 1
 1109 0078 95F84320 		ldrb	r2, [r5, #67]	@ zero_extendqisi2
 1110 007c 1D4B     		ldr	r3, .L79+4
 1111 007e 1B68     		ldr	r3, [r3]
 1112 0080 9A42     		cmp	r2, r3
 1113 0082 D2D2     		bcs	.L72
 1114 0084 32E0     		b	.L66
 1115              	.L67:
 366:.\LCD.c       **** 		}
 367:.\LCD.c       ****     }
 368:.\LCD.c       ****     else{
 369:.\LCD.c       **** 		for(x=1;x<=rventa.direccion[0];x++){
 1116              		.loc 1 369 0 is_stmt 1
 1117 0086 0122     		movs	r2, #1
 1118 0088 1A4B     		ldr	r3, .L79+4
 1119 008a 1A60     		str	r2, [r3]
 1120 008c 1A4D     		ldr	r5, .L79+8
 370:.\LCD.c       **** 			buffer[13]=rventa.direccion[x];			
 371:.\LCD.c       **** 			for(y=0;y<=17;y++){
 1121              		.loc 1 371 0
 1122 008e 1B4C     		ldr	r4, .L79+12
 369:.\LCD.c       **** 		for(x=1;x<=rventa.direccion[0];x++){
 1123              		.loc 1 369 0
 1124 0090 26E0     		b	.L74
 1125              	.L78:
 370:.\LCD.c       **** 			buffer[13]=rventa.direccion[x];			
ARM GAS  C:\Users\RECEPC~1\AppData\Local\Temp\cc89K5zt.s 			page 28


 1126              		.loc 1 370 0
 1127 0092 2B44     		add	r3, r3, r5
 1128 0094 93F84330 		ldrb	r3, [r3, #67]	@ zero_extendqisi2
 1129 0098 8DF81130 		strb	r3, [sp, #17]
 1130              		.loc 1 371 0
 1131 009c 0023     		movs	r3, #0
 1132 009e 2360     		str	r3, [r4]
 1133 00a0 08E0     		b	.L75
 1134              	.L76:
 372:.\LCD.c       ****         		LCD_2_PutChar(buffer[y]);
 1135              		.loc 1 372 0 discriminator 2
 1136 00a2 06AA     		add	r2, sp, #24
 1137 00a4 1344     		add	r3, r3, r2
 1138 00a6 13F8140C 		ldrb	r0, [r3, #-20]	@ zero_extendqisi2
 1139 00aa FFF7FEFF 		bl	LCD_2_PutChar
 1140              	.LVL91:
 371:.\LCD.c       **** 			for(y=0;y<=17;y++){
 1141              		.loc 1 371 0 discriminator 2
 1142 00ae 2368     		ldr	r3, [r4]
 1143 00b0 0133     		adds	r3, r3, #1
 1144 00b2 2360     		str	r3, [r4]
 1145              	.L75:
 371:.\LCD.c       **** 			for(y=0;y<=17;y++){
 1146              		.loc 1 371 0 is_stmt 0 discriminator 1
 1147 00b4 2368     		ldr	r3, [r4]
 1148 00b6 112B     		cmp	r3, #17
 1149 00b8 F3D9     		bls	.L76
 373:.\LCD.c       **** 			}
 374:.\LCD.c       **** 			if(buffer[3]==0xFF){
 1150              		.loc 1 374 0 is_stmt 1
 1151 00ba 9DF80730 		ldrb	r3, [sp, #7]	@ zero_extendqisi2
 1152 00be FF2B     		cmp	r3, #255
 1153 00c0 05D1     		bne	.L77
 375:.\LCD.c       **** 				buffer[2]=0x01;
 1154              		.loc 1 375 0
 1155 00c2 0123     		movs	r3, #1
 1156 00c4 8DF80630 		strb	r3, [sp, #6]
 376:.\LCD.c       **** 				buffer[3]=0x00;
 1157              		.loc 1 376 0
 1158 00c8 0023     		movs	r3, #0
 1159 00ca 8DF80730 		strb	r3, [sp, #7]
 1160              	.L77:
 377:.\LCD.c       **** 			}			
 378:.\LCD.c       **** 			buffer[3]+=15;
 1161              		.loc 1 378 0
 1162 00ce 9DF80730 		ldrb	r3, [sp, #7]	@ zero_extendqisi2
 1163 00d2 0F33     		adds	r3, r3, #15
 1164 00d4 8DF80730 		strb	r3, [sp, #7]
 369:.\LCD.c       **** 		for(x=1;x<=rventa.direccion[0];x++){
 1165              		.loc 1 369 0
 1166 00d8 064B     		ldr	r3, .L79+4
 1167 00da 1A68     		ldr	r2, [r3]
 1168 00dc 0132     		adds	r2, r2, #1
 1169 00de 1A60     		str	r2, [r3]
 1170              	.L74:
 369:.\LCD.c       **** 		for(x=1;x<=rventa.direccion[0];x++){
 1171              		.loc 1 369 0 is_stmt 0 discriminator 1
ARM GAS  C:\Users\RECEPC~1\AppData\Local\Temp\cc89K5zt.s 			page 29


 1172 00e0 95F84320 		ldrb	r2, [r5, #67]	@ zero_extendqisi2
 1173 00e4 034B     		ldr	r3, .L79+4
 1174 00e6 1B68     		ldr	r3, [r3]
 1175 00e8 9A42     		cmp	r2, r3
 1176 00ea D2D2     		bcs	.L78
 1177              	.L66:
 379:.\LCD.c       **** 		}
 380:.\LCD.c       ****     }	
 381:.\LCD.c       **** }
 1178              		.loc 1 381 0 is_stmt 1
 1179 00ec 06B0     		add	sp, sp, #24
 1180              		@ sp needed
 1181 00ee 70BD     		pop	{r4, r5, r6, pc}
 1182              	.L80:
 1183              		.align	2
 1184              	.L79:
 1185 00f0 00000000 		.word	.LANCHOR0
 1186 00f4 00000000 		.word	x
 1187 00f8 00000000 		.word	rventa
 1188 00fc 00000000 		.word	y
 1189              		.cfi_endproc
 1190              	.LFE70:
 1191              		.size	direccion_LCD, .-direccion_LCD
 1192              		.section	.text.lema1_LCD,"ax",%progbits
 1193              		.align	2
 1194              		.global	lema1_LCD
 1195              		.thumb
 1196              		.thumb_func
 1197              		.type	lema1_LCD, %function
 1198              	lema1_LCD:
 1199              	.LFB71:
 382:.\LCD.c       **** 
 383:.\LCD.c       **** /*
 384:.\LCD.c       **** ***************************************************************************************************
 385:.\LCD.c       **** *                                 		void lema1_LCD(uint8 lcd)
 386:.\LCD.c       **** *
 387:.\LCD.c       **** * Description : 
 388:.\LCD.c       **** *               
 389:.\LCD.c       **** *
 390:.\LCD.c       **** * Argument(s) : none
 391:.\LCD.c       **** *
 392:.\LCD.c       **** * Return(s)   : none
 393:.\LCD.c       **** *
 394:.\LCD.c       **** * Caller(s)   : 
 395:.\LCD.c       **** *
 396:.\LCD.c       **** * Note(s)     : none.
 397:.\LCD.c       **** ***************************************************************************************************
 398:.\LCD.c       **** */
 399:.\LCD.c       **** void lema1_LCD(uint8 lcd){
 1200              		.loc 1 399 0
 1201              		.cfi_startproc
 1202              		@ args = 0, pretend = 0, frame = 24
 1203              		@ frame_needed = 0, uses_anonymous_args = 0
 1204              	.LVL92:
 1205 0000 70B5     		push	{r4, r5, r6, lr}
 1206              		.cfi_def_cfa_offset 16
 1207              		.cfi_offset 4, -16
ARM GAS  C:\Users\RECEPC~1\AppData\Local\Temp\cc89K5zt.s 			page 30


 1208              		.cfi_offset 5, -12
 1209              		.cfi_offset 6, -8
 1210              		.cfi_offset 14, -4
 1211 0002 86B0     		sub	sp, sp, #24
 1212              		.cfi_def_cfa_offset 40
 1213 0004 0646     		mov	r6, r0
 400:.\LCD.c       **** 	uint8 buffer[18]={0xAA,0x98,0x00,0xA5,0x01,0x27,0x23,0xC5,0x02,0x00,0x00,0xFF,0xFF,0x20,0xCC,0x33,
 1214              		.loc 1 400 0
 1215 0006 01AC     		add	r4, sp, #4
 1216 0008 394D     		ldr	r5, .L94
 1217 000a 55F8880F 		ldr	r0, [r5, #136]!	@ unaligned
 1218              	.LVL93:
 1219 000e 6968     		ldr	r1, [r5, #4]	@ unaligned
 1220 0010 AA68     		ldr	r2, [r5, #8]	@ unaligned
 1221 0012 EB68     		ldr	r3, [r5, #12]	@ unaligned
 1222 0014 0FC4     		stmia	r4!, {r0, r1, r2, r3}
 1223 0016 2B8A     		ldrh	r3, [r5, #16]	@ unaligned
 1224 0018 2380     		strh	r3, [r4]	@ unaligned
 401:.\LCD.c       ****     if(lcd==1){
 1225              		.loc 1 401 0
 1226 001a 012E     		cmp	r6, #1
 1227 001c 33D1     		bne	.L82
 402:.\LCD.c       **** 		for(x=1;x<=rventa.lema1[0];x++){
 1228              		.loc 1 402 0
 1229 001e 0122     		movs	r2, #1
 1230 0020 344B     		ldr	r3, .L94+4
 1231 0022 1A60     		str	r2, [r3]
 1232 0024 344D     		ldr	r5, .L94+8
 403:.\LCD.c       **** 			buffer[13]=rventa.lema1[x];			
 404:.\LCD.c       **** 			for(y=0;y<=17;y++){
 1233              		.loc 1 404 0
 1234 0026 354C     		ldr	r4, .L94+12
 402:.\LCD.c       **** 		for(x=1;x<=rventa.lema1[0];x++){
 1235              		.loc 1 402 0
 1236 0028 26E0     		b	.L83
 1237              	.L87:
 403:.\LCD.c       **** 			buffer[13]=rventa.lema1[x];			
 1238              		.loc 1 403 0
 1239 002a 2B44     		add	r3, r3, r5
 1240 002c 93F86130 		ldrb	r3, [r3, #97]	@ zero_extendqisi2
 1241 0030 8DF81130 		strb	r3, [sp, #17]
 1242              		.loc 1 404 0
 1243 0034 0023     		movs	r3, #0
 1244 0036 2360     		str	r3, [r4]
 1245 0038 08E0     		b	.L84
 1246              	.L85:
 405:.\LCD.c       ****         		LCD_1_PutChar(buffer[y]);
 1247              		.loc 1 405 0 discriminator 2
 1248 003a 06AA     		add	r2, sp, #24
 1249 003c 1344     		add	r3, r3, r2
 1250 003e 13F8140C 		ldrb	r0, [r3, #-20]	@ zero_extendqisi2
 1251 0042 FFF7FEFF 		bl	LCD_1_PutChar
 1252              	.LVL94:
 404:.\LCD.c       **** 			for(y=0;y<=17;y++){
 1253              		.loc 1 404 0 discriminator 2
 1254 0046 2368     		ldr	r3, [r4]
 1255 0048 0133     		adds	r3, r3, #1
ARM GAS  C:\Users\RECEPC~1\AppData\Local\Temp\cc89K5zt.s 			page 31


 1256 004a 2360     		str	r3, [r4]
 1257              	.L84:
 404:.\LCD.c       **** 			for(y=0;y<=17;y++){
 1258              		.loc 1 404 0 is_stmt 0 discriminator 1
 1259 004c 2368     		ldr	r3, [r4]
 1260 004e 112B     		cmp	r3, #17
 1261 0050 F3D9     		bls	.L85
 406:.\LCD.c       **** 			}
 407:.\LCD.c       **** 			if(buffer[3]==0xFF){
 1262              		.loc 1 407 0 is_stmt 1
 1263 0052 9DF80730 		ldrb	r3, [sp, #7]	@ zero_extendqisi2
 1264 0056 FF2B     		cmp	r3, #255
 1265 0058 05D1     		bne	.L86
 408:.\LCD.c       **** 				buffer[2]=0x01;
 1266              		.loc 1 408 0
 1267 005a 0123     		movs	r3, #1
 1268 005c 8DF80630 		strb	r3, [sp, #6]
 409:.\LCD.c       **** 				buffer[3]=0x00;
 1269              		.loc 1 409 0
 1270 0060 0023     		movs	r3, #0
 1271 0062 8DF80730 		strb	r3, [sp, #7]
 1272              	.L86:
 410:.\LCD.c       **** 			}			
 411:.\LCD.c       **** 			buffer[3]+=15;
 1273              		.loc 1 411 0
 1274 0066 9DF80730 		ldrb	r3, [sp, #7]	@ zero_extendqisi2
 1275 006a 0F33     		adds	r3, r3, #15
 1276 006c 8DF80730 		strb	r3, [sp, #7]
 402:.\LCD.c       **** 		for(x=1;x<=rventa.lema1[0];x++){
 1277              		.loc 1 402 0
 1278 0070 204B     		ldr	r3, .L94+4
 1279 0072 1A68     		ldr	r2, [r3]
 1280 0074 0132     		adds	r2, r2, #1
 1281 0076 1A60     		str	r2, [r3]
 1282              	.L83:
 402:.\LCD.c       **** 		for(x=1;x<=rventa.lema1[0];x++){
 1283              		.loc 1 402 0 is_stmt 0 discriminator 1
 1284 0078 95F86120 		ldrb	r2, [r5, #97]	@ zero_extendqisi2
 1285 007c 1D4B     		ldr	r3, .L94+4
 1286 007e 1B68     		ldr	r3, [r3]
 1287 0080 9A42     		cmp	r2, r3
 1288 0082 D2D2     		bcs	.L87
 1289 0084 32E0     		b	.L81
 1290              	.L82:
 412:.\LCD.c       **** 		}
 413:.\LCD.c       ****     }
 414:.\LCD.c       ****     else{
 415:.\LCD.c       **** 		for(x=1;x<=rventa.lema1[0];x++){
 1291              		.loc 1 415 0 is_stmt 1
 1292 0086 0122     		movs	r2, #1
 1293 0088 1A4B     		ldr	r3, .L94+4
 1294 008a 1A60     		str	r2, [r3]
 1295 008c 1A4D     		ldr	r5, .L94+8
 416:.\LCD.c       **** 			buffer[13]=rventa.lema1[x];			
 417:.\LCD.c       **** 			for(y=0;y<=17;y++){
 1296              		.loc 1 417 0
 1297 008e 1B4C     		ldr	r4, .L94+12
ARM GAS  C:\Users\RECEPC~1\AppData\Local\Temp\cc89K5zt.s 			page 32


 415:.\LCD.c       **** 		for(x=1;x<=rventa.lema1[0];x++){
 1298              		.loc 1 415 0
 1299 0090 26E0     		b	.L89
 1300              	.L93:
 416:.\LCD.c       **** 			buffer[13]=rventa.lema1[x];			
 1301              		.loc 1 416 0
 1302 0092 2B44     		add	r3, r3, r5
 1303 0094 93F86130 		ldrb	r3, [r3, #97]	@ zero_extendqisi2
 1304 0098 8DF81130 		strb	r3, [sp, #17]
 1305              		.loc 1 417 0
 1306 009c 0023     		movs	r3, #0
 1307 009e 2360     		str	r3, [r4]
 1308 00a0 08E0     		b	.L90
 1309              	.L91:
 418:.\LCD.c       ****         		LCD_2_PutChar(buffer[y]);
 1310              		.loc 1 418 0 discriminator 2
 1311 00a2 06AA     		add	r2, sp, #24
 1312 00a4 1344     		add	r3, r3, r2
 1313 00a6 13F8140C 		ldrb	r0, [r3, #-20]	@ zero_extendqisi2
 1314 00aa FFF7FEFF 		bl	LCD_2_PutChar
 1315              	.LVL95:
 417:.\LCD.c       **** 			for(y=0;y<=17;y++){
 1316              		.loc 1 417 0 discriminator 2
 1317 00ae 2368     		ldr	r3, [r4]
 1318 00b0 0133     		adds	r3, r3, #1
 1319 00b2 2360     		str	r3, [r4]
 1320              	.L90:
 417:.\LCD.c       **** 			for(y=0;y<=17;y++){
 1321              		.loc 1 417 0 is_stmt 0 discriminator 1
 1322 00b4 2368     		ldr	r3, [r4]
 1323 00b6 112B     		cmp	r3, #17
 1324 00b8 F3D9     		bls	.L91
 419:.\LCD.c       **** 			}
 420:.\LCD.c       **** 			if(buffer[3]==0xFF){
 1325              		.loc 1 420 0 is_stmt 1
 1326 00ba 9DF80730 		ldrb	r3, [sp, #7]	@ zero_extendqisi2
 1327 00be FF2B     		cmp	r3, #255
 1328 00c0 05D1     		bne	.L92
 421:.\LCD.c       **** 				buffer[2]=0x01;
 1329              		.loc 1 421 0
 1330 00c2 0123     		movs	r3, #1
 1331 00c4 8DF80630 		strb	r3, [sp, #6]
 422:.\LCD.c       **** 				buffer[3]=0x00;
 1332              		.loc 1 422 0
 1333 00c8 0023     		movs	r3, #0
 1334 00ca 8DF80730 		strb	r3, [sp, #7]
 1335              	.L92:
 423:.\LCD.c       **** 			}			
 424:.\LCD.c       **** 			buffer[3]+=15;
 1336              		.loc 1 424 0
 1337 00ce 9DF80730 		ldrb	r3, [sp, #7]	@ zero_extendqisi2
 1338 00d2 0F33     		adds	r3, r3, #15
 1339 00d4 8DF80730 		strb	r3, [sp, #7]
 415:.\LCD.c       **** 		for(x=1;x<=rventa.lema1[0];x++){
 1340              		.loc 1 415 0
 1341 00d8 064B     		ldr	r3, .L94+4
 1342 00da 1A68     		ldr	r2, [r3]
ARM GAS  C:\Users\RECEPC~1\AppData\Local\Temp\cc89K5zt.s 			page 33


 1343 00dc 0132     		adds	r2, r2, #1
 1344 00de 1A60     		str	r2, [r3]
 1345              	.L89:
 415:.\LCD.c       **** 		for(x=1;x<=rventa.lema1[0];x++){
 1346              		.loc 1 415 0 is_stmt 0 discriminator 1
 1347 00e0 95F86120 		ldrb	r2, [r5, #97]	@ zero_extendqisi2
 1348 00e4 034B     		ldr	r3, .L94+4
 1349 00e6 1B68     		ldr	r3, [r3]
 1350 00e8 9A42     		cmp	r2, r3
 1351 00ea D2D2     		bcs	.L93
 1352              	.L81:
 425:.\LCD.c       **** 		}
 426:.\LCD.c       ****     }	
 427:.\LCD.c       **** }
 1353              		.loc 1 427 0 is_stmt 1
 1354 00ec 06B0     		add	sp, sp, #24
 1355              		@ sp needed
 1356 00ee 70BD     		pop	{r4, r5, r6, pc}
 1357              	.L95:
 1358              		.align	2
 1359              	.L94:
 1360 00f0 00000000 		.word	.LANCHOR0
 1361 00f4 00000000 		.word	x
 1362 00f8 00000000 		.word	rventa
 1363 00fc 00000000 		.word	y
 1364              		.cfi_endproc
 1365              	.LFE71:
 1366              		.size	lema1_LCD, .-lema1_LCD
 1367              		.section	.text.lema2_LCD,"ax",%progbits
 1368              		.align	2
 1369              		.global	lema2_LCD
 1370              		.thumb
 1371              		.thumb_func
 1372              		.type	lema2_LCD, %function
 1373              	lema2_LCD:
 1374              	.LFB72:
 428:.\LCD.c       **** 
 429:.\LCD.c       **** /*
 430:.\LCD.c       **** ***************************************************************************************************
 431:.\LCD.c       **** *                                 		void lema2_LCD(uint8 lcd)
 432:.\LCD.c       **** *
 433:.\LCD.c       **** * Description : 
 434:.\LCD.c       **** *               
 435:.\LCD.c       **** *
 436:.\LCD.c       **** * Argument(s) : none
 437:.\LCD.c       **** *
 438:.\LCD.c       **** * Return(s)   : none
 439:.\LCD.c       **** *
 440:.\LCD.c       **** * Caller(s)   : 
 441:.\LCD.c       **** *
 442:.\LCD.c       **** * Note(s)     : none.
 443:.\LCD.c       **** ***************************************************************************************************
 444:.\LCD.c       **** */
 445:.\LCD.c       **** void lema2_LCD(uint8 lcd){
 1375              		.loc 1 445 0
 1376              		.cfi_startproc
 1377              		@ args = 0, pretend = 0, frame = 24
ARM GAS  C:\Users\RECEPC~1\AppData\Local\Temp\cc89K5zt.s 			page 34


 1378              		@ frame_needed = 0, uses_anonymous_args = 0
 1379              	.LVL96:
 1380 0000 70B5     		push	{r4, r5, r6, lr}
 1381              		.cfi_def_cfa_offset 16
 1382              		.cfi_offset 4, -16
 1383              		.cfi_offset 5, -12
 1384              		.cfi_offset 6, -8
 1385              		.cfi_offset 14, -4
 1386 0002 86B0     		sub	sp, sp, #24
 1387              		.cfi_def_cfa_offset 40
 1388 0004 0646     		mov	r6, r0
 446:.\LCD.c       **** 	uint8 buffer[18]={0xAA,0x98,0x00,0xA5,0x01,0x5F,0x23,0xC5,0x02,0x00,0x00,0xFF,0xFF,0x20,0xCC,0x33,
 1389              		.loc 1 446 0
 1390 0006 01AC     		add	r4, sp, #4
 1391 0008 394D     		ldr	r5, .L109
 1392 000a 55F89C0F 		ldr	r0, [r5, #156]!	@ unaligned
 1393              	.LVL97:
 1394 000e 6968     		ldr	r1, [r5, #4]	@ unaligned
 1395 0010 AA68     		ldr	r2, [r5, #8]	@ unaligned
 1396 0012 EB68     		ldr	r3, [r5, #12]	@ unaligned
 1397 0014 0FC4     		stmia	r4!, {r0, r1, r2, r3}
 1398 0016 2B8A     		ldrh	r3, [r5, #16]	@ unaligned
 1399 0018 2380     		strh	r3, [r4]	@ unaligned
 447:.\LCD.c       ****     if(lcd==1){
 1400              		.loc 1 447 0
 1401 001a 012E     		cmp	r6, #1
 1402 001c 33D1     		bne	.L97
 448:.\LCD.c       **** 		for(x=1;x<=rventa.lema2[0];x++){
 1403              		.loc 1 448 0
 1404 001e 0122     		movs	r2, #1
 1405 0020 344B     		ldr	r3, .L109+4
 1406 0022 1A60     		str	r2, [r3]
 1407 0024 344D     		ldr	r5, .L109+8
 449:.\LCD.c       **** 			buffer[13]=rventa.lema2[x];			
 450:.\LCD.c       **** 			for(y=0;y<=17;y++){
 1408              		.loc 1 450 0
 1409 0026 354C     		ldr	r4, .L109+12
 448:.\LCD.c       **** 		for(x=1;x<=rventa.lema2[0];x++){
 1410              		.loc 1 448 0
 1411 0028 26E0     		b	.L98
 1412              	.L102:
 449:.\LCD.c       **** 			buffer[13]=rventa.lema2[x];			
 1413              		.loc 1 449 0
 1414 002a 2B44     		add	r3, r3, r5
 1415 002c 93F87F30 		ldrb	r3, [r3, #127]	@ zero_extendqisi2
 1416 0030 8DF81130 		strb	r3, [sp, #17]
 1417              		.loc 1 450 0
 1418 0034 0023     		movs	r3, #0
 1419 0036 2360     		str	r3, [r4]
 1420 0038 08E0     		b	.L99
 1421              	.L100:
 451:.\LCD.c       ****         		LCD_1_PutChar(buffer[y]);
 1422              		.loc 1 451 0 discriminator 2
 1423 003a 06AA     		add	r2, sp, #24
 1424 003c 1344     		add	r3, r3, r2
 1425 003e 13F8140C 		ldrb	r0, [r3, #-20]	@ zero_extendqisi2
 1426 0042 FFF7FEFF 		bl	LCD_1_PutChar
ARM GAS  C:\Users\RECEPC~1\AppData\Local\Temp\cc89K5zt.s 			page 35


 1427              	.LVL98:
 450:.\LCD.c       **** 			for(y=0;y<=17;y++){
 1428              		.loc 1 450 0 discriminator 2
 1429 0046 2368     		ldr	r3, [r4]
 1430 0048 0133     		adds	r3, r3, #1
 1431 004a 2360     		str	r3, [r4]
 1432              	.L99:
 450:.\LCD.c       **** 			for(y=0;y<=17;y++){
 1433              		.loc 1 450 0 is_stmt 0 discriminator 1
 1434 004c 2368     		ldr	r3, [r4]
 1435 004e 112B     		cmp	r3, #17
 1436 0050 F3D9     		bls	.L100
 452:.\LCD.c       **** 			}
 453:.\LCD.c       **** 			if(buffer[3]==0xFF){
 1437              		.loc 1 453 0 is_stmt 1
 1438 0052 9DF80730 		ldrb	r3, [sp, #7]	@ zero_extendqisi2
 1439 0056 FF2B     		cmp	r3, #255
 1440 0058 05D1     		bne	.L101
 454:.\LCD.c       **** 				buffer[2]=0x01;
 1441              		.loc 1 454 0
 1442 005a 0123     		movs	r3, #1
 1443 005c 8DF80630 		strb	r3, [sp, #6]
 455:.\LCD.c       **** 				buffer[3]=0x00;
 1444              		.loc 1 455 0
 1445 0060 0023     		movs	r3, #0
 1446 0062 8DF80730 		strb	r3, [sp, #7]
 1447              	.L101:
 456:.\LCD.c       **** 			}			
 457:.\LCD.c       **** 			buffer[3]+=15;
 1448              		.loc 1 457 0
 1449 0066 9DF80730 		ldrb	r3, [sp, #7]	@ zero_extendqisi2
 1450 006a 0F33     		adds	r3, r3, #15
 1451 006c 8DF80730 		strb	r3, [sp, #7]
 448:.\LCD.c       **** 		for(x=1;x<=rventa.lema2[0];x++){
 1452              		.loc 1 448 0
 1453 0070 204B     		ldr	r3, .L109+4
 1454 0072 1A68     		ldr	r2, [r3]
 1455 0074 0132     		adds	r2, r2, #1
 1456 0076 1A60     		str	r2, [r3]
 1457              	.L98:
 448:.\LCD.c       **** 		for(x=1;x<=rventa.lema2[0];x++){
 1458              		.loc 1 448 0 is_stmt 0 discriminator 1
 1459 0078 95F87F20 		ldrb	r2, [r5, #127]	@ zero_extendqisi2
 1460 007c 1D4B     		ldr	r3, .L109+4
 1461 007e 1B68     		ldr	r3, [r3]
 1462 0080 9A42     		cmp	r2, r3
 1463 0082 D2D2     		bcs	.L102
 1464 0084 32E0     		b	.L96
 1465              	.L97:
 458:.\LCD.c       **** 		}
 459:.\LCD.c       ****     }
 460:.\LCD.c       ****     else{
 461:.\LCD.c       **** 		for(x=1;x<=rventa.lema2[0];x++){
 1466              		.loc 1 461 0 is_stmt 1
 1467 0086 0122     		movs	r2, #1
 1468 0088 1A4B     		ldr	r3, .L109+4
 1469 008a 1A60     		str	r2, [r3]
ARM GAS  C:\Users\RECEPC~1\AppData\Local\Temp\cc89K5zt.s 			page 36


 1470 008c 1A4D     		ldr	r5, .L109+8
 462:.\LCD.c       **** 			buffer[13]=rventa.lema2[x];			
 463:.\LCD.c       **** 			for(y=0;y<=17;y++){
 1471              		.loc 1 463 0
 1472 008e 1B4C     		ldr	r4, .L109+12
 461:.\LCD.c       **** 		for(x=1;x<=rventa.lema2[0];x++){
 1473              		.loc 1 461 0
 1474 0090 26E0     		b	.L104
 1475              	.L108:
 462:.\LCD.c       **** 			buffer[13]=rventa.lema2[x];			
 1476              		.loc 1 462 0
 1477 0092 2B44     		add	r3, r3, r5
 1478 0094 93F87F30 		ldrb	r3, [r3, #127]	@ zero_extendqisi2
 1479 0098 8DF81130 		strb	r3, [sp, #17]
 1480              		.loc 1 463 0
 1481 009c 0023     		movs	r3, #0
 1482 009e 2360     		str	r3, [r4]
 1483 00a0 08E0     		b	.L105
 1484              	.L106:
 464:.\LCD.c       ****         		LCD_2_PutChar(buffer[y]);
 1485              		.loc 1 464 0 discriminator 2
 1486 00a2 06AA     		add	r2, sp, #24
 1487 00a4 1344     		add	r3, r3, r2
 1488 00a6 13F8140C 		ldrb	r0, [r3, #-20]	@ zero_extendqisi2
 1489 00aa FFF7FEFF 		bl	LCD_2_PutChar
 1490              	.LVL99:
 463:.\LCD.c       **** 			for(y=0;y<=17;y++){
 1491              		.loc 1 463 0 discriminator 2
 1492 00ae 2368     		ldr	r3, [r4]
 1493 00b0 0133     		adds	r3, r3, #1
 1494 00b2 2360     		str	r3, [r4]
 1495              	.L105:
 463:.\LCD.c       **** 			for(y=0;y<=17;y++){
 1496              		.loc 1 463 0 is_stmt 0 discriminator 1
 1497 00b4 2368     		ldr	r3, [r4]
 1498 00b6 112B     		cmp	r3, #17
 1499 00b8 F3D9     		bls	.L106
 465:.\LCD.c       **** 			}
 466:.\LCD.c       **** 			if(buffer[3]==0xFF){
 1500              		.loc 1 466 0 is_stmt 1
 1501 00ba 9DF80730 		ldrb	r3, [sp, #7]	@ zero_extendqisi2
 1502 00be FF2B     		cmp	r3, #255
 1503 00c0 05D1     		bne	.L107
 467:.\LCD.c       **** 				buffer[2]=0x01;
 1504              		.loc 1 467 0
 1505 00c2 0123     		movs	r3, #1
 1506 00c4 8DF80630 		strb	r3, [sp, #6]
 468:.\LCD.c       **** 				buffer[3]=0x00;
 1507              		.loc 1 468 0
 1508 00c8 0023     		movs	r3, #0
 1509 00ca 8DF80730 		strb	r3, [sp, #7]
 1510              	.L107:
 469:.\LCD.c       **** 			}			
 470:.\LCD.c       **** 			buffer[3]+=15;
 1511              		.loc 1 470 0
 1512 00ce 9DF80730 		ldrb	r3, [sp, #7]	@ zero_extendqisi2
 1513 00d2 0F33     		adds	r3, r3, #15
ARM GAS  C:\Users\RECEPC~1\AppData\Local\Temp\cc89K5zt.s 			page 37


 1514 00d4 8DF80730 		strb	r3, [sp, #7]
 461:.\LCD.c       **** 		for(x=1;x<=rventa.lema2[0];x++){
 1515              		.loc 1 461 0
 1516 00d8 064B     		ldr	r3, .L109+4
 1517 00da 1A68     		ldr	r2, [r3]
 1518 00dc 0132     		adds	r2, r2, #1
 1519 00de 1A60     		str	r2, [r3]
 1520              	.L104:
 461:.\LCD.c       **** 		for(x=1;x<=rventa.lema2[0];x++){
 1521              		.loc 1 461 0 is_stmt 0 discriminator 1
 1522 00e0 95F87F20 		ldrb	r2, [r5, #127]	@ zero_extendqisi2
 1523 00e4 034B     		ldr	r3, .L109+4
 1524 00e6 1B68     		ldr	r3, [r3]
 1525 00e8 9A42     		cmp	r2, r3
 1526 00ea D2D2     		bcs	.L108
 1527              	.L96:
 471:.\LCD.c       **** 		}
 472:.\LCD.c       ****     }	
 473:.\LCD.c       **** }
 1528              		.loc 1 473 0 is_stmt 1
 1529 00ec 06B0     		add	sp, sp, #24
 1530              		@ sp needed
 1531 00ee 70BD     		pop	{r4, r5, r6, pc}
 1532              	.L110:
 1533              		.align	2
 1534              	.L109:
 1535 00f0 00000000 		.word	.LANCHOR0
 1536 00f4 00000000 		.word	x
 1537 00f8 00000000 		.word	rventa
 1538 00fc 00000000 		.word	y
 1539              		.cfi_endproc
 1540              	.LFE72:
 1541              		.size	lema2_LCD, .-lema2_LCD
 1542              		.section	.text.telefono_LCD,"ax",%progbits
 1543              		.align	2
 1544              		.global	telefono_LCD
 1545              		.thumb
 1546              		.thumb_func
 1547              		.type	telefono_LCD, %function
 1548              	telefono_LCD:
 1549              	.LFB73:
 474:.\LCD.c       **** 
 475:.\LCD.c       **** /*
 476:.\LCD.c       **** ***************************************************************************************************
 477:.\LCD.c       **** *                                 			void telefono_LCD(uint8 lcd)
 478:.\LCD.c       **** *
 479:.\LCD.c       **** * Description : 
 480:.\LCD.c       **** *               
 481:.\LCD.c       **** *
 482:.\LCD.c       **** * Argument(s) : none
 483:.\LCD.c       **** *
 484:.\LCD.c       **** * Return(s)   : none
 485:.\LCD.c       **** *
 486:.\LCD.c       **** * Caller(s)   : 
 487:.\LCD.c       **** *
 488:.\LCD.c       **** * Note(s)     : none.
 489:.\LCD.c       **** ***************************************************************************************************
ARM GAS  C:\Users\RECEPC~1\AppData\Local\Temp\cc89K5zt.s 			page 38


 490:.\LCD.c       **** */
 491:.\LCD.c       **** void telefono_LCD(uint8 lcd){
 1550              		.loc 1 491 0
 1551              		.cfi_startproc
 1552              		@ args = 0, pretend = 0, frame = 24
 1553              		@ frame_needed = 0, uses_anonymous_args = 0
 1554              	.LVL100:
 1555 0000 70B5     		push	{r4, r5, r6, lr}
 1556              		.cfi_def_cfa_offset 16
 1557              		.cfi_offset 4, -16
 1558              		.cfi_offset 5, -12
 1559              		.cfi_offset 6, -8
 1560              		.cfi_offset 14, -4
 1561 0002 86B0     		sub	sp, sp, #24
 1562              		.cfi_def_cfa_offset 40
 1563 0004 0646     		mov	r6, r0
 492:.\LCD.c       **** 	uint8 buffer[18]={0xAA,0x98,0x00,0xA5,0x00,0xEE,0x23,0xC5,0x02,0x00,0x00,0xFF,0xFF,0x20,0xCC,0x33,
 1564              		.loc 1 492 0
 1565 0006 01AC     		add	r4, sp, #4
 1566 0008 394D     		ldr	r5, .L124
 1567 000a 55F8B00F 		ldr	r0, [r5, #176]!	@ unaligned
 1568              	.LVL101:
 1569 000e 6968     		ldr	r1, [r5, #4]	@ unaligned
 1570 0010 AA68     		ldr	r2, [r5, #8]	@ unaligned
 1571 0012 EB68     		ldr	r3, [r5, #12]	@ unaligned
 1572 0014 0FC4     		stmia	r4!, {r0, r1, r2, r3}
 1573 0016 2B8A     		ldrh	r3, [r5, #16]	@ unaligned
 1574 0018 2380     		strh	r3, [r4]	@ unaligned
 493:.\LCD.c       ****     if(lcd==1){
 1575              		.loc 1 493 0
 1576 001a 012E     		cmp	r6, #1
 1577 001c 33D1     		bne	.L112
 494:.\LCD.c       **** 		for(x=1;x<=rventa.telefono[0];x++){
 1578              		.loc 1 494 0
 1579 001e 0122     		movs	r2, #1
 1580 0020 344B     		ldr	r3, .L124+4
 1581 0022 1A60     		str	r2, [r3]
 1582 0024 344D     		ldr	r5, .L124+8
 495:.\LCD.c       **** 			buffer[13]=rventa.telefono[x];			
 496:.\LCD.c       **** 			for(y=0;y<=17;y++){
 1583              		.loc 1 496 0
 1584 0026 354C     		ldr	r4, .L124+12
 494:.\LCD.c       **** 		for(x=1;x<=rventa.telefono[0];x++){
 1585              		.loc 1 494 0
 1586 0028 26E0     		b	.L113
 1587              	.L117:
 495:.\LCD.c       **** 			buffer[13]=rventa.telefono[x];			
 1588              		.loc 1 495 0
 1589 002a 2B44     		add	r3, r3, r5
 1590 002c 93F82F30 		ldrb	r3, [r3, #47]	@ zero_extendqisi2
 1591 0030 8DF81130 		strb	r3, [sp, #17]
 1592              		.loc 1 496 0
 1593 0034 0023     		movs	r3, #0
 1594 0036 2360     		str	r3, [r4]
 1595 0038 08E0     		b	.L114
 1596              	.L115:
 497:.\LCD.c       ****         		LCD_1_PutChar(buffer[y]);
ARM GAS  C:\Users\RECEPC~1\AppData\Local\Temp\cc89K5zt.s 			page 39


 1597              		.loc 1 497 0 discriminator 2
 1598 003a 06AA     		add	r2, sp, #24
 1599 003c 1344     		add	r3, r3, r2
 1600 003e 13F8140C 		ldrb	r0, [r3, #-20]	@ zero_extendqisi2
 1601 0042 FFF7FEFF 		bl	LCD_1_PutChar
 1602              	.LVL102:
 496:.\LCD.c       **** 			for(y=0;y<=17;y++){
 1603              		.loc 1 496 0 discriminator 2
 1604 0046 2368     		ldr	r3, [r4]
 1605 0048 0133     		adds	r3, r3, #1
 1606 004a 2360     		str	r3, [r4]
 1607              	.L114:
 496:.\LCD.c       **** 			for(y=0;y<=17;y++){
 1608              		.loc 1 496 0 is_stmt 0 discriminator 1
 1609 004c 2368     		ldr	r3, [r4]
 1610 004e 112B     		cmp	r3, #17
 1611 0050 F3D9     		bls	.L115
 498:.\LCD.c       **** 			}
 499:.\LCD.c       **** 			if(buffer[3]==0xFF){
 1612              		.loc 1 499 0 is_stmt 1
 1613 0052 9DF80730 		ldrb	r3, [sp, #7]	@ zero_extendqisi2
 1614 0056 FF2B     		cmp	r3, #255
 1615 0058 05D1     		bne	.L116
 500:.\LCD.c       **** 				buffer[2]=0x01;
 1616              		.loc 1 500 0
 1617 005a 0123     		movs	r3, #1
 1618 005c 8DF80630 		strb	r3, [sp, #6]
 501:.\LCD.c       **** 				buffer[3]=0x00;
 1619              		.loc 1 501 0
 1620 0060 0023     		movs	r3, #0
 1621 0062 8DF80730 		strb	r3, [sp, #7]
 1622              	.L116:
 502:.\LCD.c       **** 			}			
 503:.\LCD.c       **** 			buffer[3]+=15;
 1623              		.loc 1 503 0
 1624 0066 9DF80730 		ldrb	r3, [sp, #7]	@ zero_extendqisi2
 1625 006a 0F33     		adds	r3, r3, #15
 1626 006c 8DF80730 		strb	r3, [sp, #7]
 494:.\LCD.c       **** 		for(x=1;x<=rventa.telefono[0];x++){
 1627              		.loc 1 494 0
 1628 0070 204B     		ldr	r3, .L124+4
 1629 0072 1A68     		ldr	r2, [r3]
 1630 0074 0132     		adds	r2, r2, #1
 1631 0076 1A60     		str	r2, [r3]
 1632              	.L113:
 494:.\LCD.c       **** 		for(x=1;x<=rventa.telefono[0];x++){
 1633              		.loc 1 494 0 is_stmt 0 discriminator 1
 1634 0078 95F82F20 		ldrb	r2, [r5, #47]	@ zero_extendqisi2
 1635 007c 1D4B     		ldr	r3, .L124+4
 1636 007e 1B68     		ldr	r3, [r3]
 1637 0080 9A42     		cmp	r2, r3
 1638 0082 D2D2     		bcs	.L117
 1639 0084 32E0     		b	.L111
 1640              	.L112:
 504:.\LCD.c       **** 		}
 505:.\LCD.c       ****     }
 506:.\LCD.c       ****     else{
ARM GAS  C:\Users\RECEPC~1\AppData\Local\Temp\cc89K5zt.s 			page 40


 507:.\LCD.c       **** 		for(x=1;x<=rventa.telefono[0];x++){
 1641              		.loc 1 507 0 is_stmt 1
 1642 0086 0122     		movs	r2, #1
 1643 0088 1A4B     		ldr	r3, .L124+4
 1644 008a 1A60     		str	r2, [r3]
 1645 008c 1A4D     		ldr	r5, .L124+8
 508:.\LCD.c       **** 			buffer[13]=rventa.telefono[x];			
 509:.\LCD.c       **** 			for(y=0;y<=17;y++){
 1646              		.loc 1 509 0
 1647 008e 1B4C     		ldr	r4, .L124+12
 507:.\LCD.c       **** 		for(x=1;x<=rventa.telefono[0];x++){
 1648              		.loc 1 507 0
 1649 0090 26E0     		b	.L119
 1650              	.L123:
 508:.\LCD.c       **** 			buffer[13]=rventa.telefono[x];			
 1651              		.loc 1 508 0
 1652 0092 2B44     		add	r3, r3, r5
 1653 0094 93F82F30 		ldrb	r3, [r3, #47]	@ zero_extendqisi2
 1654 0098 8DF81130 		strb	r3, [sp, #17]
 1655              		.loc 1 509 0
 1656 009c 0023     		movs	r3, #0
 1657 009e 2360     		str	r3, [r4]
 1658 00a0 08E0     		b	.L120
 1659              	.L121:
 510:.\LCD.c       ****         		LCD_2_PutChar(buffer[y]);
 1660              		.loc 1 510 0 discriminator 2
 1661 00a2 06AA     		add	r2, sp, #24
 1662 00a4 1344     		add	r3, r3, r2
 1663 00a6 13F8140C 		ldrb	r0, [r3, #-20]	@ zero_extendqisi2
 1664 00aa FFF7FEFF 		bl	LCD_2_PutChar
 1665              	.LVL103:
 509:.\LCD.c       **** 			for(y=0;y<=17;y++){
 1666              		.loc 1 509 0 discriminator 2
 1667 00ae 2368     		ldr	r3, [r4]
 1668 00b0 0133     		adds	r3, r3, #1
 1669 00b2 2360     		str	r3, [r4]
 1670              	.L120:
 509:.\LCD.c       **** 			for(y=0;y<=17;y++){
 1671              		.loc 1 509 0 is_stmt 0 discriminator 1
 1672 00b4 2368     		ldr	r3, [r4]
 1673 00b6 112B     		cmp	r3, #17
 1674 00b8 F3D9     		bls	.L121
 511:.\LCD.c       **** 			}
 512:.\LCD.c       **** 			if(buffer[3]==0xFF){
 1675              		.loc 1 512 0 is_stmt 1
 1676 00ba 9DF80730 		ldrb	r3, [sp, #7]	@ zero_extendqisi2
 1677 00be FF2B     		cmp	r3, #255
 1678 00c0 05D1     		bne	.L122
 513:.\LCD.c       **** 				buffer[2]=0x01;
 1679              		.loc 1 513 0
 1680 00c2 0123     		movs	r3, #1
 1681 00c4 8DF80630 		strb	r3, [sp, #6]
 514:.\LCD.c       **** 				buffer[3]=0x00;
 1682              		.loc 1 514 0
 1683 00c8 0023     		movs	r3, #0
 1684 00ca 8DF80730 		strb	r3, [sp, #7]
 1685              	.L122:
ARM GAS  C:\Users\RECEPC~1\AppData\Local\Temp\cc89K5zt.s 			page 41


 515:.\LCD.c       **** 			}			
 516:.\LCD.c       **** 			buffer[3]+=15;
 1686              		.loc 1 516 0
 1687 00ce 9DF80730 		ldrb	r3, [sp, #7]	@ zero_extendqisi2
 1688 00d2 0F33     		adds	r3, r3, #15
 1689 00d4 8DF80730 		strb	r3, [sp, #7]
 507:.\LCD.c       **** 		for(x=1;x<=rventa.telefono[0];x++){
 1690              		.loc 1 507 0
 1691 00d8 064B     		ldr	r3, .L124+4
 1692 00da 1A68     		ldr	r2, [r3]
 1693 00dc 0132     		adds	r2, r2, #1
 1694 00de 1A60     		str	r2, [r3]
 1695              	.L119:
 507:.\LCD.c       **** 		for(x=1;x<=rventa.telefono[0];x++){
 1696              		.loc 1 507 0 is_stmt 0 discriminator 1
 1697 00e0 95F82F20 		ldrb	r2, [r5, #47]	@ zero_extendqisi2
 1698 00e4 034B     		ldr	r3, .L124+4
 1699 00e6 1B68     		ldr	r3, [r3]
 1700 00e8 9A42     		cmp	r2, r3
 1701 00ea D2D2     		bcs	.L123
 1702              	.L111:
 517:.\LCD.c       **** 		}
 518:.\LCD.c       ****     }	
 519:.\LCD.c       **** }
 1703              		.loc 1 519 0 is_stmt 1
 1704 00ec 06B0     		add	sp, sp, #24
 1705              		@ sp needed
 1706 00ee 70BD     		pop	{r4, r5, r6, pc}
 1707              	.L125:
 1708              		.align	2
 1709              	.L124:
 1710 00f0 00000000 		.word	.LANCHOR0
 1711 00f4 00000000 		.word	x
 1712 00f8 00000000 		.word	rventa
 1713 00fc 00000000 		.word	y
 1714              		.cfi_endproc
 1715              	.LFE73:
 1716              		.size	telefono_LCD, .-telefono_LCD
 1717              		.section	.text.nit_LCD,"ax",%progbits
 1718              		.align	2
 1719              		.global	nit_LCD
 1720              		.thumb
 1721              		.thumb_func
 1722              		.type	nit_LCD, %function
 1723              	nit_LCD:
 1724              	.LFB74:
 520:.\LCD.c       **** 
 521:.\LCD.c       **** /*
 522:.\LCD.c       **** ***************************************************************************************************
 523:.\LCD.c       **** *                                 			void nit_LCD(uint8 lcd)
 524:.\LCD.c       **** *
 525:.\LCD.c       **** * Description : 
 526:.\LCD.c       **** *               
 527:.\LCD.c       **** *
 528:.\LCD.c       **** * Argument(s) : none
 529:.\LCD.c       **** *
 530:.\LCD.c       **** * Return(s)   : none
ARM GAS  C:\Users\RECEPC~1\AppData\Local\Temp\cc89K5zt.s 			page 42


 531:.\LCD.c       **** *
 532:.\LCD.c       **** * Caller(s)   : 
 533:.\LCD.c       **** *
 534:.\LCD.c       **** * Note(s)     : none.
 535:.\LCD.c       **** ***************************************************************************************************
 536:.\LCD.c       **** */
 537:.\LCD.c       **** void nit_LCD(uint8 lcd){
 1725              		.loc 1 537 0
 1726              		.cfi_startproc
 1727              		@ args = 0, pretend = 0, frame = 24
 1728              		@ frame_needed = 0, uses_anonymous_args = 0
 1729              	.LVL104:
 1730 0000 70B5     		push	{r4, r5, r6, lr}
 1731              		.cfi_def_cfa_offset 16
 1732              		.cfi_offset 4, -16
 1733              		.cfi_offset 5, -12
 1734              		.cfi_offset 6, -8
 1735              		.cfi_offset 14, -4
 1736 0002 86B0     		sub	sp, sp, #24
 1737              		.cfi_def_cfa_offset 40
 1738 0004 0646     		mov	r6, r0
 538:.\LCD.c       **** 	uint8 buffer[18]={0xAA,0x98,0x00,0xA5,0x01,0x99,0x23,0xC5,0x02,0x00,0x00,0xFF,0xFF,0x20,0xCC,0x33,
 1739              		.loc 1 538 0
 1740 0006 01AC     		add	r4, sp, #4
 1741 0008 394D     		ldr	r5, .L139
 1742 000a 55F8C40F 		ldr	r0, [r5, #196]!	@ unaligned
 1743              	.LVL105:
 1744 000e 6968     		ldr	r1, [r5, #4]	@ unaligned
 1745 0010 AA68     		ldr	r2, [r5, #8]	@ unaligned
 1746 0012 EB68     		ldr	r3, [r5, #12]	@ unaligned
 1747 0014 0FC4     		stmia	r4!, {r0, r1, r2, r3}
 1748 0016 2B8A     		ldrh	r3, [r5, #16]	@ unaligned
 1749 0018 2380     		strh	r3, [r4]	@ unaligned
 539:.\LCD.c       ****     if(lcd==1){
 1750              		.loc 1 539 0
 1751 001a 012E     		cmp	r6, #1
 1752 001c 33D1     		bne	.L127
 540:.\LCD.c       **** 		for(x=1;(x<=rventa.nit[0]&&x<=19);x++){
 1753              		.loc 1 540 0
 1754 001e 0122     		movs	r2, #1
 1755 0020 344B     		ldr	r3, .L139+4
 1756 0022 1A60     		str	r2, [r3]
 1757 0024 344D     		ldr	r5, .L139+8
 541:.\LCD.c       **** 			buffer[13]=rventa.nit[x];			
 542:.\LCD.c       **** 			for(y=0;y<=17;y++){
 1758              		.loc 1 542 0
 1759 0026 354C     		ldr	r4, .L139+12
 540:.\LCD.c       **** 		for(x=1;(x<=rventa.nit[0]&&x<=19);x++){
 1760              		.loc 1 540 0
 1761 0028 25E0     		b	.L128
 1762              	.L133:
 541:.\LCD.c       **** 			buffer[13]=rventa.nit[x];			
 1763              		.loc 1 541 0
 1764 002a 2B44     		add	r3, r3, r5
 1765 002c 9B7F     		ldrb	r3, [r3, #30]	@ zero_extendqisi2
 1766 002e 8DF81130 		strb	r3, [sp, #17]
 1767              		.loc 1 542 0
ARM GAS  C:\Users\RECEPC~1\AppData\Local\Temp\cc89K5zt.s 			page 43


 1768 0032 0023     		movs	r3, #0
 1769 0034 2360     		str	r3, [r4]
 1770 0036 08E0     		b	.L129
 1771              	.L130:
 543:.\LCD.c       ****         		LCD_1_PutChar(buffer[y]);
 1772              		.loc 1 543 0 discriminator 2
 1773 0038 06AA     		add	r2, sp, #24
 1774 003a 1344     		add	r3, r3, r2
 1775 003c 13F8140C 		ldrb	r0, [r3, #-20]	@ zero_extendqisi2
 1776 0040 FFF7FEFF 		bl	LCD_1_PutChar
 1777              	.LVL106:
 542:.\LCD.c       **** 			for(y=0;y<=17;y++){
 1778              		.loc 1 542 0 discriminator 2
 1779 0044 2368     		ldr	r3, [r4]
 1780 0046 0133     		adds	r3, r3, #1
 1781 0048 2360     		str	r3, [r4]
 1782              	.L129:
 542:.\LCD.c       **** 			for(y=0;y<=17;y++){
 1783              		.loc 1 542 0 is_stmt 0 discriminator 1
 1784 004a 2368     		ldr	r3, [r4]
 1785 004c 112B     		cmp	r3, #17
 1786 004e F3D9     		bls	.L130
 544:.\LCD.c       **** 			}
 545:.\LCD.c       **** 			if(buffer[3]==0xFF){
 1787              		.loc 1 545 0 is_stmt 1
 1788 0050 9DF80730 		ldrb	r3, [sp, #7]	@ zero_extendqisi2
 1789 0054 FF2B     		cmp	r3, #255
 1790 0056 05D1     		bne	.L131
 546:.\LCD.c       **** 				buffer[2]=0x01;
 1791              		.loc 1 546 0
 1792 0058 0123     		movs	r3, #1
 1793 005a 8DF80630 		strb	r3, [sp, #6]
 547:.\LCD.c       **** 				buffer[3]=0x00;
 1794              		.loc 1 547 0
 1795 005e 0023     		movs	r3, #0
 1796 0060 8DF80730 		strb	r3, [sp, #7]
 1797              	.L131:
 548:.\LCD.c       **** 			}			
 549:.\LCD.c       **** 			buffer[3]+=15;
 1798              		.loc 1 549 0
 1799 0064 9DF80730 		ldrb	r3, [sp, #7]	@ zero_extendqisi2
 1800 0068 0F33     		adds	r3, r3, #15
 1801 006a 8DF80730 		strb	r3, [sp, #7]
 540:.\LCD.c       **** 		for(x=1;(x<=rventa.nit[0]&&x<=19);x++){
 1802              		.loc 1 540 0
 1803 006e 214B     		ldr	r3, .L139+4
 1804 0070 1A68     		ldr	r2, [r3]
 1805 0072 0132     		adds	r2, r2, #1
 1806 0074 1A60     		str	r2, [r3]
 1807              	.L128:
 540:.\LCD.c       **** 		for(x=1;(x<=rventa.nit[0]&&x<=19);x++){
 1808              		.loc 1 540 0 is_stmt 0 discriminator 1
 1809 0076 AA7F     		ldrb	r2, [r5, #30]	@ zero_extendqisi2
 1810 0078 1E4B     		ldr	r3, .L139+4
 1811 007a 1B68     		ldr	r3, [r3]
 1812 007c 9A42     		cmp	r2, r3
 1813 007e 35D3     		bcc	.L126
ARM GAS  C:\Users\RECEPC~1\AppData\Local\Temp\cc89K5zt.s 			page 44


 540:.\LCD.c       **** 		for(x=1;(x<=rventa.nit[0]&&x<=19);x++){
 1814              		.loc 1 540 0 discriminator 2
 1815 0080 132B     		cmp	r3, #19
 1816 0082 D2D9     		bls	.L133
 1817 0084 32E0     		b	.L126
 1818              	.L127:
 550:.\LCD.c       **** 		}
 551:.\LCD.c       ****     }
 552:.\LCD.c       ****     else{
 553:.\LCD.c       **** 		for(x=1;(x<=rventa.nit[0]&&x<=19);x++){
 1819              		.loc 1 553 0 is_stmt 1
 1820 0086 0122     		movs	r2, #1
 1821 0088 1A4B     		ldr	r3, .L139+4
 1822 008a 1A60     		str	r2, [r3]
 1823 008c 1A4D     		ldr	r5, .L139+8
 554:.\LCD.c       **** 			buffer[13]=rventa.nit[x];			
 555:.\LCD.c       **** 			for(y=0;y<=17;y++){
 1824              		.loc 1 555 0
 1825 008e 1B4C     		ldr	r4, .L139+12
 553:.\LCD.c       **** 		for(x=1;(x<=rventa.nit[0]&&x<=19);x++){
 1826              		.loc 1 553 0
 1827 0090 25E0     		b	.L134
 1828              	.L138:
 554:.\LCD.c       **** 			buffer[13]=rventa.nit[x];			
 1829              		.loc 1 554 0
 1830 0092 2B44     		add	r3, r3, r5
 1831 0094 9B7F     		ldrb	r3, [r3, #30]	@ zero_extendqisi2
 1832 0096 8DF81130 		strb	r3, [sp, #17]
 1833              		.loc 1 555 0
 1834 009a 0023     		movs	r3, #0
 1835 009c 2360     		str	r3, [r4]
 1836 009e 08E0     		b	.L135
 1837              	.L136:
 556:.\LCD.c       ****         		LCD_2_PutChar(buffer[y]);
 1838              		.loc 1 556 0 discriminator 2
 1839 00a0 06AA     		add	r2, sp, #24
 1840 00a2 1344     		add	r3, r3, r2
 1841 00a4 13F8140C 		ldrb	r0, [r3, #-20]	@ zero_extendqisi2
 1842 00a8 FFF7FEFF 		bl	LCD_2_PutChar
 1843              	.LVL107:
 555:.\LCD.c       **** 			for(y=0;y<=17;y++){
 1844              		.loc 1 555 0 discriminator 2
 1845 00ac 2368     		ldr	r3, [r4]
 1846 00ae 0133     		adds	r3, r3, #1
 1847 00b0 2360     		str	r3, [r4]
 1848              	.L135:
 555:.\LCD.c       **** 			for(y=0;y<=17;y++){
 1849              		.loc 1 555 0 is_stmt 0 discriminator 1
 1850 00b2 2368     		ldr	r3, [r4]
 1851 00b4 112B     		cmp	r3, #17
 1852 00b6 F3D9     		bls	.L136
 557:.\LCD.c       **** 			}
 558:.\LCD.c       **** 			if(buffer[3]==0xFF){
 1853              		.loc 1 558 0 is_stmt 1
 1854 00b8 9DF80730 		ldrb	r3, [sp, #7]	@ zero_extendqisi2
 1855 00bc FF2B     		cmp	r3, #255
 1856 00be 05D1     		bne	.L137
ARM GAS  C:\Users\RECEPC~1\AppData\Local\Temp\cc89K5zt.s 			page 45


 559:.\LCD.c       **** 				buffer[2]=0x01;
 1857              		.loc 1 559 0
 1858 00c0 0123     		movs	r3, #1
 1859 00c2 8DF80630 		strb	r3, [sp, #6]
 560:.\LCD.c       **** 				buffer[3]=0x00;
 1860              		.loc 1 560 0
 1861 00c6 0023     		movs	r3, #0
 1862 00c8 8DF80730 		strb	r3, [sp, #7]
 1863              	.L137:
 561:.\LCD.c       **** 			}			
 562:.\LCD.c       **** 			buffer[3]+=15;
 1864              		.loc 1 562 0
 1865 00cc 9DF80730 		ldrb	r3, [sp, #7]	@ zero_extendqisi2
 1866 00d0 0F33     		adds	r3, r3, #15
 1867 00d2 8DF80730 		strb	r3, [sp, #7]
 553:.\LCD.c       **** 		for(x=1;(x<=rventa.nit[0]&&x<=19);x++){
 1868              		.loc 1 553 0
 1869 00d6 074B     		ldr	r3, .L139+4
 1870 00d8 1A68     		ldr	r2, [r3]
 1871 00da 0132     		adds	r2, r2, #1
 1872 00dc 1A60     		str	r2, [r3]
 1873              	.L134:
 553:.\LCD.c       **** 		for(x=1;(x<=rventa.nit[0]&&x<=19);x++){
 1874              		.loc 1 553 0 is_stmt 0 discriminator 1
 1875 00de AA7F     		ldrb	r2, [r5, #30]	@ zero_extendqisi2
 1876 00e0 044B     		ldr	r3, .L139+4
 1877 00e2 1B68     		ldr	r3, [r3]
 1878 00e4 9A42     		cmp	r2, r3
 1879 00e6 01D3     		bcc	.L126
 553:.\LCD.c       **** 		for(x=1;(x<=rventa.nit[0]&&x<=19);x++){
 1880              		.loc 1 553 0 discriminator 2
 1881 00e8 132B     		cmp	r3, #19
 1882 00ea D2D9     		bls	.L138
 1883              	.L126:
 563:.\LCD.c       **** 		}
 564:.\LCD.c       ****     }	
 565:.\LCD.c       **** }
 1884              		.loc 1 565 0 is_stmt 1
 1885 00ec 06B0     		add	sp, sp, #24
 1886              		@ sp needed
 1887 00ee 70BD     		pop	{r4, r5, r6, pc}
 1888              	.L140:
 1889              		.align	2
 1890              	.L139:
 1891 00f0 00000000 		.word	.LANCHOR0
 1892 00f4 00000000 		.word	x
 1893 00f8 00000000 		.word	rventa
 1894 00fc 00000000 		.word	y
 1895              		.cfi_endproc
 1896              	.LFE74:
 1897              		.size	nit_LCD, .-nit_LCD
 1898              		.section	.text.Cuenta_LCD,"ax",%progbits
 1899              		.align	2
 1900              		.global	Cuenta_LCD
 1901              		.thumb
 1902              		.thumb_func
 1903              		.type	Cuenta_LCD, %function
ARM GAS  C:\Users\RECEPC~1\AppData\Local\Temp\cc89K5zt.s 			page 46


 1904              	Cuenta_LCD:
 1905              	.LFB75:
 566:.\LCD.c       **** 
 567:.\LCD.c       **** /*
 568:.\LCD.c       **** ***************************************************************************************************
 569:.\LCD.c       **** *                                 			void Cuenta_LCD(uint8 lcd)
 570:.\LCD.c       **** *
 571:.\LCD.c       **** * Description : 
 572:.\LCD.c       **** *               
 573:.\LCD.c       **** *
 574:.\LCD.c       **** * Argument(s) : none
 575:.\LCD.c       **** *
 576:.\LCD.c       **** * Return(s)   : none
 577:.\LCD.c       **** *
 578:.\LCD.c       **** * Caller(s)   : 
 579:.\LCD.c       **** *
 580:.\LCD.c       **** * Note(s)     : none.
 581:.\LCD.c       **** ***************************************************************************************************
 582:.\LCD.c       **** */
 583:.\LCD.c       **** void Cuenta_LCD(uint8 lcd){
 1906              		.loc 1 583 0
 1907              		.cfi_startproc
 1908              		@ args = 0, pretend = 0, frame = 24
 1909              		@ frame_needed = 0, uses_anonymous_args = 0
 1910              	.LVL108:
 1911 0000 70B5     		push	{r4, r5, r6, lr}
 1912              		.cfi_def_cfa_offset 16
 1913              		.cfi_offset 4, -16
 1914              		.cfi_offset 5, -12
 1915              		.cfi_offset 6, -8
 1916              		.cfi_offset 14, -4
 1917 0002 86B0     		sub	sp, sp, #24
 1918              		.cfi_def_cfa_offset 40
 1919 0004 0646     		mov	r6, r0
 584:.\LCD.c       **** 	uint8 buffer[18]={0xAA,0x98,0x00,0xA5,0x01,0x32,0x23,0xC5,0x02,0x00,0x00,0xFF,0xFF,0x20,0xCC,0x33,
 1920              		.loc 1 584 0
 1921 0006 01AC     		add	r4, sp, #4
 1922 0008 364D     		ldr	r5, .L152
 1923 000a 55F8D80F 		ldr	r0, [r5, #216]!	@ unaligned
 1924              	.LVL109:
 1925 000e 6968     		ldr	r1, [r5, #4]	@ unaligned
 1926 0010 AA68     		ldr	r2, [r5, #8]	@ unaligned
 1927 0012 EB68     		ldr	r3, [r5, #12]	@ unaligned
 1928 0014 0FC4     		stmia	r4!, {r0, r1, r2, r3}
 1929 0016 2B8A     		ldrh	r3, [r5, #16]	@ unaligned
 1930 0018 2380     		strh	r3, [r4]	@ unaligned
 585:.\LCD.c       ****     if(lcd==1){
 1931              		.loc 1 585 0
 1932 001a 012E     		cmp	r6, #1
 1933 001c 31D1     		bne	.L142
 586:.\LCD.c       **** 		for(x=1;(x<=Buffer_LCD1.cuenta[0]&&x<=25);x++){
 1934              		.loc 1 586 0
 1935 001e 0122     		movs	r2, #1
 1936 0020 314B     		ldr	r3, .L152+4
 1937 0022 1A60     		str	r2, [r3]
 1938 0024 314D     		ldr	r5, .L152+8
 587:.\LCD.c       **** 			buffer[3]=((0xB8)+(0x0F*x))&0xFF;
ARM GAS  C:\Users\RECEPC~1\AppData\Local\Temp\cc89K5zt.s 			page 47


 588:.\LCD.c       **** 			buffer[2]=((0xB8)+(0x0F*x))>>8;			
 589:.\LCD.c       **** 			buffer[13]=Buffer_LCD1.cuenta[x];			
 590:.\LCD.c       **** 			for(y=0;y<=17;y++){
 1939              		.loc 1 590 0
 1940 0026 324C     		ldr	r4, .L152+12
 586:.\LCD.c       **** 		for(x=1;(x<=Buffer_LCD1.cuenta[0]&&x<=25);x++){
 1941              		.loc 1 586 0
 1942 0028 22E0     		b	.L143
 1943              	.L147:
 587:.\LCD.c       **** 			buffer[3]=((0xB8)+(0x0F*x))&0xFF;
 1944              		.loc 1 587 0
 1945 002a C3EB0312 		rsb	r2, r3, r3, lsl #4
 1946 002e 483A     		subs	r2, r2, #72
 1947 0030 8DF80720 		strb	r2, [sp, #7]
 588:.\LCD.c       **** 			buffer[2]=((0xB8)+(0x0F*x))>>8;			
 1948              		.loc 1 588 0
 1949 0034 C3EB0312 		rsb	r2, r3, r3, lsl #4
 1950 0038 B832     		adds	r2, r2, #184
 1951 003a 120A     		lsrs	r2, r2, #8
 1952 003c 8DF80620 		strb	r2, [sp, #6]
 589:.\LCD.c       **** 			buffer[13]=Buffer_LCD1.cuenta[x];			
 1953              		.loc 1 589 0
 1954 0040 2B44     		add	r3, r3, r5
 1955 0042 93F84730 		ldrb	r3, [r3, #71]	@ zero_extendqisi2
 1956 0046 8DF81130 		strb	r3, [sp, #17]
 1957              		.loc 1 590 0
 1958 004a 0023     		movs	r3, #0
 1959 004c 2360     		str	r3, [r4]
 1960 004e 08E0     		b	.L144
 1961              	.L145:
 591:.\LCD.c       ****         		LCD_1_PutChar(buffer[y]);
 1962              		.loc 1 591 0 discriminator 2
 1963 0050 06AA     		add	r2, sp, #24
 1964 0052 1344     		add	r3, r3, r2
 1965 0054 13F8140C 		ldrb	r0, [r3, #-20]	@ zero_extendqisi2
 1966 0058 FFF7FEFF 		bl	LCD_1_PutChar
 1967              	.LVL110:
 590:.\LCD.c       **** 			for(y=0;y<=17;y++){
 1968              		.loc 1 590 0 discriminator 2
 1969 005c 2368     		ldr	r3, [r4]
 1970 005e 0133     		adds	r3, r3, #1
 1971 0060 2360     		str	r3, [r4]
 1972              	.L144:
 590:.\LCD.c       **** 			for(y=0;y<=17;y++){
 1973              		.loc 1 590 0 is_stmt 0 discriminator 1
 1974 0062 2368     		ldr	r3, [r4]
 1975 0064 112B     		cmp	r3, #17
 1976 0066 F3D9     		bls	.L145
 586:.\LCD.c       **** 		for(x=1;(x<=Buffer_LCD1.cuenta[0]&&x<=25);x++){
 1977              		.loc 1 586 0 is_stmt 1
 1978 0068 1F4B     		ldr	r3, .L152+4
 1979 006a 1A68     		ldr	r2, [r3]
 1980 006c 0132     		adds	r2, r2, #1
 1981 006e 1A60     		str	r2, [r3]
 1982              	.L143:
 586:.\LCD.c       **** 		for(x=1;(x<=Buffer_LCD1.cuenta[0]&&x<=25);x++){
 1983              		.loc 1 586 0 is_stmt 0 discriminator 1
ARM GAS  C:\Users\RECEPC~1\AppData\Local\Temp\cc89K5zt.s 			page 48


 1984 0070 95F84720 		ldrb	r2, [r5, #71]	@ zero_extendqisi2
 1985 0074 1C4B     		ldr	r3, .L152+4
 1986 0076 1B68     		ldr	r3, [r3]
 1987 0078 9A42     		cmp	r2, r3
 1988 007a 31D3     		bcc	.L141
 586:.\LCD.c       **** 		for(x=1;(x<=Buffer_LCD1.cuenta[0]&&x<=25);x++){
 1989              		.loc 1 586 0 discriminator 2
 1990 007c 192B     		cmp	r3, #25
 1991 007e D4D9     		bls	.L147
 1992 0080 2EE0     		b	.L141
 1993              	.L142:
 592:.\LCD.c       **** 			}	
 593:.\LCD.c       **** 		}
 594:.\LCD.c       ****     }
 595:.\LCD.c       ****     else{
 596:.\LCD.c       **** 		for(x=1;x<=Buffer_LCD2.cuenta[0];x++){
 1994              		.loc 1 596 0 is_stmt 1
 1995 0082 0122     		movs	r2, #1
 1996 0084 184B     		ldr	r3, .L152+4
 1997 0086 1A60     		str	r2, [r3]
 1998 0088 1A4D     		ldr	r5, .L152+16
 597:.\LCD.c       **** 			buffer[3]=((0xB8)+(0x0F*x))&0xFF;
 598:.\LCD.c       **** 			buffer[2]=((0xB8)+(0x0F*x))>>8;				
 599:.\LCD.c       **** 			buffer[13]=Buffer_LCD2.cuenta[x];			
 600:.\LCD.c       **** 			for(y=0;y<=17;y++){
 1999              		.loc 1 600 0
 2000 008a 194C     		ldr	r4, .L152+12
 596:.\LCD.c       **** 		for(x=1;x<=Buffer_LCD2.cuenta[0];x++){
 2001              		.loc 1 596 0
 2002 008c 22E0     		b	.L148
 2003              	.L151:
 597:.\LCD.c       **** 			buffer[3]=((0xB8)+(0x0F*x))&0xFF;
 2004              		.loc 1 597 0
 2005 008e C3EB0312 		rsb	r2, r3, r3, lsl #4
 2006 0092 483A     		subs	r2, r2, #72
 2007 0094 8DF80720 		strb	r2, [sp, #7]
 598:.\LCD.c       **** 			buffer[2]=((0xB8)+(0x0F*x))>>8;				
 2008              		.loc 1 598 0
 2009 0098 C3EB0312 		rsb	r2, r3, r3, lsl #4
 2010 009c B832     		adds	r2, r2, #184
 2011 009e 120A     		lsrs	r2, r2, #8
 2012 00a0 8DF80620 		strb	r2, [sp, #6]
 599:.\LCD.c       **** 			buffer[13]=Buffer_LCD2.cuenta[x];			
 2013              		.loc 1 599 0
 2014 00a4 2B44     		add	r3, r3, r5
 2015 00a6 93F84730 		ldrb	r3, [r3, #71]	@ zero_extendqisi2
 2016 00aa 8DF81130 		strb	r3, [sp, #17]
 2017              		.loc 1 600 0
 2018 00ae 0023     		movs	r3, #0
 2019 00b0 2360     		str	r3, [r4]
 2020 00b2 08E0     		b	.L149
 2021              	.L150:
 601:.\LCD.c       ****         		LCD_2_PutChar(buffer[y]);
 2022              		.loc 1 601 0 discriminator 2
 2023 00b4 06AA     		add	r2, sp, #24
 2024 00b6 1344     		add	r3, r3, r2
 2025 00b8 13F8140C 		ldrb	r0, [r3, #-20]	@ zero_extendqisi2
ARM GAS  C:\Users\RECEPC~1\AppData\Local\Temp\cc89K5zt.s 			page 49


 2026 00bc FFF7FEFF 		bl	LCD_2_PutChar
 2027              	.LVL111:
 600:.\LCD.c       **** 			for(y=0;y<=17;y++){
 2028              		.loc 1 600 0 discriminator 2
 2029 00c0 2368     		ldr	r3, [r4]
 2030 00c2 0133     		adds	r3, r3, #1
 2031 00c4 2360     		str	r3, [r4]
 2032              	.L149:
 600:.\LCD.c       **** 			for(y=0;y<=17;y++){
 2033              		.loc 1 600 0 is_stmt 0 discriminator 1
 2034 00c6 2368     		ldr	r3, [r4]
 2035 00c8 112B     		cmp	r3, #17
 2036 00ca F3D9     		bls	.L150
 596:.\LCD.c       **** 		for(x=1;x<=Buffer_LCD2.cuenta[0];x++){
 2037              		.loc 1 596 0 is_stmt 1
 2038 00cc 064B     		ldr	r3, .L152+4
 2039 00ce 1A68     		ldr	r2, [r3]
 2040 00d0 0132     		adds	r2, r2, #1
 2041 00d2 1A60     		str	r2, [r3]
 2042              	.L148:
 596:.\LCD.c       **** 		for(x=1;x<=Buffer_LCD2.cuenta[0];x++){
 2043              		.loc 1 596 0 is_stmt 0 discriminator 1
 2044 00d4 95F84720 		ldrb	r2, [r5, #71]	@ zero_extendqisi2
 2045 00d8 034B     		ldr	r3, .L152+4
 2046 00da 1B68     		ldr	r3, [r3]
 2047 00dc 9A42     		cmp	r2, r3
 2048 00de D6D2     		bcs	.L151
 2049              	.L141:
 602:.\LCD.c       **** 			}	
 603:.\LCD.c       **** 		}
 604:.\LCD.c       ****     }	
 605:.\LCD.c       **** }
 2050              		.loc 1 605 0 is_stmt 1
 2051 00e0 06B0     		add	sp, sp, #24
 2052              		@ sp needed
 2053 00e2 70BD     		pop	{r4, r5, r6, pc}
 2054              	.L153:
 2055              		.align	2
 2056              	.L152:
 2057 00e4 00000000 		.word	.LANCHOR0
 2058 00e8 00000000 		.word	x
 2059 00ec 00000000 		.word	Buffer_LCD1
 2060 00f0 00000000 		.word	y
 2061 00f4 00000000 		.word	Buffer_LCD2
 2062              		.cfi_endproc
 2063              	.LFE75:
 2064              		.size	Cuenta_LCD, .-Cuenta_LCD
 2065              		.section	.text.Placa_LCD,"ax",%progbits
 2066              		.align	2
 2067              		.global	Placa_LCD
 2068              		.thumb
 2069              		.thumb_func
 2070              		.type	Placa_LCD, %function
 2071              	Placa_LCD:
 2072              	.LFB76:
 606:.\LCD.c       **** 
 607:.\LCD.c       **** /*
ARM GAS  C:\Users\RECEPC~1\AppData\Local\Temp\cc89K5zt.s 			page 50


 608:.\LCD.c       **** ***************************************************************************************************
 609:.\LCD.c       **** *                                 			void Cuenta_LCD(uint8 lcd)
 610:.\LCD.c       **** *
 611:.\LCD.c       **** * Description : 
 612:.\LCD.c       **** *               
 613:.\LCD.c       **** *
 614:.\LCD.c       **** * Argument(s) : none
 615:.\LCD.c       **** *
 616:.\LCD.c       **** * Return(s)   : none
 617:.\LCD.c       **** *
 618:.\LCD.c       **** * Caller(s)   : 
 619:.\LCD.c       **** *
 620:.\LCD.c       **** * Note(s)     : none.
 621:.\LCD.c       **** ***************************************************************************************************
 622:.\LCD.c       **** */
 623:.\LCD.c       **** void Placa_LCD(uint8 lcd){
 2073              		.loc 1 623 0
 2074              		.cfi_startproc
 2075              		@ args = 0, pretend = 0, frame = 24
 2076              		@ frame_needed = 0, uses_anonymous_args = 0
 2077              	.LVL112:
 2078 0000 70B5     		push	{r4, r5, r6, lr}
 2079              		.cfi_def_cfa_offset 16
 2080              		.cfi_offset 4, -16
 2081              		.cfi_offset 5, -12
 2082              		.cfi_offset 6, -8
 2083              		.cfi_offset 14, -4
 2084 0002 86B0     		sub	sp, sp, #24
 2085              		.cfi_def_cfa_offset 40
 2086 0004 0646     		mov	r6, r0
 624:.\LCD.c       **** 	uint8 buffer[18]={0xAA,0x98,0x00,0xA5,0x00,0xC1,0x23,0xC5,0x02,0x00,0x00,0xFF,0xFF,0x20,0xCC,0x33,
 2087              		.loc 1 624 0
 2088 0006 01AC     		add	r4, sp, #4
 2089 0008 374D     		ldr	r5, .L165
 2090 000a 55F8EC0F 		ldr	r0, [r5, #236]!	@ unaligned
 2091              	.LVL113:
 2092 000e 6968     		ldr	r1, [r5, #4]	@ unaligned
 2093 0010 AA68     		ldr	r2, [r5, #8]	@ unaligned
 2094 0012 EB68     		ldr	r3, [r5, #12]	@ unaligned
 2095 0014 0FC4     		stmia	r4!, {r0, r1, r2, r3}
 2096 0016 2B8A     		ldrh	r3, [r5, #16]	@ unaligned
 2097 0018 2380     		strh	r3, [r4]	@ unaligned
 625:.\LCD.c       ****     if(lcd==1){
 2098              		.loc 1 625 0
 2099 001a 012E     		cmp	r6, #1
 2100 001c 31D1     		bne	.L155
 626:.\LCD.c       **** 		for(x=1;(x<=Buffer_LCD1.placa[0]&&x<=20);x++){
 2101              		.loc 1 626 0
 2102 001e 0122     		movs	r2, #1
 2103 0020 324B     		ldr	r3, .L165+4
 2104 0022 1A60     		str	r2, [r3]
 2105 0024 324D     		ldr	r5, .L165+8
 627:.\LCD.c       **** 			buffer[3]=((0xB8)+(0x0F*x))&0xFF;
 628:.\LCD.c       **** 			buffer[2]=((0xB8)+(0x0F*x))>>8;			
 629:.\LCD.c       **** 			buffer[13]=Buffer_LCD1.placa[x];			
 630:.\LCD.c       **** 			for(y=0;y<=17;y++){
 2106              		.loc 1 630 0
ARM GAS  C:\Users\RECEPC~1\AppData\Local\Temp\cc89K5zt.s 			page 51


 2107 0026 334C     		ldr	r4, .L165+12
 626:.\LCD.c       **** 		for(x=1;(x<=Buffer_LCD1.placa[0]&&x<=20);x++){
 2108              		.loc 1 626 0
 2109 0028 22E0     		b	.L156
 2110              	.L160:
 627:.\LCD.c       **** 			buffer[3]=((0xB8)+(0x0F*x))&0xFF;
 2111              		.loc 1 627 0
 2112 002a C3EB0312 		rsb	r2, r3, r3, lsl #4
 2113 002e 483A     		subs	r2, r2, #72
 2114 0030 8DF80720 		strb	r2, [sp, #7]
 628:.\LCD.c       **** 			buffer[2]=((0xB8)+(0x0F*x))>>8;			
 2115              		.loc 1 628 0
 2116 0034 C3EB0312 		rsb	r2, r3, r3, lsl #4
 2117 0038 B832     		adds	r2, r2, #184
 2118 003a 120A     		lsrs	r2, r2, #8
 2119 003c 8DF80620 		strb	r2, [sp, #6]
 629:.\LCD.c       **** 			buffer[13]=Buffer_LCD1.placa[x];			
 2120              		.loc 1 629 0
 2121 0040 2B44     		add	r3, r3, r5
 2122 0042 93F86530 		ldrb	r3, [r3, #101]	@ zero_extendqisi2
 2123 0046 8DF81130 		strb	r3, [sp, #17]
 2124              		.loc 1 630 0
 2125 004a 0023     		movs	r3, #0
 2126 004c 2360     		str	r3, [r4]
 2127 004e 08E0     		b	.L157
 2128              	.L158:
 631:.\LCD.c       ****         		LCD_1_PutChar(buffer[y]);
 2129              		.loc 1 631 0 discriminator 2
 2130 0050 06AA     		add	r2, sp, #24
 2131 0052 1344     		add	r3, r3, r2
 2132 0054 13F8140C 		ldrb	r0, [r3, #-20]	@ zero_extendqisi2
 2133 0058 FFF7FEFF 		bl	LCD_1_PutChar
 2134              	.LVL114:
 630:.\LCD.c       **** 			for(y=0;y<=17;y++){
 2135              		.loc 1 630 0 discriminator 2
 2136 005c 2368     		ldr	r3, [r4]
 2137 005e 0133     		adds	r3, r3, #1
 2138 0060 2360     		str	r3, [r4]
 2139              	.L157:
 630:.\LCD.c       **** 			for(y=0;y<=17;y++){
 2140              		.loc 1 630 0 is_stmt 0 discriminator 1
 2141 0062 2368     		ldr	r3, [r4]
 2142 0064 112B     		cmp	r3, #17
 2143 0066 F3D9     		bls	.L158
 626:.\LCD.c       **** 		for(x=1;(x<=Buffer_LCD1.placa[0]&&x<=20);x++){
 2144              		.loc 1 626 0 is_stmt 1
 2145 0068 204B     		ldr	r3, .L165+4
 2146 006a 1A68     		ldr	r2, [r3]
 2147 006c 0132     		adds	r2, r2, #1
 2148 006e 1A60     		str	r2, [r3]
 2149              	.L156:
 626:.\LCD.c       **** 		for(x=1;(x<=Buffer_LCD1.placa[0]&&x<=20);x++){
 2150              		.loc 1 626 0 is_stmt 0 discriminator 1
 2151 0070 95F86520 		ldrb	r2, [r5, #101]	@ zero_extendqisi2
 2152 0074 1D4B     		ldr	r3, .L165+4
 2153 0076 1B68     		ldr	r3, [r3]
 2154 0078 9A42     		cmp	r2, r3
ARM GAS  C:\Users\RECEPC~1\AppData\Local\Temp\cc89K5zt.s 			page 52


 2155 007a 33D3     		bcc	.L154
 626:.\LCD.c       **** 		for(x=1;(x<=Buffer_LCD1.placa[0]&&x<=20);x++){
 2156              		.loc 1 626 0 discriminator 2
 2157 007c 142B     		cmp	r3, #20
 2158 007e D4D9     		bls	.L160
 2159 0080 30E0     		b	.L154
 2160              	.L155:
 632:.\LCD.c       **** 			}	
 633:.\LCD.c       **** 		}
 634:.\LCD.c       ****     }
 635:.\LCD.c       ****     else{
 636:.\LCD.c       **** 		for(x=1;(x<=Buffer_LCD2.placa[0]&&x<=20);x++){
 2161              		.loc 1 636 0 is_stmt 1
 2162 0082 0122     		movs	r2, #1
 2163 0084 194B     		ldr	r3, .L165+4
 2164 0086 1A60     		str	r2, [r3]
 2165 0088 1B4D     		ldr	r5, .L165+16
 637:.\LCD.c       **** 			buffer[3]=((0xB8)+(0x0F*x))&0xFF;
 638:.\LCD.c       **** 			buffer[2]=((0xB8)+(0x0F*x))>>8;				
 639:.\LCD.c       **** 			buffer[13]=Buffer_LCD2.placa[x];			
 640:.\LCD.c       **** 			for(y=0;y<=17;y++){
 2166              		.loc 1 640 0
 2167 008a 1A4C     		ldr	r4, .L165+12
 636:.\LCD.c       **** 		for(x=1;(x<=Buffer_LCD2.placa[0]&&x<=20);x++){
 2168              		.loc 1 636 0
 2169 008c 22E0     		b	.L161
 2170              	.L164:
 637:.\LCD.c       **** 			buffer[3]=((0xB8)+(0x0F*x))&0xFF;
 2171              		.loc 1 637 0
 2172 008e C3EB0312 		rsb	r2, r3, r3, lsl #4
 2173 0092 483A     		subs	r2, r2, #72
 2174 0094 8DF80720 		strb	r2, [sp, #7]
 638:.\LCD.c       **** 			buffer[2]=((0xB8)+(0x0F*x))>>8;				
 2175              		.loc 1 638 0
 2176 0098 C3EB0312 		rsb	r2, r3, r3, lsl #4
 2177 009c B832     		adds	r2, r2, #184
 2178 009e 120A     		lsrs	r2, r2, #8
 2179 00a0 8DF80620 		strb	r2, [sp, #6]
 639:.\LCD.c       **** 			buffer[13]=Buffer_LCD2.placa[x];			
 2180              		.loc 1 639 0
 2181 00a4 2B44     		add	r3, r3, r5
 2182 00a6 93F86530 		ldrb	r3, [r3, #101]	@ zero_extendqisi2
 2183 00aa 8DF81130 		strb	r3, [sp, #17]
 2184              		.loc 1 640 0
 2185 00ae 0023     		movs	r3, #0
 2186 00b0 2360     		str	r3, [r4]
 2187 00b2 08E0     		b	.L162
 2188              	.L163:
 641:.\LCD.c       ****         		LCD_2_PutChar(buffer[y]);
 2189              		.loc 1 641 0 discriminator 2
 2190 00b4 06AA     		add	r2, sp, #24
 2191 00b6 1344     		add	r3, r3, r2
 2192 00b8 13F8140C 		ldrb	r0, [r3, #-20]	@ zero_extendqisi2
 2193 00bc FFF7FEFF 		bl	LCD_2_PutChar
 2194              	.LVL115:
 640:.\LCD.c       **** 			for(y=0;y<=17;y++){
 2195              		.loc 1 640 0 discriminator 2
ARM GAS  C:\Users\RECEPC~1\AppData\Local\Temp\cc89K5zt.s 			page 53


 2196 00c0 2368     		ldr	r3, [r4]
 2197 00c2 0133     		adds	r3, r3, #1
 2198 00c4 2360     		str	r3, [r4]
 2199              	.L162:
 640:.\LCD.c       **** 			for(y=0;y<=17;y++){
 2200              		.loc 1 640 0 is_stmt 0 discriminator 1
 2201 00c6 2368     		ldr	r3, [r4]
 2202 00c8 112B     		cmp	r3, #17
 2203 00ca F3D9     		bls	.L163
 636:.\LCD.c       **** 		for(x=1;(x<=Buffer_LCD2.placa[0]&&x<=20);x++){
 2204              		.loc 1 636 0 is_stmt 1
 2205 00cc 074B     		ldr	r3, .L165+4
 2206 00ce 1A68     		ldr	r2, [r3]
 2207 00d0 0132     		adds	r2, r2, #1
 2208 00d2 1A60     		str	r2, [r3]
 2209              	.L161:
 636:.\LCD.c       **** 		for(x=1;(x<=Buffer_LCD2.placa[0]&&x<=20);x++){
 2210              		.loc 1 636 0 is_stmt 0 discriminator 1
 2211 00d4 95F86520 		ldrb	r2, [r5, #101]	@ zero_extendqisi2
 2212 00d8 044B     		ldr	r3, .L165+4
 2213 00da 1B68     		ldr	r3, [r3]
 2214 00dc 9A42     		cmp	r2, r3
 2215 00de 01D3     		bcc	.L154
 636:.\LCD.c       **** 		for(x=1;(x<=Buffer_LCD2.placa[0]&&x<=20);x++){
 2216              		.loc 1 636 0 discriminator 2
 2217 00e0 142B     		cmp	r3, #20
 2218 00e2 D4D9     		bls	.L164
 2219              	.L154:
 642:.\LCD.c       **** 			}	
 643:.\LCD.c       **** 		}
 644:.\LCD.c       ****     }	
 645:.\LCD.c       **** }
 2220              		.loc 1 645 0 is_stmt 1
 2221 00e4 06B0     		add	sp, sp, #24
 2222              		@ sp needed
 2223 00e6 70BD     		pop	{r4, r5, r6, pc}
 2224              	.L166:
 2225              		.align	2
 2226              	.L165:
 2227 00e8 00000000 		.word	.LANCHOR0
 2228 00ec 00000000 		.word	x
 2229 00f0 00000000 		.word	Buffer_LCD1
 2230 00f4 00000000 		.word	y
 2231 00f8 00000000 		.word	Buffer_LCD2
 2232              		.cfi_endproc
 2233              	.LFE76:
 2234              		.size	Placa_LCD, .-Placa_LCD
 2235              		.section	.text.writemini_LCD,"ax",%progbits
 2236              		.align	2
 2237              		.global	writemini_LCD
 2238              		.thumb
 2239              		.thumb_func
 2240              		.type	writemini_LCD, %function
 2241              	writemini_LCD:
 2242              	.LFB77:
 646:.\LCD.c       **** 
 647:.\LCD.c       **** /*
ARM GAS  C:\Users\RECEPC~1\AppData\Local\Temp\cc89K5zt.s 			page 54


 648:.\LCD.c       **** ***************************************************************************************************
 649:.\LCD.c       **** *                             void writemini_LCD(uint8 lcd, uint8 dato, uint8 pos)
 650:.\LCD.c       **** *
 651:.\LCD.c       **** * Description : 
 652:.\LCD.c       **** *               
 653:.\LCD.c       **** *
 654:.\LCD.c       **** * Argument(s) : none
 655:.\LCD.c       **** *
 656:.\LCD.c       **** * Return(s)   : none
 657:.\LCD.c       **** *
 658:.\LCD.c       **** * Caller(s)   : 
 659:.\LCD.c       **** *
 660:.\LCD.c       **** * Note(s)     : none.
 661:.\LCD.c       **** ***************************************************************************************************
 662:.\LCD.c       **** */
 663:.\LCD.c       **** void writemini_LCD(uint8 lcd, uint8 dato, uint16 pos){
 2243              		.loc 1 663 0
 2244              		.cfi_startproc
 2245              		@ args = 0, pretend = 0, frame = 0
 2246              		@ frame_needed = 0, uses_anonymous_args = 0
 2247              	.LVL116:
 2248 0000 38B5     		push	{r3, r4, r5, lr}
 2249              		.cfi_def_cfa_offset 16
 2250              		.cfi_offset 3, -16
 2251              		.cfi_offset 4, -12
 2252              		.cfi_offset 5, -8
 2253              		.cfi_offset 14, -4
 2254 0002 0D46     		mov	r5, r1
 2255 0004 1446     		mov	r4, r2
 664:.\LCD.c       ****     if(lcd==1){
 2256              		.loc 1 664 0
 2257 0006 0128     		cmp	r0, #1
 2258 0008 3ED1     		bne	.L168
 665:.\LCD.c       ****         LCD_1_PutChar(0xAA);
 2259              		.loc 1 665 0
 2260 000a AA20     		movs	r0, #170
 2261              	.LVL117:
 2262 000c FFF7FEFF 		bl	LCD_1_PutChar
 2263              	.LVL118:
 666:.\LCD.c       ****         LCD_1_PutChar(0x98);
 2264              		.loc 1 666 0
 2265 0010 9820     		movs	r0, #152
 2266 0012 FFF7FEFF 		bl	LCD_1_PutChar
 2267              	.LVL119:
 667:.\LCD.c       ****         LCD_1_PutChar(((0x30)+(0x0F*pos))>>8);
 2268              		.loc 1 667 0
 2269 0016 C4EB0410 		rsb	r0, r4, r4, lsl #4
 2270 001a 3030     		adds	r0, r0, #48
 2271 001c C0F30720 		ubfx	r0, r0, #8, #8
 2272 0020 FFF7FEFF 		bl	LCD_1_PutChar
 2273              	.LVL120:
 668:.\LCD.c       ****         LCD_1_PutChar(((0x30)+(0x0F*pos))&0xFF);
 2274              		.loc 1 668 0
 2275 0024 C4EB0414 		rsb	r4, r4, r4, lsl #4
 2276 0028 04F13000 		add	r0, r4, #48
 2277 002c C0B2     		uxtb	r0, r0
 2278 002e FFF7FEFF 		bl	LCD_1_PutChar
ARM GAS  C:\Users\RECEPC~1\AppData\Local\Temp\cc89K5zt.s 			page 55


 2279              	.LVL121:
 669:.\LCD.c       ****         LCD_1_PutChar(0x00);
 2280              		.loc 1 669 0
 2281 0032 0020     		movs	r0, #0
 2282 0034 FFF7FEFF 		bl	LCD_1_PutChar
 2283              	.LVL122:
 670:.\LCD.c       ****         LCD_1_PutChar(0x30);
 2284              		.loc 1 670 0
 2285 0038 3020     		movs	r0, #48
 2286 003a FFF7FEFF 		bl	LCD_1_PutChar
 2287              	.LVL123:
 671:.\LCD.c       ****         LCD_1_PutChar(0x23);
 2288              		.loc 1 671 0
 2289 003e 2320     		movs	r0, #35
 2290 0040 FFF7FEFF 		bl	LCD_1_PutChar
 2291              	.LVL124:
 672:.\LCD.c       ****         LCD_1_PutChar(0xC5);
 2292              		.loc 1 672 0
 2293 0044 C520     		movs	r0, #197
 2294 0046 FFF7FEFF 		bl	LCD_1_PutChar
 2295              	.LVL125:
 673:.\LCD.c       ****         LCD_1_PutChar(0x02);
 2296              		.loc 1 673 0
 2297 004a 0220     		movs	r0, #2
 2298 004c FFF7FEFF 		bl	LCD_1_PutChar
 2299              	.LVL126:
 674:.\LCD.c       ****         LCD_1_PutChar(0x00);
 2300              		.loc 1 674 0
 2301 0050 0020     		movs	r0, #0
 2302 0052 FFF7FEFF 		bl	LCD_1_PutChar
 2303              	.LVL127:
 675:.\LCD.c       ****         LCD_1_PutChar(0x00);
 2304              		.loc 1 675 0
 2305 0056 0020     		movs	r0, #0
 2306 0058 FFF7FEFF 		bl	LCD_1_PutChar
 2307              	.LVL128:
 676:.\LCD.c       ****         LCD_1_PutChar(0xFF);
 2308              		.loc 1 676 0
 2309 005c FF20     		movs	r0, #255
 2310 005e FFF7FEFF 		bl	LCD_1_PutChar
 2311              	.LVL129:
 677:.\LCD.c       ****         LCD_1_PutChar(0xFF);
 2312              		.loc 1 677 0
 2313 0062 FF20     		movs	r0, #255
 2314 0064 FFF7FEFF 		bl	LCD_1_PutChar
 2315              	.LVL130:
 678:.\LCD.c       ****         LCD_1_PutChar(dato);
 2316              		.loc 1 678 0
 2317 0068 2846     		mov	r0, r5
 2318 006a FFF7FEFF 		bl	LCD_1_PutChar
 2319              	.LVL131:
 679:.\LCD.c       ****         LCD_1_PutChar(0xCC);
 2320              		.loc 1 679 0
 2321 006e CC20     		movs	r0, #204
 2322 0070 FFF7FEFF 		bl	LCD_1_PutChar
 2323              	.LVL132:
 680:.\LCD.c       ****         LCD_1_PutChar(0x33);
ARM GAS  C:\Users\RECEPC~1\AppData\Local\Temp\cc89K5zt.s 			page 56


 2324              		.loc 1 680 0
 2325 0074 3320     		movs	r0, #51
 2326 0076 FFF7FEFF 		bl	LCD_1_PutChar
 2327              	.LVL133:
 681:.\LCD.c       ****         LCD_1_PutChar(0xC3);
 2328              		.loc 1 681 0
 2329 007a C320     		movs	r0, #195
 2330 007c FFF7FEFF 		bl	LCD_1_PutChar
 2331              	.LVL134:
 682:.\LCD.c       ****         LCD_1_PutChar(0x3C);
 2332              		.loc 1 682 0
 2333 0080 3C20     		movs	r0, #60
 2334 0082 FFF7FEFF 		bl	LCD_1_PutChar
 2335              	.LVL135:
 2336 0086 38BD     		pop	{r3, r4, r5, pc}
 2337              	.LVL136:
 2338              	.L168:
 683:.\LCD.c       ****     }
 684:.\LCD.c       ****     else{
 685:.\LCD.c       ****         LCD_2_PutChar(0xAA);
 2339              		.loc 1 685 0
 2340 0088 AA20     		movs	r0, #170
 2341              	.LVL137:
 2342 008a FFF7FEFF 		bl	LCD_2_PutChar
 2343              	.LVL138:
 686:.\LCD.c       ****         LCD_2_PutChar(0x98);
 2344              		.loc 1 686 0
 2345 008e 9820     		movs	r0, #152
 2346 0090 FFF7FEFF 		bl	LCD_2_PutChar
 2347              	.LVL139:
 687:.\LCD.c       ****         LCD_2_PutChar(((0x30)+(0x0F*pos))>>8);
 2348              		.loc 1 687 0
 2349 0094 C4EB0410 		rsb	r0, r4, r4, lsl #4
 2350 0098 3030     		adds	r0, r0, #48
 2351 009a C0F30720 		ubfx	r0, r0, #8, #8
 2352 009e FFF7FEFF 		bl	LCD_2_PutChar
 2353              	.LVL140:
 688:.\LCD.c       ****         LCD_2_PutChar(((0x30)+(0x0F*pos))&0xFF);
 2354              		.loc 1 688 0
 2355 00a2 C4EB0414 		rsb	r4, r4, r4, lsl #4
 2356 00a6 04F13000 		add	r0, r4, #48
 2357 00aa C0B2     		uxtb	r0, r0
 2358 00ac FFF7FEFF 		bl	LCD_2_PutChar
 2359              	.LVL141:
 689:.\LCD.c       ****         LCD_2_PutChar(0x00);
 2360              		.loc 1 689 0
 2361 00b0 0020     		movs	r0, #0
 2362 00b2 FFF7FEFF 		bl	LCD_2_PutChar
 2363              	.LVL142:
 690:.\LCD.c       ****         LCD_2_PutChar(0x30);
 2364              		.loc 1 690 0
 2365 00b6 3020     		movs	r0, #48
 2366 00b8 FFF7FEFF 		bl	LCD_2_PutChar
 2367              	.LVL143:
 691:.\LCD.c       ****         LCD_2_PutChar(0x23);
 2368              		.loc 1 691 0
 2369 00bc 2320     		movs	r0, #35
ARM GAS  C:\Users\RECEPC~1\AppData\Local\Temp\cc89K5zt.s 			page 57


 2370 00be FFF7FEFF 		bl	LCD_2_PutChar
 2371              	.LVL144:
 692:.\LCD.c       ****         LCD_2_PutChar(0xC5);
 2372              		.loc 1 692 0
 2373 00c2 C520     		movs	r0, #197
 2374 00c4 FFF7FEFF 		bl	LCD_2_PutChar
 2375              	.LVL145:
 693:.\LCD.c       ****         LCD_2_PutChar(0x02);
 2376              		.loc 1 693 0
 2377 00c8 0220     		movs	r0, #2
 2378 00ca FFF7FEFF 		bl	LCD_2_PutChar
 2379              	.LVL146:
 694:.\LCD.c       ****         LCD_2_PutChar(0x00);
 2380              		.loc 1 694 0
 2381 00ce 0020     		movs	r0, #0
 2382 00d0 FFF7FEFF 		bl	LCD_2_PutChar
 2383              	.LVL147:
 695:.\LCD.c       ****         LCD_2_PutChar(0x00);
 2384              		.loc 1 695 0
 2385 00d4 0020     		movs	r0, #0
 2386 00d6 FFF7FEFF 		bl	LCD_2_PutChar
 2387              	.LVL148:
 696:.\LCD.c       ****         LCD_2_PutChar(0xFF);
 2388              		.loc 1 696 0
 2389 00da FF20     		movs	r0, #255
 2390 00dc FFF7FEFF 		bl	LCD_2_PutChar
 2391              	.LVL149:
 697:.\LCD.c       ****         LCD_2_PutChar(0xFF);
 2392              		.loc 1 697 0
 2393 00e0 FF20     		movs	r0, #255
 2394 00e2 FFF7FEFF 		bl	LCD_2_PutChar
 2395              	.LVL150:
 698:.\LCD.c       ****         LCD_2_PutChar(dato);
 2396              		.loc 1 698 0
 2397 00e6 2846     		mov	r0, r5
 2398 00e8 FFF7FEFF 		bl	LCD_2_PutChar
 2399              	.LVL151:
 699:.\LCD.c       ****         LCD_2_PutChar(0xCC);
 2400              		.loc 1 699 0
 2401 00ec CC20     		movs	r0, #204
 2402 00ee FFF7FEFF 		bl	LCD_2_PutChar
 2403              	.LVL152:
 700:.\LCD.c       ****         LCD_2_PutChar(0x33);
 2404              		.loc 1 700 0
 2405 00f2 3320     		movs	r0, #51
 2406 00f4 FFF7FEFF 		bl	LCD_2_PutChar
 2407              	.LVL153:
 701:.\LCD.c       ****         LCD_2_PutChar(0xC3);
 2408              		.loc 1 701 0
 2409 00f8 C320     		movs	r0, #195
 2410 00fa FFF7FEFF 		bl	LCD_2_PutChar
 2411              	.LVL154:
 702:.\LCD.c       ****         LCD_2_PutChar(0x3C);   
 2412              		.loc 1 702 0
 2413 00fe 3C20     		movs	r0, #60
 2414 0100 FFF7FEFF 		bl	LCD_2_PutChar
 2415              	.LVL155:
ARM GAS  C:\Users\RECEPC~1\AppData\Local\Temp\cc89K5zt.s 			page 58


 2416 0104 38BD     		pop	{r3, r4, r5, pc}
 2417              		.cfi_endproc
 2418              	.LFE77:
 2419              		.size	writemini_LCD, .-writemini_LCD
 2420              		.comm	rventa2,225,4
 2421              		.comm	rventa,225,4
 2422              		.comm	lado,8,4
 2423              		.comm	producto,1,1
 2424              		.comm	producto2,1,1
 2425              		.comm	producto1,1,1
 2426              		.comm	modulo,400,4
 2427              		.comm	w,4,4
 2428              		.comm	z,4,4
 2429              		.comm	y,4,4
 2430              		.comm	x,4,4
 2431              		.comm	estado_0,1,1
 2432              		.comm	Buffer_LCD2,152,4
 2433              		.comm	Buffer_LCD1,152,4
 2434              		.comm	no_venta,4,4
 2435              		.comm	id_venta,6,4
 2436              		.comm	id_corte,2,2
 2437              		.comm	copia_recibo,2,4
 2438              		.comm	print2,2,4
 2439              		.comm	print1,2,4
 2440              		.comm	crc_total,1,1
 2441              		.comm	pos_ibutton,1,1
 2442              		.comm	fecha_corte,6,4
 2443              		.comm	decimalD,1,1
 2444              		.comm	decimalV,1,1
 2445              		.comm	tipo_imp,2,4
 2446              		.comm	bandera,2,4
 2447              		.comm	ppux10,1,1
 2448              		.comm	teclado2,1,1
 2449              		.comm	teclado,1,1
 2450              		.comm	resultado,14,4
 2451              		.comm	buffer_i2c,64,4
 2452              		.comm	kero2,1,1
 2453              		.comm	diesel2,1,1
 2454              		.comm	corriente2,1,1
 2455              		.comm	extra2,1,1
 2456              		.comm	kero,1,1
 2457              		.comm	corriente,1,1
 2458              		.comm	diesel,1,1
 2459              		.comm	extra,1,1
 2460              		.comm	versurt,1,1
 2461              		.comm	version,1,1
 2462              		.comm	comas2,1,1
 2463              		.comm	comas1,1,1
 2464              		.comm	teclas2,1,1
 2465              		.comm	teclas1,1,1
 2466              		.comm	cont1,1,1
 2467              		.comm	ok_LCD2,1,1
 2468              		.comm	ok_LCD1,1,1
 2469              		.comm	count_protector2,1,1
 2470              		.comm	count_protector,1,1
 2471              		.comm	flujo_LCD2,1,1
 2472              		.comm	flujo_LCD,1,1
ARM GAS  C:\Users\RECEPC~1\AppData\Local\Temp\cc89K5zt.s 			page 59


 2473 0106 00BF     		.section	.rodata
 2474              		.align	2
 2475              		.set	.LANCHOR0,. + 0
 2476              	.LC0:
 2477 0000 AA       		.byte	-86
 2478 0001 98       		.byte	-104
 2479 0002 00       		.byte	0
 2480 0003 D0       		.byte	-48
 2481 0004 00       		.byte	0
 2482 0005 BB       		.byte	-69
 2483 0006 24       		.byte	36
 2484 0007 C5       		.byte	-59
 2485 0008 02       		.byte	2
 2486 0009 00       		.byte	0
 2487 000a 00       		.byte	0
 2488 000b FF       		.byte	-1
 2489 000c FF       		.byte	-1
 2490 000d 30       		.byte	48
 2491 000e 30       		.byte	48
 2492 000f 3A       		.byte	58
 2493 0010 30       		.byte	48
 2494 0011 30       		.byte	48
 2495 0012 41       		.byte	65
 2496 0013 6D       		.byte	109
 2497 0014 CC       		.byte	-52
 2498 0015 33       		.byte	51
 2499 0016 C3       		.byte	-61
 2500 0017 3C       		.byte	60
 2501              	.LC1:
 2502 0018 AA       		.byte	-86
 2503 0019 98       		.byte	-104
 2504 001a 00       		.byte	0
 2505 001b CB       		.byte	-53
 2506 001c 01       		.byte	1
 2507 001d 27       		.byte	39
 2508 001e 24       		.byte	36
 2509 001f C5       		.byte	-59
 2510 0020 02       		.byte	2
 2511 0021 00       		.byte	0
 2512 0022 00       		.byte	0
 2513 0023 FF       		.byte	-1
 2514 0024 FF       		.byte	-1
 2515 0025 30       		.byte	48
 2516 0026 30       		.byte	48
 2517 0027 2F       		.byte	47
 2518 0028 30       		.byte	48
 2519 0029 30       		.byte	48
 2520 002a 2F       		.byte	47
 2521 002b 30       		.byte	48
 2522 002c 30       		.byte	48
 2523 002d CC       		.byte	-52
 2524 002e 33       		.byte	51
 2525 002f C3       		.byte	-61
 2526 0030 3C       		.byte	60
 2527 0031 000000   		.space	3
 2528              	.LC2:
 2529 0034 AA       		.byte	-86
ARM GAS  C:\Users\RECEPC~1\AppData\Local\Temp\cc89K5zt.s 			page 60


 2530 0035 98       		.byte	-104
 2531 0036 00       		.byte	0
 2532 0037 A5       		.byte	-91
 2533 0038 00       		.byte	0
 2534 0039 7E       		.byte	126
 2535 003a 23       		.byte	35
 2536 003b C5       		.byte	-59
 2537 003c 02       		.byte	2
 2538 003d 00       		.byte	0
 2539 003e 00       		.byte	0
 2540 003f FF       		.byte	-1
 2541 0040 FF       		.byte	-1
 2542 0041 20       		.byte	32
 2543 0042 CC       		.byte	-52
 2544 0043 33       		.byte	51
 2545 0044 C3       		.byte	-61
 2546 0045 3C       		.byte	60
 2547 0046 0000     		.space	2
 2548              	.LC3:
 2549 0048 AA       		.byte	-86
 2550 0049 98       		.byte	-104
 2551 004a 01       		.byte	1
 2552 004b 80       		.byte	-128
 2553 004c 01       		.byte	1
 2554 004d 60       		.byte	96
 2555 004e 24       		.byte	36
 2556 004f C5       		.byte	-59
 2557 0050 02       		.byte	2
 2558 0051 00       		.byte	0
 2559 0052 00       		.byte	0
 2560 0053 FF       		.byte	-1
 2561 0054 FF       		.byte	-1
 2562 0055 24       		.byte	36
 2563 0056 20       		.byte	32
 2564 0057 20       		.byte	32
 2565 0058 20       		.byte	32
 2566 0059 20       		.byte	32
 2567 005a 20       		.byte	32
 2568 005b CC       		.byte	-52
 2569 005c 33       		.byte	51
 2570 005d C3       		.byte	-61
 2571 005e 3C       		.byte	60
 2572 005f 00       		.space	1
 2573              	.LC4:
 2574 0060 AA       		.byte	-86
 2575 0061 98       		.byte	-104
 2576 0062 02       		.byte	2
 2577 0063 20       		.byte	32
 2578 0064 01       		.byte	1
 2579 0065 60       		.byte	96
 2580 0066 24       		.byte	36
 2581 0067 C5       		.byte	-59
 2582 0068 02       		.byte	2
 2583 0069 00       		.byte	0
 2584 006a 00       		.byte	0
 2585 006b FF       		.byte	-1
 2586 006c FF       		.byte	-1
ARM GAS  C:\Users\RECEPC~1\AppData\Local\Temp\cc89K5zt.s 			page 61


 2587 006d 20       		.byte	32
 2588 006e CC       		.byte	-52
 2589 006f 33       		.byte	51
 2590 0070 C3       		.byte	-61
 2591 0071 3C       		.byte	60
 2592 0072 0000     		.space	2
 2593              	.LC5:
 2594 0074 AA       		.byte	-86
 2595 0075 98       		.byte	-104
 2596 0076 00       		.byte	0
 2597 0077 A5       		.byte	-91
 2598 0078 00       		.byte	0
 2599 0079 B7       		.byte	-73
 2600 007a 23       		.byte	35
 2601 007b C5       		.byte	-59
 2602 007c 02       		.byte	2
 2603 007d 00       		.byte	0
 2604 007e 00       		.byte	0
 2605 007f FF       		.byte	-1
 2606 0080 FF       		.byte	-1
 2607 0081 20       		.byte	32
 2608 0082 CC       		.byte	-52
 2609 0083 33       		.byte	51
 2610 0084 C3       		.byte	-61
 2611 0085 3C       		.byte	60
 2612 0086 0000     		.space	2
 2613              	.LC6:
 2614 0088 AA       		.byte	-86
 2615 0089 98       		.byte	-104
 2616 008a 00       		.byte	0
 2617 008b A5       		.byte	-91
 2618 008c 01       		.byte	1
 2619 008d 27       		.byte	39
 2620 008e 23       		.byte	35
 2621 008f C5       		.byte	-59
 2622 0090 02       		.byte	2
 2623 0091 00       		.byte	0
 2624 0092 00       		.byte	0
 2625 0093 FF       		.byte	-1
 2626 0094 FF       		.byte	-1
 2627 0095 20       		.byte	32
 2628 0096 CC       		.byte	-52
 2629 0097 33       		.byte	51
 2630 0098 C3       		.byte	-61
 2631 0099 3C       		.byte	60
 2632 009a 0000     		.space	2
 2633              	.LC7:
 2634 009c AA       		.byte	-86
 2635 009d 98       		.byte	-104
 2636 009e 00       		.byte	0
 2637 009f A5       		.byte	-91
 2638 00a0 01       		.byte	1
 2639 00a1 5F       		.byte	95
 2640 00a2 23       		.byte	35
 2641 00a3 C5       		.byte	-59
 2642 00a4 02       		.byte	2
 2643 00a5 00       		.byte	0
ARM GAS  C:\Users\RECEPC~1\AppData\Local\Temp\cc89K5zt.s 			page 62


 2644 00a6 00       		.byte	0
 2645 00a7 FF       		.byte	-1
 2646 00a8 FF       		.byte	-1
 2647 00a9 20       		.byte	32
 2648 00aa CC       		.byte	-52
 2649 00ab 33       		.byte	51
 2650 00ac C3       		.byte	-61
 2651 00ad 3C       		.byte	60
 2652 00ae 0000     		.space	2
 2653              	.LC8:
 2654 00b0 AA       		.byte	-86
 2655 00b1 98       		.byte	-104
 2656 00b2 00       		.byte	0
 2657 00b3 A5       		.byte	-91
 2658 00b4 00       		.byte	0
 2659 00b5 EE       		.byte	-18
 2660 00b6 23       		.byte	35
 2661 00b7 C5       		.byte	-59
 2662 00b8 02       		.byte	2
 2663 00b9 00       		.byte	0
 2664 00ba 00       		.byte	0
 2665 00bb FF       		.byte	-1
 2666 00bc FF       		.byte	-1
 2667 00bd 20       		.byte	32
 2668 00be CC       		.byte	-52
 2669 00bf 33       		.byte	51
 2670 00c0 C3       		.byte	-61
 2671 00c1 3C       		.byte	60
 2672 00c2 0000     		.space	2
 2673              	.LC9:
 2674 00c4 AA       		.byte	-86
 2675 00c5 98       		.byte	-104
 2676 00c6 00       		.byte	0
 2677 00c7 A5       		.byte	-91
 2678 00c8 01       		.byte	1
 2679 00c9 99       		.byte	-103
 2680 00ca 23       		.byte	35
 2681 00cb C5       		.byte	-59
 2682 00cc 02       		.byte	2
 2683 00cd 00       		.byte	0
 2684 00ce 00       		.byte	0
 2685 00cf FF       		.byte	-1
 2686 00d0 FF       		.byte	-1
 2687 00d1 20       		.byte	32
 2688 00d2 CC       		.byte	-52
 2689 00d3 33       		.byte	51
 2690 00d4 C3       		.byte	-61
 2691 00d5 3C       		.byte	60
 2692 00d6 0000     		.space	2
 2693              	.LC10:
 2694 00d8 AA       		.byte	-86
 2695 00d9 98       		.byte	-104
 2696 00da 00       		.byte	0
 2697 00db A5       		.byte	-91
 2698 00dc 01       		.byte	1
 2699 00dd 32       		.byte	50
 2700 00de 23       		.byte	35
ARM GAS  C:\Users\RECEPC~1\AppData\Local\Temp\cc89K5zt.s 			page 63


 2701 00df C5       		.byte	-59
 2702 00e0 02       		.byte	2
 2703 00e1 00       		.byte	0
 2704 00e2 00       		.byte	0
 2705 00e3 FF       		.byte	-1
 2706 00e4 FF       		.byte	-1
 2707 00e5 20       		.byte	32
 2708 00e6 CC       		.byte	-52
 2709 00e7 33       		.byte	51
 2710 00e8 C3       		.byte	-61
 2711 00e9 3C       		.byte	60
 2712 00ea 0000     		.space	2
 2713              	.LC11:
 2714 00ec AA       		.byte	-86
 2715 00ed 98       		.byte	-104
 2716 00ee 00       		.byte	0
 2717 00ef A5       		.byte	-91
 2718 00f0 00       		.byte	0
 2719 00f1 C1       		.byte	-63
 2720 00f2 23       		.byte	35
 2721 00f3 C5       		.byte	-59
 2722 00f4 02       		.byte	2
 2723 00f5 00       		.byte	0
 2724 00f6 00       		.byte	0
 2725 00f7 FF       		.byte	-1
 2726 00f8 FF       		.byte	-1
 2727 00f9 20       		.byte	32
 2728 00fa CC       		.byte	-52
 2729 00fb 33       		.byte	51
 2730 00fc C3       		.byte	-61
 2731 00fd 3C       		.byte	60
 2732 00fe 0000     		.text
 2733              	.Letext0:
 2734              		.file 2 "c:\\program files (x86)\\cypress\\psoc creator\\3.2\\psoc creator\\import\\gnu\\arm\\4.8.
 2735              		.file 3 "c:\\program files (x86)\\cypress\\psoc creator\\3.2\\psoc creator\\import\\gnu\\arm\\4.8.
 2736              		.file 4 "Generated_Source\\PSoC5/cytypes.h"
 2737              		.file 5 ".\\VariablesG.h"
 2738              		.file 6 "Generated_Source\\PSoC5/core_cm3.h"
 2739              		.file 7 "Generated_Source\\PSoC5/LCD_1.h"
 2740              		.file 8 "Generated_Source\\PSoC5/LCD_2.h"
 2741              		.file 9 ".\\I2C.h"