ARM GAS  C:\Users\RECEPC~1\AppData\Local\Temp\ccNG63cQ.s 			page 1


   1              		.syntax unified
   2              		.cpu cortex-m3
   3              		.fpu softvfp
   4              		.eabi_attribute 20, 1
   5              		.eabi_attribute 21, 1
   6              		.eabi_attribute 23, 3
   7              		.eabi_attribute 24, 1
   8              		.eabi_attribute 25, 1
   9              		.eabi_attribute 26, 1
  10              		.eabi_attribute 30, 1
  11              		.eabi_attribute 34, 1
  12              		.eabi_attribute 18, 4
  13              		.thumb
  14              		.file	"Protocolo.c"
  15              		.text
  16              	.Ltext0:
  17              		.cfi_sections	.debug_frame
  18              		.section	.text.ver_pos,"ax",%progbits
  19              		.align	2
  20              		.global	ver_pos
  21              		.thumb
  22              		.thumb_func
  23              		.type	ver_pos, %function
  24              	ver_pos:
  25              	.LFB63:
  26              		.file 1 ".\\Protocolo.c"
   1:.\Protocolo.c **** /*
   2:.\Protocolo.c **** ***************************************************************************************************
   3:.\Protocolo.c **** *                                           GRP550/700 CODE
   4:.\Protocolo.c **** *
   5:.\Protocolo.c **** *                             (c) Copyright 2013; Sistemas Insepet LTDA
   6:.\Protocolo.c **** *
   7:.\Protocolo.c **** *               All rights reserved.  Protected by international copyright laws.
   8:.\Protocolo.c **** *               Knowledge of the source code may NOT be used to develop a similar product.
   9:.\Protocolo.c **** *               Please help us continue to provide the Embedded community with the finest
  10:.\Protocolo.c **** *               software available.  Your honesty is greatly appreciated.
  11:.\Protocolo.c **** ***************************************************************************************************
  12:.\Protocolo.c **** */
  13:.\Protocolo.c **** 
  14:.\Protocolo.c **** /*
  15:.\Protocolo.c **** ***************************************************************************************************
  16:.\Protocolo.c **** *
  17:.\Protocolo.c **** *                                             GRP550/700 CODE
  18:.\Protocolo.c **** *
  19:.\Protocolo.c **** *                                             CYPRESS PSoC5LP
  20:.\Protocolo.c **** *                                                with the
  21:.\Protocolo.c **** *                                            CY8C5969AXI-LP035
  22:.\Protocolo.c **** *
  23:.\Protocolo.c **** * Filename      : Protocolo.c
  24:.\Protocolo.c **** * Version       : V1.00
  25:.\Protocolo.c **** * Programmer(s) : 
  26:.\Protocolo.c ****                   
  27:.\Protocolo.c **** ***************************************************************************************************
  28:.\Protocolo.c **** */
  29:.\Protocolo.c **** 
  30:.\Protocolo.c **** 
  31:.\Protocolo.c **** /*
ARM GAS  C:\Users\RECEPC~1\AppData\Local\Temp\ccNG63cQ.s 			page 2


  32:.\Protocolo.c **** ***************************************************************************************************
  33:.\Protocolo.c **** *                                             INCLUDE FILES
  34:.\Protocolo.c **** ***************************************************************************************************
  35:.\Protocolo.c **** */
  36:.\Protocolo.c **** #include <device.h>
  37:.\Protocolo.c **** #include "VariablesG.h"
  38:.\Protocolo.c **** #include "i2c.h"
  39:.\Protocolo.c **** #include "Print.h"
  40:.\Protocolo.c **** 
  41:.\Protocolo.c **** /*
  42:.\Protocolo.c **** ***************************************************************************************************
  43:.\Protocolo.c **** *                                            	MENSAJES
  44:.\Protocolo.c **** ***************************************************************************************************
  45:.\Protocolo.c **** */
  46:.\Protocolo.c **** 
  47:.\Protocolo.c **** uint8 msn_tc[17]="DIESEL P TOTAL";
  48:.\Protocolo.c **** uint8 msn_te[13]="DIESEL TOTAL";
  49:.\Protocolo.c **** uint8 msn_td[14]="SANS P TOTAL";
  50:.\Protocolo.c **** uint8 msn_tk[10]="KERO TOTAL";
  51:.\Protocolo.c **** uint8 msn_lecact[15]="Current Value: ";
  52:.\Protocolo.c **** uint8 msn_lecaan[17]="Previous Value:  ";
  53:.\Protocolo.c **** uint8 msn_tventas[18]="Total Amount: H   ";
  54:.\Protocolo.c **** uint8 msn_totalcero[15]="NO TOMO TOTALES";
  55:.\Protocolo.c **** 
  56:.\Protocolo.c **** 
  57:.\Protocolo.c **** 
  58:.\Protocolo.c **** 
  59:.\Protocolo.c **** 
  60:.\Protocolo.c **** 
  61:.\Protocolo.c **** /*
  62:.\Protocolo.c **** ***************************************************************************************************
  63:.\Protocolo.c **** *                                         ver_pos( void )
  64:.\Protocolo.c **** *
  65:.\Protocolo.c **** * Description : 
  66:.\Protocolo.c **** *               
  67:.\Protocolo.c **** *
  68:.\Protocolo.c **** * Argument(s) : none
  69:.\Protocolo.c **** *
  70:.\Protocolo.c **** * Return(s)   : none
  71:.\Protocolo.c **** *
  72:.\Protocolo.c **** * Caller(s)   : 
  73:.\Protocolo.c **** *
  74:.\Protocolo.c **** * Note(s)     : none.
  75:.\Protocolo.c **** ***************************************************************************************************
  76:.\Protocolo.c **** */
  77:.\Protocolo.c **** uint8 ver_pos (void){
  27              		.loc 1 77 0
  28              		.cfi_startproc
  29              		@ args = 0, pretend = 0, frame = 0
  30              		@ frame_needed = 0, uses_anonymous_args = 0
  31 0000 70B5     		push	{r4, r5, r6, lr}
  32              		.cfi_def_cfa_offset 16
  33              		.cfi_offset 4, -16
  34              		.cfi_offset 5, -12
  35              		.cfi_offset 6, -8
  36              		.cfi_offset 14, -4
  78:.\Protocolo.c **** uint8 x;
ARM GAS  C:\Users\RECEPC~1\AppData\Local\Temp\ccNG63cQ.s 			page 3


  79:.\Protocolo.c **** lado.a.dir=0xff;
  37              		.loc 1 79 0
  38 0002 1D4B     		ldr	r3, .L11
  39 0004 FF22     		movs	r2, #255
  40 0006 1A70     		strb	r2, [r3]
  80:.\Protocolo.c **** lado.b.dir=0xff;
  41              		.loc 1 80 0
  42 0008 1A71     		strb	r2, [r3, #4]
  43              	.LVL0:
  81:.\Protocolo.c ****     for(x=0;x<=15;x++){
  44              		.loc 1 81 0
  45 000a 0024     		movs	r4, #0
  82:.\Protocolo.c ****         Surtidor_PutChar(x);
  83:.\Protocolo.c ****         CyDelay(100);
  46              		.loc 1 83 0
  47 000c 6426     		movs	r6, #100
  84:.\Protocolo.c ****         if((Surtidor_GetRxBufferSize()>=1)&&(lado.a.dir==0xff)){
  48              		.loc 1 84 0
  49 000e 1D46     		mov	r5, r3
  81:.\Protocolo.c ****     for(x=0;x<=15;x++){
  50              		.loc 1 81 0
  51 0010 19E0     		b	.L2
  52              	.LVL1:
  53              	.L5:
  82:.\Protocolo.c ****         Surtidor_PutChar(x);
  54              		.loc 1 82 0
  55 0012 2046     		mov	r0, r4
  56 0014 FFF7FEFF 		bl	Surtidor_PutChar
  57              	.LVL2:
  83:.\Protocolo.c ****         CyDelay(100);
  58              		.loc 1 83 0
  59 0018 3046     		mov	r0, r6
  60 001a FFF7FEFF 		bl	CyDelay
  61              	.LVL3:
  62              		.loc 1 84 0
  63 001e FFF7FEFF 		bl	Surtidor_GetRxBufferSize
  64              	.LVL4:
  65 0022 28B1     		cbz	r0, .L3
  66              		.loc 1 84 0 is_stmt 0 discriminator 1
  67 0024 2B78     		ldrb	r3, [r5]	@ zero_extendqisi2
  68 0026 FF2B     		cmp	r3, #255
  69 0028 02D1     		bne	.L3
  85:.\Protocolo.c ****            lado.a.dir=x;	
  70              		.loc 1 85 0 is_stmt 1
  71 002a 2C70     		strb	r4, [r5]
  86:.\Protocolo.c ****            Surtidor_ClearRxBuffer();
  72              		.loc 1 86 0
  73 002c FFF7FEFF 		bl	Surtidor_ClearRxBuffer
  74              	.LVL5:
  75              	.L3:
  87:.\Protocolo.c ****         }
  88:.\Protocolo.c ****         if((Surtidor_GetRxBufferSize()>=1)&&(x!=lado.a.dir)){
  76              		.loc 1 88 0
  77 0030 FFF7FEFF 		bl	Surtidor_GetRxBufferSize
  78              	.LVL6:
  79 0034 28B1     		cbz	r0, .L4
  80              		.loc 1 88 0 is_stmt 0 discriminator 1
ARM GAS  C:\Users\RECEPC~1\AppData\Local\Temp\ccNG63cQ.s 			page 4


  81 0036 2B78     		ldrb	r3, [r5]	@ zero_extendqisi2
  82 0038 A342     		cmp	r3, r4
  83 003a 02D0     		beq	.L4
  89:.\Protocolo.c ****            lado.b.dir=x;
  84              		.loc 1 89 0 is_stmt 1
  85 003c 2C71     		strb	r4, [r5, #4]
  90:.\Protocolo.c ****            Surtidor_ClearRxBuffer();
  86              		.loc 1 90 0
  87 003e FFF7FEFF 		bl	Surtidor_ClearRxBuffer
  88              	.LVL7:
  89              	.L4:
  81:.\Protocolo.c ****     for(x=0;x<=15;x++){
  90              		.loc 1 81 0
  91 0042 0134     		adds	r4, r4, #1
  92              	.LVL8:
  93 0044 E4B2     		uxtb	r4, r4
  94              	.LVL9:
  95              	.L2:
  81:.\Protocolo.c ****     for(x=0;x<=15;x++){
  96              		.loc 1 81 0 is_stmt 0 discriminator 1
  97 0046 0F2C     		cmp	r4, #15
  98 0048 E3D9     		bls	.L5
  91:.\Protocolo.c ****         }
  92:.\Protocolo.c ****     }
  93:.\Protocolo.c ****     if((lado.a.dir!=0xff)&&(lado.b.dir!=0xff)){
  99              		.loc 1 93 0 is_stmt 1
 100 004a 0B4B     		ldr	r3, .L11
 101 004c 1B78     		ldrb	r3, [r3]	@ zero_extendqisi2
 102 004e FF2B     		cmp	r3, #255
 103 0050 03D0     		beq	.L6
 104              		.loc 1 93 0 is_stmt 0 discriminator 1
 105 0052 094A     		ldr	r2, .L11
 106 0054 1279     		ldrb	r2, [r2, #4]	@ zero_extendqisi2
 107 0056 FF2A     		cmp	r2, #255
 108 0058 07D1     		bne	.L8
 109              	.L6:
  94:.\Protocolo.c ****         return 2;
  95:.\Protocolo.c ****     }
  96:.\Protocolo.c ****     else{
  97:.\Protocolo.c ****         if((lado.a.dir!=0xff)||(lado.b.dir!=0xff)){
 110              		.loc 1 97 0 is_stmt 1
 111 005a FF2B     		cmp	r3, #255
 112 005c 07D1     		bne	.L9
 113              		.loc 1 97 0 is_stmt 0 discriminator 1
 114 005e 064B     		ldr	r3, .L11
 115 0060 1B79     		ldrb	r3, [r3, #4]	@ zero_extendqisi2
 116 0062 FF2B     		cmp	r3, #255
 117 0064 05D0     		beq	.L10
  98:.\Protocolo.c ****             return 1;
 118              		.loc 1 98 0 is_stmt 1
 119 0066 0120     		movs	r0, #1
 120 0068 70BD     		pop	{r4, r5, r6, pc}
 121              	.LVL10:
 122              	.L8:
  94:.\Protocolo.c ****         return 2;
 123              		.loc 1 94 0
 124 006a 0220     		movs	r0, #2
ARM GAS  C:\Users\RECEPC~1\AppData\Local\Temp\ccNG63cQ.s 			page 5


 125 006c 70BD     		pop	{r4, r5, r6, pc}
 126              	.LVL11:
 127              	.L9:
 128              		.loc 1 98 0
 129 006e 0120     		movs	r0, #1
 130 0070 70BD     		pop	{r4, r5, r6, pc}
 131              	.LVL12:
 132              	.L10:
  99:.\Protocolo.c ****         }
 100:.\Protocolo.c ****         else{
 101:.\Protocolo.c ****             return 0;
 133              		.loc 1 101 0
 134 0072 0020     		movs	r0, #0
 102:.\Protocolo.c ****         }
 103:.\Protocolo.c ****     }
 104:.\Protocolo.c **** }
 135              		.loc 1 104 0
 136 0074 70BD     		pop	{r4, r5, r6, pc}
 137              	.LVL13:
 138              	.L12:
 139 0076 00BF     		.align	2
 140              	.L11:
 141 0078 00000000 		.word	lado
 142              		.cfi_endproc
 143              	.LFE63:
 144              		.size	ver_pos, .-ver_pos
 145              		.section	.text.get_estado,"ax",%progbits
 146              		.align	2
 147              		.global	get_estado
 148              		.thumb
 149              		.thumb_func
 150              		.type	get_estado, %function
 151              	get_estado:
 152              	.LFB64:
 105:.\Protocolo.c **** 
 106:.\Protocolo.c **** /*
 107:.\Protocolo.c **** ***************************************************************************************************
 108:.\Protocolo.c **** *                                         ver_estado( void )
 109:.\Protocolo.c **** *
 110:.\Protocolo.c **** * Description : 
 111:.\Protocolo.c **** *               
 112:.\Protocolo.c **** *
 113:.\Protocolo.c **** * Argument(s) : none
 114:.\Protocolo.c **** *
 115:.\Protocolo.c **** * Return(s)   : none
 116:.\Protocolo.c **** *
 117:.\Protocolo.c **** * Caller(s)   : 
 118:.\Protocolo.c **** *
 119:.\Protocolo.c **** * Note(s)     : none.
 120:.\Protocolo.c **** ***************************************************************************************************
 121:.\Protocolo.c **** */
 122:.\Protocolo.c **** 
 123:.\Protocolo.c **** uint8 get_estado(uint8 dir){
 153              		.loc 1 123 0
 154              		.cfi_startproc
 155              		@ args = 0, pretend = 0, frame = 0
 156              		@ frame_needed = 0, uses_anonymous_args = 0
ARM GAS  C:\Users\RECEPC~1\AppData\Local\Temp\ccNG63cQ.s 			page 6


 157              	.LVL14:
 158 0000 10B5     		push	{r4, lr}
 159              		.cfi_def_cfa_offset 8
 160              		.cfi_offset 4, -8
 161              		.cfi_offset 14, -4
 124:.\Protocolo.c ****     uint8 estado;
 125:.\Protocolo.c ****     Surtidor_PutChar(dir);
 162              		.loc 1 125 0
 163 0002 FFF7FEFF 		bl	Surtidor_PutChar
 164              	.LVL15:
 126:.\Protocolo.c ****     CyDelay(50);
 165              		.loc 1 126 0
 166 0006 3220     		movs	r0, #50
 167 0008 FFF7FEFF 		bl	CyDelay
 168              	.LVL16:
 127:.\Protocolo.c ****     if(Surtidor_GetRxBufferSize()>=1){
 169              		.loc 1 127 0
 170 000c FFF7FEFF 		bl	Surtidor_GetRxBufferSize
 171              	.LVL17:
 172 0010 38B1     		cbz	r0, .L15
 128:.\Protocolo.c ****        estado=(Surtidor_ReadRxData()&0xF0)>>4;
 173              		.loc 1 128 0
 174 0012 FFF7FEFF 		bl	Surtidor_ReadRxData
 175              	.LVL18:
 176 0016 C0F30714 		ubfx	r4, r0, #4, #8
 177              	.LVL19:
 129:.\Protocolo.c ****        Surtidor_ClearRxBuffer();
 178              		.loc 1 129 0
 179 001a FFF7FEFF 		bl	Surtidor_ClearRxBuffer
 180              	.LVL20:
 130:.\Protocolo.c ****        return estado;
 181              		.loc 1 130 0
 182 001e 2046     		mov	r0, r4
 183 0020 10BD     		pop	{r4, pc}
 184              	.LVL21:
 185              	.L15:
 131:.\Protocolo.c ****     }
 132:.\Protocolo.c ****     else{
 133:.\Protocolo.c ****         return 0;
 186              		.loc 1 133 0
 187 0022 0020     		movs	r0, #0
 134:.\Protocolo.c ****     }
 135:.\Protocolo.c **** }
 188              		.loc 1 135 0
 189 0024 10BD     		pop	{r4, pc}
 190              		.cfi_endproc
 191              	.LFE64:
 192              		.size	get_estado, .-get_estado
 193 0026 00BF     		.section	.text.ver_error,"ax",%progbits
 194              		.align	2
 195              		.global	ver_error
 196              		.thumb
 197              		.thumb_func
 198              		.type	ver_error, %function
 199              	ver_error:
 200              	.LFB65:
 136:.\Protocolo.c **** 
ARM GAS  C:\Users\RECEPC~1\AppData\Local\Temp\ccNG63cQ.s 			page 7


 137:.\Protocolo.c **** /*
 138:.\Protocolo.c **** ***************************************************************************************************
 139:.\Protocolo.c **** *                                         void ver_error(uint8 val)
 140:.\Protocolo.c **** *
 141:.\Protocolo.c **** * Description : 
 142:.\Protocolo.c **** *               
 143:.\Protocolo.c **** *
 144:.\Protocolo.c **** * Argument(s) : none
 145:.\Protocolo.c **** *
 146:.\Protocolo.c **** * Return(s)   : none
 147:.\Protocolo.c **** *
 148:.\Protocolo.c **** * Caller(s)   : 
 149:.\Protocolo.c **** *
 150:.\Protocolo.c **** * Note(s)     : none.
 151:.\Protocolo.c **** ***************************************************************************************************
 152:.\Protocolo.c **** */
 153:.\Protocolo.c **** void ver_error(uint8 val){
 201              		.loc 1 153 0
 202              		.cfi_startproc
 203              		@ args = 0, pretend = 0, frame = 0
 204              		@ frame_needed = 0, uses_anonymous_args = 0
 205              	.LVL22:
 206 0000 08B5     		push	{r3, lr}
 207              		.cfi_def_cfa_offset 8
 208              		.cfi_offset 3, -8
 209              		.cfi_offset 14, -4
 154:.\Protocolo.c ****     uint8 estado;
 155:.\Protocolo.c ****     Surtidor_PutChar(val);
 210              		.loc 1 155 0
 211 0002 FFF7FEFF 		bl	Surtidor_PutChar
 212              	.LVL23:
 156:.\Protocolo.c ****     CyDelay(200);
 213              		.loc 1 156 0
 214 0006 C820     		movs	r0, #200
 215 0008 FFF7FEFF 		bl	CyDelay
 216              	.LVL24:
 157:.\Protocolo.c ****     if(Surtidor_GetRxBufferSize()>=1){
 217              		.loc 1 157 0
 218 000c FFF7FEFF 		bl	Surtidor_GetRxBufferSize
 219              	.LVL25:
 220 0010 18B1     		cbz	r0, .L16
 158:.\Protocolo.c ****        estado=(Surtidor_ReadRxData()&0xF0)>>4;
 221              		.loc 1 158 0
 222 0012 FFF7FEFF 		bl	Surtidor_ReadRxData
 223              	.LVL26:
 159:.\Protocolo.c ****        Surtidor_ClearRxBuffer();
 224              		.loc 1 159 0
 225 0016 FFF7FEFF 		bl	Surtidor_ClearRxBuffer
 226              	.LVL27:
 227              	.L16:
 228 001a 08BD     		pop	{r3, pc}
 229              		.cfi_endproc
 230              	.LFE65:
 231              		.size	ver_error, .-ver_error
 232              		.section	.text.estado_ex,"ax",%progbits
 233              		.align	2
 234              		.global	estado_ex
ARM GAS  C:\Users\RECEPC~1\AppData\Local\Temp\ccNG63cQ.s 			page 8


 235              		.thumb
 236              		.thumb_func
 237              		.type	estado_ex, %function
 238              	estado_ex:
 239              	.LFB66:
 160:.\Protocolo.c ****        if(estado==0){
 161:.\Protocolo.c **** 
 162:.\Protocolo.c ****        }
 163:.\Protocolo.c ****     }    
 164:.\Protocolo.c **** }
 165:.\Protocolo.c **** 
 166:.\Protocolo.c **** /*
 167:.\Protocolo.c **** ***************************************************************************************************
 168:.\Protocolo.c **** *                                         estado_ex(uint8 val)
 169:.\Protocolo.c **** *
 170:.\Protocolo.c **** * Description : 
 171:.\Protocolo.c **** *               
 172:.\Protocolo.c **** *
 173:.\Protocolo.c **** * Argument(s) : none
 174:.\Protocolo.c **** *
 175:.\Protocolo.c **** * Return(s)   : none
 176:.\Protocolo.c **** *
 177:.\Protocolo.c **** * Caller(s)   : 
 178:.\Protocolo.c **** *
 179:.\Protocolo.c **** * Note(s)     : none.
 180:.\Protocolo.c **** ***************************************************************************************************
 181:.\Protocolo.c **** */
 182:.\Protocolo.c **** uint8 estado_ex(uint8 val){
 240              		.loc 1 182 0
 241              		.cfi_startproc
 242              		@ args = 0, pretend = 0, frame = 32
 243              		@ frame_needed = 0, uses_anonymous_args = 0
 244              	.LVL28:
 245 0000 10B5     		push	{r4, lr}
 246              		.cfi_def_cfa_offset 8
 247              		.cfi_offset 4, -8
 248              		.cfi_offset 14, -4
 249 0002 88B0     		sub	sp, sp, #32
 250              		.cfi_def_cfa_offset 40
 251 0004 0446     		mov	r4, r0
 183:.\Protocolo.c ****     uint8 rx_extend[19],x,comand_exten[9]={0xFF,0xE9,0xFE,0xE0,0xE1,0xE0,0xFB,0xEE,0xF0};
 252              		.loc 1 183 0
 253 0006 364A     		ldr	r2, .L36
 254 0008 6B46     		mov	r3, sp
 255 000a 1068     		ldr	r0, [r2]	@ unaligned
 256              	.LVL29:
 257 000c 5168     		ldr	r1, [r2, #4]	@ unaligned
 258 000e 03C3     		stmia	r3!, {r0, r1}
 259 0010 127A     		ldrb	r2, [r2, #8]	@ zero_extendqisi2
 260 0012 1A70     		strb	r2, [r3]
 184:.\Protocolo.c ****     Surtidor_PutChar(0x20|val);
 261              		.loc 1 184 0
 262 0014 44F02000 		orr	r0, r4, #32
 263 0018 FFF7FEFF 		bl	Surtidor_PutChar
 264              	.LVL30:
 185:.\Protocolo.c ****     producto=0xff;
 265              		.loc 1 185 0
ARM GAS  C:\Users\RECEPC~1\AppData\Local\Temp\ccNG63cQ.s 			page 9


 266 001c FF22     		movs	r2, #255
 267 001e 314B     		ldr	r3, .L36+4
 268 0020 1A70     		strb	r2, [r3]
 186:.\Protocolo.c ****     CyDelay(100);
 269              		.loc 1 186 0
 270 0022 6420     		movs	r0, #100
 271 0024 FFF7FEFF 		bl	CyDelay
 272              	.LVL31:
 187:.\Protocolo.c ****     if(Surtidor_GetRxBufferSize()>=1){
 273              		.loc 1 187 0
 274 0028 FFF7FEFF 		bl	Surtidor_GetRxBufferSize
 275              	.LVL32:
 276 002c 0028     		cmp	r0, #0
 277 002e 48D0     		beq	.L27
 188:.\Protocolo.c ****         if(Surtidor_ReadRxData()==(0xD0|val)){
 278              		.loc 1 188 0
 279 0030 FFF7FEFF 		bl	Surtidor_ReadRxData
 280              	.LVL33:
 281 0034 44F0D004 		orr	r4, r4, #208
 282 0038 A042     		cmp	r0, r4
 283 003a 44D1     		bne	.L28
 189:.\Protocolo.c ****             Surtidor_ClearRxBuffer();
 284              		.loc 1 189 0
 285 003c FFF7FEFF 		bl	Surtidor_ClearRxBuffer
 286              	.LVL34:
 190:.\Protocolo.c ****             for(x=0;x<=8;x++){
 287              		.loc 1 190 0
 288 0040 0024     		movs	r4, #0
 289 0042 07E0     		b	.L20
 290              	.LVL35:
 291              	.L21:
 191:.\Protocolo.c ****                Surtidor_PutChar(comand_exten[x]); 
 292              		.loc 1 191 0 discriminator 2
 293 0044 08AB     		add	r3, sp, #32
 294 0046 2344     		add	r3, r3, r4
 295 0048 13F8200C 		ldrb	r0, [r3, #-32]	@ zero_extendqisi2
 296 004c FFF7FEFF 		bl	Surtidor_PutChar
 297              	.LVL36:
 190:.\Protocolo.c ****             for(x=0;x<=8;x++){
 298              		.loc 1 190 0 discriminator 2
 299 0050 0134     		adds	r4, r4, #1
 300              	.LVL37:
 301 0052 E4B2     		uxtb	r4, r4
 302              	.LVL38:
 303              	.L20:
 190:.\Protocolo.c ****             for(x=0;x<=8;x++){
 304              		.loc 1 190 0 is_stmt 0 discriminator 1
 305 0054 082C     		cmp	r4, #8
 306 0056 F5D9     		bls	.L21
 192:.\Protocolo.c ****             }
 193:.\Protocolo.c ****             CyDelay(200);
 307              		.loc 1 193 0 is_stmt 1
 308 0058 C820     		movs	r0, #200
 309 005a FFF7FEFF 		bl	CyDelay
 310              	.LVL39:
 194:.\Protocolo.c ****             if(Surtidor_GetRxBufferSize()>=19){
 311              		.loc 1 194 0
ARM GAS  C:\Users\RECEPC~1\AppData\Local\Temp\ccNG63cQ.s 			page 10


 312 005e FFF7FEFF 		bl	Surtidor_GetRxBufferSize
 313              	.LVL40:
 314 0062 1228     		cmp	r0, #18
 315 0064 0AD8     		bhi	.L29
 195:.\Protocolo.c ****                 for(x=0;x<=18;x++){
 196:.\Protocolo.c ****                    rx_extend[x]=Surtidor_ReadRxData(); 
 197:.\Protocolo.c ****                 }
 198:.\Protocolo.c ****                 Surtidor_ClearRxBuffer();
 199:.\Protocolo.c ****                 if((rx_extend[0]==0xBA)&&(rx_extend[17]==0x8D)&&(rx_extend[18]==0x8A)&&(rx_extend[1
 200:.\Protocolo.c ****                     switch(rx_extend[14]){
 201:.\Protocolo.c ****                         case 0xB1:
 202:.\Protocolo.c ****                             return 1;
 203:.\Protocolo.c ****                             break;
 204:.\Protocolo.c ****                         case 0xB2:
 205:.\Protocolo.c ****                             return 2;
 206:.\Protocolo.c ****                             break;
 207:.\Protocolo.c ****                         case 0xB3:
 208:.\Protocolo.c ****                             return 3;
 209:.\Protocolo.c ****                             break;
 210:.\Protocolo.c ****                         default:
 211:.\Protocolo.c ****                             return 0;
 212:.\Protocolo.c ****                     }
 213:.\Protocolo.c ****                 }
 214:.\Protocolo.c ****                 else{
 215:.\Protocolo.c ****                     return 0;
 216:.\Protocolo.c ****                 }
 217:.\Protocolo.c ****             }
 218:.\Protocolo.c ****             else{
 219:.\Protocolo.c ****                 return 0;
 316              		.loc 1 219 0
 317 0066 0020     		movs	r0, #0
 318 0068 38E0     		b	.L19
 319              	.L23:
 196:.\Protocolo.c ****                    rx_extend[x]=Surtidor_ReadRxData(); 
 320              		.loc 1 196 0 discriminator 2
 321 006a FFF7FEFF 		bl	Surtidor_ReadRxData
 322              	.LVL41:
 323 006e 08AB     		add	r3, sp, #32
 324 0070 2344     		add	r3, r3, r4
 325 0072 03F8140C 		strb	r0, [r3, #-20]
 195:.\Protocolo.c ****                 for(x=0;x<=18;x++){
 326              		.loc 1 195 0 discriminator 2
 327 0076 0134     		adds	r4, r4, #1
 328              	.LVL42:
 329 0078 E4B2     		uxtb	r4, r4
 330              	.LVL43:
 331 007a 00E0     		b	.L22
 332              	.L29:
 333 007c 0024     		movs	r4, #0
 334              	.LVL44:
 335              	.L22:
 195:.\Protocolo.c ****                 for(x=0;x<=18;x++){
 336              		.loc 1 195 0 is_stmt 0 discriminator 1
 337 007e 122C     		cmp	r4, #18
 338 0080 F3D9     		bls	.L23
 198:.\Protocolo.c ****                 Surtidor_ClearRxBuffer();
 339              		.loc 1 198 0 is_stmt 1
ARM GAS  C:\Users\RECEPC~1\AppData\Local\Temp\ccNG63cQ.s 			page 11


 340 0082 FFF7FEFF 		bl	Surtidor_ClearRxBuffer
 341              	.LVL45:
 199:.\Protocolo.c ****                 if((rx_extend[0]==0xBA)&&(rx_extend[17]==0x8D)&&(rx_extend[18]==0x8A)&&(rx_extend[1
 342              		.loc 1 199 0
 343 0086 9DF80C30 		ldrb	r3, [sp, #12]	@ zero_extendqisi2
 344 008a BA2B     		cmp	r3, #186
 345 008c 1DD1     		bne	.L30
 199:.\Protocolo.c ****                 if((rx_extend[0]==0xBA)&&(rx_extend[17]==0x8D)&&(rx_extend[18]==0x8A)&&(rx_extend[1
 346              		.loc 1 199 0 is_stmt 0 discriminator 1
 347 008e 9DF81D30 		ldrb	r3, [sp, #29]	@ zero_extendqisi2
 348 0092 8D2B     		cmp	r3, #141
 349 0094 1BD1     		bne	.L31
 350 0096 9DF81E30 		ldrb	r3, [sp, #30]	@ zero_extendqisi2
 351 009a 8A2B     		cmp	r3, #138
 352 009c 19D1     		bne	.L32
 353 009e 9DF81830 		ldrb	r3, [sp, #24]	@ zero_extendqisi2
 354 00a2 B12B     		cmp	r3, #177
 355 00a4 17D1     		bne	.L33
 200:.\Protocolo.c ****                     switch(rx_extend[14]){
 356              		.loc 1 200 0 is_stmt 1
 357 00a6 9DF81A30 		ldrb	r3, [sp, #26]	@ zero_extendqisi2
 358 00aa B22B     		cmp	r3, #178
 359 00ac 15D0     		beq	.L34
 360 00ae B32B     		cmp	r3, #179
 361 00b0 03D0     		beq	.L25
 362 00b2 B12B     		cmp	r3, #177
 363 00b4 03D1     		bne	.L35
 202:.\Protocolo.c ****                             return 1;
 364              		.loc 1 202 0
 365 00b6 0120     		movs	r0, #1
 366 00b8 10E0     		b	.L19
 367              	.L25:
 208:.\Protocolo.c ****                             return 3;
 368              		.loc 1 208 0
 369 00ba 0320     		movs	r0, #3
 370 00bc 0EE0     		b	.L19
 371              	.L35:
 211:.\Protocolo.c ****                             return 0;
 372              		.loc 1 211 0
 373 00be 0020     		movs	r0, #0
 374 00c0 0CE0     		b	.L19
 375              	.LVL46:
 376              	.L27:
 220:.\Protocolo.c ****             }
 221:.\Protocolo.c ****         }
 222:.\Protocolo.c ****         else{
 223:.\Protocolo.c ****             return 0;
 224:.\Protocolo.c ****         }
 225:.\Protocolo.c ****     }
 226:.\Protocolo.c ****     else{
 227:.\Protocolo.c ****         return 0;
 377              		.loc 1 227 0
 378 00c2 0020     		movs	r0, #0
 379 00c4 0AE0     		b	.L19
 380              	.L28:
 223:.\Protocolo.c ****             return 0;
 381              		.loc 1 223 0
ARM GAS  C:\Users\RECEPC~1\AppData\Local\Temp\ccNG63cQ.s 			page 12


 382 00c6 0020     		movs	r0, #0
 383 00c8 08E0     		b	.L19
 384              	.LVL47:
 385              	.L30:
 215:.\Protocolo.c ****                     return 0;
 386              		.loc 1 215 0
 387 00ca 0020     		movs	r0, #0
 388 00cc 06E0     		b	.L19
 389              	.L31:
 390 00ce 0020     		movs	r0, #0
 391 00d0 04E0     		b	.L19
 392              	.L32:
 393 00d2 0020     		movs	r0, #0
 394 00d4 02E0     		b	.L19
 395              	.L33:
 396 00d6 0020     		movs	r0, #0
 397 00d8 00E0     		b	.L19
 398              	.L34:
 205:.\Protocolo.c ****                             return 2;
 399              		.loc 1 205 0
 400 00da 0220     		movs	r0, #2
 401              	.LVL48:
 402              	.L19:
 228:.\Protocolo.c ****     }
 229:.\Protocolo.c **** }
 403              		.loc 1 229 0 discriminator 1
 404 00dc 08B0     		add	sp, sp, #32
 405              		@ sp needed
 406 00de 10BD     		pop	{r4, pc}
 407              	.L37:
 408              		.align	2
 409              	.L36:
 410 00e0 00000000 		.word	.LANCHOR0
 411 00e4 00000000 		.word	producto
 412              		.cfi_endproc
 413              	.LFE66:
 414              		.size	estado_ex, .-estado_ex
 415              		.section	.text.detener,"ax",%progbits
 416              		.align	2
 417              		.global	detener
 418              		.thumb
 419              		.thumb_func
 420              		.type	detener, %function
 421              	detener:
 422              	.LFB67:
 230:.\Protocolo.c **** 
 231:.\Protocolo.c **** /*
 232:.\Protocolo.c **** ***************************************************************************************************
 233:.\Protocolo.c **** *                                         void detener(uint8 val)
 234:.\Protocolo.c **** *
 235:.\Protocolo.c **** * Description : 
 236:.\Protocolo.c **** *               
 237:.\Protocolo.c **** *
 238:.\Protocolo.c **** * Argument(s) : none
 239:.\Protocolo.c **** *
 240:.\Protocolo.c **** * Return(s)   : none
 241:.\Protocolo.c **** *
ARM GAS  C:\Users\RECEPC~1\AppData\Local\Temp\ccNG63cQ.s 			page 13


 242:.\Protocolo.c **** * Caller(s)   : 
 243:.\Protocolo.c **** *
 244:.\Protocolo.c **** * Note(s)     : none.
 245:.\Protocolo.c **** ***************************************************************************************************
 246:.\Protocolo.c **** */
 247:.\Protocolo.c **** void detener(uint8 val){
 423              		.loc 1 247 0
 424              		.cfi_startproc
 425              		@ args = 0, pretend = 0, frame = 0
 426              		@ frame_needed = 0, uses_anonymous_args = 0
 427              	.LVL49:
 428 0000 08B5     		push	{r3, lr}
 429              		.cfi_def_cfa_offset 8
 430              		.cfi_offset 3, -8
 431              		.cfi_offset 14, -4
 248:.\Protocolo.c ****     Surtidor_PutChar(0x30|val);
 432              		.loc 1 248 0
 433 0002 40F03000 		orr	r0, r0, #48
 434              	.LVL50:
 435 0006 FFF7FEFF 		bl	Surtidor_PutChar
 436              	.LVL51:
 249:.\Protocolo.c ****     CyDelay(200);
 437              		.loc 1 249 0
 438 000a C820     		movs	r0, #200
 439 000c FFF7FEFF 		bl	CyDelay
 440              	.LVL52:
 441 0010 08BD     		pop	{r3, pc}
 442              		.cfi_endproc
 443              	.LFE67:
 444              		.size	detener, .-detener
 445 0012 00BF     		.section	.text.venta,"ax",%progbits
 446              		.align	2
 447              		.global	venta
 448              		.thumb
 449              		.thumb_func
 450              		.type	venta, %function
 451              	venta:
 452              	.LFB68:
 250:.\Protocolo.c **** }
 251:.\Protocolo.c **** 
 252:.\Protocolo.c **** /*
 253:.\Protocolo.c **** ***************************************************************************************************
 254:.\Protocolo.c **** *                                         void venta(uint8 val)
 255:.\Protocolo.c **** *
 256:.\Protocolo.c **** * Description : 
 257:.\Protocolo.c **** *               
 258:.\Protocolo.c **** *
 259:.\Protocolo.c **** * Argument(s) : none
 260:.\Protocolo.c **** *
 261:.\Protocolo.c **** * Return(s)   : none
 262:.\Protocolo.c **** *
 263:.\Protocolo.c **** * Caller(s)   : 
 264:.\Protocolo.c **** *
 265:.\Protocolo.c **** * Note(s)     : none.
 266:.\Protocolo.c **** ***************************************************************************************************
 267:.\Protocolo.c **** */
 268:.\Protocolo.c **** uint8 venta(uint8 val){
ARM GAS  C:\Users\RECEPC~1\AppData\Local\Temp\ccNG63cQ.s 			page 14


 453              		.loc 1 268 0
 454              		.cfi_startproc
 455              		@ args = 0, pretend = 0, frame = 40
 456              		@ frame_needed = 0, uses_anonymous_args = 0
 457              	.LVL53:
 458 0000 30B5     		push	{r4, r5, lr}
 459              		.cfi_def_cfa_offset 12
 460              		.cfi_offset 4, -12
 461              		.cfi_offset 5, -8
 462              		.cfi_offset 14, -4
 463 0002 8BB0     		sub	sp, sp, #44
 464              		.cfi_def_cfa_offset 56
 465 0004 0546     		mov	r5, r0
 466              	.LVL54:
 269:.\Protocolo.c ****     uint8 rx_venta[39],x=0,pos,y; 
 270:.\Protocolo.c ****     Surtidor_PutChar(0x40|val);
 467              		.loc 1 270 0
 468 0006 40F04000 		orr	r0, r0, #64
 469              	.LVL55:
 470 000a FFF7FEFF 		bl	Surtidor_PutChar
 471              	.LVL56:
 271:.\Protocolo.c ****     CyDelay(300);
 472              		.loc 1 271 0
 473 000e 4FF49670 		mov	r0, #300
 474 0012 FFF7FEFF 		bl	CyDelay
 475              	.LVL57:
 272:.\Protocolo.c ****     if(Surtidor_GetRxBufferSize()<=39){
 476              		.loc 1 272 0
 477 0016 FFF7FEFF 		bl	Surtidor_GetRxBufferSize
 478              	.LVL58:
 479 001a 2728     		cmp	r0, #39
 480 001c 0AD9     		bls	.L56
 273:.\Protocolo.c ****         while(Surtidor_GetRxBufferSize()>0){
 274:.\Protocolo.c ****             rx_venta[x]=Surtidor_ReadRxData();  
 275:.\Protocolo.c ****             x++;
 276:.\Protocolo.c ****         }
 277:.\Protocolo.c ****         Surtidor_ClearRxBuffer();
 278:.\Protocolo.c ****         if(val==0){
 279:.\Protocolo.c ****             pos=0x10;
 280:.\Protocolo.c ****             rventa.posicion=pos;
 281:.\Protocolo.c ****         }
 282:.\Protocolo.c ****         else{
 283:.\Protocolo.c ****             pos=val;
 284:.\Protocolo.c ****             rventa.posicion=pos;
 285:.\Protocolo.c ****         }
 286:.\Protocolo.c ****         if((rx_venta[0]==0xFF)&&(rx_venta[2]==0xF8)&&((rx_venta[4]&0x0F)==(pos-1))){
 287:.\Protocolo.c ****             x=0;
 288:.\Protocolo.c ****             while((rx_venta[x]!=0xF6)||(x>=39)){
 289:.\Protocolo.c ****                 x++;
 290:.\Protocolo.c ****             }
 291:.\Protocolo.c ****             x++;
 292:.\Protocolo.c ****             rventa.producto=(rx_venta[x]&0x0F)+1;
 293:.\Protocolo.c ****             while((rx_venta[x]!=0xF7)||(x>=39)){
 294:.\Protocolo.c ****                 x++;
 295:.\Protocolo.c ****             }
 296:.\Protocolo.c ****             x++;
 297:.\Protocolo.c ****             y=1;
ARM GAS  C:\Users\RECEPC~1\AppData\Local\Temp\ccNG63cQ.s 			page 15


 298:.\Protocolo.c ****             while((rx_venta[x]!=0xF9)||(x>=39)){    
 299:.\Protocolo.c ****                 rventa.ppu[y]=(rx_venta[x]&0x0F);
 300:.\Protocolo.c ****                 x++;
 301:.\Protocolo.c ****                 y++;
 302:.\Protocolo.c ****             }
 303:.\Protocolo.c **** 			rventa.ppu[0]=y-1;
 304:.\Protocolo.c ****             x++;
 305:.\Protocolo.c ****             y=1;
 306:.\Protocolo.c ****             while((rx_venta[x]!=0xFA)||(x>=39)){
 307:.\Protocolo.c ****                 rventa.volumen[y]=(rx_venta[x]&0x0F);
 308:.\Protocolo.c ****                 x++;
 309:.\Protocolo.c ****                 y++;    
 310:.\Protocolo.c ****             }
 311:.\Protocolo.c **** 			rventa.volumen[0]=y-1;
 312:.\Protocolo.c ****             x++;
 313:.\Protocolo.c ****             y=1;
 314:.\Protocolo.c ****             while((rx_venta[x]!=0xFB)||(x>=39)){
 315:.\Protocolo.c ****                 rventa.dinero[y]=(rx_venta[x]&0x0F);
 316:.\Protocolo.c ****                 x++;
 317:.\Protocolo.c ****                 y++;    
 318:.\Protocolo.c ****             }
 319:.\Protocolo.c **** 			rventa.dinero[0]=y-1;
 320:.\Protocolo.c ****             x+=2;
 321:.\Protocolo.c ****             if((rx_venta[x]==0xF0)&&(x<=38)){								
 322:.\Protocolo.c **** 				if(val==lado.a.dir){
 323:.\Protocolo.c **** 					write_eeprom(457,rventa.dinero);
 324:.\Protocolo.c **** 					write_eeprom(466,rventa.volumen);
 325:.\Protocolo.c **** 					write_eeprom(475,rventa.ppu);
 326:.\Protocolo.c **** 				}				
 327:.\Protocolo.c **** 				else{
 328:.\Protocolo.c **** 					write_eeprom(482,rventa.dinero);
 329:.\Protocolo.c **** 					write_eeprom(500,rventa.ppu);
 330:.\Protocolo.c **** 					write_eeprom(491,rventa.volumen);				
 331:.\Protocolo.c **** 				}
 332:.\Protocolo.c ****                 return 1;
 333:.\Protocolo.c ****             }
 334:.\Protocolo.c ****             else{
 335:.\Protocolo.c ****                 return 0;
 336:.\Protocolo.c ****             }
 337:.\Protocolo.c ****         }
 338:.\Protocolo.c ****         else{
 339:.\Protocolo.c ****             return 0;
 340:.\Protocolo.c ****         }
 341:.\Protocolo.c ****     }
 342:.\Protocolo.c ****     else{
 343:.\Protocolo.c ****         return 0;
 481              		.loc 1 343 0
 482 001e 0020     		movs	r0, #0
 483 0020 D9E0     		b	.L41
 484              	.LVL59:
 485              	.L42:
 274:.\Protocolo.c ****             rx_venta[x]=Surtidor_ReadRxData();  
 486              		.loc 1 274 0
 487 0022 FFF7FEFF 		bl	Surtidor_ReadRxData
 488              	.LVL60:
 489 0026 0AAB     		add	r3, sp, #40
 490 0028 2344     		add	r3, r3, r4
ARM GAS  C:\Users\RECEPC~1\AppData\Local\Temp\ccNG63cQ.s 			page 16


 491 002a 03F8280C 		strb	r0, [r3, #-40]
 275:.\Protocolo.c ****             x++;
 492              		.loc 1 275 0
 493 002e 0134     		adds	r4, r4, #1
 494              	.LVL61:
 495 0030 E4B2     		uxtb	r4, r4
 496              	.LVL62:
 497 0032 00E0     		b	.L40
 498              	.LVL63:
 499              	.L56:
 500 0034 0024     		movs	r4, #0
 501              	.LVL64:
 502              	.L40:
 273:.\Protocolo.c ****         while(Surtidor_GetRxBufferSize()>0){
 503              		.loc 1 273 0 discriminator 1
 504 0036 FFF7FEFF 		bl	Surtidor_GetRxBufferSize
 505              	.LVL65:
 506 003a 0028     		cmp	r0, #0
 507 003c F1D1     		bne	.L42
 277:.\Protocolo.c ****         Surtidor_ClearRxBuffer();
 508              		.loc 1 277 0
 509 003e FFF7FEFF 		bl	Surtidor_ClearRxBuffer
 510              	.LVL66:
 278:.\Protocolo.c ****         if(val==0){
 511              		.loc 1 278 0
 512 0042 2DB9     		cbnz	r5, .L43
 513              	.LVL67:
 280:.\Protocolo.c ****             rventa.posicion=pos;
 514              		.loc 1 280 0
 515 0044 1023     		movs	r3, #16
 516 0046 654A     		ldr	r2, .L62
 517 0048 82F8A230 		strb	r3, [r2, #162]
 279:.\Protocolo.c ****             pos=0x10;
 518              		.loc 1 279 0
 519 004c 1A46     		mov	r2, r3
 520 004e 03E0     		b	.L44
 521              	.LVL68:
 522              	.L43:
 284:.\Protocolo.c ****             rventa.posicion=pos;
 523              		.loc 1 284 0
 524 0050 624B     		ldr	r3, .L62
 525 0052 83F8A250 		strb	r5, [r3, #162]
 283:.\Protocolo.c ****             pos=val;
 526              		.loc 1 283 0
 527 0056 2A46     		mov	r2, r5
 528              	.LVL69:
 529              	.L44:
 286:.\Protocolo.c ****         if((rx_venta[0]==0xFF)&&(rx_venta[2]==0xF8)&&((rx_venta[4]&0x0F)==(pos-1))){
 530              		.loc 1 286 0
 531 0058 9DF80030 		ldrb	r3, [sp]	@ zero_extendqisi2
 532 005c FF2B     		cmp	r3, #255
 533 005e 40F0B380 		bne	.L57
 286:.\Protocolo.c ****         if((rx_venta[0]==0xFF)&&(rx_venta[2]==0xF8)&&((rx_venta[4]&0x0F)==(pos-1))){
 534              		.loc 1 286 0 is_stmt 0 discriminator 1
 535 0062 9DF80230 		ldrb	r3, [sp, #2]	@ zero_extendqisi2
 536 0066 F82B     		cmp	r3, #248
 537 0068 40F0B080 		bne	.L58
ARM GAS  C:\Users\RECEPC~1\AppData\Local\Temp\ccNG63cQ.s 			page 17


 538 006c 9DF80430 		ldrb	r3, [sp, #4]	@ zero_extendqisi2
 539 0070 03F00F03 		and	r3, r3, #15
 540 0074 013A     		subs	r2, r2, #1
 541              	.LVL70:
 542 0076 9342     		cmp	r3, r2
 543 0078 04D0     		beq	.L59
 339:.\Protocolo.c ****             return 0;
 544              		.loc 1 339 0 is_stmt 1
 545 007a 0020     		movs	r0, #0
 546 007c ABE0     		b	.L41
 547              	.LVL71:
 548              	.L46:
 289:.\Protocolo.c ****                 x++;
 549              		.loc 1 289 0
 550 007e 0133     		adds	r3, r3, #1
 551              	.LVL72:
 552 0080 DBB2     		uxtb	r3, r3
 553              	.LVL73:
 554 0082 00E0     		b	.L45
 555              	.LVL74:
 556              	.L59:
 557 0084 0023     		movs	r3, #0
 558              	.LVL75:
 559              	.L45:
 288:.\Protocolo.c ****             while((rx_venta[x]!=0xF6)||(x>=39)){
 560              		.loc 1 288 0 discriminator 1
 561 0086 0AAA     		add	r2, sp, #40
 562 0088 1A44     		add	r2, r2, r3
 563 008a 12F8282C 		ldrb	r2, [r2, #-40]	@ zero_extendqisi2
 564 008e F62A     		cmp	r2, #246
 565 0090 F5D1     		bne	.L46
 288:.\Protocolo.c ****             while((rx_venta[x]!=0xF6)||(x>=39)){
 566              		.loc 1 288 0 is_stmt 0 discriminator 2
 567 0092 262B     		cmp	r3, #38
 568 0094 F3D8     		bhi	.L46
 291:.\Protocolo.c ****             x++;
 569              		.loc 1 291 0 is_stmt 1
 570 0096 0133     		adds	r3, r3, #1
 571              	.LVL76:
 572 0098 DBB2     		uxtb	r3, r3
 573              	.LVL77:
 292:.\Protocolo.c ****             rventa.producto=(rx_venta[x]&0x0F)+1;
 574              		.loc 1 292 0
 575 009a 0AAA     		add	r2, sp, #40
 576 009c 1A44     		add	r2, r2, r3
 577 009e 12F8281C 		ldrb	r1, [r2, #-40]	@ zero_extendqisi2
 578 00a2 01F00F01 		and	r1, r1, #15
 579 00a6 0131     		adds	r1, r1, #1
 580 00a8 4C4A     		ldr	r2, .L62
 581 00aa 82F8A310 		strb	r1, [r2, #163]
 293:.\Protocolo.c ****             while((rx_venta[x]!=0xF7)||(x>=39)){
 582              		.loc 1 293 0
 583 00ae 01E0     		b	.L47
 584              	.L48:
 294:.\Protocolo.c ****                 x++;
 585              		.loc 1 294 0
 586 00b0 0133     		adds	r3, r3, #1
ARM GAS  C:\Users\RECEPC~1\AppData\Local\Temp\ccNG63cQ.s 			page 18


 587              	.LVL78:
 588 00b2 DBB2     		uxtb	r3, r3
 589              	.LVL79:
 590              	.L47:
 293:.\Protocolo.c ****             while((rx_venta[x]!=0xF7)||(x>=39)){
 591              		.loc 1 293 0 discriminator 1
 592 00b4 0AAA     		add	r2, sp, #40
 593 00b6 1A44     		add	r2, r2, r3
 594 00b8 12F8282C 		ldrb	r2, [r2, #-40]	@ zero_extendqisi2
 595 00bc F72A     		cmp	r2, #247
 596 00be F7D1     		bne	.L48
 293:.\Protocolo.c ****             while((rx_venta[x]!=0xF7)||(x>=39)){
 597              		.loc 1 293 0 is_stmt 0 discriminator 2
 598 00c0 262B     		cmp	r3, #38
 599 00c2 F5D8     		bhi	.L48
 296:.\Protocolo.c ****             x++;
 600              		.loc 1 296 0 is_stmt 1
 601 00c4 0133     		adds	r3, r3, #1
 602              	.LVL80:
 603 00c6 DBB2     		uxtb	r3, r3
 604              	.LVL81:
 297:.\Protocolo.c ****             y=1;
 605              		.loc 1 297 0
 606 00c8 0121     		movs	r1, #1
 299:.\Protocolo.c ****                 rventa.ppu[y]=(rx_venta[x]&0x0F);
 607              		.loc 1 299 0
 608 00ca 444C     		ldr	r4, .L62
 298:.\Protocolo.c ****             while((rx_venta[x]!=0xF9)||(x>=39)){    
 609              		.loc 1 298 0
 610 00cc 08E0     		b	.L49
 611              	.LVL82:
 612              	.L50:
 299:.\Protocolo.c ****                 rventa.ppu[y]=(rx_venta[x]&0x0F);
 613              		.loc 1 299 0
 614 00ce 6018     		adds	r0, r4, r1
 615 00d0 02F00F02 		and	r2, r2, #15
 616 00d4 80F8A420 		strb	r2, [r0, #164]
 300:.\Protocolo.c ****                 x++;
 617              		.loc 1 300 0
 618 00d8 0133     		adds	r3, r3, #1
 619              	.LVL83:
 620 00da DBB2     		uxtb	r3, r3
 621              	.LVL84:
 301:.\Protocolo.c ****                 y++;
 622              		.loc 1 301 0
 623 00dc 0131     		adds	r1, r1, #1
 624              	.LVL85:
 625 00de C9B2     		uxtb	r1, r1
 626              	.LVL86:
 627              	.L49:
 298:.\Protocolo.c ****             while((rx_venta[x]!=0xF9)||(x>=39)){    
 628              		.loc 1 298 0 discriminator 1
 629 00e0 0AAA     		add	r2, sp, #40
 630 00e2 1A44     		add	r2, r2, r3
 631 00e4 12F8282C 		ldrb	r2, [r2, #-40]	@ zero_extendqisi2
 632 00e8 F92A     		cmp	r2, #249
 633 00ea F0D1     		bne	.L50
ARM GAS  C:\Users\RECEPC~1\AppData\Local\Temp\ccNG63cQ.s 			page 19


 298:.\Protocolo.c ****             while((rx_venta[x]!=0xF9)||(x>=39)){    
 634              		.loc 1 298 0 is_stmt 0 discriminator 2
 635 00ec 262B     		cmp	r3, #38
 636 00ee EED8     		bhi	.L50
 303:.\Protocolo.c **** 			rventa.ppu[0]=y-1;
 637              		.loc 1 303 0 is_stmt 1
 638 00f0 0139     		subs	r1, r1, #1
 639              	.LVL87:
 640 00f2 3A4A     		ldr	r2, .L62
 641 00f4 82F8A410 		strb	r1, [r2, #164]
 304:.\Protocolo.c ****             x++;
 642              		.loc 1 304 0
 643 00f8 0133     		adds	r3, r3, #1
 644              	.LVL88:
 645 00fa DBB2     		uxtb	r3, r3
 646              	.LVL89:
 305:.\Protocolo.c ****             y=1;
 647              		.loc 1 305 0
 648 00fc 0121     		movs	r1, #1
 307:.\Protocolo.c ****                 rventa.volumen[y]=(rx_venta[x]&0x0F);
 649              		.loc 1 307 0
 650 00fe 1446     		mov	r4, r2
 306:.\Protocolo.c ****             while((rx_venta[x]!=0xFA)||(x>=39)){
 651              		.loc 1 306 0
 652 0100 08E0     		b	.L51
 653              	.LVL90:
 654              	.L52:
 307:.\Protocolo.c ****                 rventa.volumen[y]=(rx_venta[x]&0x0F);
 655              		.loc 1 307 0
 656 0102 6018     		adds	r0, r4, r1
 657 0104 02F00F02 		and	r2, r2, #15
 658 0108 80F8B420 		strb	r2, [r0, #180]
 308:.\Protocolo.c ****                 x++;
 659              		.loc 1 308 0
 660 010c 0133     		adds	r3, r3, #1
 661              	.LVL91:
 662 010e DBB2     		uxtb	r3, r3
 663              	.LVL92:
 309:.\Protocolo.c ****                 y++;    
 664              		.loc 1 309 0
 665 0110 0131     		adds	r1, r1, #1
 666              	.LVL93:
 667 0112 C9B2     		uxtb	r1, r1
 668              	.LVL94:
 669              	.L51:
 306:.\Protocolo.c ****             while((rx_venta[x]!=0xFA)||(x>=39)){
 670              		.loc 1 306 0 discriminator 1
 671 0114 0AAA     		add	r2, sp, #40
 672 0116 1A44     		add	r2, r2, r3
 673 0118 12F8282C 		ldrb	r2, [r2, #-40]	@ zero_extendqisi2
 674 011c FA2A     		cmp	r2, #250
 675 011e F0D1     		bne	.L52
 306:.\Protocolo.c ****             while((rx_venta[x]!=0xFA)||(x>=39)){
 676              		.loc 1 306 0 is_stmt 0 discriminator 2
 677 0120 262B     		cmp	r3, #38
 678 0122 EED8     		bhi	.L52
 311:.\Protocolo.c **** 			rventa.volumen[0]=y-1;
ARM GAS  C:\Users\RECEPC~1\AppData\Local\Temp\ccNG63cQ.s 			page 20


 679              		.loc 1 311 0 is_stmt 1
 680 0124 0139     		subs	r1, r1, #1
 681              	.LVL95:
 682 0126 2D4A     		ldr	r2, .L62
 683 0128 82F8B410 		strb	r1, [r2, #180]
 312:.\Protocolo.c ****             x++;
 684              		.loc 1 312 0
 685 012c 0133     		adds	r3, r3, #1
 686              	.LVL96:
 687 012e DBB2     		uxtb	r3, r3
 688              	.LVL97:
 313:.\Protocolo.c ****             y=1;
 689              		.loc 1 313 0
 690 0130 0121     		movs	r1, #1
 315:.\Protocolo.c ****                 rventa.dinero[y]=(rx_venta[x]&0x0F);
 691              		.loc 1 315 0
 692 0132 1446     		mov	r4, r2
 314:.\Protocolo.c ****             while((rx_venta[x]!=0xFB)||(x>=39)){
 693              		.loc 1 314 0
 694 0134 08E0     		b	.L53
 695              	.LVL98:
 696              	.L54:
 315:.\Protocolo.c ****                 rventa.dinero[y]=(rx_venta[x]&0x0F);
 697              		.loc 1 315 0
 698 0136 6018     		adds	r0, r4, r1
 699 0138 02F00F02 		and	r2, r2, #15
 700 013c 80F8AB20 		strb	r2, [r0, #171]
 316:.\Protocolo.c ****                 x++;
 701              		.loc 1 316 0
 702 0140 0133     		adds	r3, r3, #1
 703              	.LVL99:
 704 0142 DBB2     		uxtb	r3, r3
 705              	.LVL100:
 317:.\Protocolo.c ****                 y++;    
 706              		.loc 1 317 0
 707 0144 0131     		adds	r1, r1, #1
 708              	.LVL101:
 709 0146 C9B2     		uxtb	r1, r1
 710              	.LVL102:
 711              	.L53:
 314:.\Protocolo.c ****             while((rx_venta[x]!=0xFB)||(x>=39)){
 712              		.loc 1 314 0 discriminator 1
 713 0148 0AAA     		add	r2, sp, #40
 714 014a 1A44     		add	r2, r2, r3
 715 014c 12F8282C 		ldrb	r2, [r2, #-40]	@ zero_extendqisi2
 716 0150 FB2A     		cmp	r2, #251
 717 0152 F0D1     		bne	.L54
 314:.\Protocolo.c ****             while((rx_venta[x]!=0xFB)||(x>=39)){
 718              		.loc 1 314 0 is_stmt 0 discriminator 2
 719 0154 262B     		cmp	r3, #38
 720 0156 EED8     		bhi	.L54
 319:.\Protocolo.c **** 			rventa.dinero[0]=y-1;
 721              		.loc 1 319 0 is_stmt 1
 722 0158 0139     		subs	r1, r1, #1
 723              	.LVL103:
 724 015a 204A     		ldr	r2, .L62
 725 015c 82F8AB10 		strb	r1, [r2, #171]
ARM GAS  C:\Users\RECEPC~1\AppData\Local\Temp\ccNG63cQ.s 			page 21


 320:.\Protocolo.c ****             x+=2;
 726              		.loc 1 320 0
 727 0160 0233     		adds	r3, r3, #2
 728              	.LVL104:
 729 0162 DBB2     		uxtb	r3, r3
 730              	.LVL105:
 321:.\Protocolo.c ****             if((rx_venta[x]==0xF0)&&(x<=38)){								
 731              		.loc 1 321 0
 732 0164 0AAA     		add	r2, sp, #40
 733 0166 1A44     		add	r2, r2, r3
 734 0168 12F8282C 		ldrb	r2, [r2, #-40]	@ zero_extendqisi2
 735 016c F02A     		cmp	r2, #240
 736 016e 2FD1     		bne	.L60
 321:.\Protocolo.c ****             if((rx_venta[x]==0xF0)&&(x<=38)){								
 737              		.loc 1 321 0 is_stmt 0 discriminator 1
 738 0170 262B     		cmp	r3, #38
 739 0172 2FD8     		bhi	.L61
 322:.\Protocolo.c **** 				if(val==lado.a.dir){
 740              		.loc 1 322 0 is_stmt 1
 741 0174 1A4B     		ldr	r3, .L62+4
 742              	.LVL106:
 743 0176 1B78     		ldrb	r3, [r3]	@ zero_extendqisi2
 744 0178 AB42     		cmp	r3, r5
 745 017a 12D1     		bne	.L55
 323:.\Protocolo.c **** 					write_eeprom(457,rventa.dinero);
 746              		.loc 1 323 0
 747 017c 194C     		ldr	r4, .L62+8
 748 017e 40F2C910 		movw	r0, #457
 749 0182 2146     		mov	r1, r4
 750              	.LVL107:
 751 0184 FFF7FEFF 		bl	write_eeprom
 752              	.LVL108:
 324:.\Protocolo.c **** 					write_eeprom(466,rventa.volumen);
 753              		.loc 1 324 0
 754 0188 4FF4E970 		mov	r0, #466
 755 018c 04F10901 		add	r1, r4, #9
 756 0190 FFF7FEFF 		bl	write_eeprom
 757              	.LVL109:
 325:.\Protocolo.c **** 					write_eeprom(475,rventa.ppu);
 758              		.loc 1 325 0
 759 0194 40F2DB10 		movw	r0, #475
 760 0198 E11F     		subs	r1, r4, #7
 761 019a FFF7FEFF 		bl	write_eeprom
 762              	.LVL110:
 332:.\Protocolo.c ****                 return 1;
 763              		.loc 1 332 0
 764 019e 0120     		movs	r0, #1
 765 01a0 19E0     		b	.L41
 766              	.LVL111:
 767              	.L55:
 328:.\Protocolo.c **** 					write_eeprom(482,rventa.dinero);
 768              		.loc 1 328 0
 769 01a2 104C     		ldr	r4, .L62+8
 770 01a4 4FF4F170 		mov	r0, #482
 771 01a8 2146     		mov	r1, r4
 772              	.LVL112:
 773 01aa FFF7FEFF 		bl	write_eeprom
ARM GAS  C:\Users\RECEPC~1\AppData\Local\Temp\ccNG63cQ.s 			page 22


 774              	.LVL113:
 329:.\Protocolo.c **** 					write_eeprom(500,rventa.ppu);
 775              		.loc 1 329 0
 776 01ae 4FF4FA70 		mov	r0, #500
 777 01b2 E11F     		subs	r1, r4, #7
 778 01b4 FFF7FEFF 		bl	write_eeprom
 779              	.LVL114:
 330:.\Protocolo.c **** 					write_eeprom(491,rventa.volumen);				
 780              		.loc 1 330 0
 781 01b8 40F2EB10 		movw	r0, #491
 782 01bc 04F10901 		add	r1, r4, #9
 783 01c0 FFF7FEFF 		bl	write_eeprom
 784              	.LVL115:
 332:.\Protocolo.c ****                 return 1;
 785              		.loc 1 332 0
 786 01c4 0120     		movs	r0, #1
 787 01c6 06E0     		b	.L41
 788              	.LVL116:
 789              	.L57:
 339:.\Protocolo.c ****             return 0;
 790              		.loc 1 339 0
 791 01c8 0020     		movs	r0, #0
 792 01ca 04E0     		b	.L41
 793              	.L58:
 794 01cc 0020     		movs	r0, #0
 795 01ce 02E0     		b	.L41
 796              	.LVL117:
 797              	.L60:
 335:.\Protocolo.c ****                 return 0;
 798              		.loc 1 335 0
 799 01d0 0020     		movs	r0, #0
 800 01d2 00E0     		b	.L41
 801              	.L61:
 802 01d4 0020     		movs	r0, #0
 803              	.LVL118:
 804              	.L41:
 344:.\Protocolo.c ****     }
 345:.\Protocolo.c **** }
 805              		.loc 1 345 0
 806 01d6 0BB0     		add	sp, sp, #44
 807              		@ sp needed
 808 01d8 30BD     		pop	{r4, r5, pc}
 809              	.L63:
 810 01da 00BF     		.align	2
 811              	.L62:
 812 01dc 00000000 		.word	rventa
 813 01e0 00000000 		.word	lado
 814 01e4 AB000000 		.word	rventa+171
 815              		.cfi_endproc
 816              	.LFE68:
 817              		.size	venta, .-venta
 818              		.section	.text.get_totales,"ax",%progbits
 819              		.align	2
 820              		.global	get_totales
 821              		.thumb
 822              		.thumb_func
 823              		.type	get_totales, %function
ARM GAS  C:\Users\RECEPC~1\AppData\Local\Temp\ccNG63cQ.s 			page 23


 824              	get_totales:
 825              	.LFB69:
 346:.\Protocolo.c **** 
 347:.\Protocolo.c **** /*
 348:.\Protocolo.c **** ***************************************************************************************************
 349:.\Protocolo.c **** *                                         uint8 get_totales(uint8 dir)
 350:.\Protocolo.c **** *
 351:.\Protocolo.c **** * Description : 
 352:.\Protocolo.c **** *               
 353:.\Protocolo.c **** *
 354:.\Protocolo.c **** * Argument(s) : none
 355:.\Protocolo.c **** *
 356:.\Protocolo.c **** * Return(s)   : none
 357:.\Protocolo.c **** *
 358:.\Protocolo.c **** * Caller(s)   : 
 359:.\Protocolo.c **** *
 360:.\Protocolo.c **** * Note(s)     : none.
 361:.\Protocolo.c **** ***************************************************************************************************
 362:.\Protocolo.c **** */
 363:.\Protocolo.c **** uint8 get_totales(uint8 dir,uint8 val){ 
 826              		.loc 1 363 0
 827              		.cfi_startproc
 828              		@ args = 0, pretend = 0, frame = 64
 829              		@ frame_needed = 0, uses_anonymous_args = 0
 830              	.LVL119:
 831 0000 2DE9F041 		push	{r4, r5, r6, r7, r8, lr}
 832              		.cfi_def_cfa_offset 24
 833              		.cfi_offset 4, -24
 834              		.cfi_offset 5, -20
 835              		.cfi_offset 6, -16
 836              		.cfi_offset 7, -12
 837              		.cfi_offset 8, -8
 838              		.cfi_offset 14, -4
 839 0004 90B0     		sub	sp, sp, #64
 840              		.cfi_def_cfa_offset 88
 841 0006 0646     		mov	r6, r0
 842 0008 0C46     		mov	r4, r1
 364:.\Protocolo.c **** 	uint8 corte[25], minuendo[14],sustraendo[14]; 
 365:.\Protocolo.c ****     Surtidor_PutChar(0x50|dir);
 843              		.loc 1 365 0
 844 000a 40F05000 		orr	r0, r0, #80
 845              	.LVL120:
 846 000e FFF7FEFF 		bl	Surtidor_PutChar
 847              	.LVL121:
 366:.\Protocolo.c ****     CyDelay(1000);
 848              		.loc 1 366 0
 849 0012 4FF47A70 		mov	r0, #1000
 850 0016 FFF7FEFF 		bl	CyDelay
 851              	.LVL122:
 367:.\Protocolo.c **** 	switch(Surtidor_GetRxBufferSize()){
 852              		.loc 1 367 0
 853 001a FFF7FEFF 		bl	Surtidor_GetRxBufferSize
 854              	.LVL123:
 855 001e 4028     		cmp	r0, #64
 856 0020 00F0AA83 		beq	.L66
 857 0024 06D8     		bhi	.L67
 858 0026 2228     		cmp	r0, #34
ARM GAS  C:\Users\RECEPC~1\AppData\Local\Temp\ccNG63cQ.s 			page 24


 859 0028 0FD0     		beq	.L68
 860 002a 2E28     		cmp	r0, #46
 861 002c 01F00D83 		beq	.L69
 862 0030 02F005BE 		b	.L65
 863              	.L67:
 864 0034 5E28     		cmp	r0, #94
 865 0036 00F04A87 		beq	.L70
 866 003a 8228     		cmp	r0, #130
 867 003c 02F05882 		beq	.L71
 868 0040 5828     		cmp	r0, #88
 869 0042 42F0FC85 		bne	.L65
 870 0046 01F098BE 		b	.L72
 871              	.L68:
 368:.\Protocolo.c **** 		case 34:
 369:.\Protocolo.c **** 			if((Surtidor_rxBuffer[0]==0xFF)&&(Surtidor_rxBuffer[1]==0xF6)&&(Surtidor_rxBuffer[33]==0xF0)&&(S
 872              		.loc 1 369 0
 873 004a A54B     		ldr	r3, .L540
 874 004c 1B78     		ldrb	r3, [r3]	@ zero_extendqisi2
 875 004e DBB2     		uxtb	r3, r3
 876 0050 FF2B     		cmp	r3, #255
 877 0052 42F00886 		bne	.L516
 878              		.loc 1 369 0 is_stmt 0 discriminator 1
 879 0056 A24B     		ldr	r3, .L540
 880 0058 5B78     		ldrb	r3, [r3, #1]	@ zero_extendqisi2
 881 005a DBB2     		uxtb	r3, r3
 882 005c F62B     		cmp	r3, #246
 883 005e 42F00486 		bne	.L517
 884 0062 9F4B     		ldr	r3, .L540
 885 0064 93F82130 		ldrb	r3, [r3, #33]	@ zero_extendqisi2
 886 0068 DBB2     		uxtb	r3, r3
 887 006a F02B     		cmp	r3, #240
 888 006c 42F0FF85 		bne	.L518
 889 0070 9B4B     		ldr	r3, .L540
 890 0072 DB78     		ldrb	r3, [r3, #3]	@ zero_extendqisi2
 891 0074 DBB2     		uxtb	r3, r3
 892 0076 F92B     		cmp	r3, #249
 893 0078 42F0FB85 		bne	.L519
 370:.\Protocolo.c **** 				rventa.manguera=(Surtidor_rxBuffer[2]&0x0F)+1;			
 894              		.loc 1 370 0 is_stmt 1
 895 007c 984B     		ldr	r3, .L540
 896 007e 9878     		ldrb	r0, [r3, #2]	@ zero_extendqisi2
 897 0080 00F00F00 		and	r0, r0, #15
 898 0084 0130     		adds	r0, r0, #1
 899 0086 974B     		ldr	r3, .L540+4
 900 0088 83F8E000 		strb	r0, [r3, #224]
 371:.\Protocolo.c **** 				for(x=0;x<=7;x++){												
 901              		.loc 1 371 0
 902 008c 0022     		movs	r2, #0
 903 008e 964B     		ldr	r3, .L540+8
 904 0090 1A60     		str	r2, [r3]
 905 0092 1A46     		mov	r2, r3
 372:.\Protocolo.c **** 					rventa.tvolumen[x]=(Surtidor_rxBuffer[x+4]&0x0F);
 906              		.loc 1 372 0
 907 0094 DFF848E2 		ldr	lr, .L540
 908 0098 924F     		ldr	r7, .L540+4
 371:.\Protocolo.c **** 				for(x=0;x<=7;x++){												
 909              		.loc 1 371 0
ARM GAS  C:\Users\RECEPC~1\AppData\Local\Temp\ccNG63cQ.s 			page 25


 910 009a 09E0     		b	.L74
 911              	.L75:
 912              		.loc 1 372 0 discriminator 2
 913 009c 191D     		adds	r1, r3, #4
 914 009e 1EF80150 		ldrb	r5, [lr, r1]	@ zero_extendqisi2
 915 00a2 F918     		adds	r1, r7, r3
 916 00a4 05F00F05 		and	r5, r5, #15
 917 00a8 81F8BD50 		strb	r5, [r1, #189]
 371:.\Protocolo.c **** 				for(x=0;x<=7;x++){												
 918              		.loc 1 371 0 discriminator 2
 919 00ac 0133     		adds	r3, r3, #1
 920 00ae 1360     		str	r3, [r2]
 921              	.L74:
 371:.\Protocolo.c **** 				for(x=0;x<=7;x++){												
 922              		.loc 1 371 0 is_stmt 0 discriminator 1
 923 00b0 1368     		ldr	r3, [r2]
 924 00b2 072B     		cmp	r3, #7
 925 00b4 F2D9     		bls	.L75
 373:.\Protocolo.c **** 				}
 374:.\Protocolo.c **** 				for(x=0;x<=7;x++){
 926              		.loc 1 374 0 is_stmt 1
 927 00b6 0022     		movs	r2, #0
 928 00b8 8B4B     		ldr	r3, .L540+8
 929 00ba 1A60     		str	r2, [r3]
 930 00bc 1A46     		mov	r2, r3
 375:.\Protocolo.c **** 					rventa.tdinero[x]=(Surtidor_rxBuffer[x+13]&0x0F);
 931              		.loc 1 375 0
 932 00be DFF820E2 		ldr	lr, .L540
 933 00c2 884F     		ldr	r7, .L540+4
 374:.\Protocolo.c **** 				for(x=0;x<=7;x++){
 934              		.loc 1 374 0
 935 00c4 0AE0     		b	.L76
 936              	.L77:
 937              		.loc 1 375 0 discriminator 2
 938 00c6 03F10D01 		add	r1, r3, #13
 939 00ca 1EF80150 		ldrb	r5, [lr, r1]	@ zero_extendqisi2
 940 00ce F918     		adds	r1, r7, r3
 941 00d0 05F00F05 		and	r5, r5, #15
 942 00d4 81F8CA50 		strb	r5, [r1, #202]
 374:.\Protocolo.c **** 				for(x=0;x<=7;x++){
 943              		.loc 1 374 0 discriminator 2
 944 00d8 0133     		adds	r3, r3, #1
 945 00da 1360     		str	r3, [r2]
 946              	.L76:
 374:.\Protocolo.c **** 				for(x=0;x<=7;x++){
 947              		.loc 1 374 0 is_stmt 0 discriminator 1
 948 00dc 1368     		ldr	r3, [r2]
 949 00de 072B     		cmp	r3, #7
 950 00e0 F1D9     		bls	.L77
 376:.\Protocolo.c **** 				}
 377:.\Protocolo.c **** 				for(z=0;z<=7;z++){
 951              		.loc 1 377 0 is_stmt 1
 952 00e2 0022     		movs	r2, #0
 953 00e4 814B     		ldr	r3, .L540+12
 954 00e6 1A60     		str	r2, [r3]
 955 00e8 1946     		mov	r1, r3
 378:.\Protocolo.c **** 					corte[z+1]=rventa.tvolumen[z];
ARM GAS  C:\Users\RECEPC~1\AppData\Local\Temp\ccNG63cQ.s 			page 26


 956              		.loc 1 378 0
 957 00ea 7E4F     		ldr	r7, .L540+4
 377:.\Protocolo.c **** 				for(z=0;z<=7;z++){
 958              		.loc 1 377 0
 959 00ec 08E0     		b	.L78
 960              	.L79:
 961              		.loc 1 378 0 discriminator 2
 962 00ee 5A1C     		adds	r2, r3, #1
 963 00f0 3B44     		add	r3, r3, r7
 964 00f2 93F8BD50 		ldrb	r5, [r3, #189]	@ zero_extendqisi2
 965 00f6 10AB     		add	r3, sp, #64
 966 00f8 1344     		add	r3, r3, r2
 967 00fa 03F81C5C 		strb	r5, [r3, #-28]
 377:.\Protocolo.c **** 				for(z=0;z<=7;z++){
 968              		.loc 1 377 0 discriminator 2
 969 00fe 0A60     		str	r2, [r1]
 970              	.L78:
 377:.\Protocolo.c **** 				for(z=0;z<=7;z++){
 971              		.loc 1 377 0 is_stmt 0 discriminator 1
 972 0100 0B68     		ldr	r3, [r1]
 973 0102 072B     		cmp	r3, #7
 974 0104 F3D9     		bls	.L79
 379:.\Protocolo.c **** 				}
 380:.\Protocolo.c **** 				for(z=9;z<=16;z++){
 975              		.loc 1 380 0 is_stmt 1
 976 0106 0922     		movs	r2, #9
 977 0108 784B     		ldr	r3, .L540+12
 978 010a 1A60     		str	r2, [r3]
 979 010c 1A46     		mov	r2, r3
 381:.\Protocolo.c **** 					corte[z]=rventa.tdinero[z-9];
 980              		.loc 1 381 0
 981 010e 754F     		ldr	r7, .L540+4
 380:.\Protocolo.c **** 				for(z=9;z<=16;z++){
 982              		.loc 1 380 0
 983 0110 08E0     		b	.L80
 984              	.L81:
 985              		.loc 1 381 0 discriminator 2
 986 0112 F918     		adds	r1, r7, r3
 987 0114 91F8C150 		ldrb	r5, [r1, #193]	@ zero_extendqisi2
 988 0118 10A9     		add	r1, sp, #64
 989 011a 1944     		add	r1, r1, r3
 990 011c 01F81C5C 		strb	r5, [r1, #-28]
 380:.\Protocolo.c **** 				for(z=9;z<=16;z++){
 991              		.loc 1 380 0 discriminator 2
 992 0120 0133     		adds	r3, r3, #1
 993 0122 1360     		str	r3, [r2]
 994              	.L80:
 380:.\Protocolo.c **** 				for(z=9;z<=16;z++){
 995              		.loc 1 380 0 is_stmt 0 discriminator 1
 996 0124 1368     		ldr	r3, [r2]
 997 0126 102B     		cmp	r3, #16
 998 0128 F3D9     		bls	.L81
 382:.\Protocolo.c **** 				}
 383:.\Protocolo.c **** 				corte[0]=16;				
 999              		.loc 1 383 0 is_stmt 1
 1000 012a 1023     		movs	r3, #16
 1001 012c 8DF82430 		strb	r3, [sp, #36]
ARM GAS  C:\Users\RECEPC~1\AppData\Local\Temp\ccNG63cQ.s 			page 27


 384:.\Protocolo.c **** 				if(((rventa.manguera==(corriente&0x0F))&&(dir==lado.a.dir))||((rventa.manguera==(corriente2&0x0
 1002              		.loc 1 384 0
 1003 0130 6F4B     		ldr	r3, .L540+16
 1004 0132 1B78     		ldrb	r3, [r3]	@ zero_extendqisi2
 1005 0134 03F00F03 		and	r3, r3, #15
 1006 0138 9842     		cmp	r0, r3
 1007 013a 03D1     		bne	.L82
 1008              		.loc 1 384 0 is_stmt 0 discriminator 1
 1009 013c 6D4B     		ldr	r3, .L540+20
 1010 013e 1B78     		ldrb	r3, [r3]	@ zero_extendqisi2
 1011 0140 B342     		cmp	r3, r6
 1012 0142 0BD0     		beq	.L83
 1013              	.L82:
 1014              		.loc 1 384 0 discriminator 2
 1015 0144 6C4B     		ldr	r3, .L540+24
 1016 0146 1B78     		ldrb	r3, [r3]	@ zero_extendqisi2
 1017 0148 03F00F03 		and	r3, r3, #15
 1018 014c 9842     		cmp	r0, r3
 1019 014e 40F0A780 		bne	.L84
 1020              		.loc 1 384 0 discriminator 1
 1021 0152 684B     		ldr	r3, .L540+20
 1022 0154 1B79     		ldrb	r3, [r3, #4]	@ zero_extendqisi2
 1023 0156 B342     		cmp	r3, r6
 1024 0158 40F0A280 		bne	.L84
 1025              	.L83:
 385:.\Protocolo.c **** 					for(x=0;x<=16;x++){									
 1026              		.loc 1 385 0 is_stmt 1
 1027 015c 0022     		movs	r2, #0
 1028 015e 624B     		ldr	r3, .L540+8
 1029 0160 1A60     		str	r2, [r3]
 1030 0162 1D46     		mov	r5, r3
 386:.\Protocolo.c **** 						write_psoc1(val,msn_tc[x]);
 1031              		.loc 1 386 0
 1032 0164 654F     		ldr	r7, .L540+28
 385:.\Protocolo.c **** 					for(x=0;x<=16;x++){									
 1033              		.loc 1 385 0
 1034 0166 06E0     		b	.L85
 1035              	.L86:
 1036              		.loc 1 386 0 discriminator 2
 1037 0168 2046     		mov	r0, r4
 1038 016a F95C     		ldrb	r1, [r7, r3]	@ zero_extendqisi2
 1039 016c FFF7FEFF 		bl	write_psoc1
 1040              	.LVL124:
 385:.\Protocolo.c **** 					for(x=0;x<=16;x++){									
 1041              		.loc 1 385 0 discriminator 2
 1042 0170 2B68     		ldr	r3, [r5]
 1043 0172 0133     		adds	r3, r3, #1
 1044 0174 2B60     		str	r3, [r5]
 1045              	.L85:
 385:.\Protocolo.c **** 					for(x=0;x<=16;x++){									
 1046              		.loc 1 385 0 is_stmt 0 discriminator 1
 1047 0176 2B68     		ldr	r3, [r5]
 1048 0178 102B     		cmp	r3, #16
 1049 017a F5D9     		bls	.L86
 387:.\Protocolo.c **** 					}
 388:.\Protocolo.c **** 					write_psoc1(val,10);
 1050              		.loc 1 388 0 is_stmt 1
ARM GAS  C:\Users\RECEPC~1\AppData\Local\Temp\ccNG63cQ.s 			page 28


 1051 017c 2046     		mov	r0, r4
 1052 017e 0A21     		movs	r1, #10
 1053 0180 FFF7FEFF 		bl	write_psoc1
 1054              	.LVL125:
 389:.\Protocolo.c **** 					for(x=0;x<=14;x++){									
 1055              		.loc 1 389 0
 1056 0184 0022     		movs	r2, #0
 1057 0186 584B     		ldr	r3, .L540+8
 1058 0188 1A60     		str	r2, [r3]
 1059 018a 1D46     		mov	r5, r3
 390:.\Protocolo.c **** 						write_psoc1(val,msn_lecact[x]);				//LECTURA ACTUAL
 1060              		.loc 1 390 0
 1061 018c 5B4F     		ldr	r7, .L540+28
 389:.\Protocolo.c **** 					for(x=0;x<=14;x++){									
 1062              		.loc 1 389 0
 1063 018e 07E0     		b	.L87
 1064              	.L88:
 1065              		.loc 1 390 0 discriminator 2
 1066 0190 3B44     		add	r3, r3, r7
 1067 0192 2046     		mov	r0, r4
 1068 0194 197D     		ldrb	r1, [r3, #20]	@ zero_extendqisi2
 1069 0196 FFF7FEFF 		bl	write_psoc1
 1070              	.LVL126:
 389:.\Protocolo.c **** 					for(x=0;x<=14;x++){									
 1071              		.loc 1 389 0 discriminator 2
 1072 019a 2B68     		ldr	r3, [r5]
 1073 019c 0133     		adds	r3, r3, #1
 1074 019e 2B60     		str	r3, [r5]
 1075              	.L87:
 389:.\Protocolo.c **** 					for(x=0;x<=14;x++){									
 1076              		.loc 1 389 0 is_stmt 0 discriminator 1
 1077 01a0 2B68     		ldr	r3, [r5]
 1078 01a2 0E2B     		cmp	r3, #14
 1079 01a4 F4D9     		bls	.L88
 391:.\Protocolo.c **** 					}
 392:.\Protocolo.c **** 					write_psoc1(val,10);
 1080              		.loc 1 392 0 is_stmt 1
 1081 01a6 2046     		mov	r0, r4
 1082 01a8 0A21     		movs	r1, #10
 1083 01aa FFF7FEFF 		bl	write_psoc1
 1084              	.LVL127:
 393:.\Protocolo.c **** 					print_totalesac(8,val);	
 1085              		.loc 1 393 0
 1086 01ae 0820     		movs	r0, #8
 1087 01b0 2146     		mov	r1, r4
 1088 01b2 FFF7FEFF 		bl	print_totalesac
 1089              	.LVL128:
 394:.\Protocolo.c **** 					for(x=0;x<=16;x++){												
 1090              		.loc 1 394 0
 1091 01b6 0022     		movs	r2, #0
 1092 01b8 4B4B     		ldr	r3, .L540+8
 1093 01ba 1A60     		str	r2, [r3]
 1094 01bc 1D46     		mov	r5, r3
 395:.\Protocolo.c **** 						write_psoc1(val,msn_lecaan[x]);				//LECTURA ANTERIOR
 1095              		.loc 1 395 0
 1096 01be 4F4F     		ldr	r7, .L540+28
 394:.\Protocolo.c **** 					for(x=0;x<=16;x++){												
ARM GAS  C:\Users\RECEPC~1\AppData\Local\Temp\ccNG63cQ.s 			page 29


 1097              		.loc 1 394 0
 1098 01c0 08E0     		b	.L89
 1099              	.L90:
 1100              		.loc 1 395 0 discriminator 2
 1101 01c2 3B44     		add	r3, r3, r7
 1102 01c4 2046     		mov	r0, r4
 1103 01c6 93F82410 		ldrb	r1, [r3, #36]	@ zero_extendqisi2
 1104 01ca FFF7FEFF 		bl	write_psoc1
 1105              	.LVL129:
 394:.\Protocolo.c **** 					for(x=0;x<=16;x++){												
 1106              		.loc 1 394 0 discriminator 2
 1107 01ce 2B68     		ldr	r3, [r5]
 1108 01d0 0133     		adds	r3, r3, #1
 1109 01d2 2B60     		str	r3, [r5]
 1110              	.L89:
 394:.\Protocolo.c **** 					for(x=0;x<=16;x++){												
 1111              		.loc 1 394 0 is_stmt 0 discriminator 1
 1112 01d4 2B68     		ldr	r3, [r5]
 1113 01d6 102B     		cmp	r3, #16
 1114 01d8 F3D9     		bls	.L90
 396:.\Protocolo.c **** 					}
 397:.\Protocolo.c **** 					write_psoc1(val,10);
 1115              		.loc 1 397 0 is_stmt 1
 1116 01da 2046     		mov	r0, r4
 1117 01dc 0A21     		movs	r1, #10
 1118 01de FFF7FEFF 		bl	write_psoc1
 1119              	.LVL130:
 398:.\Protocolo.c **** 					if(dir==lado.a.dir){
 1120              		.loc 1 398 0
 1121 01e2 444B     		ldr	r3, .L540+20
 1122 01e4 1B78     		ldrb	r3, [r3]	@ zero_extendqisi2
 1123 01e6 B342     		cmp	r3, r6
 1124 01e8 04D1     		bne	.L91
 399:.\Protocolo.c **** 						leer_eeprom(192,25);
 1125              		.loc 1 399 0
 1126 01ea C020     		movs	r0, #192
 1127 01ec 1921     		movs	r1, #25
 1128 01ee FFF7FEFF 		bl	leer_eeprom
 1129              	.LVL131:
 1130 01f2 04E0     		b	.L92
 1131              	.L91:
 400:.\Protocolo.c **** 					}
 401:.\Protocolo.c **** 					else{
 402:.\Protocolo.c **** 						leer_eeprom(281,25);
 1132              		.loc 1 402 0
 1133 01f4 40F21910 		movw	r0, #281
 1134 01f8 1921     		movs	r1, #25
 1135 01fa FFF7FEFF 		bl	leer_eeprom
 1136              	.LVL132:
 1137              	.L92:
 403:.\Protocolo.c **** 					}
 404:.\Protocolo.c **** 					print_totales(val);
 1138              		.loc 1 404 0
 1139 01fe 2046     		mov	r0, r4
 1140 0200 FFF7FEFF 		bl	print_totales
 1141              	.LVL133:
 405:.\Protocolo.c **** 					for(z=1;z<=8;z++){
ARM GAS  C:\Users\RECEPC~1\AppData\Local\Temp\ccNG63cQ.s 			page 30


 1142              		.loc 1 405 0
 1143 0204 0122     		movs	r2, #1
 1144 0206 394B     		ldr	r3, .L540+12
 1145 0208 1A60     		str	r2, [r3]
 1146 020a 1A46     		mov	r2, r3
 406:.\Protocolo.c **** 						minuendo[z]=rventa.tdinero[z-1];
 1147              		.loc 1 406 0
 1148 020c 354F     		ldr	r7, .L540+4
 407:.\Protocolo.c **** 						sustraendo[z]=buffer_i2c[z+8];
 1149              		.loc 1 407 0
 1150 020e 3C4D     		ldr	r5, .L540+32
 405:.\Protocolo.c **** 					for(z=1;z<=8;z++){
 1151              		.loc 1 405 0
 1152 0210 0DE0     		b	.L93
 1153              	.L94:
 406:.\Protocolo.c **** 						minuendo[z]=rventa.tdinero[z-1];
 1154              		.loc 1 406 0 discriminator 2
 1155 0212 F918     		adds	r1, r7, r3
 1156 0214 91F8C900 		ldrb	r0, [r1, #201]	@ zero_extendqisi2
 1157 0218 10A9     		add	r1, sp, #64
 1158 021a 1944     		add	r1, r1, r3
 1159 021c 01F82C0C 		strb	r0, [r1, #-44]
 1160              		.loc 1 407 0 discriminator 2
 1161 0220 03F10800 		add	r0, r3, #8
 1162 0224 285C     		ldrb	r0, [r5, r0]	@ zero_extendqisi2
 1163 0226 01F83C0C 		strb	r0, [r1, #-60]
 405:.\Protocolo.c **** 					for(z=1;z<=8;z++){
 1164              		.loc 1 405 0 discriminator 2
 1165 022a 0133     		adds	r3, r3, #1
 1166 022c 1360     		str	r3, [r2]
 1167              	.L93:
 405:.\Protocolo.c **** 					for(z=1;z<=8;z++){
 1168              		.loc 1 405 0 is_stmt 0 discriminator 1
 1169 022e 1368     		ldr	r3, [r2]
 1170 0230 082B     		cmp	r3, #8
 1171 0232 EED9     		bls	.L94
 408:.\Protocolo.c **** 					}
 409:.\Protocolo.c **** 					minuendo[0]=8;
 1172              		.loc 1 409 0 is_stmt 1
 1173 0234 10A9     		add	r1, sp, #64
 1174 0236 0823     		movs	r3, #8
 1175 0238 01F82C3D 		strb	r3, [r1, #-44]!
 410:.\Protocolo.c **** 					operacion(2,minuendo,sustraendo);
 1176              		.loc 1 410 0
 1177 023c 0220     		movs	r0, #2
 1178 023e 01AA     		add	r2, sp, #4
 1179 0240 FFF7FEFF 		bl	operacion
 1180              	.LVL134:
 411:.\Protocolo.c **** 					for(x=0;x<=17;x++){									
 1181              		.loc 1 411 0
 1182 0244 0022     		movs	r2, #0
 1183 0246 284B     		ldr	r3, .L540+8
 1184 0248 1A60     		str	r2, [r3]
 1185 024a 1D46     		mov	r5, r3
 412:.\Protocolo.c **** 						write_psoc1(val,msn_tventas[x]);				//Total de ventas
 1186              		.loc 1 412 0
 1187 024c 2B4F     		ldr	r7, .L540+28
ARM GAS  C:\Users\RECEPC~1\AppData\Local\Temp\ccNG63cQ.s 			page 31


 411:.\Protocolo.c **** 					for(x=0;x<=17;x++){									
 1188              		.loc 1 411 0
 1189 024e 08E0     		b	.L95
 1190              	.L96:
 1191              		.loc 1 412 0 discriminator 2
 1192 0250 3B44     		add	r3, r3, r7
 1193 0252 2046     		mov	r0, r4
 1194 0254 93F83810 		ldrb	r1, [r3, #56]	@ zero_extendqisi2
 1195 0258 FFF7FEFF 		bl	write_psoc1
 1196              	.LVL135:
 411:.\Protocolo.c **** 					for(x=0;x<=17;x++){									
 1197              		.loc 1 411 0 discriminator 2
 1198 025c 2B68     		ldr	r3, [r5]
 1199 025e 0133     		adds	r3, r3, #1
 1200 0260 2B60     		str	r3, [r5]
 1201              	.L95:
 411:.\Protocolo.c **** 					for(x=0;x<=17;x++){									
 1202              		.loc 1 411 0 is_stmt 0 discriminator 1
 1203 0262 2B68     		ldr	r3, [r5]
 1204 0264 112B     		cmp	r3, #17
 1205 0266 F3D9     		bls	.L96
 413:.\Protocolo.c **** 					}
 414:.\Protocolo.c **** 					print_valor(resultado,val);
 1206              		.loc 1 414 0 is_stmt 1
 1207 0268 2648     		ldr	r0, .L540+36
 1208 026a 2146     		mov	r1, r4
 1209 026c FFF7FEFF 		bl	print_valor
 1210              	.LVL136:
 415:.\Protocolo.c **** 					if(dir==lado.a.dir){
 1211              		.loc 1 415 0
 1212 0270 204B     		ldr	r3, .L540+20
 1213 0272 1B78     		ldrb	r3, [r3]	@ zero_extendqisi2
 1214 0274 B342     		cmp	r3, r6
 1215 0276 09D1     		bne	.L97
 416:.\Protocolo.c **** 						write_eeprom(192,corte);	
 1216              		.loc 1 416 0
 1217 0278 C020     		movs	r0, #192
 1218 027a 09A9     		add	r1, sp, #36
 1219 027c FFF7FEFF 		bl	write_eeprom
 1220              	.LVL137:
 417:.\Protocolo.c **** 						write_eeprom(512,resultado);
 1221              		.loc 1 417 0
 1222 0280 4FF40070 		mov	r0, #512
 1223 0284 1F49     		ldr	r1, .L540+36
 1224 0286 FFF7FEFF 		bl	write_eeprom
 1225              	.LVL138:
 1226 028a 09E0     		b	.L84
 1227              	.L97:
 418:.\Protocolo.c **** 					}
 419:.\Protocolo.c **** 					else{
 420:.\Protocolo.c **** 						write_eeprom(281,corte);
 1228              		.loc 1 420 0
 1229 028c 40F21910 		movw	r0, #281
 1230 0290 09A9     		add	r1, sp, #36
 1231 0292 FFF7FEFF 		bl	write_eeprom
 1232              	.LVL139:
 421:.\Protocolo.c **** 						write_eeprom(551,resultado);
ARM GAS  C:\Users\RECEPC~1\AppData\Local\Temp\ccNG63cQ.s 			page 32


 1233              		.loc 1 421 0
 1234 0296 40F22720 		movw	r0, #551
 1235 029a 1A49     		ldr	r1, .L540+36
 1236 029c FFF7FEFF 		bl	write_eeprom
 1237              	.LVL140:
 1238              	.L84:
 422:.\Protocolo.c **** 					}
 423:.\Protocolo.c **** 				}
 424:.\Protocolo.c **** 				if(((rventa.manguera==(diesel&0x0F))&&(dir==lado.a.dir))||((rventa.manguera==(diesel2&0x0F))&&(
 1239              		.loc 1 424 0
 1240 02a0 104B     		ldr	r3, .L540+4
 1241 02a2 93F8E030 		ldrb	r3, [r3, #224]	@ zero_extendqisi2
 1242 02a6 184A     		ldr	r2, .L540+40
 1243 02a8 1278     		ldrb	r2, [r2]	@ zero_extendqisi2
 1244 02aa 02F00F02 		and	r2, r2, #15
 1245 02ae 9A42     		cmp	r2, r3
 1246 02b0 03D1     		bne	.L98
 1247              		.loc 1 424 0 is_stmt 0 discriminator 1
 1248 02b2 104A     		ldr	r2, .L540+20
 1249 02b4 1278     		ldrb	r2, [r2]	@ zero_extendqisi2
 1250 02b6 B242     		cmp	r2, r6
 1251 02b8 0BD0     		beq	.L99
 1252              	.L98:
 1253              		.loc 1 424 0 discriminator 2
 1254 02ba 144A     		ldr	r2, .L540+44
 1255 02bc 1278     		ldrb	r2, [r2]	@ zero_extendqisi2
 1256 02be 02F00F02 		and	r2, r2, #15
 1257 02c2 9342     		cmp	r3, r2
 1258 02c4 40F0C280 		bne	.L100
 1259              		.loc 1 424 0 discriminator 1
 1260 02c8 0A4B     		ldr	r3, .L540+20
 1261 02ca 1B79     		ldrb	r3, [r3, #4]	@ zero_extendqisi2
 1262 02cc B342     		cmp	r3, r6
 1263 02ce 40F0BD80 		bne	.L100
 1264              	.L99:
 425:.\Protocolo.c **** 					for(x=0;x<=13;x++){									
 1265              		.loc 1 425 0 is_stmt 1
 1266 02d2 0022     		movs	r2, #0
 1267 02d4 044B     		ldr	r3, .L540+8
 1268 02d6 1A60     		str	r2, [r3]
 1269 02d8 1D46     		mov	r5, r3
 426:.\Protocolo.c **** 						write_psoc1(val,msn_td[x]);
 1270              		.loc 1 426 0
 1271 02da 084F     		ldr	r7, .L540+28
 425:.\Protocolo.c **** 					for(x=0;x<=13;x++){									
 1272              		.loc 1 425 0
 1273 02dc 21E0     		b	.L101
 1274              	.L541:
 1275 02de 00BF     		.align	2
 1276              	.L540:
 1277 02e0 00000000 		.word	Surtidor_rxBuffer
 1278 02e4 00000000 		.word	rventa
 1279 02e8 00000000 		.word	x
 1280 02ec 00000000 		.word	z
 1281 02f0 00000000 		.word	corriente
 1282 02f4 00000000 		.word	lado
 1283 02f8 00000000 		.word	corriente2
ARM GAS  C:\Users\RECEPC~1\AppData\Local\Temp\ccNG63cQ.s 			page 33


 1284 02fc 00000000 		.word	.LANCHOR1
 1285 0300 00000000 		.word	buffer_i2c
 1286 0304 00000000 		.word	resultado
 1287 0308 00000000 		.word	diesel
 1288 030c 00000000 		.word	diesel2
 1289              	.L102:
 1290              		.loc 1 426 0 discriminator 2
 1291 0310 3B44     		add	r3, r3, r7
 1292 0312 2046     		mov	r0, r4
 1293 0314 93F84C10 		ldrb	r1, [r3, #76]	@ zero_extendqisi2
 1294 0318 FFF7FEFF 		bl	write_psoc1
 1295              	.LVL141:
 425:.\Protocolo.c **** 					for(x=0;x<=13;x++){									
 1296              		.loc 1 425 0 discriminator 2
 1297 031c 2B68     		ldr	r3, [r5]
 1298 031e 0133     		adds	r3, r3, #1
 1299 0320 2B60     		str	r3, [r5]
 1300              	.L101:
 425:.\Protocolo.c **** 					for(x=0;x<=13;x++){									
 1301              		.loc 1 425 0 is_stmt 0 discriminator 1
 1302 0322 2B68     		ldr	r3, [r5]
 1303 0324 0D2B     		cmp	r3, #13
 1304 0326 F3D9     		bls	.L102
 427:.\Protocolo.c **** 					}
 428:.\Protocolo.c **** 					write_psoc1(val,10);
 1305              		.loc 1 428 0 is_stmt 1
 1306 0328 2046     		mov	r0, r4
 1307 032a 0A21     		movs	r1, #10
 1308 032c FFF7FEFF 		bl	write_psoc1
 1309              	.LVL142:
 429:.\Protocolo.c **** 					for(x=0;x<=14;x++){									
 1310              		.loc 1 429 0
 1311 0330 0022     		movs	r2, #0
 1312 0332 A14B     		ldr	r3, .L542
 1313 0334 1A60     		str	r2, [r3]
 1314 0336 1D46     		mov	r5, r3
 430:.\Protocolo.c **** 						write_psoc1(val,msn_lecact[x]);				//LECTURA ACTUAL
 1315              		.loc 1 430 0
 1316 0338 A04F     		ldr	r7, .L542+4
 429:.\Protocolo.c **** 					for(x=0;x<=14;x++){									
 1317              		.loc 1 429 0
 1318 033a 07E0     		b	.L103
 1319              	.L104:
 1320              		.loc 1 430 0 discriminator 2
 1321 033c 3B44     		add	r3, r3, r7
 1322 033e 2046     		mov	r0, r4
 1323 0340 197D     		ldrb	r1, [r3, #20]	@ zero_extendqisi2
 1324 0342 FFF7FEFF 		bl	write_psoc1
 1325              	.LVL143:
 429:.\Protocolo.c **** 					for(x=0;x<=14;x++){									
 1326              		.loc 1 429 0 discriminator 2
 1327 0346 2B68     		ldr	r3, [r5]
 1328 0348 0133     		adds	r3, r3, #1
 1329 034a 2B60     		str	r3, [r5]
 1330              	.L103:
 429:.\Protocolo.c **** 					for(x=0;x<=14;x++){									
 1331              		.loc 1 429 0 is_stmt 0 discriminator 1
ARM GAS  C:\Users\RECEPC~1\AppData\Local\Temp\ccNG63cQ.s 			page 34


 1332 034c 2B68     		ldr	r3, [r5]
 1333 034e 0E2B     		cmp	r3, #14
 1334 0350 F4D9     		bls	.L104
 431:.\Protocolo.c **** 					}
 432:.\Protocolo.c **** 					write_psoc1(val,10);
 1335              		.loc 1 432 0 is_stmt 1
 1336 0352 2046     		mov	r0, r4
 1337 0354 0A21     		movs	r1, #10
 1338 0356 FFF7FEFF 		bl	write_psoc1
 1339              	.LVL144:
 433:.\Protocolo.c **** 					print_totalesac(8,val);	
 1340              		.loc 1 433 0
 1341 035a 0820     		movs	r0, #8
 1342 035c 2146     		mov	r1, r4
 1343 035e FFF7FEFF 		bl	print_totalesac
 1344              	.LVL145:
 434:.\Protocolo.c **** 					for(x=0;x<=16;x++){												
 1345              		.loc 1 434 0
 1346 0362 0022     		movs	r2, #0
 1347 0364 944B     		ldr	r3, .L542
 1348 0366 1A60     		str	r2, [r3]
 1349 0368 1D46     		mov	r5, r3
 435:.\Protocolo.c **** 						write_psoc1(val,msn_lecaan[x]);				//LECTURA ANTERIOR
 1350              		.loc 1 435 0
 1351 036a 944F     		ldr	r7, .L542+4
 434:.\Protocolo.c **** 					for(x=0;x<=16;x++){												
 1352              		.loc 1 434 0
 1353 036c 08E0     		b	.L105
 1354              	.L106:
 1355              		.loc 1 435 0 discriminator 2
 1356 036e 3B44     		add	r3, r3, r7
 1357 0370 2046     		mov	r0, r4
 1358 0372 93F82410 		ldrb	r1, [r3, #36]	@ zero_extendqisi2
 1359 0376 FFF7FEFF 		bl	write_psoc1
 1360              	.LVL146:
 434:.\Protocolo.c **** 					for(x=0;x<=16;x++){												
 1361              		.loc 1 434 0 discriminator 2
 1362 037a 2B68     		ldr	r3, [r5]
 1363 037c 0133     		adds	r3, r3, #1
 1364 037e 2B60     		str	r3, [r5]
 1365              	.L105:
 434:.\Protocolo.c **** 					for(x=0;x<=16;x++){												
 1366              		.loc 1 434 0 is_stmt 0 discriminator 1
 1367 0380 2B68     		ldr	r3, [r5]
 1368 0382 102B     		cmp	r3, #16
 1369 0384 F3D9     		bls	.L106
 436:.\Protocolo.c **** 					}
 437:.\Protocolo.c **** 					write_psoc1(val,10);
 1370              		.loc 1 437 0 is_stmt 1
 1371 0386 2046     		mov	r0, r4
 1372 0388 0A21     		movs	r1, #10
 1373 038a FFF7FEFF 		bl	write_psoc1
 1374              	.LVL147:
 438:.\Protocolo.c **** 					if(dir==lado.a.dir){
 1375              		.loc 1 438 0
 1376 038e 8C4B     		ldr	r3, .L542+8
 1377 0390 1B78     		ldrb	r3, [r3]	@ zero_extendqisi2
ARM GAS  C:\Users\RECEPC~1\AppData\Local\Temp\ccNG63cQ.s 			page 35


 1378 0392 B342     		cmp	r3, r6
 1379 0394 04D1     		bne	.L107
 439:.\Protocolo.c **** 						leer_eeprom(217,25);
 1380              		.loc 1 439 0
 1381 0396 D920     		movs	r0, #217
 1382 0398 1921     		movs	r1, #25
 1383 039a FFF7FEFF 		bl	leer_eeprom
 1384              	.LVL148:
 1385 039e 04E0     		b	.L108
 1386              	.L107:
 440:.\Protocolo.c **** 					}
 441:.\Protocolo.c **** 					else{
 442:.\Protocolo.c **** 						leer_eeprom(320,25);
 1387              		.loc 1 442 0
 1388 03a0 4FF4A070 		mov	r0, #320
 1389 03a4 1921     		movs	r1, #25
 1390 03a6 FFF7FEFF 		bl	leer_eeprom
 1391              	.LVL149:
 1392              	.L108:
 443:.\Protocolo.c **** 					}
 444:.\Protocolo.c **** 					print_totales(val);
 1393              		.loc 1 444 0
 1394 03aa 2046     		mov	r0, r4
 1395 03ac FFF7FEFF 		bl	print_totales
 1396              	.LVL150:
 445:.\Protocolo.c **** 					for(z=1;z<=8;z++){
 1397              		.loc 1 445 0
 1398 03b0 0122     		movs	r2, #1
 1399 03b2 844B     		ldr	r3, .L542+12
 1400 03b4 1A60     		str	r2, [r3]
 1401 03b6 1A46     		mov	r2, r3
 446:.\Protocolo.c **** 						minuendo[z]=rventa.tdinero[z-1];
 1402              		.loc 1 446 0
 1403 03b8 834F     		ldr	r7, .L542+16
 447:.\Protocolo.c **** 						sustraendo[z]=buffer_i2c[z+8];
 1404              		.loc 1 447 0
 1405 03ba 844D     		ldr	r5, .L542+20
 445:.\Protocolo.c **** 					for(z=1;z<=8;z++){
 1406              		.loc 1 445 0
 1407 03bc 0DE0     		b	.L109
 1408              	.L110:
 446:.\Protocolo.c **** 						minuendo[z]=rventa.tdinero[z-1];
 1409              		.loc 1 446 0 discriminator 2
 1410 03be F918     		adds	r1, r7, r3
 1411 03c0 91F8C900 		ldrb	r0, [r1, #201]	@ zero_extendqisi2
 1412 03c4 10A9     		add	r1, sp, #64
 1413 03c6 1944     		add	r1, r1, r3
 1414 03c8 01F82C0C 		strb	r0, [r1, #-44]
 1415              		.loc 1 447 0 discriminator 2
 1416 03cc 03F10800 		add	r0, r3, #8
 1417 03d0 285C     		ldrb	r0, [r5, r0]	@ zero_extendqisi2
 1418 03d2 01F83C0C 		strb	r0, [r1, #-60]
 445:.\Protocolo.c **** 					for(z=1;z<=8;z++){
 1419              		.loc 1 445 0 discriminator 2
 1420 03d6 0133     		adds	r3, r3, #1
 1421 03d8 1360     		str	r3, [r2]
 1422              	.L109:
ARM GAS  C:\Users\RECEPC~1\AppData\Local\Temp\ccNG63cQ.s 			page 36


 445:.\Protocolo.c **** 					for(z=1;z<=8;z++){
 1423              		.loc 1 445 0 is_stmt 0 discriminator 1
 1424 03da 1368     		ldr	r3, [r2]
 1425 03dc 082B     		cmp	r3, #8
 1426 03de EED9     		bls	.L110
 448:.\Protocolo.c **** 					}
 449:.\Protocolo.c **** 					minuendo[0]=8;
 1427              		.loc 1 449 0 is_stmt 1
 1428 03e0 10A9     		add	r1, sp, #64
 1429 03e2 0823     		movs	r3, #8
 1430 03e4 01F82C3D 		strb	r3, [r1, #-44]!
 450:.\Protocolo.c **** 					operacion(2,minuendo,sustraendo);
 1431              		.loc 1 450 0
 1432 03e8 0220     		movs	r0, #2
 1433 03ea 01AA     		add	r2, sp, #4
 1434 03ec FFF7FEFF 		bl	operacion
 1435              	.LVL151:
 451:.\Protocolo.c **** 					for(x=0;x<=17;x++){									
 1436              		.loc 1 451 0
 1437 03f0 0022     		movs	r2, #0
 1438 03f2 714B     		ldr	r3, .L542
 1439 03f4 1A60     		str	r2, [r3]
 1440 03f6 1D46     		mov	r5, r3
 452:.\Protocolo.c **** 						write_psoc1(val,msn_tventas[x]);				//Total de ventas
 1441              		.loc 1 452 0
 1442 03f8 704F     		ldr	r7, .L542+4
 451:.\Protocolo.c **** 					for(x=0;x<=17;x++){									
 1443              		.loc 1 451 0
 1444 03fa 08E0     		b	.L111
 1445              	.L112:
 1446              		.loc 1 452 0 discriminator 2
 1447 03fc 3B44     		add	r3, r3, r7
 1448 03fe 2046     		mov	r0, r4
 1449 0400 93F83810 		ldrb	r1, [r3, #56]	@ zero_extendqisi2
 1450 0404 FFF7FEFF 		bl	write_psoc1
 1451              	.LVL152:
 451:.\Protocolo.c **** 					for(x=0;x<=17;x++){									
 1452              		.loc 1 451 0 discriminator 2
 1453 0408 2B68     		ldr	r3, [r5]
 1454 040a 0133     		adds	r3, r3, #1
 1455 040c 2B60     		str	r3, [r5]
 1456              	.L111:
 451:.\Protocolo.c **** 					for(x=0;x<=17;x++){									
 1457              		.loc 1 451 0 is_stmt 0 discriminator 1
 1458 040e 2B68     		ldr	r3, [r5]
 1459 0410 112B     		cmp	r3, #17
 1460 0412 F3D9     		bls	.L112
 453:.\Protocolo.c **** 					}
 454:.\Protocolo.c **** 					print_valor(resultado,val);				
 1461              		.loc 1 454 0 is_stmt 1
 1462 0414 6E48     		ldr	r0, .L542+24
 1463 0416 2146     		mov	r1, r4
 1464 0418 FFF7FEFF 		bl	print_valor
 1465              	.LVL153:
 455:.\Protocolo.c **** 					if(dir==lado.a.dir){
 1466              		.loc 1 455 0
 1467 041c 684B     		ldr	r3, .L542+8
ARM GAS  C:\Users\RECEPC~1\AppData\Local\Temp\ccNG63cQ.s 			page 37


 1468 041e 1B78     		ldrb	r3, [r3]	@ zero_extendqisi2
 1469 0420 B342     		cmp	r3, r6
 1470 0422 09D1     		bne	.L113
 456:.\Protocolo.c **** 						write_eeprom(217,corte);
 1471              		.loc 1 456 0
 1472 0424 D920     		movs	r0, #217
 1473 0426 09A9     		add	r1, sp, #36
 1474 0428 FFF7FEFF 		bl	write_eeprom
 1475              	.LVL154:
 457:.\Protocolo.c **** 						write_eeprom(538,resultado);
 1476              		.loc 1 457 0
 1477 042c 40F21A20 		movw	r0, #538
 1478 0430 6749     		ldr	r1, .L542+24
 1479 0432 FFF7FEFF 		bl	write_eeprom
 1480              	.LVL155:
 1481 0436 09E0     		b	.L100
 1482              	.L113:
 458:.\Protocolo.c **** 					}
 459:.\Protocolo.c **** 					else{
 460:.\Protocolo.c **** 						write_eeprom(320,corte);
 1483              		.loc 1 460 0
 1484 0438 4FF4A070 		mov	r0, #320
 1485 043c 09A9     		add	r1, sp, #36
 1486 043e FFF7FEFF 		bl	write_eeprom
 1487              	.LVL156:
 461:.\Protocolo.c **** 						write_eeprom(576,resultado);
 1488              		.loc 1 461 0
 1489 0442 4FF41070 		mov	r0, #576
 1490 0446 6249     		ldr	r1, .L542+24
 1491 0448 FFF7FEFF 		bl	write_eeprom
 1492              	.LVL157:
 1493              	.L100:
 462:.\Protocolo.c **** 					}				
 463:.\Protocolo.c **** 				}
 464:.\Protocolo.c **** 				if(((rventa.manguera==(extra&0x0F))&&(dir==lado.a.dir))||((rventa.manguera==(extra2&0x0F))&&(di
 1494              		.loc 1 464 0
 1495 044c 5E4B     		ldr	r3, .L542+16
 1496 044e 93F8E030 		ldrb	r3, [r3, #224]	@ zero_extendqisi2
 1497 0452 604A     		ldr	r2, .L542+28
 1498 0454 1278     		ldrb	r2, [r2]	@ zero_extendqisi2
 1499 0456 02F00F02 		and	r2, r2, #15
 1500 045a 9A42     		cmp	r2, r3
 1501 045c 03D1     		bne	.L114
 1502              		.loc 1 464 0 is_stmt 0 discriminator 1
 1503 045e 584A     		ldr	r2, .L542+8
 1504 0460 1278     		ldrb	r2, [r2]	@ zero_extendqisi2
 1505 0462 B242     		cmp	r2, r6
 1506 0464 0BD0     		beq	.L115
 1507              	.L114:
 1508              		.loc 1 464 0 discriminator 2
 1509 0466 5C4A     		ldr	r2, .L542+32
 1510 0468 1278     		ldrb	r2, [r2]	@ zero_extendqisi2
 1511 046a 02F00F02 		and	r2, r2, #15
 1512 046e 9342     		cmp	r3, r2
 1513 0470 40F0BE80 		bne	.L116
 1514              		.loc 1 464 0 discriminator 1
 1515 0474 524B     		ldr	r3, .L542+8
ARM GAS  C:\Users\RECEPC~1\AppData\Local\Temp\ccNG63cQ.s 			page 38


 1516 0476 1B79     		ldrb	r3, [r3, #4]	@ zero_extendqisi2
 1517 0478 B342     		cmp	r3, r6
 1518 047a 40F0B980 		bne	.L116
 1519              	.L115:
 465:.\Protocolo.c **** 					for(x=0;x<=12;x++){									
 1520              		.loc 1 465 0 is_stmt 1
 1521 047e 0022     		movs	r2, #0
 1522 0480 4D4B     		ldr	r3, .L542
 1523 0482 1A60     		str	r2, [r3]
 1524 0484 1D46     		mov	r5, r3
 466:.\Protocolo.c **** 						write_psoc1(val,msn_te[x]);
 1525              		.loc 1 466 0
 1526 0486 4D4F     		ldr	r7, .L542+4
 465:.\Protocolo.c **** 					for(x=0;x<=12;x++){									
 1527              		.loc 1 465 0
 1528 0488 08E0     		b	.L117
 1529              	.L118:
 1530              		.loc 1 466 0 discriminator 2
 1531 048a 3B44     		add	r3, r3, r7
 1532 048c 2046     		mov	r0, r4
 1533 048e 93F85C10 		ldrb	r1, [r3, #92]	@ zero_extendqisi2
 1534 0492 FFF7FEFF 		bl	write_psoc1
 1535              	.LVL158:
 465:.\Protocolo.c **** 					for(x=0;x<=12;x++){									
 1536              		.loc 1 465 0 discriminator 2
 1537 0496 2B68     		ldr	r3, [r5]
 1538 0498 0133     		adds	r3, r3, #1
 1539 049a 2B60     		str	r3, [r5]
 1540              	.L117:
 465:.\Protocolo.c **** 					for(x=0;x<=12;x++){									
 1541              		.loc 1 465 0 is_stmt 0 discriminator 1
 1542 049c 2B68     		ldr	r3, [r5]
 1543 049e 0C2B     		cmp	r3, #12
 1544 04a0 F3D9     		bls	.L118
 467:.\Protocolo.c **** 					}
 468:.\Protocolo.c **** 					write_psoc1(val,10);
 1545              		.loc 1 468 0 is_stmt 1
 1546 04a2 2046     		mov	r0, r4
 1547 04a4 0A21     		movs	r1, #10
 1548 04a6 FFF7FEFF 		bl	write_psoc1
 1549              	.LVL159:
 469:.\Protocolo.c **** 					for(x=0;x<=14;x++){									
 1550              		.loc 1 469 0
 1551 04aa 0022     		movs	r2, #0
 1552 04ac 424B     		ldr	r3, .L542
 1553 04ae 1A60     		str	r2, [r3]
 1554 04b0 1D46     		mov	r5, r3
 470:.\Protocolo.c **** 						write_psoc1(val,msn_lecact[x]);				//LECTURA ACTUAL
 1555              		.loc 1 470 0
 1556 04b2 424F     		ldr	r7, .L542+4
 469:.\Protocolo.c **** 					for(x=0;x<=14;x++){									
 1557              		.loc 1 469 0
 1558 04b4 07E0     		b	.L119
 1559              	.L120:
 1560              		.loc 1 470 0 discriminator 2
 1561 04b6 3B44     		add	r3, r3, r7
 1562 04b8 2046     		mov	r0, r4
ARM GAS  C:\Users\RECEPC~1\AppData\Local\Temp\ccNG63cQ.s 			page 39


 1563 04ba 197D     		ldrb	r1, [r3, #20]	@ zero_extendqisi2
 1564 04bc FFF7FEFF 		bl	write_psoc1
 1565              	.LVL160:
 469:.\Protocolo.c **** 					for(x=0;x<=14;x++){									
 1566              		.loc 1 469 0 discriminator 2
 1567 04c0 2B68     		ldr	r3, [r5]
 1568 04c2 0133     		adds	r3, r3, #1
 1569 04c4 2B60     		str	r3, [r5]
 1570              	.L119:
 469:.\Protocolo.c **** 					for(x=0;x<=14;x++){									
 1571              		.loc 1 469 0 is_stmt 0 discriminator 1
 1572 04c6 2B68     		ldr	r3, [r5]
 1573 04c8 0E2B     		cmp	r3, #14
 1574 04ca F4D9     		bls	.L120
 471:.\Protocolo.c **** 					}
 472:.\Protocolo.c **** 					write_psoc1(val,10);
 1575              		.loc 1 472 0 is_stmt 1
 1576 04cc 2046     		mov	r0, r4
 1577 04ce 0A21     		movs	r1, #10
 1578 04d0 FFF7FEFF 		bl	write_psoc1
 1579              	.LVL161:
 473:.\Protocolo.c **** 					print_totalesac(8,val);	
 1580              		.loc 1 473 0
 1581 04d4 0820     		movs	r0, #8
 1582 04d6 2146     		mov	r1, r4
 1583 04d8 FFF7FEFF 		bl	print_totalesac
 1584              	.LVL162:
 474:.\Protocolo.c **** 					for(x=0;x<=16;x++){												
 1585              		.loc 1 474 0
 1586 04dc 0022     		movs	r2, #0
 1587 04de 364B     		ldr	r3, .L542
 1588 04e0 1A60     		str	r2, [r3]
 1589 04e2 1D46     		mov	r5, r3
 475:.\Protocolo.c **** 						write_psoc1(val,msn_lecaan[x]);				//LECTURA ANTERIOR
 1590              		.loc 1 475 0
 1591 04e4 354F     		ldr	r7, .L542+4
 474:.\Protocolo.c **** 					for(x=0;x<=16;x++){												
 1592              		.loc 1 474 0
 1593 04e6 08E0     		b	.L121
 1594              	.L122:
 1595              		.loc 1 475 0 discriminator 2
 1596 04e8 3B44     		add	r3, r3, r7
 1597 04ea 2046     		mov	r0, r4
 1598 04ec 93F82410 		ldrb	r1, [r3, #36]	@ zero_extendqisi2
 1599 04f0 FFF7FEFF 		bl	write_psoc1
 1600              	.LVL163:
 474:.\Protocolo.c **** 					for(x=0;x<=16;x++){												
 1601              		.loc 1 474 0 discriminator 2
 1602 04f4 2B68     		ldr	r3, [r5]
 1603 04f6 0133     		adds	r3, r3, #1
 1604 04f8 2B60     		str	r3, [r5]
 1605              	.L121:
 474:.\Protocolo.c **** 					for(x=0;x<=16;x++){												
 1606              		.loc 1 474 0 is_stmt 0 discriminator 1
 1607 04fa 2B68     		ldr	r3, [r5]
 1608 04fc 102B     		cmp	r3, #16
 1609 04fe F3D9     		bls	.L122
ARM GAS  C:\Users\RECEPC~1\AppData\Local\Temp\ccNG63cQ.s 			page 40


 476:.\Protocolo.c **** 					}
 477:.\Protocolo.c **** 					write_psoc1(val,10);
 1610              		.loc 1 477 0 is_stmt 1
 1611 0500 2046     		mov	r0, r4
 1612 0502 0A21     		movs	r1, #10
 1613 0504 FFF7FEFF 		bl	write_psoc1
 1614              	.LVL164:
 478:.\Protocolo.c **** 					if(dir==lado.a.dir){
 1615              		.loc 1 478 0
 1616 0508 2D4B     		ldr	r3, .L542+8
 1617 050a 1B78     		ldrb	r3, [r3]	@ zero_extendqisi2
 1618 050c B342     		cmp	r3, r6
 1619 050e 05D1     		bne	.L123
 479:.\Protocolo.c **** 						leer_eeprom(256,25);
 1620              		.loc 1 479 0
 1621 0510 4FF48070 		mov	r0, #256
 1622 0514 1921     		movs	r1, #25
 1623 0516 FFF7FEFF 		bl	leer_eeprom
 1624              	.LVL165:
 1625 051a 04E0     		b	.L124
 1626              	.L123:
 480:.\Protocolo.c **** 					}
 481:.\Protocolo.c **** 					else{
 482:.\Protocolo.c **** 						leer_eeprom(345,25);
 1627              		.loc 1 482 0
 1628 051c 40F25910 		movw	r0, #345
 1629 0520 1921     		movs	r1, #25
 1630 0522 FFF7FEFF 		bl	leer_eeprom
 1631              	.LVL166:
 1632              	.L124:
 483:.\Protocolo.c **** 					}
 484:.\Protocolo.c **** 					print_totales(val);
 1633              		.loc 1 484 0
 1634 0526 2046     		mov	r0, r4
 1635 0528 FFF7FEFF 		bl	print_totales
 1636              	.LVL167:
 485:.\Protocolo.c **** 					for(z=1;z<=8;z++){
 1637              		.loc 1 485 0
 1638 052c 0122     		movs	r2, #1
 1639 052e 254B     		ldr	r3, .L542+12
 1640 0530 1A60     		str	r2, [r3]
 1641 0532 1A46     		mov	r2, r3
 486:.\Protocolo.c **** 						minuendo[z]=rventa.tdinero[z-1];
 1642              		.loc 1 486 0
 1643 0534 244F     		ldr	r7, .L542+16
 487:.\Protocolo.c **** 						sustraendo[z]=buffer_i2c[z+8];
 1644              		.loc 1 487 0
 1645 0536 254D     		ldr	r5, .L542+20
 485:.\Protocolo.c **** 					for(z=1;z<=8;z++){
 1646              		.loc 1 485 0
 1647 0538 0DE0     		b	.L125
 1648              	.L126:
 486:.\Protocolo.c **** 						minuendo[z]=rventa.tdinero[z-1];
 1649              		.loc 1 486 0 discriminator 2
 1650 053a F918     		adds	r1, r7, r3
 1651 053c 91F8C900 		ldrb	r0, [r1, #201]	@ zero_extendqisi2
 1652 0540 10A9     		add	r1, sp, #64
ARM GAS  C:\Users\RECEPC~1\AppData\Local\Temp\ccNG63cQ.s 			page 41


 1653 0542 1944     		add	r1, r1, r3
 1654 0544 01F82C0C 		strb	r0, [r1, #-44]
 1655              		.loc 1 487 0 discriminator 2
 1656 0548 03F10800 		add	r0, r3, #8
 1657 054c 285C     		ldrb	r0, [r5, r0]	@ zero_extendqisi2
 1658 054e 01F83C0C 		strb	r0, [r1, #-60]
 485:.\Protocolo.c **** 					for(z=1;z<=8;z++){
 1659              		.loc 1 485 0 discriminator 2
 1660 0552 0133     		adds	r3, r3, #1
 1661 0554 1360     		str	r3, [r2]
 1662              	.L125:
 485:.\Protocolo.c **** 					for(z=1;z<=8;z++){
 1663              		.loc 1 485 0 is_stmt 0 discriminator 1
 1664 0556 1368     		ldr	r3, [r2]
 1665 0558 082B     		cmp	r3, #8
 1666 055a EED9     		bls	.L126
 488:.\Protocolo.c **** 					}
 489:.\Protocolo.c **** 					minuendo[0]=8;
 1667              		.loc 1 489 0 is_stmt 1
 1668 055c 10A9     		add	r1, sp, #64
 1669 055e 0823     		movs	r3, #8
 1670 0560 01F82C3D 		strb	r3, [r1, #-44]!
 490:.\Protocolo.c **** 					operacion(2,minuendo,sustraendo);
 1671              		.loc 1 490 0
 1672 0564 0220     		movs	r0, #2
 1673 0566 01AA     		add	r2, sp, #4
 1674 0568 FFF7FEFF 		bl	operacion
 1675              	.LVL168:
 491:.\Protocolo.c **** 					for(x=0;x<=17;x++){									
 1676              		.loc 1 491 0
 1677 056c 0022     		movs	r2, #0
 1678 056e 124B     		ldr	r3, .L542
 1679 0570 1A60     		str	r2, [r3]
 1680 0572 1D46     		mov	r5, r3
 492:.\Protocolo.c **** 						write_psoc1(val,msn_tventas[x]);				//Total de ventas
 1681              		.loc 1 492 0
 1682 0574 114F     		ldr	r7, .L542+4
 491:.\Protocolo.c **** 					for(x=0;x<=17;x++){									
 1683              		.loc 1 491 0
 1684 0576 08E0     		b	.L127
 1685              	.L128:
 1686              		.loc 1 492 0 discriminator 2
 1687 0578 3B44     		add	r3, r3, r7
 1688 057a 2046     		mov	r0, r4
 1689 057c 93F83810 		ldrb	r1, [r3, #56]	@ zero_extendqisi2
 1690 0580 FFF7FEFF 		bl	write_psoc1
 1691              	.LVL169:
 491:.\Protocolo.c **** 					for(x=0;x<=17;x++){									
 1692              		.loc 1 491 0 discriminator 2
 1693 0584 2B68     		ldr	r3, [r5]
 1694 0586 0133     		adds	r3, r3, #1
 1695 0588 2B60     		str	r3, [r5]
 1696              	.L127:
 491:.\Protocolo.c **** 					for(x=0;x<=17;x++){									
 1697              		.loc 1 491 0 is_stmt 0 discriminator 1
 1698 058a 2B68     		ldr	r3, [r5]
 1699 058c 112B     		cmp	r3, #17
ARM GAS  C:\Users\RECEPC~1\AppData\Local\Temp\ccNG63cQ.s 			page 42


 1700 058e F3D9     		bls	.L128
 493:.\Protocolo.c **** 					}
 494:.\Protocolo.c **** 					print_valor(resultado,val);							
 1701              		.loc 1 494 0 is_stmt 1
 1702 0590 0F48     		ldr	r0, .L542+24
 1703 0592 2146     		mov	r1, r4
 1704 0594 FFF7FEFF 		bl	print_valor
 1705              	.LVL170:
 495:.\Protocolo.c **** 					if(dir==lado.a.dir){
 1706              		.loc 1 495 0
 1707 0598 094B     		ldr	r3, .L542+8
 1708 059a 1B78     		ldrb	r3, [r3]	@ zero_extendqisi2
 1709 059c B342     		cmp	r3, r6
 1710 059e 1DD1     		bne	.L129
 496:.\Protocolo.c **** 						write_eeprom(256,corte);
 1711              		.loc 1 496 0
 1712 05a0 4FF48070 		mov	r0, #256
 1713 05a4 09A9     		add	r1, sp, #36
 1714 05a6 FFF7FEFF 		bl	write_eeprom
 1715              	.LVL171:
 497:.\Protocolo.c **** 						write_eeprom(525,resultado);
 1716              		.loc 1 497 0
 1717 05aa 40F20D20 		movw	r0, #525
 1718 05ae 0849     		ldr	r1, .L542+24
 1719 05b0 FFF7FEFF 		bl	write_eeprom
 1720              	.LVL172:
 1721 05b4 1CE0     		b	.L116
 1722              	.L543:
 1723 05b6 00BF     		.align	2
 1724              	.L542:
 1725 05b8 00000000 		.word	x
 1726 05bc 00000000 		.word	.LANCHOR1
 1727 05c0 00000000 		.word	lado
 1728 05c4 00000000 		.word	z
 1729 05c8 00000000 		.word	rventa
 1730 05cc 00000000 		.word	buffer_i2c
 1731 05d0 00000000 		.word	resultado
 1732 05d4 00000000 		.word	extra
 1733 05d8 00000000 		.word	extra2
 1734              	.L129:
 498:.\Protocolo.c **** 					}
 499:.\Protocolo.c **** 					else{
 500:.\Protocolo.c **** 						write_eeprom(345,corte);
 1735              		.loc 1 500 0
 1736 05dc 40F25910 		movw	r0, #345
 1737 05e0 09A9     		add	r1, sp, #36
 1738 05e2 FFF7FEFF 		bl	write_eeprom
 1739              	.LVL173:
 501:.\Protocolo.c **** 						write_eeprom(589,resultado);
 1740              		.loc 1 501 0
 1741 05e6 40F24D20 		movw	r0, #589
 1742 05ea AF49     		ldr	r1, .L544
 1743 05ec FFF7FEFF 		bl	write_eeprom
 1744              	.LVL174:
 1745              	.L116:
 502:.\Protocolo.c **** 					}					
 503:.\Protocolo.c **** 				}
ARM GAS  C:\Users\RECEPC~1\AppData\Local\Temp\ccNG63cQ.s 			page 43


 504:.\Protocolo.c ****                 
 505:.\Protocolo.c ****                 if(((rventa.manguera==(kero&0x0F))&&(dir==lado.a.dir))||((rventa.manguera==(kero2&0
 1746              		.loc 1 505 0
 1747 05f0 AE4B     		ldr	r3, .L544+4
 1748 05f2 93F8E030 		ldrb	r3, [r3, #224]	@ zero_extendqisi2
 1749 05f6 AE4A     		ldr	r2, .L544+8
 1750 05f8 1278     		ldrb	r2, [r2]	@ zero_extendqisi2
 1751 05fa 02F00F02 		and	r2, r2, #15
 1752 05fe 9A42     		cmp	r2, r3
 1753 0600 03D1     		bne	.L130
 1754              		.loc 1 505 0 is_stmt 0 discriminator 1
 1755 0602 AC4A     		ldr	r2, .L544+12
 1756 0604 1278     		ldrb	r2, [r2]	@ zero_extendqisi2
 1757 0606 B242     		cmp	r2, r6
 1758 0608 0BD0     		beq	.L131
 1759              	.L130:
 1760              		.loc 1 505 0 discriminator 2
 1761 060a AB4A     		ldr	r2, .L544+16
 1762 060c 1278     		ldrb	r2, [r2]	@ zero_extendqisi2
 1763 060e 02F00F02 		and	r2, r2, #15
 1764 0612 9342     		cmp	r3, r2
 1765 0614 40F0AB80 		bne	.L132
 1766              		.loc 1 505 0 discriminator 1
 1767 0618 A64B     		ldr	r3, .L544+12
 1768 061a 1B79     		ldrb	r3, [r3, #4]	@ zero_extendqisi2
 1769 061c B342     		cmp	r3, r6
 1770 061e 40F0A680 		bne	.L132
 1771              	.L131:
 506:.\Protocolo.c **** 					for(x=0;x<=9;x++){									
 1772              		.loc 1 506 0 is_stmt 1
 1773 0622 0022     		movs	r2, #0
 1774 0624 A54B     		ldr	r3, .L544+20
 1775 0626 1A60     		str	r2, [r3]
 1776 0628 1D46     		mov	r5, r3
 507:.\Protocolo.c **** 						write_psoc1(val,msn_tk[x]);                 // CUARTO PRODUCTO
 1777              		.loc 1 507 0
 1778 062a A54F     		ldr	r7, .L544+24
 506:.\Protocolo.c **** 					for(x=0;x<=9;x++){									
 1779              		.loc 1 506 0
 1780 062c 08E0     		b	.L133
 1781              	.L134:
 1782              		.loc 1 507 0 discriminator 2
 1783 062e 3B44     		add	r3, r3, r7
 1784 0630 2046     		mov	r0, r4
 1785 0632 93F86C10 		ldrb	r1, [r3, #108]	@ zero_extendqisi2
 1786 0636 FFF7FEFF 		bl	write_psoc1
 1787              	.LVL175:
 506:.\Protocolo.c **** 					for(x=0;x<=9;x++){									
 1788              		.loc 1 506 0 discriminator 2
 1789 063a 2B68     		ldr	r3, [r5]
 1790 063c 0133     		adds	r3, r3, #1
 1791 063e 2B60     		str	r3, [r5]
 1792              	.L133:
 506:.\Protocolo.c **** 					for(x=0;x<=9;x++){									
 1793              		.loc 1 506 0 is_stmt 0 discriminator 1
 1794 0640 2B68     		ldr	r3, [r5]
 1795 0642 092B     		cmp	r3, #9
ARM GAS  C:\Users\RECEPC~1\AppData\Local\Temp\ccNG63cQ.s 			page 44


 1796 0644 F3D9     		bls	.L134
 508:.\Protocolo.c **** 					}
 509:.\Protocolo.c **** 					write_psoc1(val,10);
 1797              		.loc 1 509 0 is_stmt 1
 1798 0646 2046     		mov	r0, r4
 1799 0648 0A21     		movs	r1, #10
 1800 064a FFF7FEFF 		bl	write_psoc1
 1801              	.LVL176:
 510:.\Protocolo.c **** 					for(x=0;x<=14;x++){									
 1802              		.loc 1 510 0
 1803 064e 0022     		movs	r2, #0
 1804 0650 9A4B     		ldr	r3, .L544+20
 1805 0652 1A60     		str	r2, [r3]
 1806 0654 1D46     		mov	r5, r3
 511:.\Protocolo.c **** 						write_psoc1(val,msn_lecact[x]);				//LECTURA ACTUAL
 1807              		.loc 1 511 0
 1808 0656 9A4F     		ldr	r7, .L544+24
 510:.\Protocolo.c **** 					for(x=0;x<=14;x++){									
 1809              		.loc 1 510 0
 1810 0658 07E0     		b	.L135
 1811              	.L136:
 1812              		.loc 1 511 0 discriminator 2
 1813 065a 3B44     		add	r3, r3, r7
 1814 065c 2046     		mov	r0, r4
 1815 065e 197D     		ldrb	r1, [r3, #20]	@ zero_extendqisi2
 1816 0660 FFF7FEFF 		bl	write_psoc1
 1817              	.LVL177:
 510:.\Protocolo.c **** 					for(x=0;x<=14;x++){									
 1818              		.loc 1 510 0 discriminator 2
 1819 0664 2B68     		ldr	r3, [r5]
 1820 0666 0133     		adds	r3, r3, #1
 1821 0668 2B60     		str	r3, [r5]
 1822              	.L135:
 510:.\Protocolo.c **** 					for(x=0;x<=14;x++){									
 1823              		.loc 1 510 0 is_stmt 0 discriminator 1
 1824 066a 2B68     		ldr	r3, [r5]
 1825 066c 0E2B     		cmp	r3, #14
 1826 066e F4D9     		bls	.L136
 512:.\Protocolo.c **** 					}
 513:.\Protocolo.c **** 					write_psoc1(val,10);
 1827              		.loc 1 513 0 is_stmt 1
 1828 0670 2046     		mov	r0, r4
 1829 0672 0A21     		movs	r1, #10
 1830 0674 FFF7FEFF 		bl	write_psoc1
 1831              	.LVL178:
 514:.\Protocolo.c **** 					print_totalesac(8,val);	
 1832              		.loc 1 514 0
 1833 0678 0820     		movs	r0, #8
 1834 067a 2146     		mov	r1, r4
 1835 067c FFF7FEFF 		bl	print_totalesac
 1836              	.LVL179:
 515:.\Protocolo.c **** 					for(x=0;x<=16;x++){												
 1837              		.loc 1 515 0
 1838 0680 0022     		movs	r2, #0
 1839 0682 8E4B     		ldr	r3, .L544+20
 1840 0684 1A60     		str	r2, [r3]
 1841 0686 1D46     		mov	r5, r3
ARM GAS  C:\Users\RECEPC~1\AppData\Local\Temp\ccNG63cQ.s 			page 45


 516:.\Protocolo.c **** 						write_psoc1(val,msn_lecaan[x]);				//LECTURA ANTERIOR
 1842              		.loc 1 516 0
 1843 0688 8D4F     		ldr	r7, .L544+24
 515:.\Protocolo.c **** 					for(x=0;x<=16;x++){												
 1844              		.loc 1 515 0
 1845 068a 08E0     		b	.L137
 1846              	.L138:
 1847              		.loc 1 516 0 discriminator 2
 1848 068c 3B44     		add	r3, r3, r7
 1849 068e 2046     		mov	r0, r4
 1850 0690 93F82410 		ldrb	r1, [r3, #36]	@ zero_extendqisi2
 1851 0694 FFF7FEFF 		bl	write_psoc1
 1852              	.LVL180:
 515:.\Protocolo.c **** 					for(x=0;x<=16;x++){												
 1853              		.loc 1 515 0 discriminator 2
 1854 0698 2B68     		ldr	r3, [r5]
 1855 069a 0133     		adds	r3, r3, #1
 1856 069c 2B60     		str	r3, [r5]
 1857              	.L137:
 515:.\Protocolo.c **** 					for(x=0;x<=16;x++){												
 1858              		.loc 1 515 0 is_stmt 0 discriminator 1
 1859 069e 2B68     		ldr	r3, [r5]
 1860 06a0 102B     		cmp	r3, #16
 1861 06a2 F3D9     		bls	.L138
 517:.\Protocolo.c **** 					}
 518:.\Protocolo.c **** 					write_psoc1(val,10);
 1862              		.loc 1 518 0 is_stmt 1
 1863 06a4 2046     		mov	r0, r4
 1864 06a6 0A21     		movs	r1, #10
 1865 06a8 FFF7FEFF 		bl	write_psoc1
 1866              	.LVL181:
 519:.\Protocolo.c **** 					if(dir==lado.a.dir){
 1867              		.loc 1 519 0
 1868 06ac 814B     		ldr	r3, .L544+12
 1869 06ae 1B78     		ldrb	r3, [r3]	@ zero_extendqisi2
 1870 06b0 B342     		cmp	r3, r6
 1871 06b2 05D1     		bne	.L139
 520:.\Protocolo.c **** 						leer_eeprom(1096,25);
 1872              		.loc 1 520 0
 1873 06b4 4FF48960 		mov	r0, #1096
 1874 06b8 1921     		movs	r1, #25
 1875 06ba FFF7FEFF 		bl	leer_eeprom
 1876              	.LVL182:
 1877 06be 04E0     		b	.L140
 1878              	.L139:
 521:.\Protocolo.c **** 					}
 522:.\Protocolo.c **** 					else{
 523:.\Protocolo.c **** 						leer_eeprom(1054,25);
 1879              		.loc 1 523 0
 1880 06c0 40F21E40 		movw	r0, #1054
 1881 06c4 1921     		movs	r1, #25
 1882 06c6 FFF7FEFF 		bl	leer_eeprom
 1883              	.LVL183:
 1884              	.L140:
 524:.\Protocolo.c **** 					}
 525:.\Protocolo.c **** 					print_totales(val);
 1885              		.loc 1 525 0
ARM GAS  C:\Users\RECEPC~1\AppData\Local\Temp\ccNG63cQ.s 			page 46


 1886 06ca 2046     		mov	r0, r4
 1887 06cc FFF7FEFF 		bl	print_totales
 1888              	.LVL184:
 526:.\Protocolo.c **** 					for(z=1;z<=8;z++){
 1889              		.loc 1 526 0
 1890 06d0 0122     		movs	r2, #1
 1891 06d2 7C4B     		ldr	r3, .L544+28
 1892 06d4 1A60     		str	r2, [r3]
 1893 06d6 1946     		mov	r1, r3
 527:.\Protocolo.c **** 						minuendo[z]=rventa.tdinero[z-1];
 1894              		.loc 1 527 0
 1895 06d8 744F     		ldr	r7, .L544+4
 528:.\Protocolo.c **** 						sustraendo[z]=buffer_i2c[z+8];
 1896              		.loc 1 528 0
 1897 06da 7B4D     		ldr	r5, .L544+32
 526:.\Protocolo.c **** 					for(z=1;z<=8;z++){
 1898              		.loc 1 526 0
 1899 06dc 0DE0     		b	.L141
 1900              	.L142:
 527:.\Protocolo.c **** 						minuendo[z]=rventa.tdinero[z-1];
 1901              		.loc 1 527 0 discriminator 2
 1902 06de FA18     		adds	r2, r7, r3
 1903 06e0 92F8C900 		ldrb	r0, [r2, #201]	@ zero_extendqisi2
 1904 06e4 10AA     		add	r2, sp, #64
 1905 06e6 1A44     		add	r2, r2, r3
 1906 06e8 02F82C0C 		strb	r0, [r2, #-44]
 1907              		.loc 1 528 0 discriminator 2
 1908 06ec 03F10800 		add	r0, r3, #8
 1909 06f0 285C     		ldrb	r0, [r5, r0]	@ zero_extendqisi2
 1910 06f2 02F83C0C 		strb	r0, [r2, #-60]
 526:.\Protocolo.c **** 					for(z=1;z<=8;z++){
 1911              		.loc 1 526 0 discriminator 2
 1912 06f6 0133     		adds	r3, r3, #1
 1913 06f8 0B60     		str	r3, [r1]
 1914              	.L141:
 526:.\Protocolo.c **** 					for(z=1;z<=8;z++){
 1915              		.loc 1 526 0 is_stmt 0 discriminator 1
 1916 06fa 0B68     		ldr	r3, [r1]
 1917 06fc 082B     		cmp	r3, #8
 1918 06fe EED9     		bls	.L142
 529:.\Protocolo.c **** 					}
 530:.\Protocolo.c **** 					minuendo[0]=8;
 1919              		.loc 1 530 0 is_stmt 1
 1920 0700 10A9     		add	r1, sp, #64
 1921 0702 0823     		movs	r3, #8
 1922 0704 01F82C3D 		strb	r3, [r1, #-44]!
 531:.\Protocolo.c **** 					operacion(2,minuendo,sustraendo);
 1923              		.loc 1 531 0
 1924 0708 0220     		movs	r0, #2
 1925 070a 01AA     		add	r2, sp, #4
 1926 070c FFF7FEFF 		bl	operacion
 1927              	.LVL185:
 532:.\Protocolo.c **** 					for(x=0;x<=17;x++){									
 1928              		.loc 1 532 0
 1929 0710 0022     		movs	r2, #0
 1930 0712 6A4B     		ldr	r3, .L544+20
 1931 0714 1A60     		str	r2, [r3]
ARM GAS  C:\Users\RECEPC~1\AppData\Local\Temp\ccNG63cQ.s 			page 47


 1932 0716 1D46     		mov	r5, r3
 533:.\Protocolo.c **** 						write_psoc1(val,msn_tventas[x]);				//Total de ventas
 1933              		.loc 1 533 0
 1934 0718 694F     		ldr	r7, .L544+24
 532:.\Protocolo.c **** 					for(x=0;x<=17;x++){									
 1935              		.loc 1 532 0
 1936 071a 08E0     		b	.L143
 1937              	.L144:
 1938              		.loc 1 533 0 discriminator 2
 1939 071c 3B44     		add	r3, r3, r7
 1940 071e 2046     		mov	r0, r4
 1941 0720 93F83810 		ldrb	r1, [r3, #56]	@ zero_extendqisi2
 1942 0724 FFF7FEFF 		bl	write_psoc1
 1943              	.LVL186:
 532:.\Protocolo.c **** 					for(x=0;x<=17;x++){									
 1944              		.loc 1 532 0 discriminator 2
 1945 0728 2B68     		ldr	r3, [r5]
 1946 072a 0133     		adds	r3, r3, #1
 1947 072c 2B60     		str	r3, [r5]
 1948              	.L143:
 532:.\Protocolo.c **** 					for(x=0;x<=17;x++){									
 1949              		.loc 1 532 0 is_stmt 0 discriminator 1
 1950 072e 2B68     		ldr	r3, [r5]
 1951 0730 112B     		cmp	r3, #17
 1952 0732 F3D9     		bls	.L144
 534:.\Protocolo.c **** 					}
 535:.\Protocolo.c **** 					print_valor(resultado,val);							
 1953              		.loc 1 535 0 is_stmt 1
 1954 0734 5C48     		ldr	r0, .L544
 1955 0736 2146     		mov	r1, r4
 1956 0738 FFF7FEFF 		bl	print_valor
 1957              	.LVL187:
 536:.\Protocolo.c **** 					if(dir==lado.a.dir){
 1958              		.loc 1 536 0
 1959 073c 5D4B     		ldr	r3, .L544+12
 1960 073e 1B78     		ldrb	r3, [r3]	@ zero_extendqisi2
 1961 0740 B342     		cmp	r3, r6
 1962 0742 0AD1     		bne	.L145
 537:.\Protocolo.c **** 						write_eeprom(1096,corte);
 1963              		.loc 1 537 0
 1964 0744 4FF48960 		mov	r0, #1096
 1965 0748 09A9     		add	r1, sp, #36
 1966 074a FFF7FEFF 		bl	write_eeprom
 1967              	.LVL188:
 538:.\Protocolo.c **** 						write_eeprom(1038,resultado);
 1968              		.loc 1 538 0
 1969 074e 40F20E40 		movw	r0, #1038
 1970 0752 5549     		ldr	r1, .L544
 1971 0754 FFF7FEFF 		bl	write_eeprom
 1972              	.LVL189:
 1973 0758 09E0     		b	.L132
 1974              	.L145:
 539:.\Protocolo.c **** 					}
 540:.\Protocolo.c **** 					else{
 541:.\Protocolo.c **** 						write_eeprom(1054,corte);
 1975              		.loc 1 541 0
 1976 075a 40F21E40 		movw	r0, #1054
ARM GAS  C:\Users\RECEPC~1\AppData\Local\Temp\ccNG63cQ.s 			page 48


 1977 075e 09A9     		add	r1, sp, #36
 1978 0760 FFF7FEFF 		bl	write_eeprom
 1979              	.LVL190:
 542:.\Protocolo.c **** 						write_eeprom(1081,resultado);
 1980              		.loc 1 542 0
 1981 0764 40F23940 		movw	r0, #1081
 1982 0768 4F49     		ldr	r1, .L544
 1983 076a FFF7FEFF 		bl	write_eeprom
 1984              	.LVL191:
 1985              	.L132:
 543:.\Protocolo.c **** 					}					
 544:.\Protocolo.c **** 				}
 545:.\Protocolo.c **** 				
 546:.\Protocolo.c **** 				Surtidor_ClearRxBuffer();
 1986              		.loc 1 546 0
 1987 076e FFF7FEFF 		bl	Surtidor_ClearRxBuffer
 1988              	.LVL192:
 547:.\Protocolo.c **** 				return 1;
 1989              		.loc 1 547 0
 1990 0772 0120     		movs	r0, #1
 1991 0774 02F0A6BA 		b	.L73
 1992              	.L66:
 548:.\Protocolo.c **** 			}
 549:.\Protocolo.c **** 			else{
 550:.\Protocolo.c **** 				return 0;
 551:.\Protocolo.c **** 			}
 552:.\Protocolo.c **** 		break;
 553:.\Protocolo.c **** 
 554:.\Protocolo.c **** 		case 64:
 555:.\Protocolo.c **** 			if((Surtidor_rxBuffer[0]==0xFF)&&(Surtidor_rxBuffer[1]==0xF6)&&(Surtidor_rxBuffer[63]==0xF0)&&(S
 1993              		.loc 1 555 0
 1994 0778 544B     		ldr	r3, .L544+36
 1995 077a 1B78     		ldrb	r3, [r3]	@ zero_extendqisi2
 1996 077c DBB2     		uxtb	r3, r3
 1997 077e FF2B     		cmp	r3, #255
 1998 0780 42F07982 		bne	.L520
 1999              		.loc 1 555 0 is_stmt 0 discriminator 1
 2000 0784 514B     		ldr	r3, .L544+36
 2001 0786 5B78     		ldrb	r3, [r3, #1]	@ zero_extendqisi2
 2002 0788 DBB2     		uxtb	r3, r3
 2003 078a F62B     		cmp	r3, #246
 2004 078c 42F07582 		bne	.L521
 2005 0790 4E4B     		ldr	r3, .L544+36
 2006 0792 93F83F30 		ldrb	r3, [r3, #63]	@ zero_extendqisi2
 2007 0796 DBB2     		uxtb	r3, r3
 2008 0798 F02B     		cmp	r3, #240
 2009 079a 42F07082 		bne	.L522
 2010 079e 4B4B     		ldr	r3, .L544+36
 2011 07a0 DB78     		ldrb	r3, [r3, #3]	@ zero_extendqisi2
 2012 07a2 DBB2     		uxtb	r3, r3
 2013 07a4 F92B     		cmp	r3, #249
 2014 07a6 42F06C82 		bne	.L523
 556:.\Protocolo.c **** 				for(y=0;y<=30;y+=30){
 2015              		.loc 1 556 0 is_stmt 1
 2016 07aa 0022     		movs	r2, #0
 2017 07ac 484B     		ldr	r3, .L544+40
 2018 07ae 1A60     		str	r2, [r3]
ARM GAS  C:\Users\RECEPC~1\AppData\Local\Temp\ccNG63cQ.s 			page 49


 2019 07b0 1F46     		mov	r7, r3
 557:.\Protocolo.c **** 					rventa.manguera=(Surtidor_rxBuffer[y+2]&0x0F)+1;
 558:.\Protocolo.c **** 					for(x=0;x<=7;x++){
 2020              		.loc 1 558 0
 2021 07b2 424D     		ldr	r5, .L544+20
 556:.\Protocolo.c **** 				for(y=0;y<=30;y+=30){
 2022              		.loc 1 556 0
 2023 07b4 82E3     		b	.L146
 2024              	.L219:
 557:.\Protocolo.c **** 					rventa.manguera=(Surtidor_rxBuffer[y+2]&0x0F)+1;
 2025              		.loc 1 557 0
 2026 07b6 931C     		adds	r3, r2, #2
 2027 07b8 4449     		ldr	r1, .L544+36
 2028 07ba C85C     		ldrb	r0, [r1, r3]	@ zero_extendqisi2
 2029 07bc 00F00F00 		and	r0, r0, #15
 2030 07c0 0130     		adds	r0, r0, #1
 2031 07c2 3A4B     		ldr	r3, .L544+4
 2032 07c4 83F8E000 		strb	r0, [r3, #224]
 2033              		.loc 1 558 0
 2034 07c8 0023     		movs	r3, #0
 2035 07ca 2B60     		str	r3, [r5]
 559:.\Protocolo.c **** 						rventa.tvolumen[x]=(Surtidor_rxBuffer[y+4+x]&0x0F);
 2036              		.loc 1 559 0
 2037 07cc 8846     		mov	r8, r1
 2038 07ce DFF8DCC0 		ldr	ip, .L544+4
 558:.\Protocolo.c **** 					for(x=0;x<=7;x++){
 2039              		.loc 1 558 0
 2040 07d2 0BE0     		b	.L147
 2041              	.L148:
 2042              		.loc 1 559 0 discriminator 2
 2043 07d4 D118     		adds	r1, r2, r3
 2044 07d6 0431     		adds	r1, r1, #4
 2045 07d8 18F801E0 		ldrb	lr, [r8, r1]	@ zero_extendqisi2
 2046 07dc 0CEB0301 		add	r1, ip, r3
 2047 07e0 0EF00F0E 		and	lr, lr, #15
 2048 07e4 81F8BDE0 		strb	lr, [r1, #189]
 558:.\Protocolo.c **** 					for(x=0;x<=7;x++){
 2049              		.loc 1 558 0 discriminator 2
 2050 07e8 0133     		adds	r3, r3, #1
 2051 07ea 2B60     		str	r3, [r5]
 2052              	.L147:
 558:.\Protocolo.c **** 					for(x=0;x<=7;x++){
 2053              		.loc 1 558 0 is_stmt 0 discriminator 1
 2054 07ec 2B68     		ldr	r3, [r5]
 2055 07ee 072B     		cmp	r3, #7
 2056 07f0 F0D9     		bls	.L148
 560:.\Protocolo.c **** 					}
 561:.\Protocolo.c **** 					for(x=0;x<=7;x++){
 2057              		.loc 1 561 0 is_stmt 1
 2058 07f2 0023     		movs	r3, #0
 2059 07f4 2B60     		str	r3, [r5]
 562:.\Protocolo.c **** 						rventa.tdinero[x]=(Surtidor_rxBuffer[y+13+x]&0x0F);
 2060              		.loc 1 562 0
 2061 07f6 DFF8D480 		ldr	r8, .L544+36
 2062 07fa DFF8B0C0 		ldr	ip, .L544+4
 561:.\Protocolo.c **** 					for(x=0;x<=7;x++){
 2063              		.loc 1 561 0
ARM GAS  C:\Users\RECEPC~1\AppData\Local\Temp\ccNG63cQ.s 			page 50


 2064 07fe 0BE0     		b	.L149
 2065              	.L150:
 2066              		.loc 1 562 0 discriminator 2
 2067 0800 D118     		adds	r1, r2, r3
 2068 0802 0D31     		adds	r1, r1, #13
 2069 0804 18F801E0 		ldrb	lr, [r8, r1]	@ zero_extendqisi2
 2070 0808 0CEB0301 		add	r1, ip, r3
 2071 080c 0EF00F0E 		and	lr, lr, #15
 2072 0810 81F8CAE0 		strb	lr, [r1, #202]
 561:.\Protocolo.c **** 					for(x=0;x<=7;x++){
 2073              		.loc 1 561 0 discriminator 2
 2074 0814 0133     		adds	r3, r3, #1
 2075 0816 2B60     		str	r3, [r5]
 2076              	.L149:
 561:.\Protocolo.c **** 					for(x=0;x<=7;x++){
 2077              		.loc 1 561 0 is_stmt 0 discriminator 1
 2078 0818 2B68     		ldr	r3, [r5]
 2079 081a 072B     		cmp	r3, #7
 2080 081c F0D9     		bls	.L150
 563:.\Protocolo.c ****                         
 564:.\Protocolo.c **** 					}
 565:.\Protocolo.c **** 					for(z=0;z<=7;z++){
 2081              		.loc 1 565 0 is_stmt 1
 2082 081e 0022     		movs	r2, #0
 2083 0820 284B     		ldr	r3, .L544+28
 2084 0822 1A60     		str	r2, [r3]
 2085 0824 1946     		mov	r1, r3
 566:.\Protocolo.c **** 						corte[z+1]=rventa.tvolumen[z];
 2086              		.loc 1 566 0
 2087 0826 DFF884C0 		ldr	ip, .L544+4
 565:.\Protocolo.c **** 					for(z=0;z<=7;z++){
 2088              		.loc 1 565 0
 2089 082a 08E0     		b	.L151
 2090              	.L152:
 2091              		.loc 1 566 0 discriminator 2
 2092 082c 5A1C     		adds	r2, r3, #1
 2093 082e 6344     		add	r3, r3, ip
 2094 0830 93F8BDE0 		ldrb	lr, [r3, #189]	@ zero_extendqisi2
 2095 0834 10AB     		add	r3, sp, #64
 2096 0836 1344     		add	r3, r3, r2
 2097 0838 03F81CEC 		strb	lr, [r3, #-28]
 565:.\Protocolo.c **** 					for(z=0;z<=7;z++){
 2098              		.loc 1 565 0 discriminator 2
 2099 083c 0A60     		str	r2, [r1]
 2100              	.L151:
 565:.\Protocolo.c **** 					for(z=0;z<=7;z++){
 2101              		.loc 1 565 0 is_stmt 0 discriminator 1
 2102 083e 0B68     		ldr	r3, [r1]
 2103 0840 072B     		cmp	r3, #7
 2104 0842 F3D9     		bls	.L152
 567:.\Protocolo.c **** 					}
 568:.\Protocolo.c **** 					for(z=9;z<=16;z++){
 2105              		.loc 1 568 0 is_stmt 1
 2106 0844 0922     		movs	r2, #9
 2107 0846 1F4B     		ldr	r3, .L544+28
 2108 0848 1A60     		str	r2, [r3]
 2109 084a 1A46     		mov	r2, r3
ARM GAS  C:\Users\RECEPC~1\AppData\Local\Temp\ccNG63cQ.s 			page 51


 569:.\Protocolo.c **** 						corte[z]=rventa.tdinero[z-9];
 2110              		.loc 1 569 0
 2111 084c DFF85CC0 		ldr	ip, .L544+4
 568:.\Protocolo.c **** 					for(z=9;z<=16;z++){
 2112              		.loc 1 568 0
 2113 0850 09E0     		b	.L153
 2114              	.L154:
 2115              		.loc 1 569 0 discriminator 2
 2116 0852 0CEB0301 		add	r1, ip, r3
 2117 0856 91F8C1E0 		ldrb	lr, [r1, #193]	@ zero_extendqisi2
 2118 085a 10A9     		add	r1, sp, #64
 2119 085c 1944     		add	r1, r1, r3
 2120 085e 01F81CEC 		strb	lr, [r1, #-28]
 568:.\Protocolo.c **** 					for(z=9;z<=16;z++){
 2121              		.loc 1 568 0 discriminator 2
 2122 0862 0133     		adds	r3, r3, #1
 2123 0864 1360     		str	r3, [r2]
 2124              	.L153:
 568:.\Protocolo.c **** 					for(z=9;z<=16;z++){
 2125              		.loc 1 568 0 is_stmt 0 discriminator 1
 2126 0866 1368     		ldr	r3, [r2]
 2127 0868 102B     		cmp	r3, #16
 2128 086a F2D9     		bls	.L154
 570:.\Protocolo.c **** 					}
 571:.\Protocolo.c **** 					corte[0]=16;							
 2129              		.loc 1 571 0 is_stmt 1
 2130 086c 1023     		movs	r3, #16
 2131 086e 8DF82430 		strb	r3, [sp, #36]
 572:.\Protocolo.c **** 					if(((rventa.manguera==(corriente&0x0F))&&(dir==lado.a.dir))||((rventa.manguera==(corriente2&0x
 2132              		.loc 1 572 0
 2133 0872 184B     		ldr	r3, .L544+44
 2134 0874 1B78     		ldrb	r3, [r3]	@ zero_extendqisi2
 2135 0876 03F00F03 		and	r3, r3, #15
 2136 087a 8342     		cmp	r3, r0
 2137 087c 03D1     		bne	.L155
 2138              		.loc 1 572 0 is_stmt 0 discriminator 1
 2139 087e 0D4B     		ldr	r3, .L544+12
 2140 0880 1B78     		ldrb	r3, [r3]	@ zero_extendqisi2
 2141 0882 B342     		cmp	r3, r6
 2142 0884 0BD0     		beq	.L156
 2143              	.L155:
 2144              		.loc 1 572 0 discriminator 2
 2145 0886 144B     		ldr	r3, .L544+48
 2146 0888 1B78     		ldrb	r3, [r3]	@ zero_extendqisi2
 2147 088a 03F00F03 		and	r3, r3, #15
 2148 088e 9842     		cmp	r0, r3
 2149 0890 40F0C280 		bne	.L157
 2150              		.loc 1 572 0 discriminator 1
 2151 0894 074B     		ldr	r3, .L544+12
 2152 0896 1B79     		ldrb	r3, [r3, #4]	@ zero_extendqisi2
 2153 0898 B342     		cmp	r3, r6
 2154 089a 40F0BD80 		bne	.L157
 2155              	.L156:
 573:.\Protocolo.c **** 						for(x=0;x<=16;x++){									
 2156              		.loc 1 573 0 is_stmt 1
 2157 089e 0023     		movs	r3, #0
 2158 08a0 2B60     		str	r3, [r5]
ARM GAS  C:\Users\RECEPC~1\AppData\Local\Temp\ccNG63cQ.s 			page 52


 574:.\Protocolo.c **** 							write_psoc1(val,msn_tc[x]);
 2159              		.loc 1 574 0
 2160 08a2 DFF81C80 		ldr	r8, .L544+24
 573:.\Protocolo.c **** 						for(x=0;x<=16;x++){									
 2161              		.loc 1 573 0
 2162 08a6 21E0     		b	.L158
 2163              	.L545:
 2164              		.align	2
 2165              	.L544:
 2166 08a8 00000000 		.word	resultado
 2167 08ac 00000000 		.word	rventa
 2168 08b0 00000000 		.word	kero
 2169 08b4 00000000 		.word	lado
 2170 08b8 00000000 		.word	kero2
 2171 08bc 00000000 		.word	x
 2172 08c0 00000000 		.word	.LANCHOR1
 2173 08c4 00000000 		.word	z
 2174 08c8 00000000 		.word	buffer_i2c
 2175 08cc 00000000 		.word	Surtidor_rxBuffer
 2176 08d0 00000000 		.word	y
 2177 08d4 00000000 		.word	corriente
 2178 08d8 00000000 		.word	corriente2
 2179              	.L159:
 2180              		.loc 1 574 0 discriminator 2
 2181 08dc 2046     		mov	r0, r4
 2182 08de 18F80310 		ldrb	r1, [r8, r3]	@ zero_extendqisi2
 2183 08e2 FFF7FEFF 		bl	write_psoc1
 2184              	.LVL193:
 573:.\Protocolo.c **** 						for(x=0;x<=16;x++){									
 2185              		.loc 1 573 0 discriminator 2
 2186 08e6 2B68     		ldr	r3, [r5]
 2187 08e8 0133     		adds	r3, r3, #1
 2188 08ea 2B60     		str	r3, [r5]
 2189              	.L158:
 573:.\Protocolo.c **** 						for(x=0;x<=16;x++){									
 2190              		.loc 1 573 0 is_stmt 0 discriminator 1
 2191 08ec 2B68     		ldr	r3, [r5]
 2192 08ee 102B     		cmp	r3, #16
 2193 08f0 F4D9     		bls	.L159
 575:.\Protocolo.c **** 						}
 576:.\Protocolo.c **** 						write_psoc1(val,10);
 2194              		.loc 1 576 0 is_stmt 1
 2195 08f2 2046     		mov	r0, r4
 2196 08f4 0A21     		movs	r1, #10
 2197 08f6 FFF7FEFF 		bl	write_psoc1
 2198              	.LVL194:
 577:.\Protocolo.c **** 						for(x=0;x<=14;x++){									
 2199              		.loc 1 577 0
 2200 08fa 0023     		movs	r3, #0
 2201 08fc 2B60     		str	r3, [r5]
 578:.\Protocolo.c **** 							write_psoc1(val,msn_lecact[x]);				//LECTURA ACTUAL
 2202              		.loc 1 578 0
 2203 08fe DFF84883 		ldr	r8, .L546+32
 577:.\Protocolo.c **** 						for(x=0;x<=14;x++){									
 2204              		.loc 1 577 0
 2205 0902 07E0     		b	.L160
 2206              	.L161:
ARM GAS  C:\Users\RECEPC~1\AppData\Local\Temp\ccNG63cQ.s 			page 53


 2207              		.loc 1 578 0 discriminator 2
 2208 0904 4344     		add	r3, r3, r8
 2209 0906 2046     		mov	r0, r4
 2210 0908 197D     		ldrb	r1, [r3, #20]	@ zero_extendqisi2
 2211 090a FFF7FEFF 		bl	write_psoc1
 2212              	.LVL195:
 577:.\Protocolo.c **** 						for(x=0;x<=14;x++){									
 2213              		.loc 1 577 0 discriminator 2
 2214 090e 2B68     		ldr	r3, [r5]
 2215 0910 0133     		adds	r3, r3, #1
 2216 0912 2B60     		str	r3, [r5]
 2217              	.L160:
 577:.\Protocolo.c **** 						for(x=0;x<=14;x++){									
 2218              		.loc 1 577 0 is_stmt 0 discriminator 1
 2219 0914 2B68     		ldr	r3, [r5]
 2220 0916 0E2B     		cmp	r3, #14
 2221 0918 F4D9     		bls	.L161
 579:.\Protocolo.c **** 						}
 580:.\Protocolo.c **** 						write_psoc1(val,10);
 2222              		.loc 1 580 0 is_stmt 1
 2223 091a 2046     		mov	r0, r4
 2224 091c 0A21     		movs	r1, #10
 2225 091e FFF7FEFF 		bl	write_psoc1
 2226              	.LVL196:
 581:.\Protocolo.c **** 						print_totalesac(8,val);	
 2227              		.loc 1 581 0
 2228 0922 0820     		movs	r0, #8
 2229 0924 2146     		mov	r1, r4
 2230 0926 FFF7FEFF 		bl	print_totalesac
 2231              	.LVL197:
 582:.\Protocolo.c **** 						for(x=0;x<=16;x++){												
 2232              		.loc 1 582 0
 2233 092a 0023     		movs	r3, #0
 2234 092c 2B60     		str	r3, [r5]
 583:.\Protocolo.c **** 							write_psoc1(val,msn_lecaan[x]);				//LECTURA ANTERIOR
 2235              		.loc 1 583 0
 2236 092e DFF81883 		ldr	r8, .L546+32
 582:.\Protocolo.c **** 						for(x=0;x<=16;x++){												
 2237              		.loc 1 582 0
 2238 0932 08E0     		b	.L162
 2239              	.L163:
 2240              		.loc 1 583 0 discriminator 2
 2241 0934 4344     		add	r3, r3, r8
 2242 0936 2046     		mov	r0, r4
 2243 0938 93F82410 		ldrb	r1, [r3, #36]	@ zero_extendqisi2
 2244 093c FFF7FEFF 		bl	write_psoc1
 2245              	.LVL198:
 582:.\Protocolo.c **** 						for(x=0;x<=16;x++){												
 2246              		.loc 1 582 0 discriminator 2
 2247 0940 2B68     		ldr	r3, [r5]
 2248 0942 0133     		adds	r3, r3, #1
 2249 0944 2B60     		str	r3, [r5]
 2250              	.L162:
 582:.\Protocolo.c **** 						for(x=0;x<=16;x++){												
 2251              		.loc 1 582 0 is_stmt 0 discriminator 1
 2252 0946 2B68     		ldr	r3, [r5]
 2253 0948 102B     		cmp	r3, #16
ARM GAS  C:\Users\RECEPC~1\AppData\Local\Temp\ccNG63cQ.s 			page 54


 2254 094a F3D9     		bls	.L163
 584:.\Protocolo.c **** 						}
 585:.\Protocolo.c **** 						write_psoc1(val,10);
 2255              		.loc 1 585 0 is_stmt 1
 2256 094c 2046     		mov	r0, r4
 2257 094e 0A21     		movs	r1, #10
 2258 0950 FFF7FEFF 		bl	write_psoc1
 2259              	.LVL199:
 586:.\Protocolo.c **** 						if(dir==lado.a.dir){
 2260              		.loc 1 586 0
 2261 0954 B44B     		ldr	r3, .L546
 2262 0956 1B78     		ldrb	r3, [r3]	@ zero_extendqisi2
 2263 0958 B342     		cmp	r3, r6
 2264 095a 04D1     		bne	.L164
 587:.\Protocolo.c **** 							leer_eeprom(192,25);
 2265              		.loc 1 587 0
 2266 095c C020     		movs	r0, #192
 2267 095e 1921     		movs	r1, #25
 2268 0960 FFF7FEFF 		bl	leer_eeprom
 2269              	.LVL200:
 2270 0964 04E0     		b	.L165
 2271              	.L164:
 588:.\Protocolo.c **** 						}
 589:.\Protocolo.c **** 						else{
 590:.\Protocolo.c **** 							leer_eeprom(281,25);
 2272              		.loc 1 590 0
 2273 0966 40F21910 		movw	r0, #281
 2274 096a 1921     		movs	r1, #25
 2275 096c FFF7FEFF 		bl	leer_eeprom
 2276              	.LVL201:
 2277              	.L165:
 591:.\Protocolo.c **** 						}
 592:.\Protocolo.c **** 						print_totales(val);
 2278              		.loc 1 592 0
 2279 0970 2046     		mov	r0, r4
 2280 0972 FFF7FEFF 		bl	print_totales
 2281              	.LVL202:
 593:.\Protocolo.c **** 						for(z=1;z<=8;z++){
 2282              		.loc 1 593 0
 2283 0976 0122     		movs	r2, #1
 2284 0978 AC4B     		ldr	r3, .L546+4
 2285 097a 1A60     		str	r2, [r3]
 2286 097c 1946     		mov	r1, r3
 594:.\Protocolo.c **** 							minuendo[z]=rventa.tdinero[z-1];
 2287              		.loc 1 594 0
 2288 097e DFF8B4C2 		ldr	ip, .L546+12
 595:.\Protocolo.c **** 							sustraendo[z]=buffer_i2c[z+8];
 2289              		.loc 1 595 0
 2290 0982 DFF8C8E2 		ldr	lr, .L546+36
 593:.\Protocolo.c **** 						for(z=1;z<=8;z++){
 2291              		.loc 1 593 0
 2292 0986 0FE0     		b	.L166
 2293              	.L167:
 594:.\Protocolo.c **** 							minuendo[z]=rventa.tdinero[z-1];
 2294              		.loc 1 594 0 discriminator 2
 2295 0988 0CEB0302 		add	r2, ip, r3
 2296 098c 92F8C900 		ldrb	r0, [r2, #201]	@ zero_extendqisi2
ARM GAS  C:\Users\RECEPC~1\AppData\Local\Temp\ccNG63cQ.s 			page 55


 2297 0990 10AA     		add	r2, sp, #64
 2298 0992 1A44     		add	r2, r2, r3
 2299 0994 02F82C0C 		strb	r0, [r2, #-44]
 2300              		.loc 1 595 0 discriminator 2
 2301 0998 03F10800 		add	r0, r3, #8
 2302 099c 1EF80000 		ldrb	r0, [lr, r0]	@ zero_extendqisi2
 2303 09a0 02F83C0C 		strb	r0, [r2, #-60]
 593:.\Protocolo.c **** 						for(z=1;z<=8;z++){
 2304              		.loc 1 593 0 discriminator 2
 2305 09a4 0133     		adds	r3, r3, #1
 2306 09a6 0B60     		str	r3, [r1]
 2307              	.L166:
 593:.\Protocolo.c **** 						for(z=1;z<=8;z++){
 2308              		.loc 1 593 0 is_stmt 0 discriminator 1
 2309 09a8 0B68     		ldr	r3, [r1]
 2310 09aa 082B     		cmp	r3, #8
 2311 09ac ECD9     		bls	.L167
 596:.\Protocolo.c **** 						}
 597:.\Protocolo.c **** 						minuendo[0]=8;
 2312              		.loc 1 597 0 is_stmt 1
 2313 09ae 10A9     		add	r1, sp, #64
 2314 09b0 0823     		movs	r3, #8
 2315 09b2 01F82C3D 		strb	r3, [r1, #-44]!
 598:.\Protocolo.c **** 						operacion(2,minuendo,sustraendo);
 2316              		.loc 1 598 0
 2317 09b6 0220     		movs	r0, #2
 2318 09b8 01AA     		add	r2, sp, #4
 2319 09ba FFF7FEFF 		bl	operacion
 2320              	.LVL203:
 599:.\Protocolo.c **** 						for(x=0;x<=17;x++){									
 2321              		.loc 1 599 0
 2322 09be 0023     		movs	r3, #0
 2323 09c0 2B60     		str	r3, [r5]
 600:.\Protocolo.c **** 							write_psoc1(val,msn_tventas[x]);				//Total de ventas
 2324              		.loc 1 600 0
 2325 09c2 DFF88482 		ldr	r8, .L546+32
 599:.\Protocolo.c **** 						for(x=0;x<=17;x++){									
 2326              		.loc 1 599 0
 2327 09c6 08E0     		b	.L168
 2328              	.L169:
 2329              		.loc 1 600 0 discriminator 2
 2330 09c8 4344     		add	r3, r3, r8
 2331 09ca 2046     		mov	r0, r4
 2332 09cc 93F83810 		ldrb	r1, [r3, #56]	@ zero_extendqisi2
 2333 09d0 FFF7FEFF 		bl	write_psoc1
 2334              	.LVL204:
 599:.\Protocolo.c **** 						for(x=0;x<=17;x++){									
 2335              		.loc 1 599 0 discriminator 2
 2336 09d4 2B68     		ldr	r3, [r5]
 2337 09d6 0133     		adds	r3, r3, #1
 2338 09d8 2B60     		str	r3, [r5]
 2339              	.L168:
 599:.\Protocolo.c **** 						for(x=0;x<=17;x++){									
 2340              		.loc 1 599 0 is_stmt 0 discriminator 1
 2341 09da 2B68     		ldr	r3, [r5]
 2342 09dc 112B     		cmp	r3, #17
 2343 09de F3D9     		bls	.L169
ARM GAS  C:\Users\RECEPC~1\AppData\Local\Temp\ccNG63cQ.s 			page 56


 601:.\Protocolo.c **** 						}
 602:.\Protocolo.c **** 						print_valor(resultado,val);
 2344              		.loc 1 602 0 is_stmt 1
 2345 09e0 9348     		ldr	r0, .L546+8
 2346 09e2 2146     		mov	r1, r4
 2347 09e4 FFF7FEFF 		bl	print_valor
 2348              	.LVL205:
 603:.\Protocolo.c **** 						if(dir==lado.a.dir){
 2349              		.loc 1 603 0
 2350 09e8 8F4B     		ldr	r3, .L546
 2351 09ea 1B78     		ldrb	r3, [r3]	@ zero_extendqisi2
 2352 09ec B342     		cmp	r3, r6
 2353 09ee 09D1     		bne	.L170
 604:.\Protocolo.c **** 							write_eeprom(192,corte);	
 2354              		.loc 1 604 0
 2355 09f0 C020     		movs	r0, #192
 2356 09f2 09A9     		add	r1, sp, #36
 2357 09f4 FFF7FEFF 		bl	write_eeprom
 2358              	.LVL206:
 605:.\Protocolo.c **** 							write_eeprom(512,resultado);
 2359              		.loc 1 605 0
 2360 09f8 4FF40070 		mov	r0, #512
 2361 09fc 8C49     		ldr	r1, .L546+8
 2362 09fe FFF7FEFF 		bl	write_eeprom
 2363              	.LVL207:
 2364 0a02 09E0     		b	.L157
 2365              	.L170:
 606:.\Protocolo.c **** 						}
 607:.\Protocolo.c **** 						else{
 608:.\Protocolo.c **** 							write_eeprom(281,corte);
 2366              		.loc 1 608 0
 2367 0a04 40F21910 		movw	r0, #281
 2368 0a08 09A9     		add	r1, sp, #36
 2369 0a0a FFF7FEFF 		bl	write_eeprom
 2370              	.LVL208:
 609:.\Protocolo.c **** 							write_eeprom(551,resultado);
 2371              		.loc 1 609 0
 2372 0a0e 40F22720 		movw	r0, #551
 2373 0a12 8749     		ldr	r1, .L546+8
 2374 0a14 FFF7FEFF 		bl	write_eeprom
 2375              	.LVL209:
 2376              	.L157:
 610:.\Protocolo.c **** 						}
 611:.\Protocolo.c **** 					}
 612:.\Protocolo.c **** 					if(((rventa.manguera==(diesel&0x0F))&&(dir==lado.a.dir))||((rventa.manguera==(diesel2&0x0F))&&
 2377              		.loc 1 612 0
 2378 0a18 864B     		ldr	r3, .L546+12
 2379 0a1a 93F8E030 		ldrb	r3, [r3, #224]	@ zero_extendqisi2
 2380 0a1e 864A     		ldr	r2, .L546+16
 2381 0a20 1278     		ldrb	r2, [r2]	@ zero_extendqisi2
 2382 0a22 02F00F02 		and	r2, r2, #15
 2383 0a26 9A42     		cmp	r2, r3
 2384 0a28 03D1     		bne	.L171
 2385              		.loc 1 612 0 is_stmt 0 discriminator 1
 2386 0a2a 7F4A     		ldr	r2, .L546
 2387 0a2c 1278     		ldrb	r2, [r2]	@ zero_extendqisi2
 2388 0a2e B242     		cmp	r2, r6
ARM GAS  C:\Users\RECEPC~1\AppData\Local\Temp\ccNG63cQ.s 			page 57


 2389 0a30 0BD0     		beq	.L172
 2390              	.L171:
 2391              		.loc 1 612 0 discriminator 2
 2392 0a32 824A     		ldr	r2, .L546+20
 2393 0a34 1278     		ldrb	r2, [r2]	@ zero_extendqisi2
 2394 0a36 02F00F02 		and	r2, r2, #15
 2395 0a3a 9342     		cmp	r3, r2
 2396 0a3c 40F0A980 		bne	.L173
 2397              		.loc 1 612 0 discriminator 1
 2398 0a40 794B     		ldr	r3, .L546
 2399 0a42 1B79     		ldrb	r3, [r3, #4]	@ zero_extendqisi2
 2400 0a44 B342     		cmp	r3, r6
 2401 0a46 40F0A480 		bne	.L173
 2402              	.L172:
 613:.\Protocolo.c **** 						for(x=0;x<=13;x++){									
 2403              		.loc 1 613 0 is_stmt 1
 2404 0a4a 0023     		movs	r3, #0
 2405 0a4c 2B60     		str	r3, [r5]
 614:.\Protocolo.c **** 							write_psoc1(val,msn_td[x]);
 2406              		.loc 1 614 0
 2407 0a4e DFF8F881 		ldr	r8, .L546+32
 613:.\Protocolo.c **** 						for(x=0;x<=13;x++){									
 2408              		.loc 1 613 0
 2409 0a52 08E0     		b	.L174
 2410              	.L175:
 2411              		.loc 1 614 0 discriminator 2
 2412 0a54 4344     		add	r3, r3, r8
 2413 0a56 2046     		mov	r0, r4
 2414 0a58 93F84C10 		ldrb	r1, [r3, #76]	@ zero_extendqisi2
 2415 0a5c FFF7FEFF 		bl	write_psoc1
 2416              	.LVL210:
 613:.\Protocolo.c **** 						for(x=0;x<=13;x++){									
 2417              		.loc 1 613 0 discriminator 2
 2418 0a60 2B68     		ldr	r3, [r5]
 2419 0a62 0133     		adds	r3, r3, #1
 2420 0a64 2B60     		str	r3, [r5]
 2421              	.L174:
 613:.\Protocolo.c **** 						for(x=0;x<=13;x++){									
 2422              		.loc 1 613 0 is_stmt 0 discriminator 1
 2423 0a66 2B68     		ldr	r3, [r5]
 2424 0a68 0D2B     		cmp	r3, #13
 2425 0a6a F3D9     		bls	.L175
 615:.\Protocolo.c **** 						}
 616:.\Protocolo.c **** 						write_psoc1(val,10);
 2426              		.loc 1 616 0 is_stmt 1
 2427 0a6c 2046     		mov	r0, r4
 2428 0a6e 0A21     		movs	r1, #10
 2429 0a70 FFF7FEFF 		bl	write_psoc1
 2430              	.LVL211:
 617:.\Protocolo.c **** 						for(x=0;x<=14;x++){									
 2431              		.loc 1 617 0
 2432 0a74 0023     		movs	r3, #0
 2433 0a76 2B60     		str	r3, [r5]
 618:.\Protocolo.c **** 							write_psoc1(val,msn_lecact[x]);				//LECTURA ACTUAL
 2434              		.loc 1 618 0
 2435 0a78 DFF8CC81 		ldr	r8, .L546+32
 617:.\Protocolo.c **** 						for(x=0;x<=14;x++){									
ARM GAS  C:\Users\RECEPC~1\AppData\Local\Temp\ccNG63cQ.s 			page 58


 2436              		.loc 1 617 0
 2437 0a7c 07E0     		b	.L176
 2438              	.L177:
 2439              		.loc 1 618 0 discriminator 2
 2440 0a7e 4344     		add	r3, r3, r8
 2441 0a80 2046     		mov	r0, r4
 2442 0a82 197D     		ldrb	r1, [r3, #20]	@ zero_extendqisi2
 2443 0a84 FFF7FEFF 		bl	write_psoc1
 2444              	.LVL212:
 617:.\Protocolo.c **** 						for(x=0;x<=14;x++){									
 2445              		.loc 1 617 0 discriminator 2
 2446 0a88 2B68     		ldr	r3, [r5]
 2447 0a8a 0133     		adds	r3, r3, #1
 2448 0a8c 2B60     		str	r3, [r5]
 2449              	.L176:
 617:.\Protocolo.c **** 						for(x=0;x<=14;x++){									
 2450              		.loc 1 617 0 is_stmt 0 discriminator 1
 2451 0a8e 2B68     		ldr	r3, [r5]
 2452 0a90 0E2B     		cmp	r3, #14
 2453 0a92 F4D9     		bls	.L177
 619:.\Protocolo.c **** 						}
 620:.\Protocolo.c **** 						write_psoc1(val,10);
 2454              		.loc 1 620 0 is_stmt 1
 2455 0a94 2046     		mov	r0, r4
 2456 0a96 0A21     		movs	r1, #10
 2457 0a98 FFF7FEFF 		bl	write_psoc1
 2458              	.LVL213:
 621:.\Protocolo.c **** 						print_totalesac(8,val);	
 2459              		.loc 1 621 0
 2460 0a9c 0820     		movs	r0, #8
 2461 0a9e 2146     		mov	r1, r4
 2462 0aa0 FFF7FEFF 		bl	print_totalesac
 2463              	.LVL214:
 622:.\Protocolo.c **** 						for(x=0;x<=16;x++){												
 2464              		.loc 1 622 0
 2465 0aa4 0023     		movs	r3, #0
 2466 0aa6 2B60     		str	r3, [r5]
 623:.\Protocolo.c **** 							write_psoc1(val,msn_lecaan[x]);				//LECTURA ANTERIOR
 2467              		.loc 1 623 0
 2468 0aa8 DFF89C81 		ldr	r8, .L546+32
 622:.\Protocolo.c **** 						for(x=0;x<=16;x++){												
 2469              		.loc 1 622 0
 2470 0aac 08E0     		b	.L178
 2471              	.L179:
 2472              		.loc 1 623 0 discriminator 2
 2473 0aae 4344     		add	r3, r3, r8
 2474 0ab0 2046     		mov	r0, r4
 2475 0ab2 93F82410 		ldrb	r1, [r3, #36]	@ zero_extendqisi2
 2476 0ab6 FFF7FEFF 		bl	write_psoc1
 2477              	.LVL215:
 622:.\Protocolo.c **** 						for(x=0;x<=16;x++){												
 2478              		.loc 1 622 0 discriminator 2
 2479 0aba 2B68     		ldr	r3, [r5]
 2480 0abc 0133     		adds	r3, r3, #1
 2481 0abe 2B60     		str	r3, [r5]
 2482              	.L178:
 622:.\Protocolo.c **** 						for(x=0;x<=16;x++){												
ARM GAS  C:\Users\RECEPC~1\AppData\Local\Temp\ccNG63cQ.s 			page 59


 2483              		.loc 1 622 0 is_stmt 0 discriminator 1
 2484 0ac0 2B68     		ldr	r3, [r5]
 2485 0ac2 102B     		cmp	r3, #16
 2486 0ac4 F3D9     		bls	.L179
 624:.\Protocolo.c **** 						}
 625:.\Protocolo.c **** 						write_psoc1(val,10);
 2487              		.loc 1 625 0 is_stmt 1
 2488 0ac6 2046     		mov	r0, r4
 2489 0ac8 0A21     		movs	r1, #10
 2490 0aca FFF7FEFF 		bl	write_psoc1
 2491              	.LVL216:
 626:.\Protocolo.c **** 						if(dir==lado.a.dir){
 2492              		.loc 1 626 0
 2493 0ace 564B     		ldr	r3, .L546
 2494 0ad0 1B78     		ldrb	r3, [r3]	@ zero_extendqisi2
 2495 0ad2 B342     		cmp	r3, r6
 2496 0ad4 04D1     		bne	.L180
 627:.\Protocolo.c **** 							leer_eeprom(217,25);
 2497              		.loc 1 627 0
 2498 0ad6 D920     		movs	r0, #217
 2499 0ad8 1921     		movs	r1, #25
 2500 0ada FFF7FEFF 		bl	leer_eeprom
 2501              	.LVL217:
 2502 0ade 04E0     		b	.L181
 2503              	.L180:
 628:.\Protocolo.c **** 						}
 629:.\Protocolo.c **** 						else{
 630:.\Protocolo.c **** 							leer_eeprom(320,25);
 2504              		.loc 1 630 0
 2505 0ae0 4FF4A070 		mov	r0, #320
 2506 0ae4 1921     		movs	r1, #25
 2507 0ae6 FFF7FEFF 		bl	leer_eeprom
 2508              	.LVL218:
 2509              	.L181:
 631:.\Protocolo.c **** 						}
 632:.\Protocolo.c **** 						print_totales(val);
 2510              		.loc 1 632 0
 2511 0aea 2046     		mov	r0, r4
 2512 0aec FFF7FEFF 		bl	print_totales
 2513              	.LVL219:
 633:.\Protocolo.c **** 						for(z=1;z<=8;z++){
 2514              		.loc 1 633 0
 2515 0af0 0122     		movs	r2, #1
 2516 0af2 4E4B     		ldr	r3, .L546+4
 2517 0af4 1A60     		str	r2, [r3]
 2518 0af6 1946     		mov	r1, r3
 634:.\Protocolo.c **** 							minuendo[z]=rventa.tdinero[z-1];
 2519              		.loc 1 634 0
 2520 0af8 DFF838C1 		ldr	ip, .L546+12
 635:.\Protocolo.c **** 							sustraendo[z]=buffer_i2c[z+8];
 2521              		.loc 1 635 0
 2522 0afc DFF84CE1 		ldr	lr, .L546+36
 633:.\Protocolo.c **** 						for(z=1;z<=8;z++){
 2523              		.loc 1 633 0
 2524 0b00 0FE0     		b	.L182
 2525              	.L183:
 634:.\Protocolo.c **** 							minuendo[z]=rventa.tdinero[z-1];
ARM GAS  C:\Users\RECEPC~1\AppData\Local\Temp\ccNG63cQ.s 			page 60


 2526              		.loc 1 634 0 discriminator 2
 2527 0b02 0CEB0302 		add	r2, ip, r3
 2528 0b06 92F8C900 		ldrb	r0, [r2, #201]	@ zero_extendqisi2
 2529 0b0a 10AA     		add	r2, sp, #64
 2530 0b0c 1A44     		add	r2, r2, r3
 2531 0b0e 02F82C0C 		strb	r0, [r2, #-44]
 2532              		.loc 1 635 0 discriminator 2
 2533 0b12 03F10800 		add	r0, r3, #8
 2534 0b16 1EF80000 		ldrb	r0, [lr, r0]	@ zero_extendqisi2
 2535 0b1a 02F83C0C 		strb	r0, [r2, #-60]
 633:.\Protocolo.c **** 						for(z=1;z<=8;z++){
 2536              		.loc 1 633 0 discriminator 2
 2537 0b1e 0133     		adds	r3, r3, #1
 2538 0b20 0B60     		str	r3, [r1]
 2539              	.L182:
 633:.\Protocolo.c **** 						for(z=1;z<=8;z++){
 2540              		.loc 1 633 0 is_stmt 0 discriminator 1
 2541 0b22 0B68     		ldr	r3, [r1]
 2542 0b24 082B     		cmp	r3, #8
 2543 0b26 ECD9     		bls	.L183
 636:.\Protocolo.c **** 						}
 637:.\Protocolo.c **** 						minuendo[0]=8;
 2544              		.loc 1 637 0 is_stmt 1
 2545 0b28 10A9     		add	r1, sp, #64
 2546 0b2a 0823     		movs	r3, #8
 2547 0b2c 01F82C3D 		strb	r3, [r1, #-44]!
 638:.\Protocolo.c **** 						operacion(2,minuendo,sustraendo);
 2548              		.loc 1 638 0
 2549 0b30 0220     		movs	r0, #2
 2550 0b32 01AA     		add	r2, sp, #4
 2551 0b34 FFF7FEFF 		bl	operacion
 2552              	.LVL220:
 639:.\Protocolo.c **** 						for(x=0;x<=17;x++){									
 2553              		.loc 1 639 0
 2554 0b38 0023     		movs	r3, #0
 2555 0b3a 2B60     		str	r3, [r5]
 640:.\Protocolo.c **** 							write_psoc1(val,msn_tventas[x]);				//Total de ventas
 2556              		.loc 1 640 0
 2557 0b3c DFF80881 		ldr	r8, .L546+32
 639:.\Protocolo.c **** 						for(x=0;x<=17;x++){									
 2558              		.loc 1 639 0
 2559 0b40 08E0     		b	.L184
 2560              	.L185:
 2561              		.loc 1 640 0 discriminator 2
 2562 0b42 4344     		add	r3, r3, r8
 2563 0b44 2046     		mov	r0, r4
 2564 0b46 93F83810 		ldrb	r1, [r3, #56]	@ zero_extendqisi2
 2565 0b4a FFF7FEFF 		bl	write_psoc1
 2566              	.LVL221:
 639:.\Protocolo.c **** 						for(x=0;x<=17;x++){									
 2567              		.loc 1 639 0 discriminator 2
 2568 0b4e 2B68     		ldr	r3, [r5]
 2569 0b50 0133     		adds	r3, r3, #1
 2570 0b52 2B60     		str	r3, [r5]
 2571              	.L184:
 639:.\Protocolo.c **** 						for(x=0;x<=17;x++){									
 2572              		.loc 1 639 0 is_stmt 0 discriminator 1
ARM GAS  C:\Users\RECEPC~1\AppData\Local\Temp\ccNG63cQ.s 			page 61


 2573 0b54 2B68     		ldr	r3, [r5]
 2574 0b56 112B     		cmp	r3, #17
 2575 0b58 F3D9     		bls	.L185
 641:.\Protocolo.c **** 						}
 642:.\Protocolo.c **** 						print_valor(resultado,val);				
 2576              		.loc 1 642 0 is_stmt 1
 2577 0b5a 3548     		ldr	r0, .L546+8
 2578 0b5c 2146     		mov	r1, r4
 2579 0b5e FFF7FEFF 		bl	print_valor
 2580              	.LVL222:
 643:.\Protocolo.c **** 						if(dir==lado.a.dir){
 2581              		.loc 1 643 0
 2582 0b62 314B     		ldr	r3, .L546
 2583 0b64 1B78     		ldrb	r3, [r3]	@ zero_extendqisi2
 2584 0b66 B342     		cmp	r3, r6
 2585 0b68 09D1     		bne	.L186
 644:.\Protocolo.c **** 							write_eeprom(217,corte);
 2586              		.loc 1 644 0
 2587 0b6a D920     		movs	r0, #217
 2588 0b6c 09A9     		add	r1, sp, #36
 2589 0b6e FFF7FEFF 		bl	write_eeprom
 2590              	.LVL223:
 645:.\Protocolo.c **** 							write_eeprom(538,resultado);
 2591              		.loc 1 645 0
 2592 0b72 40F21A20 		movw	r0, #538
 2593 0b76 2E49     		ldr	r1, .L546+8
 2594 0b78 FFF7FEFF 		bl	write_eeprom
 2595              	.LVL224:
 2596 0b7c 09E0     		b	.L173
 2597              	.L186:
 646:.\Protocolo.c **** 						}
 647:.\Protocolo.c **** 						else{
 648:.\Protocolo.c **** 							write_eeprom(320,corte);
 2598              		.loc 1 648 0
 2599 0b7e 4FF4A070 		mov	r0, #320
 2600 0b82 09A9     		add	r1, sp, #36
 2601 0b84 FFF7FEFF 		bl	write_eeprom
 2602              	.LVL225:
 649:.\Protocolo.c **** 							write_eeprom(576,resultado);
 2603              		.loc 1 649 0
 2604 0b88 4FF41070 		mov	r0, #576
 2605 0b8c 2849     		ldr	r1, .L546+8
 2606 0b8e FFF7FEFF 		bl	write_eeprom
 2607              	.LVL226:
 2608              	.L173:
 650:.\Protocolo.c **** 						}				
 651:.\Protocolo.c **** 					}
 652:.\Protocolo.c **** 					if(((rventa.manguera==(extra&0x0F))&&(dir==lado.a.dir))||((rventa.manguera==(extra2&0x0F))&&(d
 2609              		.loc 1 652 0
 2610 0b92 284B     		ldr	r3, .L546+12
 2611 0b94 93F8E030 		ldrb	r3, [r3, #224]	@ zero_extendqisi2
 2612 0b98 294A     		ldr	r2, .L546+24
 2613 0b9a 1278     		ldrb	r2, [r2]	@ zero_extendqisi2
 2614 0b9c 02F00F02 		and	r2, r2, #15
 2615 0ba0 9A42     		cmp	r2, r3
 2616 0ba2 03D1     		bne	.L187
 2617              		.loc 1 652 0 is_stmt 0 discriminator 1
ARM GAS  C:\Users\RECEPC~1\AppData\Local\Temp\ccNG63cQ.s 			page 62


 2618 0ba4 204A     		ldr	r2, .L546
 2619 0ba6 1278     		ldrb	r2, [r2]	@ zero_extendqisi2
 2620 0ba8 B242     		cmp	r2, r6
 2621 0baa 0BD0     		beq	.L188
 2622              	.L187:
 2623              		.loc 1 652 0 discriminator 2
 2624 0bac 254A     		ldr	r2, .L546+28
 2625 0bae 1278     		ldrb	r2, [r2]	@ zero_extendqisi2
 2626 0bb0 02F00F02 		and	r2, r2, #15
 2627 0bb4 9342     		cmp	r3, r2
 2628 0bb6 40F0BF80 		bne	.L189
 2629              		.loc 1 652 0 discriminator 1
 2630 0bba 1B4B     		ldr	r3, .L546
 2631 0bbc 1B79     		ldrb	r3, [r3, #4]	@ zero_extendqisi2
 2632 0bbe B342     		cmp	r3, r6
 2633 0bc0 40F0BA80 		bne	.L189
 2634              	.L188:
 653:.\Protocolo.c **** 						for(x=0;x<=12;x++){									
 2635              		.loc 1 653 0 is_stmt 1
 2636 0bc4 0023     		movs	r3, #0
 2637 0bc6 2B60     		str	r3, [r5]
 654:.\Protocolo.c **** 							write_psoc1(val,msn_te[x]);
 2638              		.loc 1 654 0
 2639 0bc8 DFF87C80 		ldr	r8, .L546+32
 653:.\Protocolo.c **** 						for(x=0;x<=12;x++){									
 2640              		.loc 1 653 0
 2641 0bcc 08E0     		b	.L190
 2642              	.L191:
 2643              		.loc 1 654 0 discriminator 2
 2644 0bce 4344     		add	r3, r3, r8
 2645 0bd0 2046     		mov	r0, r4
 2646 0bd2 93F85C10 		ldrb	r1, [r3, #92]	@ zero_extendqisi2
 2647 0bd6 FFF7FEFF 		bl	write_psoc1
 2648              	.LVL227:
 653:.\Protocolo.c **** 						for(x=0;x<=12;x++){									
 2649              		.loc 1 653 0 discriminator 2
 2650 0bda 2B68     		ldr	r3, [r5]
 2651 0bdc 0133     		adds	r3, r3, #1
 2652 0bde 2B60     		str	r3, [r5]
 2653              	.L190:
 653:.\Protocolo.c **** 						for(x=0;x<=12;x++){									
 2654              		.loc 1 653 0 is_stmt 0 discriminator 1
 2655 0be0 2B68     		ldr	r3, [r5]
 2656 0be2 0C2B     		cmp	r3, #12
 2657 0be4 F3D9     		bls	.L191
 655:.\Protocolo.c **** 						}
 656:.\Protocolo.c **** 						write_psoc1(val,10);
 2658              		.loc 1 656 0 is_stmt 1
 2659 0be6 2046     		mov	r0, r4
 2660 0be8 0A21     		movs	r1, #10
 2661 0bea FFF7FEFF 		bl	write_psoc1
 2662              	.LVL228:
 657:.\Protocolo.c **** 						for(x=0;x<=14;x++){									
 2663              		.loc 1 657 0
 2664 0bee 0023     		movs	r3, #0
 2665 0bf0 2B60     		str	r3, [r5]
 658:.\Protocolo.c **** 							write_psoc1(val,msn_lecact[x]);				//LECTURA ACTUAL
ARM GAS  C:\Users\RECEPC~1\AppData\Local\Temp\ccNG63cQ.s 			page 63


 2666              		.loc 1 658 0
 2667 0bf2 DFF85480 		ldr	r8, .L546+32
 657:.\Protocolo.c **** 						for(x=0;x<=14;x++){									
 2668              		.loc 1 657 0
 2669 0bf6 07E0     		b	.L192
 2670              	.L193:
 2671              		.loc 1 658 0 discriminator 2
 2672 0bf8 4344     		add	r3, r3, r8
 2673 0bfa 2046     		mov	r0, r4
 2674 0bfc 197D     		ldrb	r1, [r3, #20]	@ zero_extendqisi2
 2675 0bfe FFF7FEFF 		bl	write_psoc1
 2676              	.LVL229:
 657:.\Protocolo.c **** 						for(x=0;x<=14;x++){									
 2677              		.loc 1 657 0 discriminator 2
 2678 0c02 2B68     		ldr	r3, [r5]
 2679 0c04 0133     		adds	r3, r3, #1
 2680 0c06 2B60     		str	r3, [r5]
 2681              	.L192:
 657:.\Protocolo.c **** 						for(x=0;x<=14;x++){									
 2682              		.loc 1 657 0 is_stmt 0 discriminator 1
 2683 0c08 2B68     		ldr	r3, [r5]
 2684 0c0a 0E2B     		cmp	r3, #14
 2685 0c0c F4D9     		bls	.L193
 659:.\Protocolo.c **** 						}
 660:.\Protocolo.c **** 						write_psoc1(val,10);
 2686              		.loc 1 660 0 is_stmt 1
 2687 0c0e 2046     		mov	r0, r4
 2688 0c10 0A21     		movs	r1, #10
 2689 0c12 FFF7FEFF 		bl	write_psoc1
 2690              	.LVL230:
 661:.\Protocolo.c **** 						print_totalesac(8,val);	
 2691              		.loc 1 661 0
 2692 0c16 0820     		movs	r0, #8
 2693 0c18 2146     		mov	r1, r4
 2694 0c1a FFF7FEFF 		bl	print_totalesac
 2695              	.LVL231:
 662:.\Protocolo.c **** 						for(x=0;x<=16;x++){												
 2696              		.loc 1 662 0
 2697 0c1e 0023     		movs	r3, #0
 2698 0c20 2B60     		str	r3, [r5]
 663:.\Protocolo.c **** 							write_psoc1(val,msn_lecaan[x]);				//LECTURA ANTERIOR
 2699              		.loc 1 663 0
 2700 0c22 DFF82480 		ldr	r8, .L546+32
 662:.\Protocolo.c **** 						for(x=0;x<=16;x++){												
 2701              		.loc 1 662 0
 2702 0c26 1CE0     		b	.L194
 2703              	.L547:
 2704              		.align	2
 2705              	.L546:
 2706 0c28 00000000 		.word	lado
 2707 0c2c 00000000 		.word	z
 2708 0c30 00000000 		.word	resultado
 2709 0c34 00000000 		.word	rventa
 2710 0c38 00000000 		.word	diesel
 2711 0c3c 00000000 		.word	diesel2
 2712 0c40 00000000 		.word	extra
 2713 0c44 00000000 		.word	extra2
ARM GAS  C:\Users\RECEPC~1\AppData\Local\Temp\ccNG63cQ.s 			page 64


 2714 0c48 00000000 		.word	.LANCHOR1
 2715 0c4c 00000000 		.word	buffer_i2c
 2716              	.L195:
 2717              		.loc 1 663 0 discriminator 2
 2718 0c50 4344     		add	r3, r3, r8
 2719 0c52 2046     		mov	r0, r4
 2720 0c54 93F82410 		ldrb	r1, [r3, #36]	@ zero_extendqisi2
 2721 0c58 FFF7FEFF 		bl	write_psoc1
 2722              	.LVL232:
 662:.\Protocolo.c **** 						for(x=0;x<=16;x++){												
 2723              		.loc 1 662 0 discriminator 2
 2724 0c5c 2B68     		ldr	r3, [r5]
 2725 0c5e 0133     		adds	r3, r3, #1
 2726 0c60 2B60     		str	r3, [r5]
 2727              	.L194:
 662:.\Protocolo.c **** 						for(x=0;x<=16;x++){												
 2728              		.loc 1 662 0 is_stmt 0 discriminator 1
 2729 0c62 2B68     		ldr	r3, [r5]
 2730 0c64 102B     		cmp	r3, #16
 2731 0c66 F3D9     		bls	.L195
 664:.\Protocolo.c **** 						}
 665:.\Protocolo.c **** 						write_psoc1(val,10);
 2732              		.loc 1 665 0 is_stmt 1
 2733 0c68 2046     		mov	r0, r4
 2734 0c6a 0A21     		movs	r1, #10
 2735 0c6c FFF7FEFF 		bl	write_psoc1
 2736              	.LVL233:
 666:.\Protocolo.c **** 						if(dir==lado.a.dir){
 2737              		.loc 1 666 0
 2738 0c70 B94B     		ldr	r3, .L548
 2739 0c72 1B78     		ldrb	r3, [r3]	@ zero_extendqisi2
 2740 0c74 B342     		cmp	r3, r6
 2741 0c76 05D1     		bne	.L196
 667:.\Protocolo.c **** 							leer_eeprom(256,25);
 2742              		.loc 1 667 0
 2743 0c78 4FF48070 		mov	r0, #256
 2744 0c7c 1921     		movs	r1, #25
 2745 0c7e FFF7FEFF 		bl	leer_eeprom
 2746              	.LVL234:
 2747 0c82 04E0     		b	.L197
 2748              	.L196:
 668:.\Protocolo.c **** 						}
 669:.\Protocolo.c **** 						else{
 670:.\Protocolo.c **** 							leer_eeprom(345,25);
 2749              		.loc 1 670 0
 2750 0c84 40F25910 		movw	r0, #345
 2751 0c88 1921     		movs	r1, #25
 2752 0c8a FFF7FEFF 		bl	leer_eeprom
 2753              	.LVL235:
 2754              	.L197:
 671:.\Protocolo.c **** 						}
 672:.\Protocolo.c **** 						print_totales(val);
 2755              		.loc 1 672 0
 2756 0c8e 2046     		mov	r0, r4
 2757 0c90 FFF7FEFF 		bl	print_totales
 2758              	.LVL236:
 673:.\Protocolo.c **** 						for(z=1;z<=8;z++){
ARM GAS  C:\Users\RECEPC~1\AppData\Local\Temp\ccNG63cQ.s 			page 65


 2759              		.loc 1 673 0
 2760 0c94 0122     		movs	r2, #1
 2761 0c96 B14B     		ldr	r3, .L548+4
 2762 0c98 1A60     		str	r2, [r3]
 2763 0c9a 1946     		mov	r1, r3
 674:.\Protocolo.c **** 							minuendo[z]=rventa.tdinero[z-1];
 2764              		.loc 1 674 0
 2765 0c9c DFF8C4C2 		ldr	ip, .L548+12
 675:.\Protocolo.c **** 							sustraendo[z]=buffer_i2c[z+8];
 2766              		.loc 1 675 0
 2767 0ca0 DFF8D8E2 		ldr	lr, .L548+36
 673:.\Protocolo.c **** 						for(z=1;z<=8;z++){
 2768              		.loc 1 673 0
 2769 0ca4 0FE0     		b	.L198
 2770              	.L199:
 674:.\Protocolo.c **** 							minuendo[z]=rventa.tdinero[z-1];
 2771              		.loc 1 674 0 discriminator 2
 2772 0ca6 0CEB0302 		add	r2, ip, r3
 2773 0caa 92F8C900 		ldrb	r0, [r2, #201]	@ zero_extendqisi2
 2774 0cae 10AA     		add	r2, sp, #64
 2775 0cb0 1A44     		add	r2, r2, r3
 2776 0cb2 02F82C0C 		strb	r0, [r2, #-44]
 2777              		.loc 1 675 0 discriminator 2
 2778 0cb6 03F10800 		add	r0, r3, #8
 2779 0cba 1EF80000 		ldrb	r0, [lr, r0]	@ zero_extendqisi2
 2780 0cbe 02F83C0C 		strb	r0, [r2, #-60]
 673:.\Protocolo.c **** 						for(z=1;z<=8;z++){
 2781              		.loc 1 673 0 discriminator 2
 2782 0cc2 0133     		adds	r3, r3, #1
 2783 0cc4 0B60     		str	r3, [r1]
 2784              	.L198:
 673:.\Protocolo.c **** 						for(z=1;z<=8;z++){
 2785              		.loc 1 673 0 is_stmt 0 discriminator 1
 2786 0cc6 0B68     		ldr	r3, [r1]
 2787 0cc8 082B     		cmp	r3, #8
 2788 0cca ECD9     		bls	.L199
 676:.\Protocolo.c **** 						}
 677:.\Protocolo.c **** 						minuendo[0]=8;
 2789              		.loc 1 677 0 is_stmt 1
 2790 0ccc 10A9     		add	r1, sp, #64
 2791 0cce 0823     		movs	r3, #8
 2792 0cd0 01F82C3D 		strb	r3, [r1, #-44]!
 678:.\Protocolo.c **** 						operacion(2,minuendo,sustraendo);
 2793              		.loc 1 678 0
 2794 0cd4 0220     		movs	r0, #2
 2795 0cd6 01AA     		add	r2, sp, #4
 2796 0cd8 FFF7FEFF 		bl	operacion
 2797              	.LVL237:
 679:.\Protocolo.c **** 						for(x=0;x<=17;x++){									
 2798              		.loc 1 679 0
 2799 0cdc 0023     		movs	r3, #0
 2800 0cde 2B60     		str	r3, [r5]
 680:.\Protocolo.c **** 							write_psoc1(val,msn_tventas[x]);				//Total de ventas
 2801              		.loc 1 680 0
 2802 0ce0 DFF89C82 		ldr	r8, .L548+40
 679:.\Protocolo.c **** 						for(x=0;x<=17;x++){									
 2803              		.loc 1 679 0
ARM GAS  C:\Users\RECEPC~1\AppData\Local\Temp\ccNG63cQ.s 			page 66


 2804 0ce4 08E0     		b	.L200
 2805              	.L201:
 2806              		.loc 1 680 0 discriminator 2
 2807 0ce6 4344     		add	r3, r3, r8
 2808 0ce8 2046     		mov	r0, r4
 2809 0cea 93F83810 		ldrb	r1, [r3, #56]	@ zero_extendqisi2
 2810 0cee FFF7FEFF 		bl	write_psoc1
 2811              	.LVL238:
 679:.\Protocolo.c **** 						for(x=0;x<=17;x++){									
 2812              		.loc 1 679 0 discriminator 2
 2813 0cf2 2B68     		ldr	r3, [r5]
 2814 0cf4 0133     		adds	r3, r3, #1
 2815 0cf6 2B60     		str	r3, [r5]
 2816              	.L200:
 679:.\Protocolo.c **** 						for(x=0;x<=17;x++){									
 2817              		.loc 1 679 0 is_stmt 0 discriminator 1
 2818 0cf8 2B68     		ldr	r3, [r5]
 2819 0cfa 112B     		cmp	r3, #17
 2820 0cfc F3D9     		bls	.L201
 681:.\Protocolo.c **** 						}
 682:.\Protocolo.c **** 						print_valor(resultado,val);							
 2821              		.loc 1 682 0 is_stmt 1
 2822 0cfe 9848     		ldr	r0, .L548+8
 2823 0d00 2146     		mov	r1, r4
 2824 0d02 FFF7FEFF 		bl	print_valor
 2825              	.LVL239:
 683:.\Protocolo.c **** 						if(dir==lado.a.dir){
 2826              		.loc 1 683 0
 2827 0d06 944B     		ldr	r3, .L548
 2828 0d08 1B78     		ldrb	r3, [r3]	@ zero_extendqisi2
 2829 0d0a B342     		cmp	r3, r6
 2830 0d0c 0AD1     		bne	.L202
 684:.\Protocolo.c **** 							write_eeprom(256,corte);
 2831              		.loc 1 684 0
 2832 0d0e 4FF48070 		mov	r0, #256
 2833 0d12 09A9     		add	r1, sp, #36
 2834 0d14 FFF7FEFF 		bl	write_eeprom
 2835              	.LVL240:
 685:.\Protocolo.c **** 							write_eeprom(525,resultado);
 2836              		.loc 1 685 0
 2837 0d18 40F20D20 		movw	r0, #525
 2838 0d1c 9049     		ldr	r1, .L548+8
 2839 0d1e FFF7FEFF 		bl	write_eeprom
 2840              	.LVL241:
 2841 0d22 09E0     		b	.L189
 2842              	.L202:
 686:.\Protocolo.c **** 						}
 687:.\Protocolo.c **** 						else{
 688:.\Protocolo.c **** 							write_eeprom(345,corte);
 2843              		.loc 1 688 0
 2844 0d24 40F25910 		movw	r0, #345
 2845 0d28 09A9     		add	r1, sp, #36
 2846 0d2a FFF7FEFF 		bl	write_eeprom
 2847              	.LVL242:
 689:.\Protocolo.c **** 							write_eeprom(589,resultado);
 2848              		.loc 1 689 0
 2849 0d2e 40F24D20 		movw	r0, #589
ARM GAS  C:\Users\RECEPC~1\AppData\Local\Temp\ccNG63cQ.s 			page 67


 2850 0d32 8B49     		ldr	r1, .L548+8
 2851 0d34 FFF7FEFF 		bl	write_eeprom
 2852              	.LVL243:
 2853              	.L189:
 690:.\Protocolo.c **** 						}					
 691:.\Protocolo.c **** 					}	
 692:.\Protocolo.c ****                     
 693:.\Protocolo.c ****                     if(((rventa.manguera==(kero&0x0F))&&(dir==lado.a.dir))||((rventa.manguera==(ker
 2854              		.loc 1 693 0
 2855 0d38 8A4B     		ldr	r3, .L548+12
 2856 0d3a 93F8E030 		ldrb	r3, [r3, #224]	@ zero_extendqisi2
 2857 0d3e 8A4A     		ldr	r2, .L548+16
 2858 0d40 1278     		ldrb	r2, [r2]	@ zero_extendqisi2
 2859 0d42 02F00F02 		and	r2, r2, #15
 2860 0d46 9A42     		cmp	r2, r3
 2861 0d48 03D1     		bne	.L203
 2862              		.loc 1 693 0 is_stmt 0 discriminator 1
 2863 0d4a 834A     		ldr	r2, .L548
 2864 0d4c 1278     		ldrb	r2, [r2]	@ zero_extendqisi2
 2865 0d4e B242     		cmp	r2, r6
 2866 0d50 0BD0     		beq	.L204
 2867              	.L203:
 2868              		.loc 1 693 0 discriminator 2
 2869 0d52 864A     		ldr	r2, .L548+20
 2870 0d54 1278     		ldrb	r2, [r2]	@ zero_extendqisi2
 2871 0d56 02F00F02 		and	r2, r2, #15
 2872 0d5a 9342     		cmp	r3, r2
 2873 0d5c 40F0AB80 		bne	.L205
 2874              		.loc 1 693 0 discriminator 1
 2875 0d60 7D4B     		ldr	r3, .L548
 2876 0d62 1B79     		ldrb	r3, [r3, #4]	@ zero_extendqisi2
 2877 0d64 B342     		cmp	r3, r6
 2878 0d66 40F0A680 		bne	.L205
 2879              	.L204:
 694:.\Protocolo.c **** 						for(x=0;x<=9;x++){									
 2880              		.loc 1 694 0 is_stmt 1
 2881 0d6a 0023     		movs	r3, #0
 2882 0d6c 2B60     		str	r3, [r5]
 695:.\Protocolo.c **** 							write_psoc1(val,msn_tk[x]);
 2883              		.loc 1 695 0
 2884 0d6e DFF81082 		ldr	r8, .L548+40
 694:.\Protocolo.c **** 						for(x=0;x<=9;x++){									
 2885              		.loc 1 694 0
 2886 0d72 08E0     		b	.L206
 2887              	.L207:
 2888              		.loc 1 695 0 discriminator 2
 2889 0d74 4344     		add	r3, r3, r8
 2890 0d76 2046     		mov	r0, r4
 2891 0d78 93F86C10 		ldrb	r1, [r3, #108]	@ zero_extendqisi2
 2892 0d7c FFF7FEFF 		bl	write_psoc1
 2893              	.LVL244:
 694:.\Protocolo.c **** 						for(x=0;x<=9;x++){									
 2894              		.loc 1 694 0 discriminator 2
 2895 0d80 2B68     		ldr	r3, [r5]
 2896 0d82 0133     		adds	r3, r3, #1
 2897 0d84 2B60     		str	r3, [r5]
 2898              	.L206:
ARM GAS  C:\Users\RECEPC~1\AppData\Local\Temp\ccNG63cQ.s 			page 68


 694:.\Protocolo.c **** 						for(x=0;x<=9;x++){									
 2899              		.loc 1 694 0 is_stmt 0 discriminator 1
 2900 0d86 2B68     		ldr	r3, [r5]
 2901 0d88 092B     		cmp	r3, #9
 2902 0d8a F3D9     		bls	.L207
 696:.\Protocolo.c **** 						}
 697:.\Protocolo.c **** 						write_psoc1(val,10);
 2903              		.loc 1 697 0 is_stmt 1
 2904 0d8c 2046     		mov	r0, r4
 2905 0d8e 0A21     		movs	r1, #10
 2906 0d90 FFF7FEFF 		bl	write_psoc1
 2907              	.LVL245:
 698:.\Protocolo.c **** 						for(x=0;x<=14;x++){									
 2908              		.loc 1 698 0
 2909 0d94 0023     		movs	r3, #0
 2910 0d96 2B60     		str	r3, [r5]
 699:.\Protocolo.c **** 							write_psoc1(val,msn_lecact[x]);				//LECTURA ACTUAL
 2911              		.loc 1 699 0
 2912 0d98 DFF8E481 		ldr	r8, .L548+40
 698:.\Protocolo.c **** 						for(x=0;x<=14;x++){									
 2913              		.loc 1 698 0
 2914 0d9c 07E0     		b	.L208
 2915              	.L209:
 2916              		.loc 1 699 0 discriminator 2
 2917 0d9e 4344     		add	r3, r3, r8
 2918 0da0 2046     		mov	r0, r4
 2919 0da2 197D     		ldrb	r1, [r3, #20]	@ zero_extendqisi2
 2920 0da4 FFF7FEFF 		bl	write_psoc1
 2921              	.LVL246:
 698:.\Protocolo.c **** 						for(x=0;x<=14;x++){									
 2922              		.loc 1 698 0 discriminator 2
 2923 0da8 2B68     		ldr	r3, [r5]
 2924 0daa 0133     		adds	r3, r3, #1
 2925 0dac 2B60     		str	r3, [r5]
 2926              	.L208:
 698:.\Protocolo.c **** 						for(x=0;x<=14;x++){									
 2927              		.loc 1 698 0 is_stmt 0 discriminator 1
 2928 0dae 2B68     		ldr	r3, [r5]
 2929 0db0 0E2B     		cmp	r3, #14
 2930 0db2 F4D9     		bls	.L209
 700:.\Protocolo.c **** 						}
 701:.\Protocolo.c **** 						write_psoc1(val,10);
 2931              		.loc 1 701 0 is_stmt 1
 2932 0db4 2046     		mov	r0, r4
 2933 0db6 0A21     		movs	r1, #10
 2934 0db8 FFF7FEFF 		bl	write_psoc1
 2935              	.LVL247:
 702:.\Protocolo.c **** 						print_totalesac(8,val);	
 2936              		.loc 1 702 0
 2937 0dbc 0820     		movs	r0, #8
 2938 0dbe 2146     		mov	r1, r4
 2939 0dc0 FFF7FEFF 		bl	print_totalesac
 2940              	.LVL248:
 703:.\Protocolo.c **** 						for(x=0;x<=16;x++){												
 2941              		.loc 1 703 0
 2942 0dc4 0023     		movs	r3, #0
 2943 0dc6 2B60     		str	r3, [r5]
ARM GAS  C:\Users\RECEPC~1\AppData\Local\Temp\ccNG63cQ.s 			page 69


 704:.\Protocolo.c **** 							write_psoc1(val,msn_lecaan[x]);				//LECTURA ANTERIOR
 2944              		.loc 1 704 0
 2945 0dc8 DFF8B481 		ldr	r8, .L548+40
 703:.\Protocolo.c **** 						for(x=0;x<=16;x++){												
 2946              		.loc 1 703 0
 2947 0dcc 08E0     		b	.L210
 2948              	.L211:
 2949              		.loc 1 704 0 discriminator 2
 2950 0dce 4344     		add	r3, r3, r8
 2951 0dd0 2046     		mov	r0, r4
 2952 0dd2 93F82410 		ldrb	r1, [r3, #36]	@ zero_extendqisi2
 2953 0dd6 FFF7FEFF 		bl	write_psoc1
 2954              	.LVL249:
 703:.\Protocolo.c **** 						for(x=0;x<=16;x++){												
 2955              		.loc 1 703 0 discriminator 2
 2956 0dda 2B68     		ldr	r3, [r5]
 2957 0ddc 0133     		adds	r3, r3, #1
 2958 0dde 2B60     		str	r3, [r5]
 2959              	.L210:
 703:.\Protocolo.c **** 						for(x=0;x<=16;x++){												
 2960              		.loc 1 703 0 is_stmt 0 discriminator 1
 2961 0de0 2B68     		ldr	r3, [r5]
 2962 0de2 102B     		cmp	r3, #16
 2963 0de4 F3D9     		bls	.L211
 705:.\Protocolo.c **** 						}
 706:.\Protocolo.c **** 						write_psoc1(val,10);
 2964              		.loc 1 706 0 is_stmt 1
 2965 0de6 2046     		mov	r0, r4
 2966 0de8 0A21     		movs	r1, #10
 2967 0dea FFF7FEFF 		bl	write_psoc1
 2968              	.LVL250:
 707:.\Protocolo.c **** 						if(dir==lado.a.dir){
 2969              		.loc 1 707 0
 2970 0dee 5A4B     		ldr	r3, .L548
 2971 0df0 1B78     		ldrb	r3, [r3]	@ zero_extendqisi2
 2972 0df2 B342     		cmp	r3, r6
 2973 0df4 05D1     		bne	.L212
 708:.\Protocolo.c **** 							leer_eeprom(1096,25);
 2974              		.loc 1 708 0
 2975 0df6 4FF48960 		mov	r0, #1096
 2976 0dfa 1921     		movs	r1, #25
 2977 0dfc FFF7FEFF 		bl	leer_eeprom
 2978              	.LVL251:
 2979 0e00 04E0     		b	.L213
 2980              	.L212:
 709:.\Protocolo.c **** 						}
 710:.\Protocolo.c **** 						else{
 711:.\Protocolo.c **** 							leer_eeprom(1054,25);
 2981              		.loc 1 711 0
 2982 0e02 40F21E40 		movw	r0, #1054
 2983 0e06 1921     		movs	r1, #25
 2984 0e08 FFF7FEFF 		bl	leer_eeprom
 2985              	.LVL252:
 2986              	.L213:
 712:.\Protocolo.c **** 						}
 713:.\Protocolo.c **** 						print_totales(val);
 2987              		.loc 1 713 0
ARM GAS  C:\Users\RECEPC~1\AppData\Local\Temp\ccNG63cQ.s 			page 70


 2988 0e0c 2046     		mov	r0, r4
 2989 0e0e FFF7FEFF 		bl	print_totales
 2990              	.LVL253:
 714:.\Protocolo.c **** 						for(z=1;z<=8;z++){
 2991              		.loc 1 714 0
 2992 0e12 0122     		movs	r2, #1
 2993 0e14 514B     		ldr	r3, .L548+4
 2994 0e16 1A60     		str	r2, [r3]
 2995 0e18 1946     		mov	r1, r3
 715:.\Protocolo.c **** 							minuendo[z]=rventa.tdinero[z-1];
 2996              		.loc 1 715 0
 2997 0e1a DFF848C1 		ldr	ip, .L548+12
 716:.\Protocolo.c **** 							sustraendo[z]=buffer_i2c[z+8];
 2998              		.loc 1 716 0
 2999 0e1e DFF85CE1 		ldr	lr, .L548+36
 714:.\Protocolo.c **** 						for(z=1;z<=8;z++){
 3000              		.loc 1 714 0
 3001 0e22 0FE0     		b	.L214
 3002              	.L215:
 715:.\Protocolo.c **** 							minuendo[z]=rventa.tdinero[z-1];
 3003              		.loc 1 715 0 discriminator 2
 3004 0e24 0CEB0302 		add	r2, ip, r3
 3005 0e28 92F8C900 		ldrb	r0, [r2, #201]	@ zero_extendqisi2
 3006 0e2c 10AA     		add	r2, sp, #64
 3007 0e2e 1A44     		add	r2, r2, r3
 3008 0e30 02F82C0C 		strb	r0, [r2, #-44]
 3009              		.loc 1 716 0 discriminator 2
 3010 0e34 03F10800 		add	r0, r3, #8
 3011 0e38 1EF80000 		ldrb	r0, [lr, r0]	@ zero_extendqisi2
 3012 0e3c 02F83C0C 		strb	r0, [r2, #-60]
 714:.\Protocolo.c **** 						for(z=1;z<=8;z++){
 3013              		.loc 1 714 0 discriminator 2
 3014 0e40 0133     		adds	r3, r3, #1
 3015 0e42 0B60     		str	r3, [r1]
 3016              	.L214:
 714:.\Protocolo.c **** 						for(z=1;z<=8;z++){
 3017              		.loc 1 714 0 is_stmt 0 discriminator 1
 3018 0e44 0B68     		ldr	r3, [r1]
 3019 0e46 082B     		cmp	r3, #8
 3020 0e48 ECD9     		bls	.L215
 717:.\Protocolo.c **** 						}
 718:.\Protocolo.c **** 						minuendo[0]=8;
 3021              		.loc 1 718 0 is_stmt 1
 3022 0e4a 10A9     		add	r1, sp, #64
 3023 0e4c 0823     		movs	r3, #8
 3024 0e4e 01F82C3D 		strb	r3, [r1, #-44]!
 719:.\Protocolo.c **** 						operacion(2,minuendo,sustraendo);
 3025              		.loc 1 719 0
 3026 0e52 0220     		movs	r0, #2
 3027 0e54 01AA     		add	r2, sp, #4
 3028 0e56 FFF7FEFF 		bl	operacion
 3029              	.LVL254:
 720:.\Protocolo.c **** 						for(x=0;x<=17;x++){									
 3030              		.loc 1 720 0
 3031 0e5a 0023     		movs	r3, #0
 3032 0e5c 2B60     		str	r3, [r5]
 721:.\Protocolo.c **** 							write_psoc1(val,msn_tventas[x]);				//Total de ventas
ARM GAS  C:\Users\RECEPC~1\AppData\Local\Temp\ccNG63cQ.s 			page 71


 3033              		.loc 1 721 0
 3034 0e5e DFF82081 		ldr	r8, .L548+40
 720:.\Protocolo.c **** 						for(x=0;x<=17;x++){									
 3035              		.loc 1 720 0
 3036 0e62 08E0     		b	.L216
 3037              	.L217:
 3038              		.loc 1 721 0 discriminator 2
 3039 0e64 4344     		add	r3, r3, r8
 3040 0e66 2046     		mov	r0, r4
 3041 0e68 93F83810 		ldrb	r1, [r3, #56]	@ zero_extendqisi2
 3042 0e6c FFF7FEFF 		bl	write_psoc1
 3043              	.LVL255:
 720:.\Protocolo.c **** 						for(x=0;x<=17;x++){									
 3044              		.loc 1 720 0 discriminator 2
 3045 0e70 2B68     		ldr	r3, [r5]
 3046 0e72 0133     		adds	r3, r3, #1
 3047 0e74 2B60     		str	r3, [r5]
 3048              	.L216:
 720:.\Protocolo.c **** 						for(x=0;x<=17;x++){									
 3049              		.loc 1 720 0 is_stmt 0 discriminator 1
 3050 0e76 2B68     		ldr	r3, [r5]
 3051 0e78 112B     		cmp	r3, #17
 3052 0e7a F3D9     		bls	.L217
 722:.\Protocolo.c **** 						}
 723:.\Protocolo.c **** 						print_valor(resultado,val);							
 3053              		.loc 1 723 0 is_stmt 1
 3054 0e7c 3848     		ldr	r0, .L548+8
 3055 0e7e 2146     		mov	r1, r4
 3056 0e80 FFF7FEFF 		bl	print_valor
 3057              	.LVL256:
 724:.\Protocolo.c **** 						if(dir==lado.a.dir){
 3058              		.loc 1 724 0
 3059 0e84 344B     		ldr	r3, .L548
 3060 0e86 1B78     		ldrb	r3, [r3]	@ zero_extendqisi2
 3061 0e88 B342     		cmp	r3, r6
 3062 0e8a 0AD1     		bne	.L218
 725:.\Protocolo.c **** 						    write_eeprom(1096,corte);
 3063              		.loc 1 725 0
 3064 0e8c 4FF48960 		mov	r0, #1096
 3065 0e90 09A9     		add	r1, sp, #36
 3066 0e92 FFF7FEFF 		bl	write_eeprom
 3067              	.LVL257:
 726:.\Protocolo.c **** 						    write_eeprom(1038,resultado);
 3068              		.loc 1 726 0
 3069 0e96 40F20E40 		movw	r0, #1038
 3070 0e9a 3149     		ldr	r1, .L548+8
 3071 0e9c FFF7FEFF 		bl	write_eeprom
 3072              	.LVL258:
 3073 0ea0 09E0     		b	.L205
 3074              	.L218:
 727:.\Protocolo.c **** 					    }
 728:.\Protocolo.c **** 					    else{
 729:.\Protocolo.c **** 						    write_eeprom(1054,corte);
 3075              		.loc 1 729 0
 3076 0ea2 40F21E40 		movw	r0, #1054
 3077 0ea6 09A9     		add	r1, sp, #36
 3078 0ea8 FFF7FEFF 		bl	write_eeprom
ARM GAS  C:\Users\RECEPC~1\AppData\Local\Temp\ccNG63cQ.s 			page 72


 3079              	.LVL259:
 730:.\Protocolo.c **** 						    write_eeprom(1081,resultado);
 3080              		.loc 1 730 0
 3081 0eac 40F23940 		movw	r0, #1081
 3082 0eb0 2B49     		ldr	r1, .L548+8
 3083 0eb2 FFF7FEFF 		bl	write_eeprom
 3084              	.LVL260:
 3085              	.L205:
 556:.\Protocolo.c **** 				for(y=0;y<=30;y+=30){
 3086              		.loc 1 556 0
 3087 0eb6 3B68     		ldr	r3, [r7]
 3088 0eb8 1E33     		adds	r3, r3, #30
 3089 0eba 3B60     		str	r3, [r7]
 3090              	.L146:
 556:.\Protocolo.c **** 				for(y=0;y<=30;y+=30){
 3091              		.loc 1 556 0 is_stmt 0 discriminator 1
 3092 0ebc 3A68     		ldr	r2, [r7]
 3093 0ebe 1E2A     		cmp	r2, #30
 3094 0ec0 7FF679AC 		bls	.L219
 731:.\Protocolo.c **** 						}					
 732:.\Protocolo.c **** 					}
 733:.\Protocolo.c **** 				}
 734:.\Protocolo.c **** 				Surtidor_ClearRxBuffer();
 3095              		.loc 1 734 0 is_stmt 1
 3096 0ec4 FFF7FEFF 		bl	Surtidor_ClearRxBuffer
 3097              	.LVL261:
 735:.\Protocolo.c **** 				return 2;					
 3098              		.loc 1 735 0
 3099 0ec8 0220     		movs	r0, #2
 3100 0eca 01F0FBBE 		b	.L73
 3101              	.L70:
 736:.\Protocolo.c **** 			}			
 737:.\Protocolo.c **** 			else{
 738:.\Protocolo.c **** 				return 0;
 739:.\Protocolo.c **** 			}
 740:.\Protocolo.c **** 		break;
 741:.\Protocolo.c **** 		
 742:.\Protocolo.c **** 		case 94:
 743:.\Protocolo.c **** 			if((Surtidor_rxBuffer[0]==0xFF)&&(Surtidor_rxBuffer[1]==0xF6)&&(Surtidor_rxBuffer[93]==0xF0)&&(S
 3102              		.loc 1 743 0
 3103 0ece 284B     		ldr	r3, .L548+24
 3104 0ed0 1B78     		ldrb	r3, [r3]	@ zero_extendqisi2
 3105 0ed2 DBB2     		uxtb	r3, r3
 3106 0ed4 FF2B     		cmp	r3, #255
 3107 0ed6 41F0D686 		bne	.L524
 3108              		.loc 1 743 0 is_stmt 0 discriminator 1
 3109 0eda 254B     		ldr	r3, .L548+24
 3110 0edc 5B78     		ldrb	r3, [r3, #1]	@ zero_extendqisi2
 3111 0ede DBB2     		uxtb	r3, r3
 3112 0ee0 F62B     		cmp	r3, #246
 3113 0ee2 41F0D286 		bne	.L525
 3114 0ee6 224B     		ldr	r3, .L548+24
 3115 0ee8 93F85D30 		ldrb	r3, [r3, #93]	@ zero_extendqisi2
 3116 0eec DBB2     		uxtb	r3, r3
 3117 0eee F02B     		cmp	r3, #240
 3118 0ef0 41F0CD86 		bne	.L526
 3119 0ef4 1E4B     		ldr	r3, .L548+24
ARM GAS  C:\Users\RECEPC~1\AppData\Local\Temp\ccNG63cQ.s 			page 73


 3120 0ef6 DB78     		ldrb	r3, [r3, #3]	@ zero_extendqisi2
 3121 0ef8 DBB2     		uxtb	r3, r3
 3122 0efa F92B     		cmp	r3, #249
 3123 0efc 41F0C986 		bne	.L527
 744:.\Protocolo.c **** 				for(y=0;y<=60;y+=30){
 3124              		.loc 1 744 0 is_stmt 1
 3125 0f00 0022     		movs	r2, #0
 3126 0f02 1C4B     		ldr	r3, .L548+28
 3127 0f04 1A60     		str	r2, [r3]
 3128 0f06 1F46     		mov	r7, r3
 745:.\Protocolo.c **** 					rventa.manguera=(Surtidor_rxBuffer[y+2]&0x0F)+1;
 746:.\Protocolo.c **** 					for(x=0;x<=7;x++){
 3129              		.loc 1 746 0
 3130 0f08 1B4D     		ldr	r5, .L548+32
 744:.\Protocolo.c **** 				for(y=0;y<=60;y+=30){
 3131              		.loc 1 744 0
 3132 0f0a 95E3     		b	.L220
 3133              	.L293:
 745:.\Protocolo.c **** 					rventa.manguera=(Surtidor_rxBuffer[y+2]&0x0F)+1;
 3134              		.loc 1 745 0
 3135 0f0c 931C     		adds	r3, r2, #2
 3136 0f0e 1849     		ldr	r1, .L548+24
 3137 0f10 C85C     		ldrb	r0, [r1, r3]	@ zero_extendqisi2
 3138 0f12 00F00F00 		and	r0, r0, #15
 3139 0f16 0130     		adds	r0, r0, #1
 3140 0f18 124B     		ldr	r3, .L548+12
 3141 0f1a 83F8E000 		strb	r0, [r3, #224]
 3142              		.loc 1 746 0
 3143 0f1e 0023     		movs	r3, #0
 3144 0f20 2B60     		str	r3, [r5]
 747:.\Protocolo.c **** 						rventa.tvolumen[x]=(Surtidor_rxBuffer[y+4+x]&0x0F);						
 3145              		.loc 1 747 0
 3146 0f22 8846     		mov	r8, r1
 3147 0f24 DFF83CC0 		ldr	ip, .L548+12
 746:.\Protocolo.c **** 					for(x=0;x<=7;x++){
 3148              		.loc 1 746 0
 3149 0f28 0BE0     		b	.L221
 3150              	.L222:
 3151              		.loc 1 747 0 discriminator 2
 3152 0f2a D118     		adds	r1, r2, r3
 3153 0f2c 0431     		adds	r1, r1, #4
 3154 0f2e 18F801E0 		ldrb	lr, [r8, r1]	@ zero_extendqisi2
 3155 0f32 0CEB0301 		add	r1, ip, r3
 3156 0f36 0EF00F0E 		and	lr, lr, #15
 3157 0f3a 81F8BDE0 		strb	lr, [r1, #189]
 746:.\Protocolo.c **** 					for(x=0;x<=7;x++){
 3158              		.loc 1 746 0 discriminator 2
 3159 0f3e 0133     		adds	r3, r3, #1
 3160 0f40 2B60     		str	r3, [r5]
 3161              	.L221:
 746:.\Protocolo.c **** 					for(x=0;x<=7;x++){
 3162              		.loc 1 746 0 is_stmt 0 discriminator 1
 3163 0f42 2B68     		ldr	r3, [r5]
 3164 0f44 072B     		cmp	r3, #7
 3165 0f46 F0D9     		bls	.L222
 748:.\Protocolo.c **** 					}
 749:.\Protocolo.c **** 					for(x=0;x<=7;x++){
ARM GAS  C:\Users\RECEPC~1\AppData\Local\Temp\ccNG63cQ.s 			page 74


 3166              		.loc 1 749 0 is_stmt 1
 3167 0f48 0023     		movs	r3, #0
 3168 0f4a 2B60     		str	r3, [r5]
 750:.\Protocolo.c **** 						rventa.tdinero[x]=(Surtidor_rxBuffer[y+13+x]&0x0F);					
 3169              		.loc 1 750 0
 3170 0f4c DFF82080 		ldr	r8, .L548+24
 3171 0f50 DFF810C0 		ldr	ip, .L548+12
 749:.\Protocolo.c **** 					for(x=0;x<=7;x++){
 3172              		.loc 1 749 0
 3173 0f54 22E0     		b	.L223
 3174              	.L549:
 3175 0f56 00BF     		.align	2
 3176              	.L548:
 3177 0f58 00000000 		.word	lado
 3178 0f5c 00000000 		.word	z
 3179 0f60 00000000 		.word	resultado
 3180 0f64 00000000 		.word	rventa
 3181 0f68 00000000 		.word	kero
 3182 0f6c 00000000 		.word	kero2
 3183 0f70 00000000 		.word	Surtidor_rxBuffer
 3184 0f74 00000000 		.word	y
 3185 0f78 00000000 		.word	x
 3186 0f7c 00000000 		.word	buffer_i2c
 3187 0f80 00000000 		.word	.LANCHOR1
 3188              	.L224:
 3189              		.loc 1 750 0 discriminator 2
 3190 0f84 D118     		adds	r1, r2, r3
 3191 0f86 0D31     		adds	r1, r1, #13
 3192 0f88 18F801E0 		ldrb	lr, [r8, r1]	@ zero_extendqisi2
 3193 0f8c 0CEB0301 		add	r1, ip, r3
 3194 0f90 0EF00F0E 		and	lr, lr, #15
 3195 0f94 81F8CAE0 		strb	lr, [r1, #202]
 749:.\Protocolo.c **** 					for(x=0;x<=7;x++){
 3196              		.loc 1 749 0 discriminator 2
 3197 0f98 0133     		adds	r3, r3, #1
 3198 0f9a 2B60     		str	r3, [r5]
 3199              	.L223:
 749:.\Protocolo.c **** 					for(x=0;x<=7;x++){
 3200              		.loc 1 749 0 is_stmt 0 discriminator 1
 3201 0f9c 2B68     		ldr	r3, [r5]
 3202 0f9e 072B     		cmp	r3, #7
 3203 0fa0 F0D9     		bls	.L224
 751:.\Protocolo.c **** 					}
 752:.\Protocolo.c **** 					for(z=0;z<=7;z++){
 3204              		.loc 1 752 0 is_stmt 1
 3205 0fa2 0022     		movs	r2, #0
 3206 0fa4 AB4B     		ldr	r3, .L550
 3207 0fa6 1A60     		str	r2, [r3]
 3208 0fa8 1946     		mov	r1, r3
 753:.\Protocolo.c **** 						corte[z+1]=rventa.tvolumen[z];
 3209              		.loc 1 753 0
 3210 0faa DFF8BCC2 		ldr	ip, .L550+20
 752:.\Protocolo.c **** 					for(z=0;z<=7;z++){
 3211              		.loc 1 752 0
 3212 0fae 08E0     		b	.L225
 3213              	.L226:
 3214              		.loc 1 753 0 discriminator 2
ARM GAS  C:\Users\RECEPC~1\AppData\Local\Temp\ccNG63cQ.s 			page 75


 3215 0fb0 5A1C     		adds	r2, r3, #1
 3216 0fb2 6344     		add	r3, r3, ip
 3217 0fb4 93F8BDE0 		ldrb	lr, [r3, #189]	@ zero_extendqisi2
 3218 0fb8 10AB     		add	r3, sp, #64
 3219 0fba 1344     		add	r3, r3, r2
 3220 0fbc 03F81CEC 		strb	lr, [r3, #-28]
 752:.\Protocolo.c **** 					for(z=0;z<=7;z++){
 3221              		.loc 1 752 0 discriminator 2
 3222 0fc0 0A60     		str	r2, [r1]
 3223              	.L225:
 752:.\Protocolo.c **** 					for(z=0;z<=7;z++){
 3224              		.loc 1 752 0 is_stmt 0 discriminator 1
 3225 0fc2 0B68     		ldr	r3, [r1]
 3226 0fc4 072B     		cmp	r3, #7
 3227 0fc6 F3D9     		bls	.L226
 754:.\Protocolo.c **** 					}
 755:.\Protocolo.c **** 					for(z=9;z<=16;z++){
 3228              		.loc 1 755 0 is_stmt 1
 3229 0fc8 0922     		movs	r2, #9
 3230 0fca A24B     		ldr	r3, .L550
 3231 0fcc 1A60     		str	r2, [r3]
 3232 0fce 1A46     		mov	r2, r3
 756:.\Protocolo.c **** 						corte[z]=rventa.tdinero[z-9];
 3233              		.loc 1 756 0
 3234 0fd0 DFF894C2 		ldr	ip, .L550+20
 755:.\Protocolo.c **** 					for(z=9;z<=16;z++){
 3235              		.loc 1 755 0
 3236 0fd4 09E0     		b	.L227
 3237              	.L228:
 3238              		.loc 1 756 0 discriminator 2
 3239 0fd6 0CEB0301 		add	r1, ip, r3
 3240 0fda 91F8C1E0 		ldrb	lr, [r1, #193]	@ zero_extendqisi2
 3241 0fde 10A9     		add	r1, sp, #64
 3242 0fe0 1944     		add	r1, r1, r3
 3243 0fe2 01F81CEC 		strb	lr, [r1, #-28]
 755:.\Protocolo.c **** 					for(z=9;z<=16;z++){
 3244              		.loc 1 755 0 discriminator 2
 3245 0fe6 0133     		adds	r3, r3, #1
 3246 0fe8 1360     		str	r3, [r2]
 3247              	.L227:
 755:.\Protocolo.c **** 					for(z=9;z<=16;z++){
 3248              		.loc 1 755 0 is_stmt 0 discriminator 1
 3249 0fea 1368     		ldr	r3, [r2]
 3250 0fec 102B     		cmp	r3, #16
 3251 0fee F2D9     		bls	.L228
 757:.\Protocolo.c **** 					}
 758:.\Protocolo.c **** 					corte[0]=16;		
 3252              		.loc 1 758 0 is_stmt 1
 3253 0ff0 1023     		movs	r3, #16
 3254 0ff2 8DF82430 		strb	r3, [sp, #36]
 759:.\Protocolo.c **** 					if(((rventa.manguera==(corriente&0x0F))&&(dir==lado.a.dir))||((rventa.manguera==(corriente2&0x
 3255              		.loc 1 759 0
 3256 0ff6 984B     		ldr	r3, .L550+4
 3257 0ff8 1B78     		ldrb	r3, [r3]	@ zero_extendqisi2
 3258 0ffa 03F00F03 		and	r3, r3, #15
 3259 0ffe 8342     		cmp	r3, r0
 3260 1000 03D1     		bne	.L229
ARM GAS  C:\Users\RECEPC~1\AppData\Local\Temp\ccNG63cQ.s 			page 76


 3261              		.loc 1 759 0 is_stmt 0 discriminator 1
 3262 1002 964B     		ldr	r3, .L550+8
 3263 1004 1B78     		ldrb	r3, [r3]	@ zero_extendqisi2
 3264 1006 B342     		cmp	r3, r6
 3265 1008 0BD0     		beq	.L230
 3266              	.L229:
 3267              		.loc 1 759 0 discriminator 2
 3268 100a 954B     		ldr	r3, .L550+12
 3269 100c 1B78     		ldrb	r3, [r3]	@ zero_extendqisi2
 3270 100e 03F00F03 		and	r3, r3, #15
 3271 1012 9842     		cmp	r0, r3
 3272 1014 40F0A880 		bne	.L231
 3273              		.loc 1 759 0 discriminator 1
 3274 1018 904B     		ldr	r3, .L550+8
 3275 101a 1B79     		ldrb	r3, [r3, #4]	@ zero_extendqisi2
 3276 101c B342     		cmp	r3, r6
 3277 101e 40F0A380 		bne	.L231
 3278              	.L230:
 760:.\Protocolo.c **** 						for(x=0;x<=16;x++){									
 3279              		.loc 1 760 0 is_stmt 1
 3280 1022 0023     		movs	r3, #0
 3281 1024 2B60     		str	r3, [r5]
 761:.\Protocolo.c **** 							write_psoc1(val,msn_tc[x]);
 3282              		.loc 1 761 0
 3283 1026 DFF84C82 		ldr	r8, .L550+32
 760:.\Protocolo.c **** 						for(x=0;x<=16;x++){									
 3284              		.loc 1 760 0
 3285 102a 07E0     		b	.L232
 3286              	.L233:
 3287              		.loc 1 761 0 discriminator 2
 3288 102c 2046     		mov	r0, r4
 3289 102e 18F80310 		ldrb	r1, [r8, r3]	@ zero_extendqisi2
 3290 1032 FFF7FEFF 		bl	write_psoc1
 3291              	.LVL262:
 760:.\Protocolo.c **** 						for(x=0;x<=16;x++){									
 3292              		.loc 1 760 0 discriminator 2
 3293 1036 2B68     		ldr	r3, [r5]
 3294 1038 0133     		adds	r3, r3, #1
 3295 103a 2B60     		str	r3, [r5]
 3296              	.L232:
 760:.\Protocolo.c **** 						for(x=0;x<=16;x++){									
 3297              		.loc 1 760 0 is_stmt 0 discriminator 1
 3298 103c 2B68     		ldr	r3, [r5]
 3299 103e 102B     		cmp	r3, #16
 3300 1040 F4D9     		bls	.L233
 762:.\Protocolo.c **** 						}
 763:.\Protocolo.c **** 						write_psoc1(val,10);
 3301              		.loc 1 763 0 is_stmt 1
 3302 1042 2046     		mov	r0, r4
 3303 1044 0A21     		movs	r1, #10
 3304 1046 FFF7FEFF 		bl	write_psoc1
 3305              	.LVL263:
 764:.\Protocolo.c **** 						for(x=0;x<=14;x++){									
 3306              		.loc 1 764 0
 3307 104a 0023     		movs	r3, #0
 3308 104c 2B60     		str	r3, [r5]
 765:.\Protocolo.c **** 							write_psoc1(val,msn_lecact[x]);				//LECTURA ACTUAL
ARM GAS  C:\Users\RECEPC~1\AppData\Local\Temp\ccNG63cQ.s 			page 77


 3309              		.loc 1 765 0
 3310 104e DFF82482 		ldr	r8, .L550+32
 764:.\Protocolo.c **** 						for(x=0;x<=14;x++){									
 3311              		.loc 1 764 0
 3312 1052 07E0     		b	.L234
 3313              	.L235:
 3314              		.loc 1 765 0 discriminator 2
 3315 1054 4344     		add	r3, r3, r8
 3316 1056 2046     		mov	r0, r4
 3317 1058 197D     		ldrb	r1, [r3, #20]	@ zero_extendqisi2
 3318 105a FFF7FEFF 		bl	write_psoc1
 3319              	.LVL264:
 764:.\Protocolo.c **** 						for(x=0;x<=14;x++){									
 3320              		.loc 1 764 0 discriminator 2
 3321 105e 2B68     		ldr	r3, [r5]
 3322 1060 0133     		adds	r3, r3, #1
 3323 1062 2B60     		str	r3, [r5]
 3324              	.L234:
 764:.\Protocolo.c **** 						for(x=0;x<=14;x++){									
 3325              		.loc 1 764 0 is_stmt 0 discriminator 1
 3326 1064 2B68     		ldr	r3, [r5]
 3327 1066 0E2B     		cmp	r3, #14
 3328 1068 F4D9     		bls	.L235
 766:.\Protocolo.c **** 						}
 767:.\Protocolo.c **** 						write_psoc1(val,10);
 3329              		.loc 1 767 0 is_stmt 1
 3330 106a 2046     		mov	r0, r4
 3331 106c 0A21     		movs	r1, #10
 3332 106e FFF7FEFF 		bl	write_psoc1
 3333              	.LVL265:
 768:.\Protocolo.c **** 						print_totalesac(8,val);	
 3334              		.loc 1 768 0
 3335 1072 0820     		movs	r0, #8
 3336 1074 2146     		mov	r1, r4
 3337 1076 FFF7FEFF 		bl	print_totalesac
 3338              	.LVL266:
 769:.\Protocolo.c **** 						for(x=0;x<=16;x++){												
 3339              		.loc 1 769 0
 3340 107a 0023     		movs	r3, #0
 3341 107c 2B60     		str	r3, [r5]
 770:.\Protocolo.c **** 							write_psoc1(val,msn_lecaan[x]);				//LECTURA ANTERIOR
 3342              		.loc 1 770 0
 3343 107e DFF8F481 		ldr	r8, .L550+32
 769:.\Protocolo.c **** 						for(x=0;x<=16;x++){												
 3344              		.loc 1 769 0
 3345 1082 08E0     		b	.L236
 3346              	.L237:
 3347              		.loc 1 770 0 discriminator 2
 3348 1084 4344     		add	r3, r3, r8
 3349 1086 2046     		mov	r0, r4
 3350 1088 93F82410 		ldrb	r1, [r3, #36]	@ zero_extendqisi2
 3351 108c FFF7FEFF 		bl	write_psoc1
 3352              	.LVL267:
 769:.\Protocolo.c **** 						for(x=0;x<=16;x++){												
 3353              		.loc 1 769 0 discriminator 2
 3354 1090 2B68     		ldr	r3, [r5]
 3355 1092 0133     		adds	r3, r3, #1
ARM GAS  C:\Users\RECEPC~1\AppData\Local\Temp\ccNG63cQ.s 			page 78


 3356 1094 2B60     		str	r3, [r5]
 3357              	.L236:
 769:.\Protocolo.c **** 						for(x=0;x<=16;x++){												
 3358              		.loc 1 769 0 is_stmt 0 discriminator 1
 3359 1096 2B68     		ldr	r3, [r5]
 3360 1098 102B     		cmp	r3, #16
 3361 109a F3D9     		bls	.L237
 771:.\Protocolo.c **** 						}
 772:.\Protocolo.c **** 						write_psoc1(val,10);
 3362              		.loc 1 772 0 is_stmt 1
 3363 109c 2046     		mov	r0, r4
 3364 109e 0A21     		movs	r1, #10
 3365 10a0 FFF7FEFF 		bl	write_psoc1
 3366              	.LVL268:
 773:.\Protocolo.c **** 						if(dir==lado.a.dir){
 3367              		.loc 1 773 0
 3368 10a4 6D4B     		ldr	r3, .L550+8
 3369 10a6 1B78     		ldrb	r3, [r3]	@ zero_extendqisi2
 3370 10a8 B342     		cmp	r3, r6
 3371 10aa 04D1     		bne	.L238
 774:.\Protocolo.c **** 							leer_eeprom(192,25);
 3372              		.loc 1 774 0
 3373 10ac C020     		movs	r0, #192
 3374 10ae 1921     		movs	r1, #25
 3375 10b0 FFF7FEFF 		bl	leer_eeprom
 3376              	.LVL269:
 3377 10b4 04E0     		b	.L239
 3378              	.L238:
 775:.\Protocolo.c **** 						}
 776:.\Protocolo.c **** 						else{
 777:.\Protocolo.c **** 							leer_eeprom(281,25);
 3379              		.loc 1 777 0
 3380 10b6 40F21910 		movw	r0, #281
 3381 10ba 1921     		movs	r1, #25
 3382 10bc FFF7FEFF 		bl	leer_eeprom
 3383              	.LVL270:
 3384              	.L239:
 778:.\Protocolo.c **** 						}
 779:.\Protocolo.c **** 						print_totales(val);
 3385              		.loc 1 779 0
 3386 10c0 2046     		mov	r0, r4
 3387 10c2 FFF7FEFF 		bl	print_totales
 3388              	.LVL271:
 780:.\Protocolo.c **** 						for(z=1;z<=8;z++){
 3389              		.loc 1 780 0
 3390 10c6 0122     		movs	r2, #1
 3391 10c8 624B     		ldr	r3, .L550
 3392 10ca 1A60     		str	r2, [r3]
 3393 10cc 1946     		mov	r1, r3
 781:.\Protocolo.c **** 							minuendo[z]=rventa.tdinero[z-1];
 3394              		.loc 1 781 0
 3395 10ce DFF898C1 		ldr	ip, .L550+20
 782:.\Protocolo.c **** 							sustraendo[z]=buffer_i2c[z+8];
 3396              		.loc 1 782 0
 3397 10d2 DFF8A4E1 		ldr	lr, .L550+36
 780:.\Protocolo.c **** 						for(z=1;z<=8;z++){
 3398              		.loc 1 780 0
ARM GAS  C:\Users\RECEPC~1\AppData\Local\Temp\ccNG63cQ.s 			page 79


 3399 10d6 0FE0     		b	.L240
 3400              	.L241:
 781:.\Protocolo.c **** 							minuendo[z]=rventa.tdinero[z-1];
 3401              		.loc 1 781 0 discriminator 2
 3402 10d8 0CEB0302 		add	r2, ip, r3
 3403 10dc 92F8C900 		ldrb	r0, [r2, #201]	@ zero_extendqisi2
 3404 10e0 10AA     		add	r2, sp, #64
 3405 10e2 1A44     		add	r2, r2, r3
 3406 10e4 02F82C0C 		strb	r0, [r2, #-44]
 3407              		.loc 1 782 0 discriminator 2
 3408 10e8 03F10800 		add	r0, r3, #8
 3409 10ec 1EF80000 		ldrb	r0, [lr, r0]	@ zero_extendqisi2
 3410 10f0 02F83C0C 		strb	r0, [r2, #-60]
 780:.\Protocolo.c **** 						for(z=1;z<=8;z++){
 3411              		.loc 1 780 0 discriminator 2
 3412 10f4 0133     		adds	r3, r3, #1
 3413 10f6 0B60     		str	r3, [r1]
 3414              	.L240:
 780:.\Protocolo.c **** 						for(z=1;z<=8;z++){
 3415              		.loc 1 780 0 is_stmt 0 discriminator 1
 3416 10f8 0B68     		ldr	r3, [r1]
 3417 10fa 082B     		cmp	r3, #8
 3418 10fc ECD9     		bls	.L241
 783:.\Protocolo.c **** 						}
 784:.\Protocolo.c **** 						minuendo[0]=8;
 3419              		.loc 1 784 0 is_stmt 1
 3420 10fe 10A9     		add	r1, sp, #64
 3421 1100 0823     		movs	r3, #8
 3422 1102 01F82C3D 		strb	r3, [r1, #-44]!
 785:.\Protocolo.c **** 						operacion(2,minuendo,sustraendo);
 3423              		.loc 1 785 0
 3424 1106 0220     		movs	r0, #2
 3425 1108 01AA     		add	r2, sp, #4
 3426 110a FFF7FEFF 		bl	operacion
 3427              	.LVL272:
 786:.\Protocolo.c **** 						for(x=0;x<=17;x++){									
 3428              		.loc 1 786 0
 3429 110e 0023     		movs	r3, #0
 3430 1110 2B60     		str	r3, [r5]
 787:.\Protocolo.c **** 							write_psoc1(val,msn_tventas[x]);				//Total de ventas
 3431              		.loc 1 787 0
 3432 1112 DFF86081 		ldr	r8, .L550+32
 786:.\Protocolo.c **** 						for(x=0;x<=17;x++){									
 3433              		.loc 1 786 0
 3434 1116 08E0     		b	.L242
 3435              	.L243:
 3436              		.loc 1 787 0 discriminator 2
 3437 1118 4344     		add	r3, r3, r8
 3438 111a 2046     		mov	r0, r4
 3439 111c 93F83810 		ldrb	r1, [r3, #56]	@ zero_extendqisi2
 3440 1120 FFF7FEFF 		bl	write_psoc1
 3441              	.LVL273:
 786:.\Protocolo.c **** 						for(x=0;x<=17;x++){									
 3442              		.loc 1 786 0 discriminator 2
 3443 1124 2B68     		ldr	r3, [r5]
 3444 1126 0133     		adds	r3, r3, #1
 3445 1128 2B60     		str	r3, [r5]
ARM GAS  C:\Users\RECEPC~1\AppData\Local\Temp\ccNG63cQ.s 			page 80


 3446              	.L242:
 786:.\Protocolo.c **** 						for(x=0;x<=17;x++){									
 3447              		.loc 1 786 0 is_stmt 0 discriminator 1
 3448 112a 2B68     		ldr	r3, [r5]
 3449 112c 112B     		cmp	r3, #17
 3450 112e F3D9     		bls	.L243
 788:.\Protocolo.c **** 						}
 789:.\Protocolo.c **** 						print_valor(resultado,val);
 3451              		.loc 1 789 0 is_stmt 1
 3452 1130 4C48     		ldr	r0, .L550+16
 3453 1132 2146     		mov	r1, r4
 3454 1134 FFF7FEFF 		bl	print_valor
 3455              	.LVL274:
 790:.\Protocolo.c **** 						if(dir==lado.a.dir){
 3456              		.loc 1 790 0
 3457 1138 484B     		ldr	r3, .L550+8
 3458 113a 1B78     		ldrb	r3, [r3]	@ zero_extendqisi2
 3459 113c B342     		cmp	r3, r6
 3460 113e 09D1     		bne	.L244
 791:.\Protocolo.c **** 							write_eeprom(192,corte);	
 3461              		.loc 1 791 0
 3462 1140 C020     		movs	r0, #192
 3463 1142 09A9     		add	r1, sp, #36
 3464 1144 FFF7FEFF 		bl	write_eeprom
 3465              	.LVL275:
 792:.\Protocolo.c **** 							write_eeprom(512,resultado);
 3466              		.loc 1 792 0
 3467 1148 4FF40070 		mov	r0, #512
 3468 114c 4549     		ldr	r1, .L550+16
 3469 114e FFF7FEFF 		bl	write_eeprom
 3470              	.LVL276:
 3471 1152 09E0     		b	.L231
 3472              	.L244:
 793:.\Protocolo.c **** 						}
 794:.\Protocolo.c **** 						else{
 795:.\Protocolo.c **** 							write_eeprom(281,corte);
 3473              		.loc 1 795 0
 3474 1154 40F21910 		movw	r0, #281
 3475 1158 09A9     		add	r1, sp, #36
 3476 115a FFF7FEFF 		bl	write_eeprom
 3477              	.LVL277:
 796:.\Protocolo.c **** 							write_eeprom(551,resultado);
 3478              		.loc 1 796 0
 3479 115e 40F22720 		movw	r0, #551
 3480 1162 4049     		ldr	r1, .L550+16
 3481 1164 FFF7FEFF 		bl	write_eeprom
 3482              	.LVL278:
 3483              	.L231:
 797:.\Protocolo.c **** 						}
 798:.\Protocolo.c **** 					}
 799:.\Protocolo.c **** 					if(((rventa.manguera==(diesel&0x0F))&&(dir==lado.a.dir))||((rventa.manguera==(diesel2&0x0F))&&
 3484              		.loc 1 799 0
 3485 1168 3F4B     		ldr	r3, .L550+20
 3486 116a 93F8E030 		ldrb	r3, [r3, #224]	@ zero_extendqisi2
 3487 116e 3F4A     		ldr	r2, .L550+24
 3488 1170 1278     		ldrb	r2, [r2]	@ zero_extendqisi2
 3489 1172 02F00F02 		and	r2, r2, #15
ARM GAS  C:\Users\RECEPC~1\AppData\Local\Temp\ccNG63cQ.s 			page 81


 3490 1176 9A42     		cmp	r2, r3
 3491 1178 03D1     		bne	.L245
 3492              		.loc 1 799 0 is_stmt 0 discriminator 1
 3493 117a 384A     		ldr	r2, .L550+8
 3494 117c 1278     		ldrb	r2, [r2]	@ zero_extendqisi2
 3495 117e B242     		cmp	r2, r6
 3496 1180 0BD0     		beq	.L246
 3497              	.L245:
 3498              		.loc 1 799 0 discriminator 2
 3499 1182 3B4A     		ldr	r2, .L550+28
 3500 1184 1278     		ldrb	r2, [r2]	@ zero_extendqisi2
 3501 1186 02F00F02 		and	r2, r2, #15
 3502 118a 9342     		cmp	r3, r2
 3503 118c 40F0BE80 		bne	.L247
 3504              		.loc 1 799 0 discriminator 1
 3505 1190 324B     		ldr	r3, .L550+8
 3506 1192 1B79     		ldrb	r3, [r3, #4]	@ zero_extendqisi2
 3507 1194 B342     		cmp	r3, r6
 3508 1196 40F0B980 		bne	.L247
 3509              	.L246:
 800:.\Protocolo.c **** 						for(x=0;x<=13;x++){									
 3510              		.loc 1 800 0 is_stmt 1
 3511 119a 0023     		movs	r3, #0
 3512 119c 2B60     		str	r3, [r5]
 801:.\Protocolo.c **** 							write_psoc1(val,msn_td[x]);
 3513              		.loc 1 801 0
 3514 119e DFF8D480 		ldr	r8, .L550+32
 800:.\Protocolo.c **** 						for(x=0;x<=13;x++){									
 3515              		.loc 1 800 0
 3516 11a2 08E0     		b	.L248
 3517              	.L249:
 3518              		.loc 1 801 0 discriminator 2
 3519 11a4 4344     		add	r3, r3, r8
 3520 11a6 2046     		mov	r0, r4
 3521 11a8 93F84C10 		ldrb	r1, [r3, #76]	@ zero_extendqisi2
 3522 11ac FFF7FEFF 		bl	write_psoc1
 3523              	.LVL279:
 800:.\Protocolo.c **** 						for(x=0;x<=13;x++){									
 3524              		.loc 1 800 0 discriminator 2
 3525 11b0 2B68     		ldr	r3, [r5]
 3526 11b2 0133     		adds	r3, r3, #1
 3527 11b4 2B60     		str	r3, [r5]
 3528              	.L248:
 800:.\Protocolo.c **** 						for(x=0;x<=13;x++){									
 3529              		.loc 1 800 0 is_stmt 0 discriminator 1
 3530 11b6 2B68     		ldr	r3, [r5]
 3531 11b8 0D2B     		cmp	r3, #13
 3532 11ba F3D9     		bls	.L249
 802:.\Protocolo.c **** 						}
 803:.\Protocolo.c **** 						write_psoc1(val,10);
 3533              		.loc 1 803 0 is_stmt 1
 3534 11bc 2046     		mov	r0, r4
 3535 11be 0A21     		movs	r1, #10
 3536 11c0 FFF7FEFF 		bl	write_psoc1
 3537              	.LVL280:
 804:.\Protocolo.c **** 						for(x=0;x<=14;x++){									
 3538              		.loc 1 804 0
ARM GAS  C:\Users\RECEPC~1\AppData\Local\Temp\ccNG63cQ.s 			page 82


 3539 11c4 0023     		movs	r3, #0
 3540 11c6 2B60     		str	r3, [r5]
 805:.\Protocolo.c **** 							write_psoc1(val,msn_lecact[x]);				//LECTURA ACTUAL
 3541              		.loc 1 805 0
 3542 11c8 DFF8A880 		ldr	r8, .L550+32
 804:.\Protocolo.c **** 						for(x=0;x<=14;x++){									
 3543              		.loc 1 804 0
 3544 11cc 07E0     		b	.L250
 3545              	.L251:
 3546              		.loc 1 805 0 discriminator 2
 3547 11ce 4344     		add	r3, r3, r8
 3548 11d0 2046     		mov	r0, r4
 3549 11d2 197D     		ldrb	r1, [r3, #20]	@ zero_extendqisi2
 3550 11d4 FFF7FEFF 		bl	write_psoc1
 3551              	.LVL281:
 804:.\Protocolo.c **** 						for(x=0;x<=14;x++){									
 3552              		.loc 1 804 0 discriminator 2
 3553 11d8 2B68     		ldr	r3, [r5]
 3554 11da 0133     		adds	r3, r3, #1
 3555 11dc 2B60     		str	r3, [r5]
 3556              	.L250:
 804:.\Protocolo.c **** 						for(x=0;x<=14;x++){									
 3557              		.loc 1 804 0 is_stmt 0 discriminator 1
 3558 11de 2B68     		ldr	r3, [r5]
 3559 11e0 0E2B     		cmp	r3, #14
 3560 11e2 F4D9     		bls	.L251
 806:.\Protocolo.c **** 						}
 807:.\Protocolo.c **** 						write_psoc1(val,10);
 3561              		.loc 1 807 0 is_stmt 1
 3562 11e4 2046     		mov	r0, r4
 3563 11e6 0A21     		movs	r1, #10
 3564 11e8 FFF7FEFF 		bl	write_psoc1
 3565              	.LVL282:
 808:.\Protocolo.c **** 						print_totalesac(8,val);	
 3566              		.loc 1 808 0
 3567 11ec 0820     		movs	r0, #8
 3568 11ee 2146     		mov	r1, r4
 3569 11f0 FFF7FEFF 		bl	print_totalesac
 3570              	.LVL283:
 809:.\Protocolo.c **** 						for(x=0;x<=16;x++){												
 3571              		.loc 1 809 0
 3572 11f4 0023     		movs	r3, #0
 3573 11f6 2B60     		str	r3, [r5]
 810:.\Protocolo.c **** 							write_psoc1(val,msn_lecaan[x]);				//LECTURA ANTERIOR
 3574              		.loc 1 810 0
 3575 11f8 DFF87880 		ldr	r8, .L550+32
 809:.\Protocolo.c **** 						for(x=0;x<=16;x++){												
 3576              		.loc 1 809 0
 3577 11fc 08E0     		b	.L252
 3578              	.L253:
 3579              		.loc 1 810 0 discriminator 2
 3580 11fe 4344     		add	r3, r3, r8
 3581 1200 2046     		mov	r0, r4
 3582 1202 93F82410 		ldrb	r1, [r3, #36]	@ zero_extendqisi2
 3583 1206 FFF7FEFF 		bl	write_psoc1
 3584              	.LVL284:
 809:.\Protocolo.c **** 						for(x=0;x<=16;x++){												
ARM GAS  C:\Users\RECEPC~1\AppData\Local\Temp\ccNG63cQ.s 			page 83


 3585              		.loc 1 809 0 discriminator 2
 3586 120a 2B68     		ldr	r3, [r5]
 3587 120c 0133     		adds	r3, r3, #1
 3588 120e 2B60     		str	r3, [r5]
 3589              	.L252:
 809:.\Protocolo.c **** 						for(x=0;x<=16;x++){												
 3590              		.loc 1 809 0 is_stmt 0 discriminator 1
 3591 1210 2B68     		ldr	r3, [r5]
 3592 1212 102B     		cmp	r3, #16
 3593 1214 F3D9     		bls	.L253
 811:.\Protocolo.c **** 						}
 812:.\Protocolo.c **** 						write_psoc1(val,10);
 3594              		.loc 1 812 0 is_stmt 1
 3595 1216 2046     		mov	r0, r4
 3596 1218 0A21     		movs	r1, #10
 3597 121a FFF7FEFF 		bl	write_psoc1
 3598              	.LVL285:
 813:.\Protocolo.c **** 						if(dir==lado.a.dir){
 3599              		.loc 1 813 0
 3600 121e 0F4B     		ldr	r3, .L550+8
 3601 1220 1B78     		ldrb	r3, [r3]	@ zero_extendqisi2
 3602 1222 B342     		cmp	r3, r6
 3603 1224 04D1     		bne	.L254
 814:.\Protocolo.c **** 							leer_eeprom(217,25);
 3604              		.loc 1 814 0
 3605 1226 D920     		movs	r0, #217
 3606 1228 1921     		movs	r1, #25
 3607 122a FFF7FEFF 		bl	leer_eeprom
 3608              	.LVL286:
 3609 122e 04E0     		b	.L255
 3610              	.L254:
 815:.\Protocolo.c **** 						}
 816:.\Protocolo.c **** 						else{
 817:.\Protocolo.c **** 							leer_eeprom(320,25);
 3611              		.loc 1 817 0
 3612 1230 4FF4A070 		mov	r0, #320
 3613 1234 1921     		movs	r1, #25
 3614 1236 FFF7FEFF 		bl	leer_eeprom
 3615              	.LVL287:
 3616              	.L255:
 818:.\Protocolo.c **** 						}
 819:.\Protocolo.c **** 						print_totales(val);
 3617              		.loc 1 819 0
 3618 123a 2046     		mov	r0, r4
 3619 123c FFF7FEFF 		bl	print_totales
 3620              	.LVL288:
 820:.\Protocolo.c **** 						for(z=1;z<=8;z++){
 3621              		.loc 1 820 0
 3622 1240 0122     		movs	r2, #1
 3623 1242 044B     		ldr	r3, .L550
 3624 1244 1A60     		str	r2, [r3]
 3625 1246 1946     		mov	r1, r3
 821:.\Protocolo.c **** 							minuendo[z]=rventa.tdinero[z-1];
 3626              		.loc 1 821 0
 3627 1248 DFF81CC0 		ldr	ip, .L550+20
 822:.\Protocolo.c **** 							sustraendo[z]=buffer_i2c[z+8];
 3628              		.loc 1 822 0
ARM GAS  C:\Users\RECEPC~1\AppData\Local\Temp\ccNG63cQ.s 			page 84


 3629 124c DFF828E0 		ldr	lr, .L550+36
 820:.\Protocolo.c **** 						for(z=1;z<=8;z++){
 3630              		.loc 1 820 0
 3631 1250 24E0     		b	.L256
 3632              	.L551:
 3633 1252 00BF     		.align	2
 3634              	.L550:
 3635 1254 00000000 		.word	z
 3636 1258 00000000 		.word	corriente
 3637 125c 00000000 		.word	lado
 3638 1260 00000000 		.word	corriente2
 3639 1264 00000000 		.word	resultado
 3640 1268 00000000 		.word	rventa
 3641 126c 00000000 		.word	diesel
 3642 1270 00000000 		.word	diesel2
 3643 1274 00000000 		.word	.LANCHOR1
 3644 1278 00000000 		.word	buffer_i2c
 3645              	.L257:
 821:.\Protocolo.c **** 							minuendo[z]=rventa.tdinero[z-1];
 3646              		.loc 1 821 0 discriminator 2
 3647 127c 0CEB0302 		add	r2, ip, r3
 3648 1280 92F8C900 		ldrb	r0, [r2, #201]	@ zero_extendqisi2
 3649 1284 10AA     		add	r2, sp, #64
 3650 1286 1A44     		add	r2, r2, r3
 3651 1288 02F82C0C 		strb	r0, [r2, #-44]
 3652              		.loc 1 822 0 discriminator 2
 3653 128c 03F10800 		add	r0, r3, #8
 3654 1290 1EF80000 		ldrb	r0, [lr, r0]	@ zero_extendqisi2
 3655 1294 02F83C0C 		strb	r0, [r2, #-60]
 820:.\Protocolo.c **** 						for(z=1;z<=8;z++){
 3656              		.loc 1 820 0 discriminator 2
 3657 1298 0133     		adds	r3, r3, #1
 3658 129a 0B60     		str	r3, [r1]
 3659              	.L256:
 820:.\Protocolo.c **** 						for(z=1;z<=8;z++){
 3660              		.loc 1 820 0 is_stmt 0 discriminator 1
 3661 129c 0B68     		ldr	r3, [r1]
 3662 129e 082B     		cmp	r3, #8
 3663 12a0 ECD9     		bls	.L257
 823:.\Protocolo.c **** 						}
 824:.\Protocolo.c **** 						minuendo[0]=8;
 3664              		.loc 1 824 0 is_stmt 1
 3665 12a2 10A9     		add	r1, sp, #64
 3666 12a4 0823     		movs	r3, #8
 3667 12a6 01F82C3D 		strb	r3, [r1, #-44]!
 825:.\Protocolo.c **** 						operacion(2,minuendo,sustraendo);
 3668              		.loc 1 825 0
 3669 12aa 0220     		movs	r0, #2
 3670 12ac 01AA     		add	r2, sp, #4
 3671 12ae FFF7FEFF 		bl	operacion
 3672              	.LVL289:
 826:.\Protocolo.c **** 						for(x=0;x<=17;x++){									
 3673              		.loc 1 826 0
 3674 12b2 0023     		movs	r3, #0
 3675 12b4 2B60     		str	r3, [r5]
 827:.\Protocolo.c **** 							write_psoc1(val,msn_tventas[x]);				//Total de ventas
 3676              		.loc 1 827 0
ARM GAS  C:\Users\RECEPC~1\AppData\Local\Temp\ccNG63cQ.s 			page 85


 3677 12b6 DFF82083 		ldr	r8, .L552+32
 826:.\Protocolo.c **** 						for(x=0;x<=17;x++){									
 3678              		.loc 1 826 0
 3679 12ba 08E0     		b	.L258
 3680              	.L259:
 3681              		.loc 1 827 0 discriminator 2
 3682 12bc 4344     		add	r3, r3, r8
 3683 12be 2046     		mov	r0, r4
 3684 12c0 93F83810 		ldrb	r1, [r3, #56]	@ zero_extendqisi2
 3685 12c4 FFF7FEFF 		bl	write_psoc1
 3686              	.LVL290:
 826:.\Protocolo.c **** 						for(x=0;x<=17;x++){									
 3687              		.loc 1 826 0 discriminator 2
 3688 12c8 2B68     		ldr	r3, [r5]
 3689 12ca 0133     		adds	r3, r3, #1
 3690 12cc 2B60     		str	r3, [r5]
 3691              	.L258:
 826:.\Protocolo.c **** 						for(x=0;x<=17;x++){									
 3692              		.loc 1 826 0 is_stmt 0 discriminator 1
 3693 12ce 2B68     		ldr	r3, [r5]
 3694 12d0 112B     		cmp	r3, #17
 3695 12d2 F3D9     		bls	.L259
 828:.\Protocolo.c **** 						}
 829:.\Protocolo.c **** 						print_valor(resultado,val);				
 3696              		.loc 1 829 0 is_stmt 1
 3697 12d4 B848     		ldr	r0, .L552
 3698 12d6 2146     		mov	r1, r4
 3699 12d8 FFF7FEFF 		bl	print_valor
 3700              	.LVL291:
 830:.\Protocolo.c **** 						if(dir==lado.a.dir){
 3701              		.loc 1 830 0
 3702 12dc B74B     		ldr	r3, .L552+4
 3703 12de 1B78     		ldrb	r3, [r3]	@ zero_extendqisi2
 3704 12e0 B342     		cmp	r3, r6
 3705 12e2 09D1     		bne	.L260
 831:.\Protocolo.c **** 							write_eeprom(217,corte);
 3706              		.loc 1 831 0
 3707 12e4 D920     		movs	r0, #217
 3708 12e6 09A9     		add	r1, sp, #36
 3709 12e8 FFF7FEFF 		bl	write_eeprom
 3710              	.LVL292:
 832:.\Protocolo.c **** 							write_eeprom(538,resultado);
 3711              		.loc 1 832 0
 3712 12ec 40F21A20 		movw	r0, #538
 3713 12f0 B149     		ldr	r1, .L552
 3714 12f2 FFF7FEFF 		bl	write_eeprom
 3715              	.LVL293:
 3716 12f6 09E0     		b	.L247
 3717              	.L260:
 833:.\Protocolo.c **** 						}
 834:.\Protocolo.c **** 						else{
 835:.\Protocolo.c **** 							write_eeprom(320,corte);
 3718              		.loc 1 835 0
 3719 12f8 4FF4A070 		mov	r0, #320
 3720 12fc 09A9     		add	r1, sp, #36
 3721 12fe FFF7FEFF 		bl	write_eeprom
 3722              	.LVL294:
ARM GAS  C:\Users\RECEPC~1\AppData\Local\Temp\ccNG63cQ.s 			page 86


 836:.\Protocolo.c **** 							write_eeprom(576,resultado);
 3723              		.loc 1 836 0
 3724 1302 4FF41070 		mov	r0, #576
 3725 1306 AC49     		ldr	r1, .L552
 3726 1308 FFF7FEFF 		bl	write_eeprom
 3727              	.LVL295:
 3728              	.L247:
 837:.\Protocolo.c **** 						}				
 838:.\Protocolo.c **** 					}
 839:.\Protocolo.c **** 					if(((rventa.manguera==(extra&0x0F))&&(dir==lado.a.dir))||((rventa.manguera==(extra2&0x0F))&&(d
 3729              		.loc 1 839 0
 3730 130c AC4B     		ldr	r3, .L552+8
 3731 130e 93F8E030 		ldrb	r3, [r3, #224]	@ zero_extendqisi2
 3732 1312 AC4A     		ldr	r2, .L552+12
 3733 1314 1278     		ldrb	r2, [r2]	@ zero_extendqisi2
 3734 1316 02F00F02 		and	r2, r2, #15
 3735 131a 9A42     		cmp	r2, r3
 3736 131c 03D1     		bne	.L261
 3737              		.loc 1 839 0 is_stmt 0 discriminator 1
 3738 131e A74A     		ldr	r2, .L552+4
 3739 1320 1278     		ldrb	r2, [r2]	@ zero_extendqisi2
 3740 1322 B242     		cmp	r2, r6
 3741 1324 0BD0     		beq	.L262
 3742              	.L261:
 3743              		.loc 1 839 0 discriminator 2
 3744 1326 A84A     		ldr	r2, .L552+16
 3745 1328 1278     		ldrb	r2, [r2]	@ zero_extendqisi2
 3746 132a 02F00F02 		and	r2, r2, #15
 3747 132e 9342     		cmp	r3, r2
 3748 1330 40F0AB80 		bne	.L263
 3749              		.loc 1 839 0 discriminator 1
 3750 1334 A14B     		ldr	r3, .L552+4
 3751 1336 1B79     		ldrb	r3, [r3, #4]	@ zero_extendqisi2
 3752 1338 B342     		cmp	r3, r6
 3753 133a 40F0A680 		bne	.L263
 3754              	.L262:
 840:.\Protocolo.c **** 						for(x=0;x<=12;x++){									
 3755              		.loc 1 840 0 is_stmt 1
 3756 133e 0023     		movs	r3, #0
 3757 1340 2B60     		str	r3, [r5]
 841:.\Protocolo.c **** 							write_psoc1(val,msn_te[x]);
 3758              		.loc 1 841 0
 3759 1342 DFF89482 		ldr	r8, .L552+32
 840:.\Protocolo.c **** 						for(x=0;x<=12;x++){									
 3760              		.loc 1 840 0
 3761 1346 08E0     		b	.L264
 3762              	.L265:
 3763              		.loc 1 841 0 discriminator 2
 3764 1348 4344     		add	r3, r3, r8
 3765 134a 2046     		mov	r0, r4
 3766 134c 93F85C10 		ldrb	r1, [r3, #92]	@ zero_extendqisi2
 3767 1350 FFF7FEFF 		bl	write_psoc1
 3768              	.LVL296:
 840:.\Protocolo.c **** 						for(x=0;x<=12;x++){									
 3769              		.loc 1 840 0 discriminator 2
 3770 1354 2B68     		ldr	r3, [r5]
 3771 1356 0133     		adds	r3, r3, #1
ARM GAS  C:\Users\RECEPC~1\AppData\Local\Temp\ccNG63cQ.s 			page 87


 3772 1358 2B60     		str	r3, [r5]
 3773              	.L264:
 840:.\Protocolo.c **** 						for(x=0;x<=12;x++){									
 3774              		.loc 1 840 0 is_stmt 0 discriminator 1
 3775 135a 2B68     		ldr	r3, [r5]
 3776 135c 0C2B     		cmp	r3, #12
 3777 135e F3D9     		bls	.L265
 842:.\Protocolo.c **** 						}
 843:.\Protocolo.c **** 						write_psoc1(val,10);
 3778              		.loc 1 843 0 is_stmt 1
 3779 1360 2046     		mov	r0, r4
 3780 1362 0A21     		movs	r1, #10
 3781 1364 FFF7FEFF 		bl	write_psoc1
 3782              	.LVL297:
 844:.\Protocolo.c **** 						for(x=0;x<=14;x++){									
 3783              		.loc 1 844 0
 3784 1368 0023     		movs	r3, #0
 3785 136a 2B60     		str	r3, [r5]
 845:.\Protocolo.c **** 							write_psoc1(val,msn_lecact[x]);				//LECTURA ACTUAL
 3786              		.loc 1 845 0
 3787 136c DFF86882 		ldr	r8, .L552+32
 844:.\Protocolo.c **** 						for(x=0;x<=14;x++){									
 3788              		.loc 1 844 0
 3789 1370 07E0     		b	.L266
 3790              	.L267:
 3791              		.loc 1 845 0 discriminator 2
 3792 1372 4344     		add	r3, r3, r8
 3793 1374 2046     		mov	r0, r4
 3794 1376 197D     		ldrb	r1, [r3, #20]	@ zero_extendqisi2
 3795 1378 FFF7FEFF 		bl	write_psoc1
 3796              	.LVL298:
 844:.\Protocolo.c **** 						for(x=0;x<=14;x++){									
 3797              		.loc 1 844 0 discriminator 2
 3798 137c 2B68     		ldr	r3, [r5]
 3799 137e 0133     		adds	r3, r3, #1
 3800 1380 2B60     		str	r3, [r5]
 3801              	.L266:
 844:.\Protocolo.c **** 						for(x=0;x<=14;x++){									
 3802              		.loc 1 844 0 is_stmt 0 discriminator 1
 3803 1382 2B68     		ldr	r3, [r5]
 3804 1384 0E2B     		cmp	r3, #14
 3805 1386 F4D9     		bls	.L267
 846:.\Protocolo.c **** 						}
 847:.\Protocolo.c **** 						write_psoc1(val,10);
 3806              		.loc 1 847 0 is_stmt 1
 3807 1388 2046     		mov	r0, r4
 3808 138a 0A21     		movs	r1, #10
 3809 138c FFF7FEFF 		bl	write_psoc1
 3810              	.LVL299:
 848:.\Protocolo.c **** 						print_totalesac(8,val);	
 3811              		.loc 1 848 0
 3812 1390 0820     		movs	r0, #8
 3813 1392 2146     		mov	r1, r4
 3814 1394 FFF7FEFF 		bl	print_totalesac
 3815              	.LVL300:
 849:.\Protocolo.c **** 						for(x=0;x<=16;x++){												
 3816              		.loc 1 849 0
ARM GAS  C:\Users\RECEPC~1\AppData\Local\Temp\ccNG63cQ.s 			page 88


 3817 1398 0023     		movs	r3, #0
 3818 139a 2B60     		str	r3, [r5]
 850:.\Protocolo.c **** 							write_psoc1(val,msn_lecaan[x]);				//LECTURA ANTERIOR
 3819              		.loc 1 850 0
 3820 139c DFF83882 		ldr	r8, .L552+32
 849:.\Protocolo.c **** 						for(x=0;x<=16;x++){												
 3821              		.loc 1 849 0
 3822 13a0 08E0     		b	.L268
 3823              	.L269:
 3824              		.loc 1 850 0 discriminator 2
 3825 13a2 4344     		add	r3, r3, r8
 3826 13a4 2046     		mov	r0, r4
 3827 13a6 93F82410 		ldrb	r1, [r3, #36]	@ zero_extendqisi2
 3828 13aa FFF7FEFF 		bl	write_psoc1
 3829              	.LVL301:
 849:.\Protocolo.c **** 						for(x=0;x<=16;x++){												
 3830              		.loc 1 849 0 discriminator 2
 3831 13ae 2B68     		ldr	r3, [r5]
 3832 13b0 0133     		adds	r3, r3, #1
 3833 13b2 2B60     		str	r3, [r5]
 3834              	.L268:
 849:.\Protocolo.c **** 						for(x=0;x<=16;x++){												
 3835              		.loc 1 849 0 is_stmt 0 discriminator 1
 3836 13b4 2B68     		ldr	r3, [r5]
 3837 13b6 102B     		cmp	r3, #16
 3838 13b8 F3D9     		bls	.L269
 851:.\Protocolo.c **** 						}
 852:.\Protocolo.c **** 						write_psoc1(val,10);
 3839              		.loc 1 852 0 is_stmt 1
 3840 13ba 2046     		mov	r0, r4
 3841 13bc 0A21     		movs	r1, #10
 3842 13be FFF7FEFF 		bl	write_psoc1
 3843              	.LVL302:
 853:.\Protocolo.c **** 						if(dir==lado.a.dir){
 3844              		.loc 1 853 0
 3845 13c2 7E4B     		ldr	r3, .L552+4
 3846 13c4 1B78     		ldrb	r3, [r3]	@ zero_extendqisi2
 3847 13c6 B342     		cmp	r3, r6
 3848 13c8 05D1     		bne	.L270
 854:.\Protocolo.c **** 							leer_eeprom(256,25);
 3849              		.loc 1 854 0
 3850 13ca 4FF48070 		mov	r0, #256
 3851 13ce 1921     		movs	r1, #25
 3852 13d0 FFF7FEFF 		bl	leer_eeprom
 3853              	.LVL303:
 3854 13d4 04E0     		b	.L271
 3855              	.L270:
 855:.\Protocolo.c **** 						}
 856:.\Protocolo.c **** 						else{
 857:.\Protocolo.c **** 							leer_eeprom(345,25);
 3856              		.loc 1 857 0
 3857 13d6 40F25910 		movw	r0, #345
 3858 13da 1921     		movs	r1, #25
 3859 13dc FFF7FEFF 		bl	leer_eeprom
 3860              	.LVL304:
 3861              	.L271:
 858:.\Protocolo.c **** 						}
ARM GAS  C:\Users\RECEPC~1\AppData\Local\Temp\ccNG63cQ.s 			page 89


 859:.\Protocolo.c **** 						print_totales(val);
 3862              		.loc 1 859 0
 3863 13e0 2046     		mov	r0, r4
 3864 13e2 FFF7FEFF 		bl	print_totales
 3865              	.LVL305:
 860:.\Protocolo.c **** 						for(z=1;z<=8;z++){
 3866              		.loc 1 860 0
 3867 13e6 0122     		movs	r2, #1
 3868 13e8 784B     		ldr	r3, .L552+20
 3869 13ea 1A60     		str	r2, [r3]
 3870 13ec 1946     		mov	r1, r3
 861:.\Protocolo.c **** 							minuendo[z]=rventa.tdinero[z-1];
 3871              		.loc 1 861 0
 3872 13ee DFF8D0C1 		ldr	ip, .L552+8
 862:.\Protocolo.c **** 							sustraendo[z]=buffer_i2c[z+8];
 3873              		.loc 1 862 0
 3874 13f2 DFF8E8E1 		ldr	lr, .L552+36
 860:.\Protocolo.c **** 						for(z=1;z<=8;z++){
 3875              		.loc 1 860 0
 3876 13f6 0FE0     		b	.L272
 3877              	.L273:
 861:.\Protocolo.c **** 							minuendo[z]=rventa.tdinero[z-1];
 3878              		.loc 1 861 0 discriminator 2
 3879 13f8 0CEB0302 		add	r2, ip, r3
 3880 13fc 92F8C900 		ldrb	r0, [r2, #201]	@ zero_extendqisi2
 3881 1400 10AA     		add	r2, sp, #64
 3882 1402 1A44     		add	r2, r2, r3
 3883 1404 02F82C0C 		strb	r0, [r2, #-44]
 3884              		.loc 1 862 0 discriminator 2
 3885 1408 03F10800 		add	r0, r3, #8
 3886 140c 1EF80000 		ldrb	r0, [lr, r0]	@ zero_extendqisi2
 3887 1410 02F83C0C 		strb	r0, [r2, #-60]
 860:.\Protocolo.c **** 						for(z=1;z<=8;z++){
 3888              		.loc 1 860 0 discriminator 2
 3889 1414 0133     		adds	r3, r3, #1
 3890 1416 0B60     		str	r3, [r1]
 3891              	.L272:
 860:.\Protocolo.c **** 						for(z=1;z<=8;z++){
 3892              		.loc 1 860 0 is_stmt 0 discriminator 1
 3893 1418 0B68     		ldr	r3, [r1]
 3894 141a 082B     		cmp	r3, #8
 3895 141c ECD9     		bls	.L273
 863:.\Protocolo.c **** 						}
 864:.\Protocolo.c **** 						minuendo[0]=8;
 3896              		.loc 1 864 0 is_stmt 1
 3897 141e 10A9     		add	r1, sp, #64
 3898 1420 0823     		movs	r3, #8
 3899 1422 01F82C3D 		strb	r3, [r1, #-44]!
 865:.\Protocolo.c **** 						operacion(2,minuendo,sustraendo);
 3900              		.loc 1 865 0
 3901 1426 0220     		movs	r0, #2
 3902 1428 01AA     		add	r2, sp, #4
 3903 142a FFF7FEFF 		bl	operacion
 3904              	.LVL306:
 866:.\Protocolo.c **** 						for(x=0;x<=17;x++){									
 3905              		.loc 1 866 0
 3906 142e 0023     		movs	r3, #0
ARM GAS  C:\Users\RECEPC~1\AppData\Local\Temp\ccNG63cQ.s 			page 90


 3907 1430 2B60     		str	r3, [r5]
 867:.\Protocolo.c **** 							write_psoc1(val,msn_tventas[x]);				//Total de ventas
 3908              		.loc 1 867 0
 3909 1432 DFF8A481 		ldr	r8, .L552+32
 866:.\Protocolo.c **** 						for(x=0;x<=17;x++){									
 3910              		.loc 1 866 0
 3911 1436 08E0     		b	.L274
 3912              	.L275:
 3913              		.loc 1 867 0 discriminator 2
 3914 1438 4344     		add	r3, r3, r8
 3915 143a 2046     		mov	r0, r4
 3916 143c 93F83810 		ldrb	r1, [r3, #56]	@ zero_extendqisi2
 3917 1440 FFF7FEFF 		bl	write_psoc1
 3918              	.LVL307:
 866:.\Protocolo.c **** 						for(x=0;x<=17;x++){									
 3919              		.loc 1 866 0 discriminator 2
 3920 1444 2B68     		ldr	r3, [r5]
 3921 1446 0133     		adds	r3, r3, #1
 3922 1448 2B60     		str	r3, [r5]
 3923              	.L274:
 866:.\Protocolo.c **** 						for(x=0;x<=17;x++){									
 3924              		.loc 1 866 0 is_stmt 0 discriminator 1
 3925 144a 2B68     		ldr	r3, [r5]
 3926 144c 112B     		cmp	r3, #17
 3927 144e F3D9     		bls	.L275
 868:.\Protocolo.c **** 						}
 869:.\Protocolo.c **** 						print_valor(resultado,val);							
 3928              		.loc 1 869 0 is_stmt 1
 3929 1450 5948     		ldr	r0, .L552
 3930 1452 2146     		mov	r1, r4
 3931 1454 FFF7FEFF 		bl	print_valor
 3932              	.LVL308:
 870:.\Protocolo.c **** 						if(dir==lado.a.dir){
 3933              		.loc 1 870 0
 3934 1458 584B     		ldr	r3, .L552+4
 3935 145a 1B78     		ldrb	r3, [r3]	@ zero_extendqisi2
 3936 145c B342     		cmp	r3, r6
 3937 145e 0AD1     		bne	.L276
 871:.\Protocolo.c **** 							write_eeprom(256,corte);
 3938              		.loc 1 871 0
 3939 1460 4FF48070 		mov	r0, #256
 3940 1464 09A9     		add	r1, sp, #36
 3941 1466 FFF7FEFF 		bl	write_eeprom
 3942              	.LVL309:
 872:.\Protocolo.c **** 							write_eeprom(525,resultado);
 3943              		.loc 1 872 0
 3944 146a 40F20D20 		movw	r0, #525
 3945 146e 5249     		ldr	r1, .L552
 3946 1470 FFF7FEFF 		bl	write_eeprom
 3947              	.LVL310:
 3948 1474 09E0     		b	.L263
 3949              	.L276:
 873:.\Protocolo.c **** 						}
 874:.\Protocolo.c **** 						else{
 875:.\Protocolo.c **** 							write_eeprom(345,corte);
 3950              		.loc 1 875 0
 3951 1476 40F25910 		movw	r0, #345
ARM GAS  C:\Users\RECEPC~1\AppData\Local\Temp\ccNG63cQ.s 			page 91


 3952 147a 09A9     		add	r1, sp, #36
 3953 147c FFF7FEFF 		bl	write_eeprom
 3954              	.LVL311:
 876:.\Protocolo.c **** 							write_eeprom(589,resultado);
 3955              		.loc 1 876 0
 3956 1480 40F24D20 		movw	r0, #589
 3957 1484 4C49     		ldr	r1, .L552
 3958 1486 FFF7FEFF 		bl	write_eeprom
 3959              	.LVL312:
 3960              	.L263:
 877:.\Protocolo.c **** 						}					
 878:.\Protocolo.c **** 					}
 879:.\Protocolo.c ****                     
 880:.\Protocolo.c ****                     if(((rventa.manguera==(kero&0x0F))&&(dir==lado.a.dir))||((rventa.manguera==(ker
 3961              		.loc 1 880 0
 3962 148a 4D4B     		ldr	r3, .L552+8
 3963 148c 93F8E030 		ldrb	r3, [r3, #224]	@ zero_extendqisi2
 3964 1490 4F4A     		ldr	r2, .L552+24
 3965 1492 1278     		ldrb	r2, [r2]	@ zero_extendqisi2
 3966 1494 02F00F02 		and	r2, r2, #15
 3967 1498 9A42     		cmp	r2, r3
 3968 149a 03D1     		bne	.L277
 3969              		.loc 1 880 0 is_stmt 0 discriminator 1
 3970 149c 474A     		ldr	r2, .L552+4
 3971 149e 1278     		ldrb	r2, [r2]	@ zero_extendqisi2
 3972 14a0 B242     		cmp	r2, r6
 3973 14a2 0BD0     		beq	.L278
 3974              	.L277:
 3975              		.loc 1 880 0 discriminator 2
 3976 14a4 4B4A     		ldr	r2, .L552+28
 3977 14a6 1278     		ldrb	r2, [r2]	@ zero_extendqisi2
 3978 14a8 02F00F02 		and	r2, r2, #15
 3979 14ac 9342     		cmp	r3, r2
 3980 14ae 40F0C080 		bne	.L279
 3981              		.loc 1 880 0 discriminator 1
 3982 14b2 424B     		ldr	r3, .L552+4
 3983 14b4 1B79     		ldrb	r3, [r3, #4]	@ zero_extendqisi2
 3984 14b6 B342     		cmp	r3, r6
 3985 14b8 40F0BB80 		bne	.L279
 3986              	.L278:
 881:.\Protocolo.c **** 						for(x=0;x<=9;x++){									
 3987              		.loc 1 881 0 is_stmt 1
 3988 14bc 0023     		movs	r3, #0
 3989 14be 2B60     		str	r3, [r5]
 882:.\Protocolo.c **** 							write_psoc1(val,msn_tk[x]);
 3990              		.loc 1 882 0
 3991 14c0 DFF81481 		ldr	r8, .L552+32
 881:.\Protocolo.c **** 						for(x=0;x<=9;x++){									
 3992              		.loc 1 881 0
 3993 14c4 08E0     		b	.L280
 3994              	.L281:
 3995              		.loc 1 882 0 discriminator 2
 3996 14c6 4344     		add	r3, r3, r8
 3997 14c8 2046     		mov	r0, r4
 3998 14ca 93F86C10 		ldrb	r1, [r3, #108]	@ zero_extendqisi2
 3999 14ce FFF7FEFF 		bl	write_psoc1
 4000              	.LVL313:
ARM GAS  C:\Users\RECEPC~1\AppData\Local\Temp\ccNG63cQ.s 			page 92


 881:.\Protocolo.c **** 						for(x=0;x<=9;x++){									
 4001              		.loc 1 881 0 discriminator 2
 4002 14d2 2B68     		ldr	r3, [r5]
 4003 14d4 0133     		adds	r3, r3, #1
 4004 14d6 2B60     		str	r3, [r5]
 4005              	.L280:
 881:.\Protocolo.c **** 						for(x=0;x<=9;x++){									
 4006              		.loc 1 881 0 is_stmt 0 discriminator 1
 4007 14d8 2B68     		ldr	r3, [r5]
 4008 14da 092B     		cmp	r3, #9
 4009 14dc F3D9     		bls	.L281
 883:.\Protocolo.c **** 						}
 884:.\Protocolo.c **** 						write_psoc1(val,10);
 4010              		.loc 1 884 0 is_stmt 1
 4011 14de 2046     		mov	r0, r4
 4012 14e0 0A21     		movs	r1, #10
 4013 14e2 FFF7FEFF 		bl	write_psoc1
 4014              	.LVL314:
 885:.\Protocolo.c **** 						for(x=0;x<=14;x++){									
 4015              		.loc 1 885 0
 4016 14e6 0023     		movs	r3, #0
 4017 14e8 2B60     		str	r3, [r5]
 886:.\Protocolo.c **** 							write_psoc1(val,msn_lecact[x]);				//LECTURA ACTUAL
 4018              		.loc 1 886 0
 4019 14ea DFF8EC80 		ldr	r8, .L552+32
 885:.\Protocolo.c **** 						for(x=0;x<=14;x++){									
 4020              		.loc 1 885 0
 4021 14ee 07E0     		b	.L282
 4022              	.L283:
 4023              		.loc 1 886 0 discriminator 2
 4024 14f0 4344     		add	r3, r3, r8
 4025 14f2 2046     		mov	r0, r4
 4026 14f4 197D     		ldrb	r1, [r3, #20]	@ zero_extendqisi2
 4027 14f6 FFF7FEFF 		bl	write_psoc1
 4028              	.LVL315:
 885:.\Protocolo.c **** 						for(x=0;x<=14;x++){									
 4029              		.loc 1 885 0 discriminator 2
 4030 14fa 2B68     		ldr	r3, [r5]
 4031 14fc 0133     		adds	r3, r3, #1
 4032 14fe 2B60     		str	r3, [r5]
 4033              	.L282:
 885:.\Protocolo.c **** 						for(x=0;x<=14;x++){									
 4034              		.loc 1 885 0 is_stmt 0 discriminator 1
 4035 1500 2B68     		ldr	r3, [r5]
 4036 1502 0E2B     		cmp	r3, #14
 4037 1504 F4D9     		bls	.L283
 887:.\Protocolo.c **** 						}
 888:.\Protocolo.c **** 						write_psoc1(val,10);
 4038              		.loc 1 888 0 is_stmt 1
 4039 1506 2046     		mov	r0, r4
 4040 1508 0A21     		movs	r1, #10
 4041 150a FFF7FEFF 		bl	write_psoc1
 4042              	.LVL316:
 889:.\Protocolo.c **** 						print_totalesac(8,val);	
 4043              		.loc 1 889 0
 4044 150e 0820     		movs	r0, #8
 4045 1510 2146     		mov	r1, r4
ARM GAS  C:\Users\RECEPC~1\AppData\Local\Temp\ccNG63cQ.s 			page 93


 4046 1512 FFF7FEFF 		bl	print_totalesac
 4047              	.LVL317:
 890:.\Protocolo.c **** 						for(x=0;x<=16;x++){												
 4048              		.loc 1 890 0
 4049 1516 0023     		movs	r3, #0
 4050 1518 2B60     		str	r3, [r5]
 891:.\Protocolo.c **** 							write_psoc1(val,msn_lecaan[x]);				//LECTURA ANTERIOR
 4051              		.loc 1 891 0
 4052 151a DFF8BC80 		ldr	r8, .L552+32
 890:.\Protocolo.c **** 						for(x=0;x<=16;x++){												
 4053              		.loc 1 890 0
 4054 151e 08E0     		b	.L284
 4055              	.L285:
 4056              		.loc 1 891 0 discriminator 2
 4057 1520 4344     		add	r3, r3, r8
 4058 1522 2046     		mov	r0, r4
 4059 1524 93F82410 		ldrb	r1, [r3, #36]	@ zero_extendqisi2
 4060 1528 FFF7FEFF 		bl	write_psoc1
 4061              	.LVL318:
 890:.\Protocolo.c **** 						for(x=0;x<=16;x++){												
 4062              		.loc 1 890 0 discriminator 2
 4063 152c 2B68     		ldr	r3, [r5]
 4064 152e 0133     		adds	r3, r3, #1
 4065 1530 2B60     		str	r3, [r5]
 4066              	.L284:
 890:.\Protocolo.c **** 						for(x=0;x<=16;x++){												
 4067              		.loc 1 890 0 is_stmt 0 discriminator 1
 4068 1532 2B68     		ldr	r3, [r5]
 4069 1534 102B     		cmp	r3, #16
 4070 1536 F3D9     		bls	.L285
 892:.\Protocolo.c **** 						}
 893:.\Protocolo.c **** 						write_psoc1(val,10);
 4071              		.loc 1 893 0 is_stmt 1
 4072 1538 2046     		mov	r0, r4
 4073 153a 0A21     		movs	r1, #10
 4074 153c FFF7FEFF 		bl	write_psoc1
 4075              	.LVL319:
 894:.\Protocolo.c **** 						if(dir==lado.a.dir){
 4076              		.loc 1 894 0
 4077 1540 1E4B     		ldr	r3, .L552+4
 4078 1542 1B78     		ldrb	r3, [r3]	@ zero_extendqisi2
 4079 1544 B342     		cmp	r3, r6
 4080 1546 05D1     		bne	.L286
 895:.\Protocolo.c **** 							leer_eeprom(1096,25);
 4081              		.loc 1 895 0
 4082 1548 4FF48960 		mov	r0, #1096
 4083 154c 1921     		movs	r1, #25
 4084 154e FFF7FEFF 		bl	leer_eeprom
 4085              	.LVL320:
 4086 1552 04E0     		b	.L287
 4087              	.L286:
 896:.\Protocolo.c **** 						}
 897:.\Protocolo.c **** 						else{
 898:.\Protocolo.c **** 							leer_eeprom(1054,25);
 4088              		.loc 1 898 0
 4089 1554 40F21E40 		movw	r0, #1054
 4090 1558 1921     		movs	r1, #25
ARM GAS  C:\Users\RECEPC~1\AppData\Local\Temp\ccNG63cQ.s 			page 94


 4091 155a FFF7FEFF 		bl	leer_eeprom
 4092              	.LVL321:
 4093              	.L287:
 899:.\Protocolo.c **** 						}
 900:.\Protocolo.c **** 						print_totales(val);
 4094              		.loc 1 900 0
 4095 155e 2046     		mov	r0, r4
 4096 1560 FFF7FEFF 		bl	print_totales
 4097              	.LVL322:
 901:.\Protocolo.c **** 						for(z=1;z<=8;z++){
 4098              		.loc 1 901 0
 4099 1564 0122     		movs	r2, #1
 4100 1566 194B     		ldr	r3, .L552+20
 4101 1568 1A60     		str	r2, [r3]
 4102 156a 1946     		mov	r1, r3
 902:.\Protocolo.c **** 							minuendo[z]=rventa.tdinero[z-1];
 4103              		.loc 1 902 0
 4104 156c DFF850C0 		ldr	ip, .L552+8
 903:.\Protocolo.c **** 							sustraendo[z]=buffer_i2c[z+8];
 4105              		.loc 1 903 0
 4106 1570 DFF868E0 		ldr	lr, .L552+36
 901:.\Protocolo.c **** 						for(z=1;z<=8;z++){
 4107              		.loc 1 901 0
 4108 1574 0FE0     		b	.L288
 4109              	.L289:
 902:.\Protocolo.c **** 							minuendo[z]=rventa.tdinero[z-1];
 4110              		.loc 1 902 0 discriminator 2
 4111 1576 0CEB0302 		add	r2, ip, r3
 4112 157a 92F8C900 		ldrb	r0, [r2, #201]	@ zero_extendqisi2
 4113 157e 10AA     		add	r2, sp, #64
 4114 1580 1A44     		add	r2, r2, r3
 4115 1582 02F82C0C 		strb	r0, [r2, #-44]
 4116              		.loc 1 903 0 discriminator 2
 4117 1586 03F10800 		add	r0, r3, #8
 4118 158a 1EF80000 		ldrb	r0, [lr, r0]	@ zero_extendqisi2
 4119 158e 02F83C0C 		strb	r0, [r2, #-60]
 901:.\Protocolo.c **** 						for(z=1;z<=8;z++){
 4120              		.loc 1 901 0 discriminator 2
 4121 1592 0133     		adds	r3, r3, #1
 4122 1594 0B60     		str	r3, [r1]
 4123              	.L288:
 901:.\Protocolo.c **** 						for(z=1;z<=8;z++){
 4124              		.loc 1 901 0 is_stmt 0 discriminator 1
 4125 1596 0B68     		ldr	r3, [r1]
 4126 1598 082B     		cmp	r3, #8
 4127 159a ECD9     		bls	.L289
 904:.\Protocolo.c **** 						}
 905:.\Protocolo.c **** 						minuendo[0]=8;
 4128              		.loc 1 905 0 is_stmt 1
 4129 159c 10A9     		add	r1, sp, #64
 4130 159e 0823     		movs	r3, #8
 4131 15a0 01F82C3D 		strb	r3, [r1, #-44]!
 906:.\Protocolo.c **** 						operacion(2,minuendo,sustraendo);
 4132              		.loc 1 906 0
 4133 15a4 0220     		movs	r0, #2
 4134 15a6 01AA     		add	r2, sp, #4
 4135 15a8 FFF7FEFF 		bl	operacion
ARM GAS  C:\Users\RECEPC~1\AppData\Local\Temp\ccNG63cQ.s 			page 95


 4136              	.LVL323:
 907:.\Protocolo.c **** 						for(x=0;x<=17;x++){									
 4137              		.loc 1 907 0
 4138 15ac 0023     		movs	r3, #0
 4139 15ae 2B60     		str	r3, [r5]
 908:.\Protocolo.c **** 							write_psoc1(val,msn_tventas[x]);				//Total de ventas
 4140              		.loc 1 908 0
 4141 15b0 DFF82480 		ldr	r8, .L552+32
 907:.\Protocolo.c **** 						for(x=0;x<=17;x++){									
 4142              		.loc 1 907 0
 4143 15b4 1DE0     		b	.L290
 4144              	.L553:
 4145 15b6 00BF     		.align	2
 4146              	.L552:
 4147 15b8 00000000 		.word	resultado
 4148 15bc 00000000 		.word	lado
 4149 15c0 00000000 		.word	rventa
 4150 15c4 00000000 		.word	extra
 4151 15c8 00000000 		.word	extra2
 4152 15cc 00000000 		.word	z
 4153 15d0 00000000 		.word	kero
 4154 15d4 00000000 		.word	kero2
 4155 15d8 00000000 		.word	.LANCHOR1
 4156 15dc 00000000 		.word	buffer_i2c
 4157              	.L291:
 4158              		.loc 1 908 0 discriminator 2
 4159 15e0 4344     		add	r3, r3, r8
 4160 15e2 2046     		mov	r0, r4
 4161 15e4 93F83810 		ldrb	r1, [r3, #56]	@ zero_extendqisi2
 4162 15e8 FFF7FEFF 		bl	write_psoc1
 4163              	.LVL324:
 907:.\Protocolo.c **** 						for(x=0;x<=17;x++){									
 4164              		.loc 1 907 0 discriminator 2
 4165 15ec 2B68     		ldr	r3, [r5]
 4166 15ee 0133     		adds	r3, r3, #1
 4167 15f0 2B60     		str	r3, [r5]
 4168              	.L290:
 907:.\Protocolo.c **** 						for(x=0;x<=17;x++){									
 4169              		.loc 1 907 0 is_stmt 0 discriminator 1
 4170 15f2 2B68     		ldr	r3, [r5]
 4171 15f4 112B     		cmp	r3, #17
 4172 15f6 F3D9     		bls	.L291
 909:.\Protocolo.c **** 						}
 910:.\Protocolo.c **** 						print_valor(resultado,val);							
 4173              		.loc 1 910 0 is_stmt 1
 4174 15f8 A548     		ldr	r0, .L554
 4175 15fa 2146     		mov	r1, r4
 4176 15fc FFF7FEFF 		bl	print_valor
 4177              	.LVL325:
 911:.\Protocolo.c **** 						if(dir==lado.a.dir){
 4178              		.loc 1 911 0
 4179 1600 A44B     		ldr	r3, .L554+4
 4180 1602 1B78     		ldrb	r3, [r3]	@ zero_extendqisi2
 4181 1604 B342     		cmp	r3, r6
 4182 1606 0AD1     		bne	.L292
 912:.\Protocolo.c **** 						    write_eeprom(1096,corte);
 4183              		.loc 1 912 0
ARM GAS  C:\Users\RECEPC~1\AppData\Local\Temp\ccNG63cQ.s 			page 96


 4184 1608 4FF48960 		mov	r0, #1096
 4185 160c 09A9     		add	r1, sp, #36
 4186 160e FFF7FEFF 		bl	write_eeprom
 4187              	.LVL326:
 913:.\Protocolo.c **** 						    write_eeprom(1038,resultado);
 4188              		.loc 1 913 0
 4189 1612 40F20E40 		movw	r0, #1038
 4190 1616 9E49     		ldr	r1, .L554
 4191 1618 FFF7FEFF 		bl	write_eeprom
 4192              	.LVL327:
 4193 161c 09E0     		b	.L279
 4194              	.L292:
 914:.\Protocolo.c **** 					    }
 915:.\Protocolo.c **** 					    else{
 916:.\Protocolo.c **** 						    write_eeprom(1054,corte);
 4195              		.loc 1 916 0
 4196 161e 40F21E40 		movw	r0, #1054
 4197 1622 09A9     		add	r1, sp, #36
 4198 1624 FFF7FEFF 		bl	write_eeprom
 4199              	.LVL328:
 917:.\Protocolo.c **** 						    write_eeprom(1081,resultado);
 4200              		.loc 1 917 0
 4201 1628 40F23940 		movw	r0, #1081
 4202 162c 9849     		ldr	r1, .L554
 4203 162e FFF7FEFF 		bl	write_eeprom
 4204              	.LVL329:
 4205              	.L279:
 744:.\Protocolo.c **** 				for(y=0;y<=60;y+=30){
 4206              		.loc 1 744 0
 4207 1632 3B68     		ldr	r3, [r7]
 4208 1634 1E33     		adds	r3, r3, #30
 4209 1636 3B60     		str	r3, [r7]
 4210              	.L220:
 744:.\Protocolo.c **** 				for(y=0;y<=60;y+=30){
 4211              		.loc 1 744 0 is_stmt 0 discriminator 1
 4212 1638 3A68     		ldr	r2, [r7]
 4213 163a 3C2A     		cmp	r2, #60
 4214 163c 7FF666AC 		bls	.L293
 918:.\Protocolo.c **** 						}					
 919:.\Protocolo.c **** 					}
 920:.\Protocolo.c ****                     
 921:.\Protocolo.c **** 				}
 922:.\Protocolo.c **** 				Surtidor_ClearRxBuffer();
 4215              		.loc 1 922 0 is_stmt 1
 4216 1640 FFF7FEFF 		bl	Surtidor_ClearRxBuffer
 4217              	.LVL330:
 923:.\Protocolo.c **** 				return 3;					
 4218              		.loc 1 923 0
 4219 1644 0320     		movs	r0, #3
 4220 1646 01F03DBB 		b	.L73
 4221              	.L69:
 924:.\Protocolo.c **** 			}			
 925:.\Protocolo.c **** 			else{
 926:.\Protocolo.c **** 				return 0;
 927:.\Protocolo.c **** 			}			
 928:.\Protocolo.c **** 		break;
 929:.\Protocolo.c **** 
ARM GAS  C:\Users\RECEPC~1\AppData\Local\Temp\ccNG63cQ.s 			page 97


 930:.\Protocolo.c **** 		case 46:
 931:.\Protocolo.c **** 			if((Surtidor_rxBuffer[0]==0xFF)&&(Surtidor_rxBuffer[1]==0xF6)&&(Surtidor_rxBuffer[45]==0xF0)&&(S
 4222              		.loc 1 931 0
 4223 164a 934B     		ldr	r3, .L554+8
 4224 164c 1B78     		ldrb	r3, [r3]	@ zero_extendqisi2
 4225 164e DBB2     		uxtb	r3, r3
 4226 1650 FF2B     		cmp	r3, #255
 4227 1652 41F02083 		bne	.L528
 4228              		.loc 1 931 0 is_stmt 0 discriminator 1
 4229 1656 904B     		ldr	r3, .L554+8
 4230 1658 5B78     		ldrb	r3, [r3, #1]	@ zero_extendqisi2
 4231 165a DBB2     		uxtb	r3, r3
 4232 165c F62B     		cmp	r3, #246
 4233 165e 41F01C83 		bne	.L529
 4234 1662 8D4B     		ldr	r3, .L554+8
 4235 1664 93F82D30 		ldrb	r3, [r3, #45]	@ zero_extendqisi2
 4236 1668 DBB2     		uxtb	r3, r3
 4237 166a F02B     		cmp	r3, #240
 4238 166c 41F01783 		bne	.L530
 4239 1670 894B     		ldr	r3, .L554+8
 4240 1672 DB78     		ldrb	r3, [r3, #3]	@ zero_extendqisi2
 4241 1674 DBB2     		uxtb	r3, r3
 4242 1676 F92B     		cmp	r3, #249
 4243 1678 41F01383 		bne	.L531
 932:.\Protocolo.c **** 				rventa.manguera=(Surtidor_rxBuffer[2]&0xF0)+1;
 4244              		.loc 1 932 0 is_stmt 1
 4245 167c 864B     		ldr	r3, .L554+8
 4246 167e 9878     		ldrb	r0, [r3, #2]	@ zero_extendqisi2
 4247 1680 00F0F000 		and	r0, r0, #240
 4248 1684 0130     		adds	r0, r0, #1
 4249 1686 C0B2     		uxtb	r0, r0
 4250 1688 844B     		ldr	r3, .L554+12
 4251 168a 83F8E000 		strb	r0, [r3, #224]
 933:.\Protocolo.c **** 				for(x=0;x<=11;x++){
 4252              		.loc 1 933 0
 4253 168e 0022     		movs	r2, #0
 4254 1690 834B     		ldr	r3, .L554+16
 4255 1692 1A60     		str	r2, [r3]
 4256 1694 1A46     		mov	r2, r3
 934:.\Protocolo.c **** 					rventa.tvolumen[x]=(Surtidor_rxBuffer[x+4]&0x0F);
 4257              		.loc 1 934 0
 4258 1696 DFF800E2 		ldr	lr, .L554+8
 4259 169a 804F     		ldr	r7, .L554+12
 933:.\Protocolo.c **** 				for(x=0;x<=11;x++){
 4260              		.loc 1 933 0
 4261 169c 09E0     		b	.L294
 4262              	.L295:
 4263              		.loc 1 934 0 discriminator 2
 4264 169e 191D     		adds	r1, r3, #4
 4265 16a0 1EF80150 		ldrb	r5, [lr, r1]	@ zero_extendqisi2
 4266 16a4 F918     		adds	r1, r7, r3
 4267 16a6 05F00F05 		and	r5, r5, #15
 4268 16aa 81F8BD50 		strb	r5, [r1, #189]
 933:.\Protocolo.c **** 				for(x=0;x<=11;x++){
 4269              		.loc 1 933 0 discriminator 2
 4270 16ae 0133     		adds	r3, r3, #1
 4271 16b0 1360     		str	r3, [r2]
ARM GAS  C:\Users\RECEPC~1\AppData\Local\Temp\ccNG63cQ.s 			page 98


 4272              	.L294:
 933:.\Protocolo.c **** 				for(x=0;x<=11;x++){
 4273              		.loc 1 933 0 is_stmt 0 discriminator 1
 4274 16b2 1368     		ldr	r3, [r2]
 4275 16b4 0B2B     		cmp	r3, #11
 4276 16b6 F2D9     		bls	.L295
 935:.\Protocolo.c **** 				}
 936:.\Protocolo.c **** 				for(x=0;x<=11;x++){
 4277              		.loc 1 936 0 is_stmt 1
 4278 16b8 0022     		movs	r2, #0
 4279 16ba 794B     		ldr	r3, .L554+16
 4280 16bc 1A60     		str	r2, [r3]
 4281 16be 1A46     		mov	r2, r3
 937:.\Protocolo.c **** 					rventa.tdinero[x]=(Surtidor_rxBuffer[x+17]&0x0F);
 4282              		.loc 1 937 0
 4283 16c0 DFF8D4E1 		ldr	lr, .L554+8
 4284 16c4 754F     		ldr	r7, .L554+12
 936:.\Protocolo.c **** 				for(x=0;x<=11;x++){
 4285              		.loc 1 936 0
 4286 16c6 0AE0     		b	.L296
 4287              	.L297:
 4288              		.loc 1 937 0 discriminator 2
 4289 16c8 03F11101 		add	r1, r3, #17
 4290 16cc 1EF80150 		ldrb	r5, [lr, r1]	@ zero_extendqisi2
 4291 16d0 F918     		adds	r1, r7, r3
 4292 16d2 05F00F05 		and	r5, r5, #15
 4293 16d6 81F8CA50 		strb	r5, [r1, #202]
 936:.\Protocolo.c **** 				for(x=0;x<=11;x++){
 4294              		.loc 1 936 0 discriminator 2
 4295 16da 0133     		adds	r3, r3, #1
 4296 16dc 1360     		str	r3, [r2]
 4297              	.L296:
 936:.\Protocolo.c **** 				for(x=0;x<=11;x++){
 4298              		.loc 1 936 0 is_stmt 0 discriminator 1
 4299 16de 1368     		ldr	r3, [r2]
 4300 16e0 0B2B     		cmp	r3, #11
 4301 16e2 F1D9     		bls	.L297
 938:.\Protocolo.c **** 				}
 939:.\Protocolo.c **** 				for(z=0;z<=11;z++){
 4302              		.loc 1 939 0 is_stmt 1
 4303 16e4 0022     		movs	r2, #0
 4304 16e6 6F4B     		ldr	r3, .L554+20
 4305 16e8 1A60     		str	r2, [r3]
 4306 16ea 1946     		mov	r1, r3
 940:.\Protocolo.c **** 					corte[z+1]=rventa.tvolumen[z];
 4307              		.loc 1 940 0
 4308 16ec 6B4F     		ldr	r7, .L554+12
 939:.\Protocolo.c **** 				for(z=0;z<=11;z++){
 4309              		.loc 1 939 0
 4310 16ee 08E0     		b	.L298
 4311              	.L299:
 4312              		.loc 1 940 0 discriminator 2
 4313 16f0 5A1C     		adds	r2, r3, #1
 4314 16f2 3B44     		add	r3, r3, r7
 4315 16f4 93F8BD50 		ldrb	r5, [r3, #189]	@ zero_extendqisi2
 4316 16f8 10AB     		add	r3, sp, #64
 4317 16fa 1344     		add	r3, r3, r2
ARM GAS  C:\Users\RECEPC~1\AppData\Local\Temp\ccNG63cQ.s 			page 99


 4318 16fc 03F81C5C 		strb	r5, [r3, #-28]
 939:.\Protocolo.c **** 				for(z=0;z<=11;z++){
 4319              		.loc 1 939 0 discriminator 2
 4320 1700 0A60     		str	r2, [r1]
 4321              	.L298:
 939:.\Protocolo.c **** 				for(z=0;z<=11;z++){
 4322              		.loc 1 939 0 is_stmt 0 discriminator 1
 4323 1702 0B68     		ldr	r3, [r1]
 4324 1704 0B2B     		cmp	r3, #11
 4325 1706 F3D9     		bls	.L299
 941:.\Protocolo.c **** 				}
 942:.\Protocolo.c **** 				for(z=13;z<=24;z++){
 4326              		.loc 1 942 0 is_stmt 1
 4327 1708 0D22     		movs	r2, #13
 4328 170a 664B     		ldr	r3, .L554+20
 4329 170c 1A60     		str	r2, [r3]
 4330 170e 1A46     		mov	r2, r3
 943:.\Protocolo.c **** 					corte[z]=rventa.tdinero[z-13];
 4331              		.loc 1 943 0
 4332 1710 624F     		ldr	r7, .L554+12
 942:.\Protocolo.c **** 				for(z=13;z<=24;z++){
 4333              		.loc 1 942 0
 4334 1712 08E0     		b	.L300
 4335              	.L301:
 4336              		.loc 1 943 0 discriminator 2
 4337 1714 F918     		adds	r1, r7, r3
 4338 1716 91F8BD50 		ldrb	r5, [r1, #189]	@ zero_extendqisi2
 4339 171a 10A9     		add	r1, sp, #64
 4340 171c 1944     		add	r1, r1, r3
 4341 171e 01F81C5C 		strb	r5, [r1, #-28]
 942:.\Protocolo.c **** 				for(z=13;z<=24;z++){
 4342              		.loc 1 942 0 discriminator 2
 4343 1722 0133     		adds	r3, r3, #1
 4344 1724 1360     		str	r3, [r2]
 4345              	.L300:
 942:.\Protocolo.c **** 				for(z=13;z<=24;z++){
 4346              		.loc 1 942 0 is_stmt 0 discriminator 1
 4347 1726 1368     		ldr	r3, [r2]
 4348 1728 182B     		cmp	r3, #24
 4349 172a F3D9     		bls	.L301
 944:.\Protocolo.c **** 				}
 945:.\Protocolo.c **** 				corte[0]=24;				
 4350              		.loc 1 945 0 is_stmt 1
 4351 172c 1823     		movs	r3, #24
 4352 172e 8DF82430 		strb	r3, [sp, #36]
 946:.\Protocolo.c **** 				if(((rventa.manguera==(corriente&0x0F))&&(dir==lado.a.dir))||((rventa.manguera==(corriente2&0x0
 4353              		.loc 1 946 0
 4354 1732 5D4B     		ldr	r3, .L554+24
 4355 1734 1B78     		ldrb	r3, [r3]	@ zero_extendqisi2
 4356 1736 03F00F03 		and	r3, r3, #15
 4357 173a 8342     		cmp	r3, r0
 4358 173c 03D1     		bne	.L302
 4359              		.loc 1 946 0 is_stmt 0 discriminator 1
 4360 173e 554B     		ldr	r3, .L554+4
 4361 1740 1B78     		ldrb	r3, [r3]	@ zero_extendqisi2
 4362 1742 B342     		cmp	r3, r6
 4363 1744 0BD0     		beq	.L303
ARM GAS  C:\Users\RECEPC~1\AppData\Local\Temp\ccNG63cQ.s 			page 100


 4364              	.L302:
 4365              		.loc 1 946 0 discriminator 2
 4366 1746 594B     		ldr	r3, .L554+28
 4367 1748 1B78     		ldrb	r3, [r3]	@ zero_extendqisi2
 4368 174a 03F00F03 		and	r3, r3, #15
 4369 174e 9842     		cmp	r0, r3
 4370 1750 40F0BC80 		bne	.L304
 4371              		.loc 1 946 0 discriminator 1
 4372 1754 4F4B     		ldr	r3, .L554+4
 4373 1756 1B79     		ldrb	r3, [r3, #4]	@ zero_extendqisi2
 4374 1758 B342     		cmp	r3, r6
 4375 175a 40F0B780 		bne	.L304
 4376              	.L303:
 947:.\Protocolo.c **** 					for(x=0;x<=16;x++){									
 4377              		.loc 1 947 0 is_stmt 1
 4378 175e 0022     		movs	r2, #0
 4379 1760 4F4B     		ldr	r3, .L554+16
 4380 1762 1A60     		str	r2, [r3]
 4381 1764 1D46     		mov	r5, r3
 948:.\Protocolo.c **** 						write_psoc1(val,msn_tc[x]);
 4382              		.loc 1 948 0
 4383 1766 524F     		ldr	r7, .L554+32
 947:.\Protocolo.c **** 					for(x=0;x<=16;x++){									
 4384              		.loc 1 947 0
 4385 1768 06E0     		b	.L305
 4386              	.L306:
 4387              		.loc 1 948 0 discriminator 2
 4388 176a 2046     		mov	r0, r4
 4389 176c F95C     		ldrb	r1, [r7, r3]	@ zero_extendqisi2
 4390 176e FFF7FEFF 		bl	write_psoc1
 4391              	.LVL331:
 947:.\Protocolo.c **** 					for(x=0;x<=16;x++){									
 4392              		.loc 1 947 0 discriminator 2
 4393 1772 2B68     		ldr	r3, [r5]
 4394 1774 0133     		adds	r3, r3, #1
 4395 1776 2B60     		str	r3, [r5]
 4396              	.L305:
 947:.\Protocolo.c **** 					for(x=0;x<=16;x++){									
 4397              		.loc 1 947 0 is_stmt 0 discriminator 1
 4398 1778 2B68     		ldr	r3, [r5]
 4399 177a 102B     		cmp	r3, #16
 4400 177c F5D9     		bls	.L306
 949:.\Protocolo.c **** 					}
 950:.\Protocolo.c **** 					write_psoc1(val,10);
 4401              		.loc 1 950 0 is_stmt 1
 4402 177e 2046     		mov	r0, r4
 4403 1780 0A21     		movs	r1, #10
 4404 1782 FFF7FEFF 		bl	write_psoc1
 4405              	.LVL332:
 951:.\Protocolo.c **** 					for(x=0;x<=14;x++){									
 4406              		.loc 1 951 0
 4407 1786 0022     		movs	r2, #0
 4408 1788 454B     		ldr	r3, .L554+16
 4409 178a 1A60     		str	r2, [r3]
 4410 178c 1D46     		mov	r5, r3
 952:.\Protocolo.c **** 						write_psoc1(val,msn_lecact[x]);				//LECTURA ACTUAL
 4411              		.loc 1 952 0
ARM GAS  C:\Users\RECEPC~1\AppData\Local\Temp\ccNG63cQ.s 			page 101


 4412 178e 484F     		ldr	r7, .L554+32
 951:.\Protocolo.c **** 					for(x=0;x<=14;x++){									
 4413              		.loc 1 951 0
 4414 1790 07E0     		b	.L307
 4415              	.L308:
 4416              		.loc 1 952 0 discriminator 2
 4417 1792 3B44     		add	r3, r3, r7
 4418 1794 2046     		mov	r0, r4
 4419 1796 197D     		ldrb	r1, [r3, #20]	@ zero_extendqisi2
 4420 1798 FFF7FEFF 		bl	write_psoc1
 4421              	.LVL333:
 951:.\Protocolo.c **** 					for(x=0;x<=14;x++){									
 4422              		.loc 1 951 0 discriminator 2
 4423 179c 2B68     		ldr	r3, [r5]
 4424 179e 0133     		adds	r3, r3, #1
 4425 17a0 2B60     		str	r3, [r5]
 4426              	.L307:
 951:.\Protocolo.c **** 					for(x=0;x<=14;x++){									
 4427              		.loc 1 951 0 is_stmt 0 discriminator 1
 4428 17a2 2B68     		ldr	r3, [r5]
 4429 17a4 0E2B     		cmp	r3, #14
 4430 17a6 F4D9     		bls	.L308
 953:.\Protocolo.c **** 					}
 954:.\Protocolo.c **** 					write_psoc1(val,10);
 4431              		.loc 1 954 0 is_stmt 1
 4432 17a8 2046     		mov	r0, r4
 4433 17aa 0A21     		movs	r1, #10
 4434 17ac FFF7FEFF 		bl	write_psoc1
 4435              	.LVL334:
 955:.\Protocolo.c **** 					print_totalesac(12,val);	
 4436              		.loc 1 955 0
 4437 17b0 0C20     		movs	r0, #12
 4438 17b2 2146     		mov	r1, r4
 4439 17b4 FFF7FEFF 		bl	print_totalesac
 4440              	.LVL335:
 956:.\Protocolo.c **** 					for(x=0;x<=16;x++){												
 4441              		.loc 1 956 0
 4442 17b8 0022     		movs	r2, #0
 4443 17ba 394B     		ldr	r3, .L554+16
 4444 17bc 1A60     		str	r2, [r3]
 4445 17be 1D46     		mov	r5, r3
 957:.\Protocolo.c **** 						write_psoc1(val,msn_lecaan[x]);				//LECTURA ANTERIOR
 4446              		.loc 1 957 0
 4447 17c0 3B4F     		ldr	r7, .L554+32
 956:.\Protocolo.c **** 					for(x=0;x<=16;x++){												
 4448              		.loc 1 956 0
 4449 17c2 08E0     		b	.L309
 4450              	.L310:
 4451              		.loc 1 957 0 discriminator 2
 4452 17c4 3B44     		add	r3, r3, r7
 4453 17c6 2046     		mov	r0, r4
 4454 17c8 93F82410 		ldrb	r1, [r3, #36]	@ zero_extendqisi2
 4455 17cc FFF7FEFF 		bl	write_psoc1
 4456              	.LVL336:
 956:.\Protocolo.c **** 					for(x=0;x<=16;x++){												
 4457              		.loc 1 956 0 discriminator 2
 4458 17d0 2B68     		ldr	r3, [r5]
ARM GAS  C:\Users\RECEPC~1\AppData\Local\Temp\ccNG63cQ.s 			page 102


 4459 17d2 0133     		adds	r3, r3, #1
 4460 17d4 2B60     		str	r3, [r5]
 4461              	.L309:
 956:.\Protocolo.c **** 					for(x=0;x<=16;x++){												
 4462              		.loc 1 956 0 is_stmt 0 discriminator 1
 4463 17d6 2B68     		ldr	r3, [r5]
 4464 17d8 102B     		cmp	r3, #16
 4465 17da F3D9     		bls	.L310
 958:.\Protocolo.c **** 					}
 959:.\Protocolo.c **** 					write_psoc1(val,10);
 4466              		.loc 1 959 0 is_stmt 1
 4467 17dc 2046     		mov	r0, r4
 4468 17de 0A21     		movs	r1, #10
 4469 17e0 FFF7FEFF 		bl	write_psoc1
 4470              	.LVL337:
 960:.\Protocolo.c **** 					if(dir==lado.a.dir){
 4471              		.loc 1 960 0
 4472 17e4 2B4B     		ldr	r3, .L554+4
 4473 17e6 1B78     		ldrb	r3, [r3]	@ zero_extendqisi2
 4474 17e8 B342     		cmp	r3, r6
 4475 17ea 04D1     		bne	.L311
 961:.\Protocolo.c **** 						leer_eeprom(192,25);
 4476              		.loc 1 961 0
 4477 17ec C020     		movs	r0, #192
 4478 17ee 1921     		movs	r1, #25
 4479 17f0 FFF7FEFF 		bl	leer_eeprom
 4480              	.LVL338:
 4481 17f4 04E0     		b	.L312
 4482              	.L311:
 962:.\Protocolo.c **** 					}
 963:.\Protocolo.c **** 					else{
 964:.\Protocolo.c **** 						leer_eeprom(281,25);
 4483              		.loc 1 964 0
 4484 17f6 40F21910 		movw	r0, #281
 4485 17fa 1921     		movs	r1, #25
 4486 17fc FFF7FEFF 		bl	leer_eeprom
 4487              	.LVL339:
 4488              	.L312:
 965:.\Protocolo.c **** 					}
 966:.\Protocolo.c **** 					print_totales(val);
 4489              		.loc 1 966 0
 4490 1800 2046     		mov	r0, r4
 4491 1802 FFF7FEFF 		bl	print_totales
 4492              	.LVL340:
 967:.\Protocolo.c **** 					for(z=1;z<=12;z++){
 4493              		.loc 1 967 0
 4494 1806 0122     		movs	r2, #1
 4495 1808 264B     		ldr	r3, .L554+20
 4496 180a 1A60     		str	r2, [r3]
 4497 180c 1A46     		mov	r2, r3
 968:.\Protocolo.c **** 						minuendo[z]=rventa.tdinero[z-1];
 4498              		.loc 1 968 0
 4499 180e 234F     		ldr	r7, .L554+12
 969:.\Protocolo.c **** 						sustraendo[z]=buffer_i2c[z+12];
 4500              		.loc 1 969 0
 4501 1810 284D     		ldr	r5, .L554+36
 967:.\Protocolo.c **** 					for(z=1;z<=12;z++){
ARM GAS  C:\Users\RECEPC~1\AppData\Local\Temp\ccNG63cQ.s 			page 103


 4502              		.loc 1 967 0
 4503 1812 0DE0     		b	.L313
 4504              	.L314:
 968:.\Protocolo.c **** 						minuendo[z]=rventa.tdinero[z-1];
 4505              		.loc 1 968 0 discriminator 2
 4506 1814 F918     		adds	r1, r7, r3
 4507 1816 91F8C900 		ldrb	r0, [r1, #201]	@ zero_extendqisi2
 4508 181a 10A9     		add	r1, sp, #64
 4509 181c 1944     		add	r1, r1, r3
 4510 181e 01F82C0C 		strb	r0, [r1, #-44]
 4511              		.loc 1 969 0 discriminator 2
 4512 1822 03F10C00 		add	r0, r3, #12
 4513 1826 285C     		ldrb	r0, [r5, r0]	@ zero_extendqisi2
 4514 1828 01F83C0C 		strb	r0, [r1, #-60]
 967:.\Protocolo.c **** 					for(z=1;z<=12;z++){
 4515              		.loc 1 967 0 discriminator 2
 4516 182c 0133     		adds	r3, r3, #1
 4517 182e 1360     		str	r3, [r2]
 4518              	.L313:
 967:.\Protocolo.c **** 					for(z=1;z<=12;z++){
 4519              		.loc 1 967 0 is_stmt 0 discriminator 1
 4520 1830 1368     		ldr	r3, [r2]
 4521 1832 0C2B     		cmp	r3, #12
 4522 1834 EED9     		bls	.L314
 970:.\Protocolo.c **** 					}
 971:.\Protocolo.c **** 					minuendo[0]=12;
 4523              		.loc 1 971 0 is_stmt 1
 4524 1836 10A9     		add	r1, sp, #64
 4525 1838 0C23     		movs	r3, #12
 4526 183a 01F82C3D 		strb	r3, [r1, #-44]!
 972:.\Protocolo.c **** 					operacion(2,minuendo,sustraendo);
 4527              		.loc 1 972 0
 4528 183e 0220     		movs	r0, #2
 4529 1840 01AA     		add	r2, sp, #4
 4530 1842 FFF7FEFF 		bl	operacion
 4531              	.LVL341:
 973:.\Protocolo.c **** 					for(x=0;x<=17;x++){									
 4532              		.loc 1 973 0
 4533 1846 0022     		movs	r2, #0
 4534 1848 154B     		ldr	r3, .L554+16
 4535 184a 1A60     		str	r2, [r3]
 4536 184c 1D46     		mov	r5, r3
 974:.\Protocolo.c **** 						write_psoc1(val,msn_tventas[x]);				//Total de ventas
 4537              		.loc 1 974 0
 4538 184e 184F     		ldr	r7, .L554+32
 973:.\Protocolo.c **** 					for(x=0;x<=17;x++){									
 4539              		.loc 1 973 0
 4540 1850 08E0     		b	.L315
 4541              	.L316:
 4542              		.loc 1 974 0 discriminator 2
 4543 1852 3B44     		add	r3, r3, r7
 4544 1854 2046     		mov	r0, r4
 4545 1856 93F83810 		ldrb	r1, [r3, #56]	@ zero_extendqisi2
 4546 185a FFF7FEFF 		bl	write_psoc1
 4547              	.LVL342:
 973:.\Protocolo.c **** 					for(x=0;x<=17;x++){									
 4548              		.loc 1 973 0 discriminator 2
ARM GAS  C:\Users\RECEPC~1\AppData\Local\Temp\ccNG63cQ.s 			page 104


 4549 185e 2B68     		ldr	r3, [r5]
 4550 1860 0133     		adds	r3, r3, #1
 4551 1862 2B60     		str	r3, [r5]
 4552              	.L315:
 973:.\Protocolo.c **** 					for(x=0;x<=17;x++){									
 4553              		.loc 1 973 0 is_stmt 0 discriminator 1
 4554 1864 2B68     		ldr	r3, [r5]
 4555 1866 112B     		cmp	r3, #17
 4556 1868 F3D9     		bls	.L316
 975:.\Protocolo.c **** 					}
 976:.\Protocolo.c **** 					print_valor(resultado,val);
 4557              		.loc 1 976 0 is_stmt 1
 4558 186a 0948     		ldr	r0, .L554
 4559 186c 2146     		mov	r1, r4
 4560 186e FFF7FEFF 		bl	print_valor
 4561              	.LVL343:
 977:.\Protocolo.c **** 					if(dir==lado.a.dir){
 4562              		.loc 1 977 0
 4563 1872 084B     		ldr	r3, .L554+4
 4564 1874 1B78     		ldrb	r3, [r3]	@ zero_extendqisi2
 4565 1876 B342     		cmp	r3, r6
 4566 1878 1ED1     		bne	.L317
 978:.\Protocolo.c **** 						write_eeprom(192,corte);	
 4567              		.loc 1 978 0
 4568 187a C020     		movs	r0, #192
 4569 187c 09A9     		add	r1, sp, #36
 4570 187e FFF7FEFF 		bl	write_eeprom
 4571              	.LVL344:
 979:.\Protocolo.c **** 						write_eeprom(512,resultado);
 4572              		.loc 1 979 0
 4573 1882 4FF40070 		mov	r0, #512
 4574 1886 0249     		ldr	r1, .L554
 4575 1888 FFF7FEFF 		bl	write_eeprom
 4576              	.LVL345:
 4577 188c 1EE0     		b	.L304
 4578              	.L555:
 4579 188e 00BF     		.align	2
 4580              	.L554:
 4581 1890 00000000 		.word	resultado
 4582 1894 00000000 		.word	lado
 4583 1898 00000000 		.word	Surtidor_rxBuffer
 4584 189c 00000000 		.word	rventa
 4585 18a0 00000000 		.word	x
 4586 18a4 00000000 		.word	z
 4587 18a8 00000000 		.word	corriente
 4588 18ac 00000000 		.word	corriente2
 4589 18b0 00000000 		.word	.LANCHOR1
 4590 18b4 00000000 		.word	buffer_i2c
 4591              	.L317:
 980:.\Protocolo.c **** 					}
 981:.\Protocolo.c **** 					else{
 982:.\Protocolo.c **** 						write_eeprom(281,corte);
 4592              		.loc 1 982 0
 4593 18b8 40F21910 		movw	r0, #281
 4594 18bc 09A9     		add	r1, sp, #36
 4595 18be FFF7FEFF 		bl	write_eeprom
 4596              	.LVL346:
ARM GAS  C:\Users\RECEPC~1\AppData\Local\Temp\ccNG63cQ.s 			page 105


 983:.\Protocolo.c **** 						write_eeprom(551,resultado);
 4597              		.loc 1 983 0
 4598 18c2 40F22720 		movw	r0, #551
 4599 18c6 AB49     		ldr	r1, .L556
 4600 18c8 FFF7FEFF 		bl	write_eeprom
 4601              	.LVL347:
 4602              	.L304:
 984:.\Protocolo.c **** 					}
 985:.\Protocolo.c **** 				}
 986:.\Protocolo.c **** 				if(((rventa.manguera==(diesel&0x0F))&&(dir==lado.a.dir))||((rventa.manguera==(diesel2&0x0F))&&(
 4603              		.loc 1 986 0
 4604 18cc AA4B     		ldr	r3, .L556+4
 4605 18ce 93F8E030 		ldrb	r3, [r3, #224]	@ zero_extendqisi2
 4606 18d2 AA4A     		ldr	r2, .L556+8
 4607 18d4 1278     		ldrb	r2, [r2]	@ zero_extendqisi2
 4608 18d6 02F00F02 		and	r2, r2, #15
 4609 18da 9A42     		cmp	r2, r3
 4610 18dc 03D1     		bne	.L318
 4611              		.loc 1 986 0 is_stmt 0 discriminator 1
 4612 18de A84A     		ldr	r2, .L556+12
 4613 18e0 1278     		ldrb	r2, [r2]	@ zero_extendqisi2
 4614 18e2 B242     		cmp	r2, r6
 4615 18e4 0BD0     		beq	.L319
 4616              	.L318:
 4617              		.loc 1 986 0 discriminator 2
 4618 18e6 A74A     		ldr	r2, .L556+16
 4619 18e8 1278     		ldrb	r2, [r2]	@ zero_extendqisi2
 4620 18ea 02F00F02 		and	r2, r2, #15
 4621 18ee 9342     		cmp	r3, r2
 4622 18f0 40F0A980 		bne	.L320
 4623              		.loc 1 986 0 discriminator 1
 4624 18f4 A24B     		ldr	r3, .L556+12
 4625 18f6 1B79     		ldrb	r3, [r3, #4]	@ zero_extendqisi2
 4626 18f8 B342     		cmp	r3, r6
 4627 18fa 40F0A480 		bne	.L320
 4628              	.L319:
 987:.\Protocolo.c **** 					for(x=0;x<=13;x++){									
 4629              		.loc 1 987 0 is_stmt 1
 4630 18fe 0022     		movs	r2, #0
 4631 1900 A14B     		ldr	r3, .L556+20
 4632 1902 1A60     		str	r2, [r3]
 4633 1904 1D46     		mov	r5, r3
 988:.\Protocolo.c **** 						write_psoc1(val,msn_td[x]);
 4634              		.loc 1 988 0
 4635 1906 A14F     		ldr	r7, .L556+24
 987:.\Protocolo.c **** 					for(x=0;x<=13;x++){									
 4636              		.loc 1 987 0
 4637 1908 08E0     		b	.L321
 4638              	.L322:
 4639              		.loc 1 988 0 discriminator 2
 4640 190a 3B44     		add	r3, r3, r7
 4641 190c 2046     		mov	r0, r4
 4642 190e 93F84C10 		ldrb	r1, [r3, #76]	@ zero_extendqisi2
 4643 1912 FFF7FEFF 		bl	write_psoc1
 4644              	.LVL348:
 987:.\Protocolo.c **** 					for(x=0;x<=13;x++){									
 4645              		.loc 1 987 0 discriminator 2
ARM GAS  C:\Users\RECEPC~1\AppData\Local\Temp\ccNG63cQ.s 			page 106


 4646 1916 2B68     		ldr	r3, [r5]
 4647 1918 0133     		adds	r3, r3, #1
 4648 191a 2B60     		str	r3, [r5]
 4649              	.L321:
 987:.\Protocolo.c **** 					for(x=0;x<=13;x++){									
 4650              		.loc 1 987 0 is_stmt 0 discriminator 1
 4651 191c 2B68     		ldr	r3, [r5]
 4652 191e 0D2B     		cmp	r3, #13
 4653 1920 F3D9     		bls	.L322
 989:.\Protocolo.c **** 					}
 990:.\Protocolo.c **** 					write_psoc1(val,10);
 4654              		.loc 1 990 0 is_stmt 1
 4655 1922 2046     		mov	r0, r4
 4656 1924 0A21     		movs	r1, #10
 4657 1926 FFF7FEFF 		bl	write_psoc1
 4658              	.LVL349:
 991:.\Protocolo.c **** 					for(x=0;x<=14;x++){									
 4659              		.loc 1 991 0
 4660 192a 0022     		movs	r2, #0
 4661 192c 964B     		ldr	r3, .L556+20
 4662 192e 1A60     		str	r2, [r3]
 4663 1930 1D46     		mov	r5, r3
 992:.\Protocolo.c **** 						write_psoc1(val,msn_lecact[x]);				//LECTURA ACTUAL
 4664              		.loc 1 992 0
 4665 1932 964F     		ldr	r7, .L556+24
 991:.\Protocolo.c **** 					for(x=0;x<=14;x++){									
 4666              		.loc 1 991 0
 4667 1934 07E0     		b	.L323
 4668              	.L324:
 4669              		.loc 1 992 0 discriminator 2
 4670 1936 3B44     		add	r3, r3, r7
 4671 1938 2046     		mov	r0, r4
 4672 193a 197D     		ldrb	r1, [r3, #20]	@ zero_extendqisi2
 4673 193c FFF7FEFF 		bl	write_psoc1
 4674              	.LVL350:
 991:.\Protocolo.c **** 					for(x=0;x<=14;x++){									
 4675              		.loc 1 991 0 discriminator 2
 4676 1940 2B68     		ldr	r3, [r5]
 4677 1942 0133     		adds	r3, r3, #1
 4678 1944 2B60     		str	r3, [r5]
 4679              	.L323:
 991:.\Protocolo.c **** 					for(x=0;x<=14;x++){									
 4680              		.loc 1 991 0 is_stmt 0 discriminator 1
 4681 1946 2B68     		ldr	r3, [r5]
 4682 1948 0E2B     		cmp	r3, #14
 4683 194a F4D9     		bls	.L324
 993:.\Protocolo.c **** 					}
 994:.\Protocolo.c **** 					write_psoc1(val,10);
 4684              		.loc 1 994 0 is_stmt 1
 4685 194c 2046     		mov	r0, r4
 4686 194e 0A21     		movs	r1, #10
 4687 1950 FFF7FEFF 		bl	write_psoc1
 4688              	.LVL351:
 995:.\Protocolo.c **** 					print_totalesac(12,val);	
 4689              		.loc 1 995 0
 4690 1954 0C20     		movs	r0, #12
 4691 1956 2146     		mov	r1, r4
ARM GAS  C:\Users\RECEPC~1\AppData\Local\Temp\ccNG63cQ.s 			page 107


 4692 1958 FFF7FEFF 		bl	print_totalesac
 4693              	.LVL352:
 996:.\Protocolo.c **** 					for(x=0;x<=16;x++){												
 4694              		.loc 1 996 0
 4695 195c 0022     		movs	r2, #0
 4696 195e 8A4B     		ldr	r3, .L556+20
 4697 1960 1A60     		str	r2, [r3]
 4698 1962 1D46     		mov	r5, r3
 997:.\Protocolo.c **** 						write_psoc1(val,msn_lecaan[x]);				//LECTURA ANTERIOR
 4699              		.loc 1 997 0
 4700 1964 894F     		ldr	r7, .L556+24
 996:.\Protocolo.c **** 					for(x=0;x<=16;x++){												
 4701              		.loc 1 996 0
 4702 1966 08E0     		b	.L325
 4703              	.L326:
 4704              		.loc 1 997 0 discriminator 2
 4705 1968 3B44     		add	r3, r3, r7
 4706 196a 2046     		mov	r0, r4
 4707 196c 93F82410 		ldrb	r1, [r3, #36]	@ zero_extendqisi2
 4708 1970 FFF7FEFF 		bl	write_psoc1
 4709              	.LVL353:
 996:.\Protocolo.c **** 					for(x=0;x<=16;x++){												
 4710              		.loc 1 996 0 discriminator 2
 4711 1974 2B68     		ldr	r3, [r5]
 4712 1976 0133     		adds	r3, r3, #1
 4713 1978 2B60     		str	r3, [r5]
 4714              	.L325:
 996:.\Protocolo.c **** 					for(x=0;x<=16;x++){												
 4715              		.loc 1 996 0 is_stmt 0 discriminator 1
 4716 197a 2B68     		ldr	r3, [r5]
 4717 197c 102B     		cmp	r3, #16
 4718 197e F3D9     		bls	.L326
 998:.\Protocolo.c **** 					}
 999:.\Protocolo.c **** 					write_psoc1(val,10);
 4719              		.loc 1 999 0 is_stmt 1
 4720 1980 2046     		mov	r0, r4
 4721 1982 0A21     		movs	r1, #10
 4722 1984 FFF7FEFF 		bl	write_psoc1
 4723              	.LVL354:
1000:.\Protocolo.c **** 					if(dir==lado.a.dir){
 4724              		.loc 1 1000 0
 4725 1988 7D4B     		ldr	r3, .L556+12
 4726 198a 1B78     		ldrb	r3, [r3]	@ zero_extendqisi2
 4727 198c B342     		cmp	r3, r6
 4728 198e 04D1     		bne	.L327
1001:.\Protocolo.c **** 						leer_eeprom(217,25);
 4729              		.loc 1 1001 0
 4730 1990 D920     		movs	r0, #217
 4731 1992 1921     		movs	r1, #25
 4732 1994 FFF7FEFF 		bl	leer_eeprom
 4733              	.LVL355:
 4734 1998 04E0     		b	.L328
 4735              	.L327:
1002:.\Protocolo.c **** 					}
1003:.\Protocolo.c **** 					else{
1004:.\Protocolo.c **** 						leer_eeprom(320,25);
 4736              		.loc 1 1004 0
ARM GAS  C:\Users\RECEPC~1\AppData\Local\Temp\ccNG63cQ.s 			page 108


 4737 199a 4FF4A070 		mov	r0, #320
 4738 199e 1921     		movs	r1, #25
 4739 19a0 FFF7FEFF 		bl	leer_eeprom
 4740              	.LVL356:
 4741              	.L328:
1005:.\Protocolo.c **** 					}
1006:.\Protocolo.c **** 					print_totales(val);
 4742              		.loc 1 1006 0
 4743 19a4 2046     		mov	r0, r4
 4744 19a6 FFF7FEFF 		bl	print_totales
 4745              	.LVL357:
1007:.\Protocolo.c **** 					for(z=1;z<=12;z++){
 4746              		.loc 1 1007 0
 4747 19aa 0122     		movs	r2, #1
 4748 19ac 784B     		ldr	r3, .L556+28
 4749 19ae 1A60     		str	r2, [r3]
 4750 19b0 1A46     		mov	r2, r3
1008:.\Protocolo.c **** 						minuendo[z]=rventa.tdinero[z-1];
 4751              		.loc 1 1008 0
 4752 19b2 714F     		ldr	r7, .L556+4
1009:.\Protocolo.c **** 						sustraendo[z]=buffer_i2c[z+12];
 4753              		.loc 1 1009 0
 4754 19b4 774D     		ldr	r5, .L556+32
1007:.\Protocolo.c **** 					for(z=1;z<=12;z++){
 4755              		.loc 1 1007 0
 4756 19b6 0DE0     		b	.L329
 4757              	.L330:
1008:.\Protocolo.c **** 						minuendo[z]=rventa.tdinero[z-1];
 4758              		.loc 1 1008 0 discriminator 2
 4759 19b8 F918     		adds	r1, r7, r3
 4760 19ba 91F8C900 		ldrb	r0, [r1, #201]	@ zero_extendqisi2
 4761 19be 10A9     		add	r1, sp, #64
 4762 19c0 1944     		add	r1, r1, r3
 4763 19c2 01F82C0C 		strb	r0, [r1, #-44]
 4764              		.loc 1 1009 0 discriminator 2
 4765 19c6 03F10C00 		add	r0, r3, #12
 4766 19ca 285C     		ldrb	r0, [r5, r0]	@ zero_extendqisi2
 4767 19cc 01F83C0C 		strb	r0, [r1, #-60]
1007:.\Protocolo.c **** 					for(z=1;z<=12;z++){
 4768              		.loc 1 1007 0 discriminator 2
 4769 19d0 0133     		adds	r3, r3, #1
 4770 19d2 1360     		str	r3, [r2]
 4771              	.L329:
1007:.\Protocolo.c **** 					for(z=1;z<=12;z++){
 4772              		.loc 1 1007 0 is_stmt 0 discriminator 1
 4773 19d4 1368     		ldr	r3, [r2]
 4774 19d6 0C2B     		cmp	r3, #12
 4775 19d8 EED9     		bls	.L330
1010:.\Protocolo.c **** 					}
1011:.\Protocolo.c **** 					minuendo[0]=12;
 4776              		.loc 1 1011 0 is_stmt 1
 4777 19da 10A9     		add	r1, sp, #64
 4778 19dc 0C23     		movs	r3, #12
 4779 19de 01F82C3D 		strb	r3, [r1, #-44]!
1012:.\Protocolo.c **** 					operacion(2,minuendo,sustraendo);
 4780              		.loc 1 1012 0
 4781 19e2 0220     		movs	r0, #2
ARM GAS  C:\Users\RECEPC~1\AppData\Local\Temp\ccNG63cQ.s 			page 109


 4782 19e4 01AA     		add	r2, sp, #4
 4783 19e6 FFF7FEFF 		bl	operacion
 4784              	.LVL358:
1013:.\Protocolo.c **** 					for(x=0;x<=17;x++){									
 4785              		.loc 1 1013 0
 4786 19ea 0022     		movs	r2, #0
 4787 19ec 664B     		ldr	r3, .L556+20
 4788 19ee 1A60     		str	r2, [r3]
 4789 19f0 1D46     		mov	r5, r3
1014:.\Protocolo.c **** 						write_psoc1(val,msn_tventas[x]);				//Total de ventas
 4790              		.loc 1 1014 0
 4791 19f2 664F     		ldr	r7, .L556+24
1013:.\Protocolo.c **** 					for(x=0;x<=17;x++){									
 4792              		.loc 1 1013 0
 4793 19f4 08E0     		b	.L331
 4794              	.L332:
 4795              		.loc 1 1014 0 discriminator 2
 4796 19f6 3B44     		add	r3, r3, r7
 4797 19f8 2046     		mov	r0, r4
 4798 19fa 93F83810 		ldrb	r1, [r3, #56]	@ zero_extendqisi2
 4799 19fe FFF7FEFF 		bl	write_psoc1
 4800              	.LVL359:
1013:.\Protocolo.c **** 					for(x=0;x<=17;x++){									
 4801              		.loc 1 1013 0 discriminator 2
 4802 1a02 2B68     		ldr	r3, [r5]
 4803 1a04 0133     		adds	r3, r3, #1
 4804 1a06 2B60     		str	r3, [r5]
 4805              	.L331:
1013:.\Protocolo.c **** 					for(x=0;x<=17;x++){									
 4806              		.loc 1 1013 0 is_stmt 0 discriminator 1
 4807 1a08 2B68     		ldr	r3, [r5]
 4808 1a0a 112B     		cmp	r3, #17
 4809 1a0c F3D9     		bls	.L332
1015:.\Protocolo.c **** 					}
1016:.\Protocolo.c **** 					print_valor(resultado,val);				
 4810              		.loc 1 1016 0 is_stmt 1
 4811 1a0e 5948     		ldr	r0, .L556
 4812 1a10 2146     		mov	r1, r4
 4813 1a12 FFF7FEFF 		bl	print_valor
 4814              	.LVL360:
1017:.\Protocolo.c **** 					if(dir==lado.a.dir){
 4815              		.loc 1 1017 0
 4816 1a16 5A4B     		ldr	r3, .L556+12
 4817 1a18 1B78     		ldrb	r3, [r3]	@ zero_extendqisi2
 4818 1a1a B342     		cmp	r3, r6
 4819 1a1c 09D1     		bne	.L333
1018:.\Protocolo.c **** 						write_eeprom(217,corte);
 4820              		.loc 1 1018 0
 4821 1a1e D920     		movs	r0, #217
 4822 1a20 09A9     		add	r1, sp, #36
 4823 1a22 FFF7FEFF 		bl	write_eeprom
 4824              	.LVL361:
1019:.\Protocolo.c **** 						write_eeprom(538,resultado);
 4825              		.loc 1 1019 0
 4826 1a26 40F21A20 		movw	r0, #538
 4827 1a2a 5249     		ldr	r1, .L556
 4828 1a2c FFF7FEFF 		bl	write_eeprom
ARM GAS  C:\Users\RECEPC~1\AppData\Local\Temp\ccNG63cQ.s 			page 110


 4829              	.LVL362:
 4830 1a30 09E0     		b	.L320
 4831              	.L333:
1020:.\Protocolo.c **** 					}
1021:.\Protocolo.c **** 					else{
1022:.\Protocolo.c **** 						write_eeprom(320,corte);
 4832              		.loc 1 1022 0
 4833 1a32 4FF4A070 		mov	r0, #320
 4834 1a36 09A9     		add	r1, sp, #36
 4835 1a38 FFF7FEFF 		bl	write_eeprom
 4836              	.LVL363:
1023:.\Protocolo.c **** 						write_eeprom(576,resultado);
 4837              		.loc 1 1023 0
 4838 1a3c 4FF41070 		mov	r0, #576
 4839 1a40 4C49     		ldr	r1, .L556
 4840 1a42 FFF7FEFF 		bl	write_eeprom
 4841              	.LVL364:
 4842              	.L320:
1024:.\Protocolo.c **** 					}				
1025:.\Protocolo.c **** 				}
1026:.\Protocolo.c **** 				if(((rventa.manguera==(extra&0x0F))&&(dir==lado.a.dir))||((rventa.manguera==(extra2&0x0F))&&(di
 4843              		.loc 1 1026 0
 4844 1a46 4C4B     		ldr	r3, .L556+4
 4845 1a48 93F8E030 		ldrb	r3, [r3, #224]	@ zero_extendqisi2
 4846 1a4c 524A     		ldr	r2, .L556+36
 4847 1a4e 1278     		ldrb	r2, [r2]	@ zero_extendqisi2
 4848 1a50 02F00F02 		and	r2, r2, #15
 4849 1a54 9A42     		cmp	r2, r3
 4850 1a56 03D1     		bne	.L334
 4851              		.loc 1 1026 0 is_stmt 0 discriminator 1
 4852 1a58 494A     		ldr	r2, .L556+12
 4853 1a5a 1278     		ldrb	r2, [r2]	@ zero_extendqisi2
 4854 1a5c B242     		cmp	r2, r6
 4855 1a5e 0BD0     		beq	.L335
 4856              	.L334:
 4857              		.loc 1 1026 0 discriminator 2
 4858 1a60 4E4A     		ldr	r2, .L556+40
 4859 1a62 1278     		ldrb	r2, [r2]	@ zero_extendqisi2
 4860 1a64 02F00F02 		and	r2, r2, #15
 4861 1a68 9342     		cmp	r3, r2
 4862 1a6a 40F0C280 		bne	.L336
 4863              		.loc 1 1026 0 discriminator 1
 4864 1a6e 444B     		ldr	r3, .L556+12
 4865 1a70 1B79     		ldrb	r3, [r3, #4]	@ zero_extendqisi2
 4866 1a72 B342     		cmp	r3, r6
 4867 1a74 40F0BD80 		bne	.L336
 4868              	.L335:
1027:.\Protocolo.c **** 					for(x=0;x<=12;x++){									
 4869              		.loc 1 1027 0 is_stmt 1
 4870 1a78 0022     		movs	r2, #0
 4871 1a7a 434B     		ldr	r3, .L556+20
 4872 1a7c 1A60     		str	r2, [r3]
 4873 1a7e 1D46     		mov	r5, r3
1028:.\Protocolo.c **** 						write_psoc1(val,msn_te[x]);
 4874              		.loc 1 1028 0
 4875 1a80 424F     		ldr	r7, .L556+24
1027:.\Protocolo.c **** 					for(x=0;x<=12;x++){									
ARM GAS  C:\Users\RECEPC~1\AppData\Local\Temp\ccNG63cQ.s 			page 111


 4876              		.loc 1 1027 0
 4877 1a82 08E0     		b	.L337
 4878              	.L338:
 4879              		.loc 1 1028 0 discriminator 2
 4880 1a84 3B44     		add	r3, r3, r7
 4881 1a86 2046     		mov	r0, r4
 4882 1a88 93F85C10 		ldrb	r1, [r3, #92]	@ zero_extendqisi2
 4883 1a8c FFF7FEFF 		bl	write_psoc1
 4884              	.LVL365:
1027:.\Protocolo.c **** 					for(x=0;x<=12;x++){									
 4885              		.loc 1 1027 0 discriminator 2
 4886 1a90 2B68     		ldr	r3, [r5]
 4887 1a92 0133     		adds	r3, r3, #1
 4888 1a94 2B60     		str	r3, [r5]
 4889              	.L337:
1027:.\Protocolo.c **** 					for(x=0;x<=12;x++){									
 4890              		.loc 1 1027 0 is_stmt 0 discriminator 1
 4891 1a96 2B68     		ldr	r3, [r5]
 4892 1a98 0C2B     		cmp	r3, #12
 4893 1a9a F3D9     		bls	.L338
1029:.\Protocolo.c **** 					}
1030:.\Protocolo.c **** 					write_psoc1(val,10);
 4894              		.loc 1 1030 0 is_stmt 1
 4895 1a9c 2046     		mov	r0, r4
 4896 1a9e 0A21     		movs	r1, #10
 4897 1aa0 FFF7FEFF 		bl	write_psoc1
 4898              	.LVL366:
1031:.\Protocolo.c **** 					for(x=0;x<=14;x++){									
 4899              		.loc 1 1031 0
 4900 1aa4 0022     		movs	r2, #0
 4901 1aa6 384B     		ldr	r3, .L556+20
 4902 1aa8 1A60     		str	r2, [r3]
 4903 1aaa 1D46     		mov	r5, r3
1032:.\Protocolo.c **** 						write_psoc1(val,msn_lecact[x]);				//LECTURA ACTUAL
 4904              		.loc 1 1032 0
 4905 1aac 374F     		ldr	r7, .L556+24
1031:.\Protocolo.c **** 					for(x=0;x<=14;x++){									
 4906              		.loc 1 1031 0
 4907 1aae 07E0     		b	.L339
 4908              	.L340:
 4909              		.loc 1 1032 0 discriminator 2
 4910 1ab0 3B44     		add	r3, r3, r7
 4911 1ab2 2046     		mov	r0, r4
 4912 1ab4 197D     		ldrb	r1, [r3, #20]	@ zero_extendqisi2
 4913 1ab6 FFF7FEFF 		bl	write_psoc1
 4914              	.LVL367:
1031:.\Protocolo.c **** 					for(x=0;x<=14;x++){									
 4915              		.loc 1 1031 0 discriminator 2
 4916 1aba 2B68     		ldr	r3, [r5]
 4917 1abc 0133     		adds	r3, r3, #1
 4918 1abe 2B60     		str	r3, [r5]
 4919              	.L339:
1031:.\Protocolo.c **** 					for(x=0;x<=14;x++){									
 4920              		.loc 1 1031 0 is_stmt 0 discriminator 1
 4921 1ac0 2B68     		ldr	r3, [r5]
 4922 1ac2 0E2B     		cmp	r3, #14
 4923 1ac4 F4D9     		bls	.L340
ARM GAS  C:\Users\RECEPC~1\AppData\Local\Temp\ccNG63cQ.s 			page 112


1033:.\Protocolo.c **** 					}
1034:.\Protocolo.c **** 					write_psoc1(val,10);
 4924              		.loc 1 1034 0 is_stmt 1
 4925 1ac6 2046     		mov	r0, r4
 4926 1ac8 0A21     		movs	r1, #10
 4927 1aca FFF7FEFF 		bl	write_psoc1
 4928              	.LVL368:
1035:.\Protocolo.c **** 					print_totalesac(12,val);	
 4929              		.loc 1 1035 0
 4930 1ace 0C20     		movs	r0, #12
 4931 1ad0 2146     		mov	r1, r4
 4932 1ad2 FFF7FEFF 		bl	print_totalesac
 4933              	.LVL369:
1036:.\Protocolo.c **** 					for(x=0;x<=16;x++){												
 4934              		.loc 1 1036 0
 4935 1ad6 0022     		movs	r2, #0
 4936 1ad8 2B4B     		ldr	r3, .L556+20
 4937 1ada 1A60     		str	r2, [r3]
 4938 1adc 1D46     		mov	r5, r3
1037:.\Protocolo.c **** 						write_psoc1(val,msn_lecaan[x]);				//LECTURA ANTERIOR
 4939              		.loc 1 1037 0
 4940 1ade 2B4F     		ldr	r7, .L556+24
1036:.\Protocolo.c **** 					for(x=0;x<=16;x++){												
 4941              		.loc 1 1036 0
 4942 1ae0 08E0     		b	.L341
 4943              	.L342:
 4944              		.loc 1 1037 0 discriminator 2
 4945 1ae2 3B44     		add	r3, r3, r7
 4946 1ae4 2046     		mov	r0, r4
 4947 1ae6 93F82410 		ldrb	r1, [r3, #36]	@ zero_extendqisi2
 4948 1aea FFF7FEFF 		bl	write_psoc1
 4949              	.LVL370:
1036:.\Protocolo.c **** 					for(x=0;x<=16;x++){												
 4950              		.loc 1 1036 0 discriminator 2
 4951 1aee 2B68     		ldr	r3, [r5]
 4952 1af0 0133     		adds	r3, r3, #1
 4953 1af2 2B60     		str	r3, [r5]
 4954              	.L341:
1036:.\Protocolo.c **** 					for(x=0;x<=16;x++){												
 4955              		.loc 1 1036 0 is_stmt 0 discriminator 1
 4956 1af4 2B68     		ldr	r3, [r5]
 4957 1af6 102B     		cmp	r3, #16
 4958 1af8 F3D9     		bls	.L342
1038:.\Protocolo.c **** 					}
1039:.\Protocolo.c **** 					write_psoc1(val,10);
 4959              		.loc 1 1039 0 is_stmt 1
 4960 1afa 2046     		mov	r0, r4
 4961 1afc 0A21     		movs	r1, #10
 4962 1afe FFF7FEFF 		bl	write_psoc1
 4963              	.LVL371:
1040:.\Protocolo.c **** 					if(dir==lado.a.dir){
 4964              		.loc 1 1040 0
 4965 1b02 1F4B     		ldr	r3, .L556+12
 4966 1b04 1B78     		ldrb	r3, [r3]	@ zero_extendqisi2
 4967 1b06 B342     		cmp	r3, r6
 4968 1b08 05D1     		bne	.L343
1041:.\Protocolo.c **** 						leer_eeprom(256,25);
ARM GAS  C:\Users\RECEPC~1\AppData\Local\Temp\ccNG63cQ.s 			page 113


 4969              		.loc 1 1041 0
 4970 1b0a 4FF48070 		mov	r0, #256
 4971 1b0e 1921     		movs	r1, #25
 4972 1b10 FFF7FEFF 		bl	leer_eeprom
 4973              	.LVL372:
 4974 1b14 04E0     		b	.L344
 4975              	.L343:
1042:.\Protocolo.c **** 					}
1043:.\Protocolo.c **** 					else{
1044:.\Protocolo.c **** 						leer_eeprom(345,25);
 4976              		.loc 1 1044 0
 4977 1b16 40F25910 		movw	r0, #345
 4978 1b1a 1921     		movs	r1, #25
 4979 1b1c FFF7FEFF 		bl	leer_eeprom
 4980              	.LVL373:
 4981              	.L344:
1045:.\Protocolo.c **** 					}
1046:.\Protocolo.c **** 					print_totales(val);
 4982              		.loc 1 1046 0
 4983 1b20 2046     		mov	r0, r4
 4984 1b22 FFF7FEFF 		bl	print_totales
 4985              	.LVL374:
1047:.\Protocolo.c **** 					for(z=1;z<=12;z++){
 4986              		.loc 1 1047 0
 4987 1b26 0122     		movs	r2, #1
 4988 1b28 194B     		ldr	r3, .L556+28
 4989 1b2a 1A60     		str	r2, [r3]
 4990 1b2c 1A46     		mov	r2, r3
1048:.\Protocolo.c **** 						minuendo[z]=rventa.tdinero[z-1];
 4991              		.loc 1 1048 0
 4992 1b2e 124F     		ldr	r7, .L556+4
1049:.\Protocolo.c **** 						sustraendo[z]=buffer_i2c[z+12];
 4993              		.loc 1 1049 0
 4994 1b30 184D     		ldr	r5, .L556+32
1047:.\Protocolo.c **** 					for(z=1;z<=12;z++){
 4995              		.loc 1 1047 0
 4996 1b32 0DE0     		b	.L345
 4997              	.L346:
1048:.\Protocolo.c **** 						minuendo[z]=rventa.tdinero[z-1];
 4998              		.loc 1 1048 0 discriminator 2
 4999 1b34 F918     		adds	r1, r7, r3
 5000 1b36 91F8C900 		ldrb	r0, [r1, #201]	@ zero_extendqisi2
 5001 1b3a 10A9     		add	r1, sp, #64
 5002 1b3c 1944     		add	r1, r1, r3
 5003 1b3e 01F82C0C 		strb	r0, [r1, #-44]
 5004              		.loc 1 1049 0 discriminator 2
 5005 1b42 03F10C00 		add	r0, r3, #12
 5006 1b46 285C     		ldrb	r0, [r5, r0]	@ zero_extendqisi2
 5007 1b48 01F83C0C 		strb	r0, [r1, #-60]
1047:.\Protocolo.c **** 					for(z=1;z<=12;z++){
 5008              		.loc 1 1047 0 discriminator 2
 5009 1b4c 0133     		adds	r3, r3, #1
 5010 1b4e 1360     		str	r3, [r2]
 5011              	.L345:
1047:.\Protocolo.c **** 					for(z=1;z<=12;z++){
 5012              		.loc 1 1047 0 is_stmt 0 discriminator 1
 5013 1b50 1368     		ldr	r3, [r2]
ARM GAS  C:\Users\RECEPC~1\AppData\Local\Temp\ccNG63cQ.s 			page 114


 5014 1b52 0C2B     		cmp	r3, #12
 5015 1b54 EED9     		bls	.L346
1050:.\Protocolo.c **** 					}
1051:.\Protocolo.c **** 					minuendo[0]=12;
 5016              		.loc 1 1051 0 is_stmt 1
 5017 1b56 10A9     		add	r1, sp, #64
 5018 1b58 0C23     		movs	r3, #12
 5019 1b5a 01F82C3D 		strb	r3, [r1, #-44]!
1052:.\Protocolo.c **** 					operacion(2,minuendo,sustraendo);
 5020              		.loc 1 1052 0
 5021 1b5e 0220     		movs	r0, #2
 5022 1b60 01AA     		add	r2, sp, #4
 5023 1b62 FFF7FEFF 		bl	operacion
 5024              	.LVL375:
1053:.\Protocolo.c **** 					for(x=0;x<=17;x++){									
 5025              		.loc 1 1053 0
 5026 1b66 0022     		movs	r2, #0
 5027 1b68 074B     		ldr	r3, .L556+20
 5028 1b6a 1A60     		str	r2, [r3]
 5029 1b6c 1D46     		mov	r5, r3
1054:.\Protocolo.c **** 						write_psoc1(val,msn_tventas[x]);				//Total de ventas
 5030              		.loc 1 1054 0
 5031 1b6e 074F     		ldr	r7, .L556+24
1053:.\Protocolo.c **** 					for(x=0;x<=17;x++){									
 5032              		.loc 1 1053 0
 5033 1b70 1FE0     		b	.L347
 5034              	.L557:
 5035 1b72 00BF     		.align	2
 5036              	.L556:
 5037 1b74 00000000 		.word	resultado
 5038 1b78 00000000 		.word	rventa
 5039 1b7c 00000000 		.word	diesel
 5040 1b80 00000000 		.word	lado
 5041 1b84 00000000 		.word	diesel2
 5042 1b88 00000000 		.word	x
 5043 1b8c 00000000 		.word	.LANCHOR1
 5044 1b90 00000000 		.word	z
 5045 1b94 00000000 		.word	buffer_i2c
 5046 1b98 00000000 		.word	extra
 5047 1b9c 00000000 		.word	extra2
 5048              	.L348:
 5049              		.loc 1 1054 0 discriminator 2
 5050 1ba0 3B44     		add	r3, r3, r7
 5051 1ba2 2046     		mov	r0, r4
 5052 1ba4 93F83810 		ldrb	r1, [r3, #56]	@ zero_extendqisi2
 5053 1ba8 FFF7FEFF 		bl	write_psoc1
 5054              	.LVL376:
1053:.\Protocolo.c **** 					for(x=0;x<=17;x++){									
 5055              		.loc 1 1053 0 discriminator 2
 5056 1bac 2B68     		ldr	r3, [r5]
 5057 1bae 0133     		adds	r3, r3, #1
 5058 1bb0 2B60     		str	r3, [r5]
 5059              	.L347:
1053:.\Protocolo.c **** 					for(x=0;x<=17;x++){									
 5060              		.loc 1 1053 0 is_stmt 0 discriminator 1
 5061 1bb2 2B68     		ldr	r3, [r5]
 5062 1bb4 112B     		cmp	r3, #17
ARM GAS  C:\Users\RECEPC~1\AppData\Local\Temp\ccNG63cQ.s 			page 115


 5063 1bb6 F3D9     		bls	.L348
1055:.\Protocolo.c **** 					}
1056:.\Protocolo.c **** 					print_valor(resultado,val);							
 5064              		.loc 1 1056 0 is_stmt 1
 5065 1bb8 A648     		ldr	r0, .L558
 5066 1bba 2146     		mov	r1, r4
 5067 1bbc FFF7FEFF 		bl	print_valor
 5068              	.LVL377:
1057:.\Protocolo.c **** 					if(dir==lado.a.dir){
 5069              		.loc 1 1057 0
 5070 1bc0 A54B     		ldr	r3, .L558+4
 5071 1bc2 1B78     		ldrb	r3, [r3]	@ zero_extendqisi2
 5072 1bc4 B342     		cmp	r3, r6
 5073 1bc6 0AD1     		bne	.L349
1058:.\Protocolo.c **** 						write_eeprom(256,corte);
 5074              		.loc 1 1058 0
 5075 1bc8 4FF48070 		mov	r0, #256
 5076 1bcc 09A9     		add	r1, sp, #36
 5077 1bce FFF7FEFF 		bl	write_eeprom
 5078              	.LVL378:
1059:.\Protocolo.c **** 						write_eeprom(525,resultado);
 5079              		.loc 1 1059 0
 5080 1bd2 40F20D20 		movw	r0, #525
 5081 1bd6 9F49     		ldr	r1, .L558
 5082 1bd8 FFF7FEFF 		bl	write_eeprom
 5083              	.LVL379:
 5084 1bdc 09E0     		b	.L336
 5085              	.L349:
1060:.\Protocolo.c **** 					}
1061:.\Protocolo.c **** 					else{
1062:.\Protocolo.c **** 						write_eeprom(345,corte);
 5086              		.loc 1 1062 0
 5087 1bde 40F25910 		movw	r0, #345
 5088 1be2 09A9     		add	r1, sp, #36
 5089 1be4 FFF7FEFF 		bl	write_eeprom
 5090              	.LVL380:
1063:.\Protocolo.c **** 						write_eeprom(589,resultado);
 5091              		.loc 1 1063 0
 5092 1be8 40F24D20 		movw	r0, #589
 5093 1bec 9949     		ldr	r1, .L558
 5094 1bee FFF7FEFF 		bl	write_eeprom
 5095              	.LVL381:
 5096              	.L336:
1064:.\Protocolo.c **** 					}					
1065:.\Protocolo.c **** 				}
1066:.\Protocolo.c ****                 
1067:.\Protocolo.c ****                 if(((rventa.manguera==(kero&0x0F))&&(dir==lado.a.dir))||((rventa.manguera==(kero2&0
 5097              		.loc 1 1067 0
 5098 1bf2 9A4B     		ldr	r3, .L558+8
 5099 1bf4 93F8E030 		ldrb	r3, [r3, #224]	@ zero_extendqisi2
 5100 1bf8 994A     		ldr	r2, .L558+12
 5101 1bfa 1278     		ldrb	r2, [r2]	@ zero_extendqisi2
 5102 1bfc 02F00F02 		and	r2, r2, #15
 5103 1c00 9A42     		cmp	r2, r3
 5104 1c02 03D1     		bne	.L350
 5105              		.loc 1 1067 0 is_stmt 0 discriminator 1
 5106 1c04 944A     		ldr	r2, .L558+4
ARM GAS  C:\Users\RECEPC~1\AppData\Local\Temp\ccNG63cQ.s 			page 116


 5107 1c06 1278     		ldrb	r2, [r2]	@ zero_extendqisi2
 5108 1c08 B242     		cmp	r2, r6
 5109 1c0a 0BD0     		beq	.L351
 5110              	.L350:
 5111              		.loc 1 1067 0 discriminator 2
 5112 1c0c 954A     		ldr	r2, .L558+16
 5113 1c0e 1278     		ldrb	r2, [r2]	@ zero_extendqisi2
 5114 1c10 02F00F02 		and	r2, r2, #15
 5115 1c14 9342     		cmp	r3, r2
 5116 1c16 40F0AB80 		bne	.L352
 5117              		.loc 1 1067 0 discriminator 1
 5118 1c1a 8F4B     		ldr	r3, .L558+4
 5119 1c1c 1B79     		ldrb	r3, [r3, #4]	@ zero_extendqisi2
 5120 1c1e B342     		cmp	r3, r6
 5121 1c20 40F0A680 		bne	.L352
 5122              	.L351:
1068:.\Protocolo.c **** 					for(x=0;x<=9;x++){									
 5123              		.loc 1 1068 0 is_stmt 1
 5124 1c24 0022     		movs	r2, #0
 5125 1c26 904B     		ldr	r3, .L558+20
 5126 1c28 1A60     		str	r2, [r3]
 5127 1c2a 1D46     		mov	r5, r3
1069:.\Protocolo.c **** 						write_psoc1(val,msn_tk[x]);
 5128              		.loc 1 1069 0
 5129 1c2c 8F4F     		ldr	r7, .L558+24
1068:.\Protocolo.c **** 					for(x=0;x<=9;x++){									
 5130              		.loc 1 1068 0
 5131 1c2e 08E0     		b	.L353
 5132              	.L354:
 5133              		.loc 1 1069 0 discriminator 2
 5134 1c30 3B44     		add	r3, r3, r7
 5135 1c32 2046     		mov	r0, r4
 5136 1c34 93F86C10 		ldrb	r1, [r3, #108]	@ zero_extendqisi2
 5137 1c38 FFF7FEFF 		bl	write_psoc1
 5138              	.LVL382:
1068:.\Protocolo.c **** 					for(x=0;x<=9;x++){									
 5139              		.loc 1 1068 0 discriminator 2
 5140 1c3c 2B68     		ldr	r3, [r5]
 5141 1c3e 0133     		adds	r3, r3, #1
 5142 1c40 2B60     		str	r3, [r5]
 5143              	.L353:
1068:.\Protocolo.c **** 					for(x=0;x<=9;x++){									
 5144              		.loc 1 1068 0 is_stmt 0 discriminator 1
 5145 1c42 2B68     		ldr	r3, [r5]
 5146 1c44 092B     		cmp	r3, #9
 5147 1c46 F3D9     		bls	.L354
1070:.\Protocolo.c **** 					}
1071:.\Protocolo.c **** 					write_psoc1(val,10);
 5148              		.loc 1 1071 0 is_stmt 1
 5149 1c48 2046     		mov	r0, r4
 5150 1c4a 0A21     		movs	r1, #10
 5151 1c4c FFF7FEFF 		bl	write_psoc1
 5152              	.LVL383:
1072:.\Protocolo.c **** 					for(x=0;x<=14;x++){									
 5153              		.loc 1 1072 0
 5154 1c50 0022     		movs	r2, #0
 5155 1c52 854B     		ldr	r3, .L558+20
ARM GAS  C:\Users\RECEPC~1\AppData\Local\Temp\ccNG63cQ.s 			page 117


 5156 1c54 1A60     		str	r2, [r3]
 5157 1c56 1D46     		mov	r5, r3
1073:.\Protocolo.c **** 						write_psoc1(val,msn_lecact[x]);				//LECTURA ACTUAL
 5158              		.loc 1 1073 0
 5159 1c58 844F     		ldr	r7, .L558+24
1072:.\Protocolo.c **** 					for(x=0;x<=14;x++){									
 5160              		.loc 1 1072 0
 5161 1c5a 07E0     		b	.L355
 5162              	.L356:
 5163              		.loc 1 1073 0 discriminator 2
 5164 1c5c 3B44     		add	r3, r3, r7
 5165 1c5e 2046     		mov	r0, r4
 5166 1c60 197D     		ldrb	r1, [r3, #20]	@ zero_extendqisi2
 5167 1c62 FFF7FEFF 		bl	write_psoc1
 5168              	.LVL384:
1072:.\Protocolo.c **** 					for(x=0;x<=14;x++){									
 5169              		.loc 1 1072 0 discriminator 2
 5170 1c66 2B68     		ldr	r3, [r5]
 5171 1c68 0133     		adds	r3, r3, #1
 5172 1c6a 2B60     		str	r3, [r5]
 5173              	.L355:
1072:.\Protocolo.c **** 					for(x=0;x<=14;x++){									
 5174              		.loc 1 1072 0 is_stmt 0 discriminator 1
 5175 1c6c 2B68     		ldr	r3, [r5]
 5176 1c6e 0E2B     		cmp	r3, #14
 5177 1c70 F4D9     		bls	.L356
1074:.\Protocolo.c **** 					}
1075:.\Protocolo.c **** 					write_psoc1(val,10);
 5178              		.loc 1 1075 0 is_stmt 1
 5179 1c72 2046     		mov	r0, r4
 5180 1c74 0A21     		movs	r1, #10
 5181 1c76 FFF7FEFF 		bl	write_psoc1
 5182              	.LVL385:
1076:.\Protocolo.c **** 					print_totalesac(12,val);	
 5183              		.loc 1 1076 0
 5184 1c7a 0C20     		movs	r0, #12
 5185 1c7c 2146     		mov	r1, r4
 5186 1c7e FFF7FEFF 		bl	print_totalesac
 5187              	.LVL386:
1077:.\Protocolo.c **** 					for(x=0;x<=16;x++){												
 5188              		.loc 1 1077 0
 5189 1c82 0022     		movs	r2, #0
 5190 1c84 784B     		ldr	r3, .L558+20
 5191 1c86 1A60     		str	r2, [r3]
 5192 1c88 1D46     		mov	r5, r3
1078:.\Protocolo.c **** 						write_psoc1(val,msn_lecaan[x]);				//LECTURA ANTERIOR
 5193              		.loc 1 1078 0
 5194 1c8a 784F     		ldr	r7, .L558+24
1077:.\Protocolo.c **** 					for(x=0;x<=16;x++){												
 5195              		.loc 1 1077 0
 5196 1c8c 08E0     		b	.L357
 5197              	.L358:
 5198              		.loc 1 1078 0 discriminator 2
 5199 1c8e 3B44     		add	r3, r3, r7
 5200 1c90 2046     		mov	r0, r4
 5201 1c92 93F82410 		ldrb	r1, [r3, #36]	@ zero_extendqisi2
 5202 1c96 FFF7FEFF 		bl	write_psoc1
ARM GAS  C:\Users\RECEPC~1\AppData\Local\Temp\ccNG63cQ.s 			page 118


 5203              	.LVL387:
1077:.\Protocolo.c **** 					for(x=0;x<=16;x++){												
 5204              		.loc 1 1077 0 discriminator 2
 5205 1c9a 2B68     		ldr	r3, [r5]
 5206 1c9c 0133     		adds	r3, r3, #1
 5207 1c9e 2B60     		str	r3, [r5]
 5208              	.L357:
1077:.\Protocolo.c **** 					for(x=0;x<=16;x++){												
 5209              		.loc 1 1077 0 is_stmt 0 discriminator 1
 5210 1ca0 2B68     		ldr	r3, [r5]
 5211 1ca2 102B     		cmp	r3, #16
 5212 1ca4 F3D9     		bls	.L358
1079:.\Protocolo.c **** 					}
1080:.\Protocolo.c **** 					write_psoc1(val,10);
 5213              		.loc 1 1080 0 is_stmt 1
 5214 1ca6 2046     		mov	r0, r4
 5215 1ca8 0A21     		movs	r1, #10
 5216 1caa FFF7FEFF 		bl	write_psoc1
 5217              	.LVL388:
1081:.\Protocolo.c **** 					if(dir==lado.a.dir){
 5218              		.loc 1 1081 0
 5219 1cae 6A4B     		ldr	r3, .L558+4
 5220 1cb0 1B78     		ldrb	r3, [r3]	@ zero_extendqisi2
 5221 1cb2 B342     		cmp	r3, r6
 5222 1cb4 05D1     		bne	.L359
1082:.\Protocolo.c **** 						leer_eeprom(1096,25);
 5223              		.loc 1 1082 0
 5224 1cb6 4FF48960 		mov	r0, #1096
 5225 1cba 1921     		movs	r1, #25
 5226 1cbc FFF7FEFF 		bl	leer_eeprom
 5227              	.LVL389:
 5228 1cc0 04E0     		b	.L360
 5229              	.L359:
1083:.\Protocolo.c **** 					}
1084:.\Protocolo.c **** 					else{
1085:.\Protocolo.c **** 						leer_eeprom(1054,25);
 5230              		.loc 1 1085 0
 5231 1cc2 40F21E40 		movw	r0, #1054
 5232 1cc6 1921     		movs	r1, #25
 5233 1cc8 FFF7FEFF 		bl	leer_eeprom
 5234              	.LVL390:
 5235              	.L360:
1086:.\Protocolo.c **** 					}
1087:.\Protocolo.c **** 					print_totales(val);
 5236              		.loc 1 1087 0
 5237 1ccc 2046     		mov	r0, r4
 5238 1cce FFF7FEFF 		bl	print_totales
 5239              	.LVL391:
1088:.\Protocolo.c **** 					for(z=1;z<=12;z++){
 5240              		.loc 1 1088 0
 5241 1cd2 0122     		movs	r2, #1
 5242 1cd4 664B     		ldr	r3, .L558+28
 5243 1cd6 1A60     		str	r2, [r3]
 5244 1cd8 1946     		mov	r1, r3
1089:.\Protocolo.c **** 						minuendo[z]=rventa.tdinero[z-1];
 5245              		.loc 1 1089 0
 5246 1cda 604F     		ldr	r7, .L558+8
ARM GAS  C:\Users\RECEPC~1\AppData\Local\Temp\ccNG63cQ.s 			page 119


1090:.\Protocolo.c **** 						sustraendo[z]=buffer_i2c[z+12];
 5247              		.loc 1 1090 0
 5248 1cdc 654D     		ldr	r5, .L558+32
1088:.\Protocolo.c **** 					for(z=1;z<=12;z++){
 5249              		.loc 1 1088 0
 5250 1cde 0DE0     		b	.L361
 5251              	.L362:
1089:.\Protocolo.c **** 						minuendo[z]=rventa.tdinero[z-1];
 5252              		.loc 1 1089 0 discriminator 2
 5253 1ce0 FA18     		adds	r2, r7, r3
 5254 1ce2 92F8C900 		ldrb	r0, [r2, #201]	@ zero_extendqisi2
 5255 1ce6 10AA     		add	r2, sp, #64
 5256 1ce8 1A44     		add	r2, r2, r3
 5257 1cea 02F82C0C 		strb	r0, [r2, #-44]
 5258              		.loc 1 1090 0 discriminator 2
 5259 1cee 03F10C00 		add	r0, r3, #12
 5260 1cf2 285C     		ldrb	r0, [r5, r0]	@ zero_extendqisi2
 5261 1cf4 02F83C0C 		strb	r0, [r2, #-60]
1088:.\Protocolo.c **** 					for(z=1;z<=12;z++){
 5262              		.loc 1 1088 0 discriminator 2
 5263 1cf8 0133     		adds	r3, r3, #1
 5264 1cfa 0B60     		str	r3, [r1]
 5265              	.L361:
1088:.\Protocolo.c **** 					for(z=1;z<=12;z++){
 5266              		.loc 1 1088 0 is_stmt 0 discriminator 1
 5267 1cfc 0B68     		ldr	r3, [r1]
 5268 1cfe 0C2B     		cmp	r3, #12
 5269 1d00 EED9     		bls	.L362
1091:.\Protocolo.c **** 					}
1092:.\Protocolo.c **** 					minuendo[0]=12;
 5270              		.loc 1 1092 0 is_stmt 1
 5271 1d02 10A9     		add	r1, sp, #64
 5272 1d04 0C23     		movs	r3, #12
 5273 1d06 01F82C3D 		strb	r3, [r1, #-44]!
1093:.\Protocolo.c **** 					operacion(2,minuendo,sustraendo);
 5274              		.loc 1 1093 0
 5275 1d0a 0220     		movs	r0, #2
 5276 1d0c 01AA     		add	r2, sp, #4
 5277 1d0e FFF7FEFF 		bl	operacion
 5278              	.LVL392:
1094:.\Protocolo.c **** 					for(x=0;x<=17;x++){									
 5279              		.loc 1 1094 0
 5280 1d12 0022     		movs	r2, #0
 5281 1d14 544B     		ldr	r3, .L558+20
 5282 1d16 1A60     		str	r2, [r3]
 5283 1d18 1D46     		mov	r5, r3
1095:.\Protocolo.c **** 						write_psoc1(val,msn_tventas[x]);				//Total de ventas
 5284              		.loc 1 1095 0
 5285 1d1a 544F     		ldr	r7, .L558+24
1094:.\Protocolo.c **** 					for(x=0;x<=17;x++){									
 5286              		.loc 1 1094 0
 5287 1d1c 08E0     		b	.L363
 5288              	.L364:
 5289              		.loc 1 1095 0 discriminator 2
 5290 1d1e 3B44     		add	r3, r3, r7
 5291 1d20 2046     		mov	r0, r4
 5292 1d22 93F83810 		ldrb	r1, [r3, #56]	@ zero_extendqisi2
ARM GAS  C:\Users\RECEPC~1\AppData\Local\Temp\ccNG63cQ.s 			page 120


 5293 1d26 FFF7FEFF 		bl	write_psoc1
 5294              	.LVL393:
1094:.\Protocolo.c **** 					for(x=0;x<=17;x++){									
 5295              		.loc 1 1094 0 discriminator 2
 5296 1d2a 2B68     		ldr	r3, [r5]
 5297 1d2c 0133     		adds	r3, r3, #1
 5298 1d2e 2B60     		str	r3, [r5]
 5299              	.L363:
1094:.\Protocolo.c **** 					for(x=0;x<=17;x++){									
 5300              		.loc 1 1094 0 is_stmt 0 discriminator 1
 5301 1d30 2B68     		ldr	r3, [r5]
 5302 1d32 112B     		cmp	r3, #17
 5303 1d34 F3D9     		bls	.L364
1096:.\Protocolo.c **** 					}
1097:.\Protocolo.c **** 					print_valor(resultado,val);							
 5304              		.loc 1 1097 0 is_stmt 1
 5305 1d36 4748     		ldr	r0, .L558
 5306 1d38 2146     		mov	r1, r4
 5307 1d3a FFF7FEFF 		bl	print_valor
 5308              	.LVL394:
1098:.\Protocolo.c **** 					if(dir==lado.a.dir){
 5309              		.loc 1 1098 0
 5310 1d3e 464B     		ldr	r3, .L558+4
 5311 1d40 1B78     		ldrb	r3, [r3]	@ zero_extendqisi2
 5312 1d42 B342     		cmp	r3, r6
 5313 1d44 0AD1     		bne	.L365
1099:.\Protocolo.c **** 						write_eeprom(1096,corte);
 5314              		.loc 1 1099 0
 5315 1d46 4FF48960 		mov	r0, #1096
 5316 1d4a 09A9     		add	r1, sp, #36
 5317 1d4c FFF7FEFF 		bl	write_eeprom
 5318              	.LVL395:
1100:.\Protocolo.c **** 						write_eeprom(1038,resultado);
 5319              		.loc 1 1100 0
 5320 1d50 40F20E40 		movw	r0, #1038
 5321 1d54 3F49     		ldr	r1, .L558
 5322 1d56 FFF7FEFF 		bl	write_eeprom
 5323              	.LVL396:
 5324 1d5a 09E0     		b	.L352
 5325              	.L365:
1101:.\Protocolo.c **** 					}
1102:.\Protocolo.c **** 					else{
1103:.\Protocolo.c **** 						write_eeprom(1054,corte);
 5326              		.loc 1 1103 0
 5327 1d5c 40F21E40 		movw	r0, #1054
 5328 1d60 09A9     		add	r1, sp, #36
 5329 1d62 FFF7FEFF 		bl	write_eeprom
 5330              	.LVL397:
1104:.\Protocolo.c **** 						write_eeprom(1081,resultado);
 5331              		.loc 1 1104 0
 5332 1d66 40F23940 		movw	r0, #1081
 5333 1d6a 3A49     		ldr	r1, .L558
 5334 1d6c FFF7FEFF 		bl	write_eeprom
 5335              	.LVL398:
 5336              	.L352:
1105:.\Protocolo.c **** 				    }						
1106:.\Protocolo.c **** 				}
ARM GAS  C:\Users\RECEPC~1\AppData\Local\Temp\ccNG63cQ.s 			page 121


1107:.\Protocolo.c **** 				Surtidor_ClearRxBuffer();
 5337              		.loc 1 1107 0
 5338 1d70 FFF7FEFF 		bl	Surtidor_ClearRxBuffer
 5339              	.LVL399:
1108:.\Protocolo.c **** 				return 1;
 5340              		.loc 1 1108 0
 5341 1d74 0120     		movs	r0, #1
 5342 1d76 00F0A5BF 		b	.L73
 5343              	.L72:
1109:.\Protocolo.c **** 			}
1110:.\Protocolo.c **** 			else{
1111:.\Protocolo.c **** 				return 0;
1112:.\Protocolo.c **** 			}			
1113:.\Protocolo.c **** 		break;
1114:.\Protocolo.c **** 		
1115:.\Protocolo.c **** 		case 88:
1116:.\Protocolo.c **** 			if((Surtidor_rxBuffer[0]==0xFF)&&(Surtidor_rxBuffer[1]==0xF6)&&(Surtidor_rxBuffer[87]==0xF0)&&(S
 5344              		.loc 1 1116 0
 5345 1d7a 3F4B     		ldr	r3, .L558+36
 5346 1d7c 1B78     		ldrb	r3, [r3]	@ zero_extendqisi2
 5347 1d7e DBB2     		uxtb	r3, r3
 5348 1d80 FF2B     		cmp	r3, #255
 5349 1d82 40F09087 		bne	.L532
 5350              		.loc 1 1116 0 is_stmt 0 discriminator 1
 5351 1d86 3C4B     		ldr	r3, .L558+36
 5352 1d88 5B78     		ldrb	r3, [r3, #1]	@ zero_extendqisi2
 5353 1d8a DBB2     		uxtb	r3, r3
 5354 1d8c F62B     		cmp	r3, #246
 5355 1d8e 40F08C87 		bne	.L533
 5356 1d92 394B     		ldr	r3, .L558+36
 5357 1d94 93F85730 		ldrb	r3, [r3, #87]	@ zero_extendqisi2
 5358 1d98 DBB2     		uxtb	r3, r3
 5359 1d9a F02B     		cmp	r3, #240
 5360 1d9c 40F08787 		bne	.L534
 5361 1da0 354B     		ldr	r3, .L558+36
 5362 1da2 DB78     		ldrb	r3, [r3, #3]	@ zero_extendqisi2
 5363 1da4 DBB2     		uxtb	r3, r3
 5364 1da6 F92B     		cmp	r3, #249
 5365 1da8 40F08387 		bne	.L535
1117:.\Protocolo.c **** 				for(y=0;y<=42;y+=42){
 5366              		.loc 1 1117 0 is_stmt 1
 5367 1dac 0022     		movs	r2, #0
 5368 1dae 334B     		ldr	r3, .L558+40
 5369 1db0 1A60     		str	r2, [r3]
 5370 1db2 1F46     		mov	r7, r3
1118:.\Protocolo.c **** 					rventa.manguera=(Surtidor_rxBuffer[y+2]&0x0F)+1;
1119:.\Protocolo.c **** 					for(x=0;x<=11;x++){
 5371              		.loc 1 1119 0
 5372 1db4 2C4D     		ldr	r5, .L558+20
1117:.\Protocolo.c **** 				for(y=0;y<=42;y+=42){
 5373              		.loc 1 1117 0
 5374 1db6 93E3     		b	.L366
 5375              	.L439:
1118:.\Protocolo.c **** 					rventa.manguera=(Surtidor_rxBuffer[y+2]&0x0F)+1;
 5376              		.loc 1 1118 0
 5377 1db8 931C     		adds	r3, r2, #2
 5378 1dba 2F49     		ldr	r1, .L558+36
ARM GAS  C:\Users\RECEPC~1\AppData\Local\Temp\ccNG63cQ.s 			page 122


 5379 1dbc C85C     		ldrb	r0, [r1, r3]	@ zero_extendqisi2
 5380 1dbe 00F00F00 		and	r0, r0, #15
 5381 1dc2 0130     		adds	r0, r0, #1
 5382 1dc4 254B     		ldr	r3, .L558+8
 5383 1dc6 83F8E000 		strb	r0, [r3, #224]
 5384              		.loc 1 1119 0
 5385 1dca 0023     		movs	r3, #0
 5386 1dcc 2B60     		str	r3, [r5]
1120:.\Protocolo.c **** 						rventa.tvolumen[x]=(Surtidor_rxBuffer[y+4+x]&0x0F);
 5387              		.loc 1 1120 0
 5388 1dce 8846     		mov	r8, r1
 5389 1dd0 DFF888C0 		ldr	ip, .L558+8
1119:.\Protocolo.c **** 					for(x=0;x<=11;x++){
 5390              		.loc 1 1119 0
 5391 1dd4 0BE0     		b	.L367
 5392              	.L368:
 5393              		.loc 1 1120 0 discriminator 2
 5394 1dd6 D118     		adds	r1, r2, r3
 5395 1dd8 0431     		adds	r1, r1, #4
 5396 1dda 18F801E0 		ldrb	lr, [r8, r1]	@ zero_extendqisi2
 5397 1dde 0CEB0301 		add	r1, ip, r3
 5398 1de2 0EF00F0E 		and	lr, lr, #15
 5399 1de6 81F8BDE0 		strb	lr, [r1, #189]
1119:.\Protocolo.c **** 					for(x=0;x<=11;x++){
 5400              		.loc 1 1119 0 discriminator 2
 5401 1dea 0133     		adds	r3, r3, #1
 5402 1dec 2B60     		str	r3, [r5]
 5403              	.L367:
1119:.\Protocolo.c **** 					for(x=0;x<=11;x++){
 5404              		.loc 1 1119 0 is_stmt 0 discriminator 1
 5405 1dee 2B68     		ldr	r3, [r5]
 5406 1df0 0B2B     		cmp	r3, #11
 5407 1df2 F0D9     		bls	.L368
1121:.\Protocolo.c **** 					}
1122:.\Protocolo.c **** 					for(x=0;x<=11;x++){
 5408              		.loc 1 1122 0 is_stmt 1
 5409 1df4 0023     		movs	r3, #0
 5410 1df6 2B60     		str	r3, [r5]
1123:.\Protocolo.c **** 						rventa.tdinero[x]=(Surtidor_rxBuffer[y+17+x]&0x0F);
 5411              		.loc 1 1123 0
 5412 1df8 DFF87C80 		ldr	r8, .L558+36
 5413 1dfc DFF85CC0 		ldr	ip, .L558+8
1122:.\Protocolo.c **** 					for(x=0;x<=11;x++){
 5414              		.loc 1 1122 0
 5415 1e00 0BE0     		b	.L369
 5416              	.L370:
 5417              		.loc 1 1123 0 discriminator 2
 5418 1e02 D118     		adds	r1, r2, r3
 5419 1e04 1131     		adds	r1, r1, #17
 5420 1e06 18F801E0 		ldrb	lr, [r8, r1]	@ zero_extendqisi2
 5421 1e0a 0CEB0301 		add	r1, ip, r3
 5422 1e0e 0EF00F0E 		and	lr, lr, #15
 5423 1e12 81F8CAE0 		strb	lr, [r1, #202]
1122:.\Protocolo.c **** 					for(x=0;x<=11;x++){
 5424              		.loc 1 1122 0 discriminator 2
 5425 1e16 0133     		adds	r3, r3, #1
 5426 1e18 2B60     		str	r3, [r5]
ARM GAS  C:\Users\RECEPC~1\AppData\Local\Temp\ccNG63cQ.s 			page 123


 5427              	.L369:
1122:.\Protocolo.c **** 					for(x=0;x<=11;x++){
 5428              		.loc 1 1122 0 is_stmt 0 discriminator 1
 5429 1e1a 2B68     		ldr	r3, [r5]
 5430 1e1c 0B2B     		cmp	r3, #11
 5431 1e1e F0D9     		bls	.L370
1124:.\Protocolo.c **** 					}
1125:.\Protocolo.c **** 					for(z=0;z<=11;z++){
 5432              		.loc 1 1125 0 is_stmt 1
 5433 1e20 0022     		movs	r2, #0
 5434 1e22 134B     		ldr	r3, .L558+28
 5435 1e24 1A60     		str	r2, [r3]
 5436 1e26 1946     		mov	r1, r3
1126:.\Protocolo.c **** 						corte[z+1]=rventa.tvolumen[z];
 5437              		.loc 1 1126 0
 5438 1e28 DFF830C0 		ldr	ip, .L558+8
1125:.\Protocolo.c **** 					for(z=0;z<=11;z++){
 5439              		.loc 1 1125 0
 5440 1e2c 08E0     		b	.L371
 5441              	.L372:
 5442              		.loc 1 1126 0 discriminator 2
 5443 1e2e 5A1C     		adds	r2, r3, #1
 5444 1e30 6344     		add	r3, r3, ip
 5445 1e32 93F8BDE0 		ldrb	lr, [r3, #189]	@ zero_extendqisi2
 5446 1e36 10AB     		add	r3, sp, #64
 5447 1e38 1344     		add	r3, r3, r2
 5448 1e3a 03F81CEC 		strb	lr, [r3, #-28]
1125:.\Protocolo.c **** 					for(z=0;z<=11;z++){
 5449              		.loc 1 1125 0 discriminator 2
 5450 1e3e 0A60     		str	r2, [r1]
 5451              	.L371:
1125:.\Protocolo.c **** 					for(z=0;z<=11;z++){
 5452              		.loc 1 1125 0 is_stmt 0 discriminator 1
 5453 1e40 0B68     		ldr	r3, [r1]
 5454 1e42 0B2B     		cmp	r3, #11
 5455 1e44 F3D9     		bls	.L372
1127:.\Protocolo.c **** 					}
1128:.\Protocolo.c **** 					for(z=13;z<=24;z++){
 5456              		.loc 1 1128 0 is_stmt 1
 5457 1e46 0D22     		movs	r2, #13
 5458 1e48 094B     		ldr	r3, .L558+28
 5459 1e4a 1A60     		str	r2, [r3]
 5460 1e4c 1A46     		mov	r2, r3
1129:.\Protocolo.c **** 						corte[z]=rventa.tdinero[z-13];
 5461              		.loc 1 1129 0
 5462 1e4e DFF80CC0 		ldr	ip, .L558+8
1128:.\Protocolo.c **** 					for(z=13;z<=24;z++){
 5463              		.loc 1 1128 0
 5464 1e52 1FE0     		b	.L373
 5465              	.L559:
 5466              		.align	2
 5467              	.L558:
 5468 1e54 00000000 		.word	resultado
 5469 1e58 00000000 		.word	lado
 5470 1e5c 00000000 		.word	rventa
 5471 1e60 00000000 		.word	kero
 5472 1e64 00000000 		.word	kero2
ARM GAS  C:\Users\RECEPC~1\AppData\Local\Temp\ccNG63cQ.s 			page 124


 5473 1e68 00000000 		.word	x
 5474 1e6c 00000000 		.word	.LANCHOR1
 5475 1e70 00000000 		.word	z
 5476 1e74 00000000 		.word	buffer_i2c
 5477 1e78 00000000 		.word	Surtidor_rxBuffer
 5478 1e7c 00000000 		.word	y
 5479              	.L374:
 5480              		.loc 1 1129 0 discriminator 2
 5481 1e80 0CEB0301 		add	r1, ip, r3
 5482 1e84 91F8BDE0 		ldrb	lr, [r1, #189]	@ zero_extendqisi2
 5483 1e88 10A9     		add	r1, sp, #64
 5484 1e8a 1944     		add	r1, r1, r3
 5485 1e8c 01F81CEC 		strb	lr, [r1, #-28]
1128:.\Protocolo.c **** 					for(z=13;z<=24;z++){
 5486              		.loc 1 1128 0 discriminator 2
 5487 1e90 0133     		adds	r3, r3, #1
 5488 1e92 1360     		str	r3, [r2]
 5489              	.L373:
1128:.\Protocolo.c **** 					for(z=13;z<=24;z++){
 5490              		.loc 1 1128 0 is_stmt 0 discriminator 1
 5491 1e94 1368     		ldr	r3, [r2]
 5492 1e96 182B     		cmp	r3, #24
 5493 1e98 F2D9     		bls	.L374
1130:.\Protocolo.c **** 					}
1131:.\Protocolo.c **** 					corte[0]=24;				
 5494              		.loc 1 1131 0 is_stmt 1
 5495 1e9a 1823     		movs	r3, #24
 5496 1e9c 8DF82430 		strb	r3, [sp, #36]
1132:.\Protocolo.c **** 					if(((rventa.manguera==(corriente&0x0F))&&(dir==lado.a.dir))||((rventa.manguera==(corriente2&0x
 5497              		.loc 1 1132 0
 5498 1ea0 B54B     		ldr	r3, .L560
 5499 1ea2 1B78     		ldrb	r3, [r3]	@ zero_extendqisi2
 5500 1ea4 03F00F03 		and	r3, r3, #15
 5501 1ea8 8342     		cmp	r3, r0
 5502 1eaa 03D1     		bne	.L375
 5503              		.loc 1 1132 0 is_stmt 0 discriminator 1
 5504 1eac B34B     		ldr	r3, .L560+4
 5505 1eae 1B78     		ldrb	r3, [r3]	@ zero_extendqisi2
 5506 1eb0 B342     		cmp	r3, r6
 5507 1eb2 0BD0     		beq	.L376
 5508              	.L375:
 5509              		.loc 1 1132 0 discriminator 2
 5510 1eb4 B24B     		ldr	r3, .L560+8
 5511 1eb6 1B78     		ldrb	r3, [r3]	@ zero_extendqisi2
 5512 1eb8 03F00F03 		and	r3, r3, #15
 5513 1ebc 9842     		cmp	r0, r3
 5514 1ebe 40F0A880 		bne	.L377
 5515              		.loc 1 1132 0 discriminator 1
 5516 1ec2 AE4B     		ldr	r3, .L560+4
 5517 1ec4 1B79     		ldrb	r3, [r3, #4]	@ zero_extendqisi2
 5518 1ec6 B342     		cmp	r3, r6
 5519 1ec8 40F0A380 		bne	.L377
 5520              	.L376:
1133:.\Protocolo.c **** 						for(x=0;x<=16;x++){									
 5521              		.loc 1 1133 0 is_stmt 1
 5522 1ecc 0023     		movs	r3, #0
 5523 1ece 2B60     		str	r3, [r5]
ARM GAS  C:\Users\RECEPC~1\AppData\Local\Temp\ccNG63cQ.s 			page 125


1134:.\Protocolo.c **** 							write_psoc1(val,msn_tc[x]);
 5524              		.loc 1 1134 0
 5525 1ed0 DFF8C482 		ldr	r8, .L560+32
1133:.\Protocolo.c **** 						for(x=0;x<=16;x++){									
 5526              		.loc 1 1133 0
 5527 1ed4 07E0     		b	.L378
 5528              	.L379:
 5529              		.loc 1 1134 0 discriminator 2
 5530 1ed6 2046     		mov	r0, r4
 5531 1ed8 18F80310 		ldrb	r1, [r8, r3]	@ zero_extendqisi2
 5532 1edc FFF7FEFF 		bl	write_psoc1
 5533              	.LVL400:
1133:.\Protocolo.c **** 						for(x=0;x<=16;x++){									
 5534              		.loc 1 1133 0 discriminator 2
 5535 1ee0 2B68     		ldr	r3, [r5]
 5536 1ee2 0133     		adds	r3, r3, #1
 5537 1ee4 2B60     		str	r3, [r5]
 5538              	.L378:
1133:.\Protocolo.c **** 						for(x=0;x<=16;x++){									
 5539              		.loc 1 1133 0 is_stmt 0 discriminator 1
 5540 1ee6 2B68     		ldr	r3, [r5]
 5541 1ee8 102B     		cmp	r3, #16
 5542 1eea F4D9     		bls	.L379
1135:.\Protocolo.c **** 						}
1136:.\Protocolo.c **** 						write_psoc1(val,10);
 5543              		.loc 1 1136 0 is_stmt 1
 5544 1eec 2046     		mov	r0, r4
 5545 1eee 0A21     		movs	r1, #10
 5546 1ef0 FFF7FEFF 		bl	write_psoc1
 5547              	.LVL401:
1137:.\Protocolo.c **** 						for(x=0;x<=14;x++){									
 5548              		.loc 1 1137 0
 5549 1ef4 0023     		movs	r3, #0
 5550 1ef6 2B60     		str	r3, [r5]
1138:.\Protocolo.c **** 							write_psoc1(val,msn_lecact[x]);				//LECTURA ACTUAL
 5551              		.loc 1 1138 0
 5552 1ef8 DFF89C82 		ldr	r8, .L560+32
1137:.\Protocolo.c **** 						for(x=0;x<=14;x++){									
 5553              		.loc 1 1137 0
 5554 1efc 07E0     		b	.L380
 5555              	.L381:
 5556              		.loc 1 1138 0 discriminator 2
 5557 1efe 4344     		add	r3, r3, r8
 5558 1f00 2046     		mov	r0, r4
 5559 1f02 197D     		ldrb	r1, [r3, #20]	@ zero_extendqisi2
 5560 1f04 FFF7FEFF 		bl	write_psoc1
 5561              	.LVL402:
1137:.\Protocolo.c **** 						for(x=0;x<=14;x++){									
 5562              		.loc 1 1137 0 discriminator 2
 5563 1f08 2B68     		ldr	r3, [r5]
 5564 1f0a 0133     		adds	r3, r3, #1
 5565 1f0c 2B60     		str	r3, [r5]
 5566              	.L380:
1137:.\Protocolo.c **** 						for(x=0;x<=14;x++){									
 5567              		.loc 1 1137 0 is_stmt 0 discriminator 1
 5568 1f0e 2B68     		ldr	r3, [r5]
 5569 1f10 0E2B     		cmp	r3, #14
ARM GAS  C:\Users\RECEPC~1\AppData\Local\Temp\ccNG63cQ.s 			page 126


 5570 1f12 F4D9     		bls	.L381
1139:.\Protocolo.c **** 						}
1140:.\Protocolo.c **** 						write_psoc1(val,10);
 5571              		.loc 1 1140 0 is_stmt 1
 5572 1f14 2046     		mov	r0, r4
 5573 1f16 0A21     		movs	r1, #10
 5574 1f18 FFF7FEFF 		bl	write_psoc1
 5575              	.LVL403:
1141:.\Protocolo.c **** 						print_totalesac(12,val);	
 5576              		.loc 1 1141 0
 5577 1f1c 0C20     		movs	r0, #12
 5578 1f1e 2146     		mov	r1, r4
 5579 1f20 FFF7FEFF 		bl	print_totalesac
 5580              	.LVL404:
1142:.\Protocolo.c **** 						for(x=0;x<=16;x++){												
 5581              		.loc 1 1142 0
 5582 1f24 0023     		movs	r3, #0
 5583 1f26 2B60     		str	r3, [r5]
1143:.\Protocolo.c **** 							write_psoc1(val,msn_lecaan[x]);				//LECTURA ANTERIOR
 5584              		.loc 1 1143 0
 5585 1f28 DFF86C82 		ldr	r8, .L560+32
1142:.\Protocolo.c **** 						for(x=0;x<=16;x++){												
 5586              		.loc 1 1142 0
 5587 1f2c 08E0     		b	.L382
 5588              	.L383:
 5589              		.loc 1 1143 0 discriminator 2
 5590 1f2e 4344     		add	r3, r3, r8
 5591 1f30 2046     		mov	r0, r4
 5592 1f32 93F82410 		ldrb	r1, [r3, #36]	@ zero_extendqisi2
 5593 1f36 FFF7FEFF 		bl	write_psoc1
 5594              	.LVL405:
1142:.\Protocolo.c **** 						for(x=0;x<=16;x++){												
 5595              		.loc 1 1142 0 discriminator 2
 5596 1f3a 2B68     		ldr	r3, [r5]
 5597 1f3c 0133     		adds	r3, r3, #1
 5598 1f3e 2B60     		str	r3, [r5]
 5599              	.L382:
1142:.\Protocolo.c **** 						for(x=0;x<=16;x++){												
 5600              		.loc 1 1142 0 is_stmt 0 discriminator 1
 5601 1f40 2B68     		ldr	r3, [r5]
 5602 1f42 102B     		cmp	r3, #16
 5603 1f44 F3D9     		bls	.L383
1144:.\Protocolo.c **** 						}
1145:.\Protocolo.c **** 						write_psoc1(val,10);
 5604              		.loc 1 1145 0 is_stmt 1
 5605 1f46 2046     		mov	r0, r4
 5606 1f48 0A21     		movs	r1, #10
 5607 1f4a FFF7FEFF 		bl	write_psoc1
 5608              	.LVL406:
1146:.\Protocolo.c **** 						if(dir==lado.a.dir){
 5609              		.loc 1 1146 0
 5610 1f4e 8B4B     		ldr	r3, .L560+4
 5611 1f50 1B78     		ldrb	r3, [r3]	@ zero_extendqisi2
 5612 1f52 B342     		cmp	r3, r6
 5613 1f54 04D1     		bne	.L384
1147:.\Protocolo.c **** 							leer_eeprom(192,25);
 5614              		.loc 1 1147 0
ARM GAS  C:\Users\RECEPC~1\AppData\Local\Temp\ccNG63cQ.s 			page 127


 5615 1f56 C020     		movs	r0, #192
 5616 1f58 1921     		movs	r1, #25
 5617 1f5a FFF7FEFF 		bl	leer_eeprom
 5618              	.LVL407:
 5619 1f5e 04E0     		b	.L385
 5620              	.L384:
1148:.\Protocolo.c **** 						}
1149:.\Protocolo.c **** 						else{
1150:.\Protocolo.c **** 							leer_eeprom(281,25);
 5621              		.loc 1 1150 0
 5622 1f60 40F21910 		movw	r0, #281
 5623 1f64 1921     		movs	r1, #25
 5624 1f66 FFF7FEFF 		bl	leer_eeprom
 5625              	.LVL408:
 5626              	.L385:
1151:.\Protocolo.c **** 						}
1152:.\Protocolo.c **** 						print_totales(val);
 5627              		.loc 1 1152 0
 5628 1f6a 2046     		mov	r0, r4
 5629 1f6c FFF7FEFF 		bl	print_totales
 5630              	.LVL409:
1153:.\Protocolo.c **** 						for(z=1;z<=12;z++){
 5631              		.loc 1 1153 0
 5632 1f70 0122     		movs	r2, #1
 5633 1f72 844B     		ldr	r3, .L560+12
 5634 1f74 1A60     		str	r2, [r3]
 5635 1f76 1946     		mov	r1, r3
1154:.\Protocolo.c **** 							minuendo[z]=rventa.tdinero[z-1];
 5636              		.loc 1 1154 0
 5637 1f78 DFF810C2 		ldr	ip, .L560+20
1155:.\Protocolo.c **** 							sustraendo[z]=buffer_i2c[z+12];
 5638              		.loc 1 1155 0
 5639 1f7c DFF81CE2 		ldr	lr, .L560+36
1153:.\Protocolo.c **** 						for(z=1;z<=12;z++){
 5640              		.loc 1 1153 0
 5641 1f80 0FE0     		b	.L386
 5642              	.L387:
1154:.\Protocolo.c **** 							minuendo[z]=rventa.tdinero[z-1];
 5643              		.loc 1 1154 0 discriminator 2
 5644 1f82 0CEB0302 		add	r2, ip, r3
 5645 1f86 92F8C900 		ldrb	r0, [r2, #201]	@ zero_extendqisi2
 5646 1f8a 10AA     		add	r2, sp, #64
 5647 1f8c 1A44     		add	r2, r2, r3
 5648 1f8e 02F82C0C 		strb	r0, [r2, #-44]
 5649              		.loc 1 1155 0 discriminator 2
 5650 1f92 03F10C00 		add	r0, r3, #12
 5651 1f96 1EF80000 		ldrb	r0, [lr, r0]	@ zero_extendqisi2
 5652 1f9a 02F83C0C 		strb	r0, [r2, #-60]
1153:.\Protocolo.c **** 						for(z=1;z<=12;z++){
 5653              		.loc 1 1153 0 discriminator 2
 5654 1f9e 0133     		adds	r3, r3, #1
 5655 1fa0 0B60     		str	r3, [r1]
 5656              	.L386:
1153:.\Protocolo.c **** 						for(z=1;z<=12;z++){
 5657              		.loc 1 1153 0 is_stmt 0 discriminator 1
 5658 1fa2 0B68     		ldr	r3, [r1]
 5659 1fa4 0C2B     		cmp	r3, #12
ARM GAS  C:\Users\RECEPC~1\AppData\Local\Temp\ccNG63cQ.s 			page 128


 5660 1fa6 ECD9     		bls	.L387
1156:.\Protocolo.c **** 						}
1157:.\Protocolo.c **** 						minuendo[0]=12;
 5661              		.loc 1 1157 0 is_stmt 1
 5662 1fa8 10A9     		add	r1, sp, #64
 5663 1faa 0C23     		movs	r3, #12
 5664 1fac 01F82C3D 		strb	r3, [r1, #-44]!
1158:.\Protocolo.c **** 						operacion(2,minuendo,sustraendo);
 5665              		.loc 1 1158 0
 5666 1fb0 0220     		movs	r0, #2
 5667 1fb2 01AA     		add	r2, sp, #4
 5668 1fb4 FFF7FEFF 		bl	operacion
 5669              	.LVL410:
1159:.\Protocolo.c **** 						for(x=0;x<=17;x++){									
 5670              		.loc 1 1159 0
 5671 1fb8 0023     		movs	r3, #0
 5672 1fba 2B60     		str	r3, [r5]
1160:.\Protocolo.c **** 							write_psoc1(val,msn_tventas[x]);				//Total de ventas
 5673              		.loc 1 1160 0
 5674 1fbc DFF8D881 		ldr	r8, .L560+32
1159:.\Protocolo.c **** 						for(x=0;x<=17;x++){									
 5675              		.loc 1 1159 0
 5676 1fc0 08E0     		b	.L388
 5677              	.L389:
 5678              		.loc 1 1160 0 discriminator 2
 5679 1fc2 4344     		add	r3, r3, r8
 5680 1fc4 2046     		mov	r0, r4
 5681 1fc6 93F83810 		ldrb	r1, [r3, #56]	@ zero_extendqisi2
 5682 1fca FFF7FEFF 		bl	write_psoc1
 5683              	.LVL411:
1159:.\Protocolo.c **** 						for(x=0;x<=17;x++){									
 5684              		.loc 1 1159 0 discriminator 2
 5685 1fce 2B68     		ldr	r3, [r5]
 5686 1fd0 0133     		adds	r3, r3, #1
 5687 1fd2 2B60     		str	r3, [r5]
 5688              	.L388:
1159:.\Protocolo.c **** 						for(x=0;x<=17;x++){									
 5689              		.loc 1 1159 0 is_stmt 0 discriminator 1
 5690 1fd4 2B68     		ldr	r3, [r5]
 5691 1fd6 112B     		cmp	r3, #17
 5692 1fd8 F3D9     		bls	.L389
1161:.\Protocolo.c **** 						}
1162:.\Protocolo.c **** 						print_valor(resultado,val);
 5693              		.loc 1 1162 0 is_stmt 1
 5694 1fda 6B48     		ldr	r0, .L560+16
 5695 1fdc 2146     		mov	r1, r4
 5696 1fde FFF7FEFF 		bl	print_valor
 5697              	.LVL412:
1163:.\Protocolo.c **** 						if(dir==lado.a.dir){
 5698              		.loc 1 1163 0
 5699 1fe2 664B     		ldr	r3, .L560+4
 5700 1fe4 1B78     		ldrb	r3, [r3]	@ zero_extendqisi2
 5701 1fe6 B342     		cmp	r3, r6
 5702 1fe8 09D1     		bne	.L390
1164:.\Protocolo.c **** 							write_eeprom(192,corte);	
 5703              		.loc 1 1164 0
 5704 1fea C020     		movs	r0, #192
ARM GAS  C:\Users\RECEPC~1\AppData\Local\Temp\ccNG63cQ.s 			page 129


 5705 1fec 09A9     		add	r1, sp, #36
 5706 1fee FFF7FEFF 		bl	write_eeprom
 5707              	.LVL413:
1165:.\Protocolo.c **** 							write_eeprom(512,resultado);
 5708              		.loc 1 1165 0
 5709 1ff2 4FF40070 		mov	r0, #512
 5710 1ff6 6449     		ldr	r1, .L560+16
 5711 1ff8 FFF7FEFF 		bl	write_eeprom
 5712              	.LVL414:
 5713 1ffc 09E0     		b	.L377
 5714              	.L390:
1166:.\Protocolo.c **** 						}
1167:.\Protocolo.c **** 						else{
1168:.\Protocolo.c **** 							write_eeprom(281,corte);
 5715              		.loc 1 1168 0
 5716 1ffe 40F21910 		movw	r0, #281
 5717 2002 09A9     		add	r1, sp, #36
 5718 2004 FFF7FEFF 		bl	write_eeprom
 5719              	.LVL415:
1169:.\Protocolo.c **** 							write_eeprom(551,resultado);
 5720              		.loc 1 1169 0
 5721 2008 40F22720 		movw	r0, #551
 5722 200c 5E49     		ldr	r1, .L560+16
 5723 200e FFF7FEFF 		bl	write_eeprom
 5724              	.LVL416:
 5725              	.L377:
1170:.\Protocolo.c **** 						}
1171:.\Protocolo.c **** 					}
1172:.\Protocolo.c **** 					if(((rventa.manguera==(diesel&0x0F))&&(dir==lado.a.dir))||((rventa.manguera==(diesel2&0x0F))&&
 5726              		.loc 1 1172 0
 5727 2012 5E4B     		ldr	r3, .L560+20
 5728 2014 93F8E030 		ldrb	r3, [r3, #224]	@ zero_extendqisi2
 5729 2018 5D4A     		ldr	r2, .L560+24
 5730 201a 1278     		ldrb	r2, [r2]	@ zero_extendqisi2
 5731 201c 02F00F02 		and	r2, r2, #15
 5732 2020 9A42     		cmp	r2, r3
 5733 2022 03D1     		bne	.L391
 5734              		.loc 1 1172 0 is_stmt 0 discriminator 1
 5735 2024 554A     		ldr	r2, .L560+4
 5736 2026 1278     		ldrb	r2, [r2]	@ zero_extendqisi2
 5737 2028 B242     		cmp	r2, r6
 5738 202a 0BD0     		beq	.L392
 5739              	.L391:
 5740              		.loc 1 1172 0 discriminator 2
 5741 202c 594A     		ldr	r2, .L560+28
 5742 202e 1278     		ldrb	r2, [r2]	@ zero_extendqisi2
 5743 2030 02F00F02 		and	r2, r2, #15
 5744 2034 9342     		cmp	r3, r2
 5745 2036 40F0BD80 		bne	.L393
 5746              		.loc 1 1172 0 discriminator 1
 5747 203a 504B     		ldr	r3, .L560+4
 5748 203c 1B79     		ldrb	r3, [r3, #4]	@ zero_extendqisi2
 5749 203e B342     		cmp	r3, r6
 5750 2040 40F0B880 		bne	.L393
 5751              	.L392:
1173:.\Protocolo.c **** 						for(x=0;x<=13;x++){									
 5752              		.loc 1 1173 0 is_stmt 1
ARM GAS  C:\Users\RECEPC~1\AppData\Local\Temp\ccNG63cQ.s 			page 130


 5753 2044 0023     		movs	r3, #0
 5754 2046 2B60     		str	r3, [r5]
1174:.\Protocolo.c **** 							write_psoc1(val,msn_td[x]);
 5755              		.loc 1 1174 0
 5756 2048 DFF84C81 		ldr	r8, .L560+32
1173:.\Protocolo.c **** 						for(x=0;x<=13;x++){									
 5757              		.loc 1 1173 0
 5758 204c 08E0     		b	.L394
 5759              	.L395:
 5760              		.loc 1 1174 0 discriminator 2
 5761 204e 4344     		add	r3, r3, r8
 5762 2050 2046     		mov	r0, r4
 5763 2052 93F84C10 		ldrb	r1, [r3, #76]	@ zero_extendqisi2
 5764 2056 FFF7FEFF 		bl	write_psoc1
 5765              	.LVL417:
1173:.\Protocolo.c **** 						for(x=0;x<=13;x++){									
 5766              		.loc 1 1173 0 discriminator 2
 5767 205a 2B68     		ldr	r3, [r5]
 5768 205c 0133     		adds	r3, r3, #1
 5769 205e 2B60     		str	r3, [r5]
 5770              	.L394:
1173:.\Protocolo.c **** 						for(x=0;x<=13;x++){									
 5771              		.loc 1 1173 0 is_stmt 0 discriminator 1
 5772 2060 2B68     		ldr	r3, [r5]
 5773 2062 0D2B     		cmp	r3, #13
 5774 2064 F3D9     		bls	.L395
1175:.\Protocolo.c **** 						}
1176:.\Protocolo.c **** 						write_psoc1(val,10);
 5775              		.loc 1 1176 0 is_stmt 1
 5776 2066 2046     		mov	r0, r4
 5777 2068 0A21     		movs	r1, #10
 5778 206a FFF7FEFF 		bl	write_psoc1
 5779              	.LVL418:
1177:.\Protocolo.c **** 						for(x=0;x<=14;x++){									
 5780              		.loc 1 1177 0
 5781 206e 0023     		movs	r3, #0
 5782 2070 2B60     		str	r3, [r5]
1178:.\Protocolo.c **** 							write_psoc1(val,msn_lecact[x]);				//LECTURA ACTUAL
 5783              		.loc 1 1178 0
 5784 2072 DFF82481 		ldr	r8, .L560+32
1177:.\Protocolo.c **** 						for(x=0;x<=14;x++){									
 5785              		.loc 1 1177 0
 5786 2076 07E0     		b	.L396
 5787              	.L397:
 5788              		.loc 1 1178 0 discriminator 2
 5789 2078 4344     		add	r3, r3, r8
 5790 207a 2046     		mov	r0, r4
 5791 207c 197D     		ldrb	r1, [r3, #20]	@ zero_extendqisi2
 5792 207e FFF7FEFF 		bl	write_psoc1
 5793              	.LVL419:
1177:.\Protocolo.c **** 						for(x=0;x<=14;x++){									
 5794              		.loc 1 1177 0 discriminator 2
 5795 2082 2B68     		ldr	r3, [r5]
 5796 2084 0133     		adds	r3, r3, #1
 5797 2086 2B60     		str	r3, [r5]
 5798              	.L396:
1177:.\Protocolo.c **** 						for(x=0;x<=14;x++){									
ARM GAS  C:\Users\RECEPC~1\AppData\Local\Temp\ccNG63cQ.s 			page 131


 5799              		.loc 1 1177 0 is_stmt 0 discriminator 1
 5800 2088 2B68     		ldr	r3, [r5]
 5801 208a 0E2B     		cmp	r3, #14
 5802 208c F4D9     		bls	.L397
1179:.\Protocolo.c **** 						}
1180:.\Protocolo.c **** 						write_psoc1(val,10);
 5803              		.loc 1 1180 0 is_stmt 1
 5804 208e 2046     		mov	r0, r4
 5805 2090 0A21     		movs	r1, #10
 5806 2092 FFF7FEFF 		bl	write_psoc1
 5807              	.LVL420:
1181:.\Protocolo.c **** 						print_totalesac(12,val);	
 5808              		.loc 1 1181 0
 5809 2096 0C20     		movs	r0, #12
 5810 2098 2146     		mov	r1, r4
 5811 209a FFF7FEFF 		bl	print_totalesac
 5812              	.LVL421:
1182:.\Protocolo.c **** 						for(x=0;x<=16;x++){												
 5813              		.loc 1 1182 0
 5814 209e 0023     		movs	r3, #0
 5815 20a0 2B60     		str	r3, [r5]
1183:.\Protocolo.c **** 							write_psoc1(val,msn_lecaan[x]);				//LECTURA ANTERIOR
 5816              		.loc 1 1183 0
 5817 20a2 DFF8F480 		ldr	r8, .L560+32
1182:.\Protocolo.c **** 						for(x=0;x<=16;x++){												
 5818              		.loc 1 1182 0
 5819 20a6 08E0     		b	.L398
 5820              	.L399:
 5821              		.loc 1 1183 0 discriminator 2
 5822 20a8 4344     		add	r3, r3, r8
 5823 20aa 2046     		mov	r0, r4
 5824 20ac 93F82410 		ldrb	r1, [r3, #36]	@ zero_extendqisi2
 5825 20b0 FFF7FEFF 		bl	write_psoc1
 5826              	.LVL422:
1182:.\Protocolo.c **** 						for(x=0;x<=16;x++){												
 5827              		.loc 1 1182 0 discriminator 2
 5828 20b4 2B68     		ldr	r3, [r5]
 5829 20b6 0133     		adds	r3, r3, #1
 5830 20b8 2B60     		str	r3, [r5]
 5831              	.L398:
1182:.\Protocolo.c **** 						for(x=0;x<=16;x++){												
 5832              		.loc 1 1182 0 is_stmt 0 discriminator 1
 5833 20ba 2B68     		ldr	r3, [r5]
 5834 20bc 102B     		cmp	r3, #16
 5835 20be F3D9     		bls	.L399
1184:.\Protocolo.c **** 						}
1185:.\Protocolo.c **** 						write_psoc1(val,10);
 5836              		.loc 1 1185 0 is_stmt 1
 5837 20c0 2046     		mov	r0, r4
 5838 20c2 0A21     		movs	r1, #10
 5839 20c4 FFF7FEFF 		bl	write_psoc1
 5840              	.LVL423:
1186:.\Protocolo.c **** 						if(dir==lado.a.dir){
 5841              		.loc 1 1186 0
 5842 20c8 2C4B     		ldr	r3, .L560+4
 5843 20ca 1B78     		ldrb	r3, [r3]	@ zero_extendqisi2
 5844 20cc B342     		cmp	r3, r6
ARM GAS  C:\Users\RECEPC~1\AppData\Local\Temp\ccNG63cQ.s 			page 132


 5845 20ce 04D1     		bne	.L400
1187:.\Protocolo.c **** 							leer_eeprom(217,25);
 5846              		.loc 1 1187 0
 5847 20d0 D920     		movs	r0, #217
 5848 20d2 1921     		movs	r1, #25
 5849 20d4 FFF7FEFF 		bl	leer_eeprom
 5850              	.LVL424:
 5851 20d8 04E0     		b	.L401
 5852              	.L400:
1188:.\Protocolo.c **** 						}
1189:.\Protocolo.c **** 						else{
1190:.\Protocolo.c **** 							leer_eeprom(320,25);
 5853              		.loc 1 1190 0
 5854 20da 4FF4A070 		mov	r0, #320
 5855 20de 1921     		movs	r1, #25
 5856 20e0 FFF7FEFF 		bl	leer_eeprom
 5857              	.LVL425:
 5858              	.L401:
1191:.\Protocolo.c **** 						}
1192:.\Protocolo.c **** 						print_totales(val);
 5859              		.loc 1 1192 0
 5860 20e4 2046     		mov	r0, r4
 5861 20e6 FFF7FEFF 		bl	print_totales
 5862              	.LVL426:
1193:.\Protocolo.c **** 						for(z=1;z<=12;z++){
 5863              		.loc 1 1193 0
 5864 20ea 0122     		movs	r2, #1
 5865 20ec 254B     		ldr	r3, .L560+12
 5866 20ee 1A60     		str	r2, [r3]
 5867 20f0 1946     		mov	r1, r3
1194:.\Protocolo.c **** 							minuendo[z]=rventa.tdinero[z-1];
 5868              		.loc 1 1194 0
 5869 20f2 DFF898C0 		ldr	ip, .L560+20
1195:.\Protocolo.c **** 							sustraendo[z]=buffer_i2c[z+12];
 5870              		.loc 1 1195 0
 5871 20f6 DFF8A4E0 		ldr	lr, .L560+36
1193:.\Protocolo.c **** 						for(z=1;z<=12;z++){
 5872              		.loc 1 1193 0
 5873 20fa 0FE0     		b	.L402
 5874              	.L403:
1194:.\Protocolo.c **** 							minuendo[z]=rventa.tdinero[z-1];
 5875              		.loc 1 1194 0 discriminator 2
 5876 20fc 0CEB0302 		add	r2, ip, r3
 5877 2100 92F8C900 		ldrb	r0, [r2, #201]	@ zero_extendqisi2
 5878 2104 10AA     		add	r2, sp, #64
 5879 2106 1A44     		add	r2, r2, r3
 5880 2108 02F82C0C 		strb	r0, [r2, #-44]
 5881              		.loc 1 1195 0 discriminator 2
 5882 210c 03F10C00 		add	r0, r3, #12
 5883 2110 1EF80000 		ldrb	r0, [lr, r0]	@ zero_extendqisi2
 5884 2114 02F83C0C 		strb	r0, [r2, #-60]
1193:.\Protocolo.c **** 						for(z=1;z<=12;z++){
 5885              		.loc 1 1193 0 discriminator 2
 5886 2118 0133     		adds	r3, r3, #1
 5887 211a 0B60     		str	r3, [r1]
 5888              	.L402:
1193:.\Protocolo.c **** 						for(z=1;z<=12;z++){
ARM GAS  C:\Users\RECEPC~1\AppData\Local\Temp\ccNG63cQ.s 			page 133


 5889              		.loc 1 1193 0 is_stmt 0 discriminator 1
 5890 211c 0B68     		ldr	r3, [r1]
 5891 211e 0C2B     		cmp	r3, #12
 5892 2120 ECD9     		bls	.L403
1196:.\Protocolo.c **** 						}
1197:.\Protocolo.c **** 						minuendo[0]=12;
 5893              		.loc 1 1197 0 is_stmt 1
 5894 2122 10A9     		add	r1, sp, #64
 5895 2124 0C23     		movs	r3, #12
 5896 2126 01F82C3D 		strb	r3, [r1, #-44]!
1198:.\Protocolo.c **** 						operacion(2,minuendo,sustraendo);
 5897              		.loc 1 1198 0
 5898 212a 0220     		movs	r0, #2
 5899 212c 01AA     		add	r2, sp, #4
 5900 212e FFF7FEFF 		bl	operacion
 5901              	.LVL427:
1199:.\Protocolo.c **** 						for(x=0;x<=17;x++){									
 5902              		.loc 1 1199 0
 5903 2132 0023     		movs	r3, #0
 5904 2134 2B60     		str	r3, [r5]
1200:.\Protocolo.c **** 							write_psoc1(val,msn_tventas[x]);				//Total de ventas
 5905              		.loc 1 1200 0
 5906 2136 DFF86080 		ldr	r8, .L560+32
1199:.\Protocolo.c **** 						for(x=0;x<=17;x++){									
 5907              		.loc 1 1199 0
 5908 213a 08E0     		b	.L404
 5909              	.L405:
 5910              		.loc 1 1200 0 discriminator 2
 5911 213c 4344     		add	r3, r3, r8
 5912 213e 2046     		mov	r0, r4
 5913 2140 93F83810 		ldrb	r1, [r3, #56]	@ zero_extendqisi2
 5914 2144 FFF7FEFF 		bl	write_psoc1
 5915              	.LVL428:
1199:.\Protocolo.c **** 						for(x=0;x<=17;x++){									
 5916              		.loc 1 1199 0 discriminator 2
 5917 2148 2B68     		ldr	r3, [r5]
 5918 214a 0133     		adds	r3, r3, #1
 5919 214c 2B60     		str	r3, [r5]
 5920              	.L404:
1199:.\Protocolo.c **** 						for(x=0;x<=17;x++){									
 5921              		.loc 1 1199 0 is_stmt 0 discriminator 1
 5922 214e 2B68     		ldr	r3, [r5]
 5923 2150 112B     		cmp	r3, #17
 5924 2152 F3D9     		bls	.L405
1201:.\Protocolo.c **** 						}
1202:.\Protocolo.c **** 						print_valor(resultado,val);				
 5925              		.loc 1 1202 0 is_stmt 1
 5926 2154 0C48     		ldr	r0, .L560+16
 5927 2156 2146     		mov	r1, r4
 5928 2158 FFF7FEFF 		bl	print_valor
 5929              	.LVL429:
1203:.\Protocolo.c **** 						if(dir==lado.a.dir){
 5930              		.loc 1 1203 0
 5931 215c 074B     		ldr	r3, .L560+4
 5932 215e 1B78     		ldrb	r3, [r3]	@ zero_extendqisi2
 5933 2160 B342     		cmp	r3, r6
 5934 2162 1DD1     		bne	.L406
ARM GAS  C:\Users\RECEPC~1\AppData\Local\Temp\ccNG63cQ.s 			page 134


1204:.\Protocolo.c **** 							write_eeprom(217,corte);
 5935              		.loc 1 1204 0
 5936 2164 D920     		movs	r0, #217
 5937 2166 09A9     		add	r1, sp, #36
 5938 2168 FFF7FEFF 		bl	write_eeprom
 5939              	.LVL430:
1205:.\Protocolo.c **** 							write_eeprom(538,resultado);
 5940              		.loc 1 1205 0
 5941 216c 40F21A20 		movw	r0, #538
 5942 2170 0549     		ldr	r1, .L560+16
 5943 2172 FFF7FEFF 		bl	write_eeprom
 5944              	.LVL431:
 5945 2176 1DE0     		b	.L393
 5946              	.L561:
 5947              		.align	2
 5948              	.L560:
 5949 2178 00000000 		.word	corriente
 5950 217c 00000000 		.word	lado
 5951 2180 00000000 		.word	corriente2
 5952 2184 00000000 		.word	z
 5953 2188 00000000 		.word	resultado
 5954 218c 00000000 		.word	rventa
 5955 2190 00000000 		.word	diesel
 5956 2194 00000000 		.word	diesel2
 5957 2198 00000000 		.word	.LANCHOR1
 5958 219c 00000000 		.word	buffer_i2c
 5959              	.L406:
1206:.\Protocolo.c **** 						}
1207:.\Protocolo.c **** 						else{
1208:.\Protocolo.c **** 							write_eeprom(320,corte);
 5960              		.loc 1 1208 0
 5961 21a0 4FF4A070 		mov	r0, #320
 5962 21a4 09A9     		add	r1, sp, #36
 5963 21a6 FFF7FEFF 		bl	write_eeprom
 5964              	.LVL432:
1209:.\Protocolo.c **** 							write_eeprom(576,resultado);
 5965              		.loc 1 1209 0
 5966 21aa 4FF41070 		mov	r0, #576
 5967 21ae AC49     		ldr	r1, .L562
 5968 21b0 FFF7FEFF 		bl	write_eeprom
 5969              	.LVL433:
 5970              	.L393:
1210:.\Protocolo.c **** 						}				
1211:.\Protocolo.c **** 					}
1212:.\Protocolo.c **** 					if(((rventa.manguera==(extra&0x0F))&&(dir==lado.a.dir))||((rventa.manguera==(extra2&0x0F))&&(d
 5971              		.loc 1 1212 0
 5972 21b4 AB4B     		ldr	r3, .L562+4
 5973 21b6 93F8E030 		ldrb	r3, [r3, #224]	@ zero_extendqisi2
 5974 21ba AB4A     		ldr	r2, .L562+8
 5975 21bc 1278     		ldrb	r2, [r2]	@ zero_extendqisi2
 5976 21be 02F00F02 		and	r2, r2, #15
 5977 21c2 9A42     		cmp	r2, r3
 5978 21c4 03D1     		bne	.L407
 5979              		.loc 1 1212 0 is_stmt 0 discriminator 1
 5980 21c6 A94A     		ldr	r2, .L562+12
 5981 21c8 1278     		ldrb	r2, [r2]	@ zero_extendqisi2
 5982 21ca B242     		cmp	r2, r6
ARM GAS  C:\Users\RECEPC~1\AppData\Local\Temp\ccNG63cQ.s 			page 135


 5983 21cc 0BD0     		beq	.L408
 5984              	.L407:
 5985              		.loc 1 1212 0 discriminator 2
 5986 21ce A84A     		ldr	r2, .L562+16
 5987 21d0 1278     		ldrb	r2, [r2]	@ zero_extendqisi2
 5988 21d2 02F00F02 		and	r2, r2, #15
 5989 21d6 9342     		cmp	r3, r2
 5990 21d8 40F0AB80 		bne	.L409
 5991              		.loc 1 1212 0 discriminator 1
 5992 21dc A34B     		ldr	r3, .L562+12
 5993 21de 1B79     		ldrb	r3, [r3, #4]	@ zero_extendqisi2
 5994 21e0 B342     		cmp	r3, r6
 5995 21e2 40F0A680 		bne	.L409
 5996              	.L408:
1213:.\Protocolo.c **** 						for(x=0;x<=12;x++){									
 5997              		.loc 1 1213 0 is_stmt 1
 5998 21e6 0023     		movs	r3, #0
 5999 21e8 2B60     		str	r3, [r5]
1214:.\Protocolo.c **** 							write_psoc1(val,msn_te[x]);
 6000              		.loc 1 1214 0
 6001 21ea DFF89482 		ldr	r8, .L562+32
1213:.\Protocolo.c **** 						for(x=0;x<=12;x++){									
 6002              		.loc 1 1213 0
 6003 21ee 08E0     		b	.L410
 6004              	.L411:
 6005              		.loc 1 1214 0 discriminator 2
 6006 21f0 4344     		add	r3, r3, r8
 6007 21f2 2046     		mov	r0, r4
 6008 21f4 93F85C10 		ldrb	r1, [r3, #92]	@ zero_extendqisi2
 6009 21f8 FFF7FEFF 		bl	write_psoc1
 6010              	.LVL434:
1213:.\Protocolo.c **** 						for(x=0;x<=12;x++){									
 6011              		.loc 1 1213 0 discriminator 2
 6012 21fc 2B68     		ldr	r3, [r5]
 6013 21fe 0133     		adds	r3, r3, #1
 6014 2200 2B60     		str	r3, [r5]
 6015              	.L410:
1213:.\Protocolo.c **** 						for(x=0;x<=12;x++){									
 6016              		.loc 1 1213 0 is_stmt 0 discriminator 1
 6017 2202 2B68     		ldr	r3, [r5]
 6018 2204 0C2B     		cmp	r3, #12
 6019 2206 F3D9     		bls	.L411
1215:.\Protocolo.c **** 						}
1216:.\Protocolo.c **** 						write_psoc1(val,10);
 6020              		.loc 1 1216 0 is_stmt 1
 6021 2208 2046     		mov	r0, r4
 6022 220a 0A21     		movs	r1, #10
 6023 220c FFF7FEFF 		bl	write_psoc1
 6024              	.LVL435:
1217:.\Protocolo.c **** 						for(x=0;x<=14;x++){									
 6025              		.loc 1 1217 0
 6026 2210 0023     		movs	r3, #0
 6027 2212 2B60     		str	r3, [r5]
1218:.\Protocolo.c **** 							write_psoc1(val,msn_lecact[x]);				//LECTURA ACTUAL
 6028              		.loc 1 1218 0
 6029 2214 DFF86882 		ldr	r8, .L562+32
1217:.\Protocolo.c **** 						for(x=0;x<=14;x++){									
ARM GAS  C:\Users\RECEPC~1\AppData\Local\Temp\ccNG63cQ.s 			page 136


 6030              		.loc 1 1217 0
 6031 2218 07E0     		b	.L412
 6032              	.L413:
 6033              		.loc 1 1218 0 discriminator 2
 6034 221a 4344     		add	r3, r3, r8
 6035 221c 2046     		mov	r0, r4
 6036 221e 197D     		ldrb	r1, [r3, #20]	@ zero_extendqisi2
 6037 2220 FFF7FEFF 		bl	write_psoc1
 6038              	.LVL436:
1217:.\Protocolo.c **** 						for(x=0;x<=14;x++){									
 6039              		.loc 1 1217 0 discriminator 2
 6040 2224 2B68     		ldr	r3, [r5]
 6041 2226 0133     		adds	r3, r3, #1
 6042 2228 2B60     		str	r3, [r5]
 6043              	.L412:
1217:.\Protocolo.c **** 						for(x=0;x<=14;x++){									
 6044              		.loc 1 1217 0 is_stmt 0 discriminator 1
 6045 222a 2B68     		ldr	r3, [r5]
 6046 222c 0E2B     		cmp	r3, #14
 6047 222e F4D9     		bls	.L413
1219:.\Protocolo.c **** 						}
1220:.\Protocolo.c **** 						write_psoc1(val,10);
 6048              		.loc 1 1220 0 is_stmt 1
 6049 2230 2046     		mov	r0, r4
 6050 2232 0A21     		movs	r1, #10
 6051 2234 FFF7FEFF 		bl	write_psoc1
 6052              	.LVL437:
1221:.\Protocolo.c **** 						print_totalesac(12,val);	
 6053              		.loc 1 1221 0
 6054 2238 0C20     		movs	r0, #12
 6055 223a 2146     		mov	r1, r4
 6056 223c FFF7FEFF 		bl	print_totalesac
 6057              	.LVL438:
1222:.\Protocolo.c **** 						for(x=0;x<=16;x++){												
 6058              		.loc 1 1222 0
 6059 2240 0023     		movs	r3, #0
 6060 2242 2B60     		str	r3, [r5]
1223:.\Protocolo.c **** 							write_psoc1(val,msn_lecaan[x]);				//LECTURA ANTERIOR
 6061              		.loc 1 1223 0
 6062 2244 DFF83882 		ldr	r8, .L562+32
1222:.\Protocolo.c **** 						for(x=0;x<=16;x++){												
 6063              		.loc 1 1222 0
 6064 2248 08E0     		b	.L414
 6065              	.L415:
 6066              		.loc 1 1223 0 discriminator 2
 6067 224a 4344     		add	r3, r3, r8
 6068 224c 2046     		mov	r0, r4
 6069 224e 93F82410 		ldrb	r1, [r3, #36]	@ zero_extendqisi2
 6070 2252 FFF7FEFF 		bl	write_psoc1
 6071              	.LVL439:
1222:.\Protocolo.c **** 						for(x=0;x<=16;x++){												
 6072              		.loc 1 1222 0 discriminator 2
 6073 2256 2B68     		ldr	r3, [r5]
 6074 2258 0133     		adds	r3, r3, #1
 6075 225a 2B60     		str	r3, [r5]
 6076              	.L414:
1222:.\Protocolo.c **** 						for(x=0;x<=16;x++){												
ARM GAS  C:\Users\RECEPC~1\AppData\Local\Temp\ccNG63cQ.s 			page 137


 6077              		.loc 1 1222 0 is_stmt 0 discriminator 1
 6078 225c 2B68     		ldr	r3, [r5]
 6079 225e 102B     		cmp	r3, #16
 6080 2260 F3D9     		bls	.L415
1224:.\Protocolo.c **** 						}
1225:.\Protocolo.c **** 						write_psoc1(val,10);
 6081              		.loc 1 1225 0 is_stmt 1
 6082 2262 2046     		mov	r0, r4
 6083 2264 0A21     		movs	r1, #10
 6084 2266 FFF7FEFF 		bl	write_psoc1
 6085              	.LVL440:
1226:.\Protocolo.c **** 						if(dir==lado.a.dir){
 6086              		.loc 1 1226 0
 6087 226a 804B     		ldr	r3, .L562+12
 6088 226c 1B78     		ldrb	r3, [r3]	@ zero_extendqisi2
 6089 226e B342     		cmp	r3, r6
 6090 2270 05D1     		bne	.L416
1227:.\Protocolo.c **** 							leer_eeprom(256,25);
 6091              		.loc 1 1227 0
 6092 2272 4FF48070 		mov	r0, #256
 6093 2276 1921     		movs	r1, #25
 6094 2278 FFF7FEFF 		bl	leer_eeprom
 6095              	.LVL441:
 6096 227c 04E0     		b	.L417
 6097              	.L416:
1228:.\Protocolo.c **** 						}
1229:.\Protocolo.c **** 						else{
1230:.\Protocolo.c **** 							leer_eeprom(345,25);
 6098              		.loc 1 1230 0
 6099 227e 40F25910 		movw	r0, #345
 6100 2282 1921     		movs	r1, #25
 6101 2284 FFF7FEFF 		bl	leer_eeprom
 6102              	.LVL442:
 6103              	.L417:
1231:.\Protocolo.c **** 						}
1232:.\Protocolo.c **** 						print_totales(val);
 6104              		.loc 1 1232 0
 6105 2288 2046     		mov	r0, r4
 6106 228a FFF7FEFF 		bl	print_totales
 6107              	.LVL443:
1233:.\Protocolo.c **** 						for(z=1;z<=12;z++){
 6108              		.loc 1 1233 0
 6109 228e 0122     		movs	r2, #1
 6110 2290 784B     		ldr	r3, .L562+20
 6111 2292 1A60     		str	r2, [r3]
 6112 2294 1946     		mov	r1, r3
1234:.\Protocolo.c **** 							minuendo[z]=rventa.tdinero[z-1];
 6113              		.loc 1 1234 0
 6114 2296 DFF8CCC1 		ldr	ip, .L562+4
1235:.\Protocolo.c **** 							sustraendo[z]=buffer_i2c[z+12];
 6115              		.loc 1 1235 0
 6116 229a DFF8E8E1 		ldr	lr, .L562+36
1233:.\Protocolo.c **** 						for(z=1;z<=12;z++){
 6117              		.loc 1 1233 0
 6118 229e 0FE0     		b	.L418
 6119              	.L419:
1234:.\Protocolo.c **** 							minuendo[z]=rventa.tdinero[z-1];
ARM GAS  C:\Users\RECEPC~1\AppData\Local\Temp\ccNG63cQ.s 			page 138


 6120              		.loc 1 1234 0 discriminator 2
 6121 22a0 0CEB0302 		add	r2, ip, r3
 6122 22a4 92F8C900 		ldrb	r0, [r2, #201]	@ zero_extendqisi2
 6123 22a8 10AA     		add	r2, sp, #64
 6124 22aa 1A44     		add	r2, r2, r3
 6125 22ac 02F82C0C 		strb	r0, [r2, #-44]
 6126              		.loc 1 1235 0 discriminator 2
 6127 22b0 03F10C00 		add	r0, r3, #12
 6128 22b4 1EF80000 		ldrb	r0, [lr, r0]	@ zero_extendqisi2
 6129 22b8 02F83C0C 		strb	r0, [r2, #-60]
1233:.\Protocolo.c **** 						for(z=1;z<=12;z++){
 6130              		.loc 1 1233 0 discriminator 2
 6131 22bc 0133     		adds	r3, r3, #1
 6132 22be 0B60     		str	r3, [r1]
 6133              	.L418:
1233:.\Protocolo.c **** 						for(z=1;z<=12;z++){
 6134              		.loc 1 1233 0 is_stmt 0 discriminator 1
 6135 22c0 0B68     		ldr	r3, [r1]
 6136 22c2 0C2B     		cmp	r3, #12
 6137 22c4 ECD9     		bls	.L419
1236:.\Protocolo.c **** 						}
1237:.\Protocolo.c **** 						minuendo[0]=12;
 6138              		.loc 1 1237 0 is_stmt 1
 6139 22c6 10A9     		add	r1, sp, #64
 6140 22c8 0C23     		movs	r3, #12
 6141 22ca 01F82C3D 		strb	r3, [r1, #-44]!
1238:.\Protocolo.c **** 						operacion(2,minuendo,sustraendo);
 6142              		.loc 1 1238 0
 6143 22ce 0220     		movs	r0, #2
 6144 22d0 01AA     		add	r2, sp, #4
 6145 22d2 FFF7FEFF 		bl	operacion
 6146              	.LVL444:
1239:.\Protocolo.c **** 						for(x=0;x<=17;x++){									
 6147              		.loc 1 1239 0
 6148 22d6 0023     		movs	r3, #0
 6149 22d8 2B60     		str	r3, [r5]
1240:.\Protocolo.c **** 							write_psoc1(val,msn_tventas[x]);				//Total de ventas
 6150              		.loc 1 1240 0
 6151 22da DFF8A481 		ldr	r8, .L562+32
1239:.\Protocolo.c **** 						for(x=0;x<=17;x++){									
 6152              		.loc 1 1239 0
 6153 22de 08E0     		b	.L420
 6154              	.L421:
 6155              		.loc 1 1240 0 discriminator 2
 6156 22e0 4344     		add	r3, r3, r8
 6157 22e2 2046     		mov	r0, r4
 6158 22e4 93F83810 		ldrb	r1, [r3, #56]	@ zero_extendqisi2
 6159 22e8 FFF7FEFF 		bl	write_psoc1
 6160              	.LVL445:
1239:.\Protocolo.c **** 						for(x=0;x<=17;x++){									
 6161              		.loc 1 1239 0 discriminator 2
 6162 22ec 2B68     		ldr	r3, [r5]
 6163 22ee 0133     		adds	r3, r3, #1
 6164 22f0 2B60     		str	r3, [r5]
 6165              	.L420:
1239:.\Protocolo.c **** 						for(x=0;x<=17;x++){									
 6166              		.loc 1 1239 0 is_stmt 0 discriminator 1
ARM GAS  C:\Users\RECEPC~1\AppData\Local\Temp\ccNG63cQ.s 			page 139


 6167 22f2 2B68     		ldr	r3, [r5]
 6168 22f4 112B     		cmp	r3, #17
 6169 22f6 F3D9     		bls	.L421
1241:.\Protocolo.c **** 						}
1242:.\Protocolo.c **** 						print_valor(resultado,val);							
 6170              		.loc 1 1242 0 is_stmt 1
 6171 22f8 5948     		ldr	r0, .L562
 6172 22fa 2146     		mov	r1, r4
 6173 22fc FFF7FEFF 		bl	print_valor
 6174              	.LVL446:
1243:.\Protocolo.c **** 						if(dir==lado.a.dir){
 6175              		.loc 1 1243 0
 6176 2300 5A4B     		ldr	r3, .L562+12
 6177 2302 1B78     		ldrb	r3, [r3]	@ zero_extendqisi2
 6178 2304 B342     		cmp	r3, r6
 6179 2306 0AD1     		bne	.L422
1244:.\Protocolo.c **** 							write_eeprom(256,corte);
 6180              		.loc 1 1244 0
 6181 2308 4FF48070 		mov	r0, #256
 6182 230c 09A9     		add	r1, sp, #36
 6183 230e FFF7FEFF 		bl	write_eeprom
 6184              	.LVL447:
1245:.\Protocolo.c **** 							write_eeprom(525,resultado);
 6185              		.loc 1 1245 0
 6186 2312 40F20D20 		movw	r0, #525
 6187 2316 5249     		ldr	r1, .L562
 6188 2318 FFF7FEFF 		bl	write_eeprom
 6189              	.LVL448:
 6190 231c 09E0     		b	.L409
 6191              	.L422:
1246:.\Protocolo.c **** 						}
1247:.\Protocolo.c **** 						else{
1248:.\Protocolo.c **** 							write_eeprom(345,corte);
 6192              		.loc 1 1248 0
 6193 231e 40F25910 		movw	r0, #345
 6194 2322 09A9     		add	r1, sp, #36
 6195 2324 FFF7FEFF 		bl	write_eeprom
 6196              	.LVL449:
1249:.\Protocolo.c **** 							write_eeprom(589,resultado);
 6197              		.loc 1 1249 0
 6198 2328 40F24D20 		movw	r0, #589
 6199 232c 4C49     		ldr	r1, .L562
 6200 232e FFF7FEFF 		bl	write_eeprom
 6201              	.LVL450:
 6202              	.L409:
1250:.\Protocolo.c **** 						}					
1251:.\Protocolo.c **** 					}
1252:.\Protocolo.c ****                     
1253:.\Protocolo.c ****                     
1254:.\Protocolo.c ****                     if(((rventa.manguera==(kero&0x0F))&&(dir==lado.a.dir))||((rventa.manguera==(ker
 6203              		.loc 1 1254 0
 6204 2332 4C4B     		ldr	r3, .L562+4
 6205 2334 93F8E030 		ldrb	r3, [r3, #224]	@ zero_extendqisi2
 6206 2338 4F4A     		ldr	r2, .L562+24
 6207 233a 1278     		ldrb	r2, [r2]	@ zero_extendqisi2
 6208 233c 02F00F02 		and	r2, r2, #15
 6209 2340 9A42     		cmp	r2, r3
ARM GAS  C:\Users\RECEPC~1\AppData\Local\Temp\ccNG63cQ.s 			page 140


 6210 2342 03D1     		bne	.L423
 6211              		.loc 1 1254 0 is_stmt 0 discriminator 1
 6212 2344 494A     		ldr	r2, .L562+12
 6213 2346 1278     		ldrb	r2, [r2]	@ zero_extendqisi2
 6214 2348 B242     		cmp	r2, r6
 6215 234a 0BD0     		beq	.L424
 6216              	.L423:
 6217              		.loc 1 1254 0 discriminator 2
 6218 234c 4B4A     		ldr	r2, .L562+28
 6219 234e 1278     		ldrb	r2, [r2]	@ zero_extendqisi2
 6220 2350 02F00F02 		and	r2, r2, #15
 6221 2354 9342     		cmp	r3, r2
 6222 2356 40F0C080 		bne	.L425
 6223              		.loc 1 1254 0 discriminator 1
 6224 235a 444B     		ldr	r3, .L562+12
 6225 235c 1B79     		ldrb	r3, [r3, #4]	@ zero_extendqisi2
 6226 235e B342     		cmp	r3, r6
 6227 2360 40F0BB80 		bne	.L425
 6228              	.L424:
1255:.\Protocolo.c **** 						for(x=0;x<=9;x++){									
 6229              		.loc 1 1255 0 is_stmt 1
 6230 2364 0023     		movs	r3, #0
 6231 2366 2B60     		str	r3, [r5]
1256:.\Protocolo.c **** 							write_psoc1(val,msn_tk[x]);
 6232              		.loc 1 1256 0
 6233 2368 DFF81481 		ldr	r8, .L562+32
1255:.\Protocolo.c **** 						for(x=0;x<=9;x++){									
 6234              		.loc 1 1255 0
 6235 236c 08E0     		b	.L426
 6236              	.L427:
 6237              		.loc 1 1256 0 discriminator 2
 6238 236e 4344     		add	r3, r3, r8
 6239 2370 2046     		mov	r0, r4
 6240 2372 93F86C10 		ldrb	r1, [r3, #108]	@ zero_extendqisi2
 6241 2376 FFF7FEFF 		bl	write_psoc1
 6242              	.LVL451:
1255:.\Protocolo.c **** 						for(x=0;x<=9;x++){									
 6243              		.loc 1 1255 0 discriminator 2
 6244 237a 2B68     		ldr	r3, [r5]
 6245 237c 0133     		adds	r3, r3, #1
 6246 237e 2B60     		str	r3, [r5]
 6247              	.L426:
1255:.\Protocolo.c **** 						for(x=0;x<=9;x++){									
 6248              		.loc 1 1255 0 is_stmt 0 discriminator 1
 6249 2380 2B68     		ldr	r3, [r5]
 6250 2382 092B     		cmp	r3, #9
 6251 2384 F3D9     		bls	.L427
1257:.\Protocolo.c **** 						}
1258:.\Protocolo.c **** 						write_psoc1(val,10);
 6252              		.loc 1 1258 0 is_stmt 1
 6253 2386 2046     		mov	r0, r4
 6254 2388 0A21     		movs	r1, #10
 6255 238a FFF7FEFF 		bl	write_psoc1
 6256              	.LVL452:
1259:.\Protocolo.c **** 						for(x=0;x<=14;x++){									
 6257              		.loc 1 1259 0
 6258 238e 0023     		movs	r3, #0
ARM GAS  C:\Users\RECEPC~1\AppData\Local\Temp\ccNG63cQ.s 			page 141


 6259 2390 2B60     		str	r3, [r5]
1260:.\Protocolo.c **** 							write_psoc1(val,msn_lecact[x]);				//LECTURA ACTUAL
 6260              		.loc 1 1260 0
 6261 2392 DFF8EC80 		ldr	r8, .L562+32
1259:.\Protocolo.c **** 						for(x=0;x<=14;x++){									
 6262              		.loc 1 1259 0
 6263 2396 07E0     		b	.L428
 6264              	.L429:
 6265              		.loc 1 1260 0 discriminator 2
 6266 2398 4344     		add	r3, r3, r8
 6267 239a 2046     		mov	r0, r4
 6268 239c 197D     		ldrb	r1, [r3, #20]	@ zero_extendqisi2
 6269 239e FFF7FEFF 		bl	write_psoc1
 6270              	.LVL453:
1259:.\Protocolo.c **** 						for(x=0;x<=14;x++){									
 6271              		.loc 1 1259 0 discriminator 2
 6272 23a2 2B68     		ldr	r3, [r5]
 6273 23a4 0133     		adds	r3, r3, #1
 6274 23a6 2B60     		str	r3, [r5]
 6275              	.L428:
1259:.\Protocolo.c **** 						for(x=0;x<=14;x++){									
 6276              		.loc 1 1259 0 is_stmt 0 discriminator 1
 6277 23a8 2B68     		ldr	r3, [r5]
 6278 23aa 0E2B     		cmp	r3, #14
 6279 23ac F4D9     		bls	.L429
1261:.\Protocolo.c **** 						}
1262:.\Protocolo.c **** 						write_psoc1(val,10);
 6280              		.loc 1 1262 0 is_stmt 1
 6281 23ae 2046     		mov	r0, r4
 6282 23b0 0A21     		movs	r1, #10
 6283 23b2 FFF7FEFF 		bl	write_psoc1
 6284              	.LVL454:
1263:.\Protocolo.c **** 						print_totalesac(12,val);	
 6285              		.loc 1 1263 0
 6286 23b6 0C20     		movs	r0, #12
 6287 23b8 2146     		mov	r1, r4
 6288 23ba FFF7FEFF 		bl	print_totalesac
 6289              	.LVL455:
1264:.\Protocolo.c **** 						for(x=0;x<=16;x++){												
 6290              		.loc 1 1264 0
 6291 23be 0023     		movs	r3, #0
 6292 23c0 2B60     		str	r3, [r5]
1265:.\Protocolo.c **** 							write_psoc1(val,msn_lecaan[x]);				//LECTURA ANTERIOR
 6293              		.loc 1 1265 0
 6294 23c2 DFF8BC80 		ldr	r8, .L562+32
1264:.\Protocolo.c **** 						for(x=0;x<=16;x++){												
 6295              		.loc 1 1264 0
 6296 23c6 08E0     		b	.L430
 6297              	.L431:
 6298              		.loc 1 1265 0 discriminator 2
 6299 23c8 4344     		add	r3, r3, r8
 6300 23ca 2046     		mov	r0, r4
 6301 23cc 93F82410 		ldrb	r1, [r3, #36]	@ zero_extendqisi2
 6302 23d0 FFF7FEFF 		bl	write_psoc1
 6303              	.LVL456:
1264:.\Protocolo.c **** 						for(x=0;x<=16;x++){												
 6304              		.loc 1 1264 0 discriminator 2
ARM GAS  C:\Users\RECEPC~1\AppData\Local\Temp\ccNG63cQ.s 			page 142


 6305 23d4 2B68     		ldr	r3, [r5]
 6306 23d6 0133     		adds	r3, r3, #1
 6307 23d8 2B60     		str	r3, [r5]
 6308              	.L430:
1264:.\Protocolo.c **** 						for(x=0;x<=16;x++){												
 6309              		.loc 1 1264 0 is_stmt 0 discriminator 1
 6310 23da 2B68     		ldr	r3, [r5]
 6311 23dc 102B     		cmp	r3, #16
 6312 23de F3D9     		bls	.L431
1266:.\Protocolo.c **** 						}
1267:.\Protocolo.c **** 						write_psoc1(val,10);
 6313              		.loc 1 1267 0 is_stmt 1
 6314 23e0 2046     		mov	r0, r4
 6315 23e2 0A21     		movs	r1, #10
 6316 23e4 FFF7FEFF 		bl	write_psoc1
 6317              	.LVL457:
1268:.\Protocolo.c **** 						if(dir==lado.a.dir){
 6318              		.loc 1 1268 0
 6319 23e8 204B     		ldr	r3, .L562+12
 6320 23ea 1B78     		ldrb	r3, [r3]	@ zero_extendqisi2
 6321 23ec B342     		cmp	r3, r6
 6322 23ee 05D1     		bne	.L432
1269:.\Protocolo.c **** 							leer_eeprom(1096,25);
 6323              		.loc 1 1269 0
 6324 23f0 4FF48960 		mov	r0, #1096
 6325 23f4 1921     		movs	r1, #25
 6326 23f6 FFF7FEFF 		bl	leer_eeprom
 6327              	.LVL458:
 6328 23fa 04E0     		b	.L433
 6329              	.L432:
1270:.\Protocolo.c **** 						}
1271:.\Protocolo.c **** 						else{
1272:.\Protocolo.c **** 							leer_eeprom(1054,25);
 6330              		.loc 1 1272 0
 6331 23fc 40F21E40 		movw	r0, #1054
 6332 2400 1921     		movs	r1, #25
 6333 2402 FFF7FEFF 		bl	leer_eeprom
 6334              	.LVL459:
 6335              	.L433:
1273:.\Protocolo.c **** 						}
1274:.\Protocolo.c **** 						print_totales(val);
 6336              		.loc 1 1274 0
 6337 2406 2046     		mov	r0, r4
 6338 2408 FFF7FEFF 		bl	print_totales
 6339              	.LVL460:
1275:.\Protocolo.c **** 						for(z=1;z<=12;z++){
 6340              		.loc 1 1275 0
 6341 240c 0122     		movs	r2, #1
 6342 240e 194B     		ldr	r3, .L562+20
 6343 2410 1A60     		str	r2, [r3]
 6344 2412 1946     		mov	r1, r3
1276:.\Protocolo.c **** 							minuendo[z]=rventa.tdinero[z-1];
 6345              		.loc 1 1276 0
 6346 2414 DFF84CC0 		ldr	ip, .L562+4
1277:.\Protocolo.c **** 							sustraendo[z]=buffer_i2c[z+12];
 6347              		.loc 1 1277 0
 6348 2418 DFF868E0 		ldr	lr, .L562+36
ARM GAS  C:\Users\RECEPC~1\AppData\Local\Temp\ccNG63cQ.s 			page 143


1275:.\Protocolo.c **** 						for(z=1;z<=12;z++){
 6349              		.loc 1 1275 0
 6350 241c 0FE0     		b	.L434
 6351              	.L435:
1276:.\Protocolo.c **** 							minuendo[z]=rventa.tdinero[z-1];
 6352              		.loc 1 1276 0 discriminator 2
 6353 241e 0CEB0302 		add	r2, ip, r3
 6354 2422 92F8C900 		ldrb	r0, [r2, #201]	@ zero_extendqisi2
 6355 2426 10AA     		add	r2, sp, #64
 6356 2428 1A44     		add	r2, r2, r3
 6357 242a 02F82C0C 		strb	r0, [r2, #-44]
 6358              		.loc 1 1277 0 discriminator 2
 6359 242e 03F10C00 		add	r0, r3, #12
 6360 2432 1EF80000 		ldrb	r0, [lr, r0]	@ zero_extendqisi2
 6361 2436 02F83C0C 		strb	r0, [r2, #-60]
1275:.\Protocolo.c **** 						for(z=1;z<=12;z++){
 6362              		.loc 1 1275 0 discriminator 2
 6363 243a 0133     		adds	r3, r3, #1
 6364 243c 0B60     		str	r3, [r1]
 6365              	.L434:
1275:.\Protocolo.c **** 						for(z=1;z<=12;z++){
 6366              		.loc 1 1275 0 is_stmt 0 discriminator 1
 6367 243e 0B68     		ldr	r3, [r1]
 6368 2440 0C2B     		cmp	r3, #12
 6369 2442 ECD9     		bls	.L435
1278:.\Protocolo.c **** 						}
1279:.\Protocolo.c **** 						minuendo[0]=12;
 6370              		.loc 1 1279 0 is_stmt 1
 6371 2444 10A9     		add	r1, sp, #64
 6372 2446 0C23     		movs	r3, #12
 6373 2448 01F82C3D 		strb	r3, [r1, #-44]!
1280:.\Protocolo.c **** 						operacion(2,minuendo,sustraendo);
 6374              		.loc 1 1280 0
 6375 244c 0220     		movs	r0, #2
 6376 244e 01AA     		add	r2, sp, #4
 6377 2450 FFF7FEFF 		bl	operacion
 6378              	.LVL461:
1281:.\Protocolo.c **** 						for(x=0;x<=17;x++){									
 6379              		.loc 1 1281 0
 6380 2454 0023     		movs	r3, #0
 6381 2456 2B60     		str	r3, [r5]
1282:.\Protocolo.c **** 							write_psoc1(val,msn_tventas[x]);				//Total de ventas
 6382              		.loc 1 1282 0
 6383 2458 DFF82480 		ldr	r8, .L562+32
1281:.\Protocolo.c **** 						for(x=0;x<=17;x++){									
 6384              		.loc 1 1281 0
 6385 245c 1DE0     		b	.L436
 6386              	.L563:
 6387 245e 00BF     		.align	2
 6388              	.L562:
 6389 2460 00000000 		.word	resultado
 6390 2464 00000000 		.word	rventa
 6391 2468 00000000 		.word	extra
 6392 246c 00000000 		.word	lado
 6393 2470 00000000 		.word	extra2
 6394 2474 00000000 		.word	z
 6395 2478 00000000 		.word	kero
ARM GAS  C:\Users\RECEPC~1\AppData\Local\Temp\ccNG63cQ.s 			page 144


 6396 247c 00000000 		.word	kero2
 6397 2480 00000000 		.word	.LANCHOR1
 6398 2484 00000000 		.word	buffer_i2c
 6399              	.L437:
 6400              		.loc 1 1282 0 discriminator 2
 6401 2488 4344     		add	r3, r3, r8
 6402 248a 2046     		mov	r0, r4
 6403 248c 93F83810 		ldrb	r1, [r3, #56]	@ zero_extendqisi2
 6404 2490 FFF7FEFF 		bl	write_psoc1
 6405              	.LVL462:
1281:.\Protocolo.c **** 						for(x=0;x<=17;x++){									
 6406              		.loc 1 1281 0 discriminator 2
 6407 2494 2B68     		ldr	r3, [r5]
 6408 2496 0133     		adds	r3, r3, #1
 6409 2498 2B60     		str	r3, [r5]
 6410              	.L436:
1281:.\Protocolo.c **** 						for(x=0;x<=17;x++){									
 6411              		.loc 1 1281 0 is_stmt 0 discriminator 1
 6412 249a 2B68     		ldr	r3, [r5]
 6413 249c 112B     		cmp	r3, #17
 6414 249e F3D9     		bls	.L437
1283:.\Protocolo.c **** 						}
1284:.\Protocolo.c **** 						print_valor(resultado,val);							
 6415              		.loc 1 1284 0 is_stmt 1
 6416 24a0 A948     		ldr	r0, .L564
 6417 24a2 2146     		mov	r1, r4
 6418 24a4 FFF7FEFF 		bl	print_valor
 6419              	.LVL463:
1285:.\Protocolo.c **** 						if(dir==lado.a.dir){
 6420              		.loc 1 1285 0
 6421 24a8 A84B     		ldr	r3, .L564+4
 6422 24aa 1B78     		ldrb	r3, [r3]	@ zero_extendqisi2
 6423 24ac B342     		cmp	r3, r6
 6424 24ae 0AD1     		bne	.L438
1286:.\Protocolo.c **** 						    write_eeprom(1096,corte);
 6425              		.loc 1 1286 0
 6426 24b0 4FF48960 		mov	r0, #1096
 6427 24b4 09A9     		add	r1, sp, #36
 6428 24b6 FFF7FEFF 		bl	write_eeprom
 6429              	.LVL464:
1287:.\Protocolo.c **** 						    write_eeprom(1038,resultado);
 6430              		.loc 1 1287 0
 6431 24ba 40F20E40 		movw	r0, #1038
 6432 24be A249     		ldr	r1, .L564
 6433 24c0 FFF7FEFF 		bl	write_eeprom
 6434              	.LVL465:
 6435 24c4 09E0     		b	.L425
 6436              	.L438:
1288:.\Protocolo.c **** 					    }
1289:.\Protocolo.c **** 					    else{
1290:.\Protocolo.c **** 						    write_eeprom(1054,corte);
 6437              		.loc 1 1290 0
 6438 24c6 40F21E40 		movw	r0, #1054
 6439 24ca 09A9     		add	r1, sp, #36
 6440 24cc FFF7FEFF 		bl	write_eeprom
 6441              	.LVL466:
1291:.\Protocolo.c **** 						    write_eeprom(1081,resultado);
ARM GAS  C:\Users\RECEPC~1\AppData\Local\Temp\ccNG63cQ.s 			page 145


 6442              		.loc 1 1291 0
 6443 24d0 40F23940 		movw	r0, #1081
 6444 24d4 9C49     		ldr	r1, .L564
 6445 24d6 FFF7FEFF 		bl	write_eeprom
 6446              	.LVL467:
 6447              	.L425:
1117:.\Protocolo.c **** 				for(y=0;y<=42;y+=42){
 6448              		.loc 1 1117 0
 6449 24da 3B68     		ldr	r3, [r7]
 6450 24dc 2A33     		adds	r3, r3, #42
 6451 24de 3B60     		str	r3, [r7]
 6452              	.L366:
1117:.\Protocolo.c **** 				for(y=0;y<=42;y+=42){
 6453              		.loc 1 1117 0 is_stmt 0 discriminator 1
 6454 24e0 3A68     		ldr	r2, [r7]
 6455 24e2 2A2A     		cmp	r2, #42
 6456 24e4 7FF668AC 		bls	.L439
1292:.\Protocolo.c **** 				        }					
1293:.\Protocolo.c **** 					}
1294:.\Protocolo.c **** 				}
1295:.\Protocolo.c **** 				Surtidor_ClearRxBuffer();
 6457              		.loc 1 1295 0 is_stmt 1
 6458 24e8 FFF7FEFF 		bl	Surtidor_ClearRxBuffer
 6459              	.LVL468:
1296:.\Protocolo.c **** 				return 2;					
 6460              		.loc 1 1296 0
 6461 24ec 0220     		movs	r0, #2
 6462 24ee E9E3     		b	.L73
 6463              	.L71:
1297:.\Protocolo.c **** 			}			
1298:.\Protocolo.c **** 			else{
1299:.\Protocolo.c **** 				return 0;
1300:.\Protocolo.c **** 			}			
1301:.\Protocolo.c **** 		break;
1302:.\Protocolo.c **** 		
1303:.\Protocolo.c **** 		case 130:
1304:.\Protocolo.c **** 			if((Surtidor_rxBuffer[0]==0xFF)&&(Surtidor_rxBuffer[1]==0xF6)&&(Surtidor_rxBuffer[129]==0xF0)&&(
 6464              		.loc 1 1304 0
 6465 24f0 974B     		ldr	r3, .L564+8
 6466 24f2 1B78     		ldrb	r3, [r3]	@ zero_extendqisi2
 6467 24f4 DBB2     		uxtb	r3, r3
 6468 24f6 FF2B     		cmp	r3, #255
 6469 24f8 40F0DD83 		bne	.L536
 6470              		.loc 1 1304 0 is_stmt 0 discriminator 1
 6471 24fc 944B     		ldr	r3, .L564+8
 6472 24fe 5B78     		ldrb	r3, [r3, #1]	@ zero_extendqisi2
 6473 2500 DBB2     		uxtb	r3, r3
 6474 2502 F62B     		cmp	r3, #246
 6475 2504 40F0D983 		bne	.L537
 6476 2508 914B     		ldr	r3, .L564+8
 6477 250a 93F88130 		ldrb	r3, [r3, #129]	@ zero_extendqisi2
 6478 250e DBB2     		uxtb	r3, r3
 6479 2510 F02B     		cmp	r3, #240
 6480 2512 40F0D483 		bne	.L538
 6481 2516 8E4B     		ldr	r3, .L564+8
 6482 2518 DB78     		ldrb	r3, [r3, #3]	@ zero_extendqisi2
 6483 251a DBB2     		uxtb	r3, r3
ARM GAS  C:\Users\RECEPC~1\AppData\Local\Temp\ccNG63cQ.s 			page 146


 6484 251c F92B     		cmp	r3, #249
 6485 251e 40F0D083 		bne	.L539
1305:.\Protocolo.c **** 				for(y=0;y<=84;y+=42){
 6486              		.loc 1 1305 0 is_stmt 1
 6487 2522 0022     		movs	r2, #0
 6488 2524 8B4B     		ldr	r3, .L564+12
 6489 2526 1A60     		str	r2, [r3]
 6490 2528 1F46     		mov	r7, r3
1306:.\Protocolo.c **** 					rventa.manguera=(Surtidor_rxBuffer[y+2]&0x0F)+1;
1307:.\Protocolo.c **** 					for(x=0;x<=11;x++){
 6491              		.loc 1 1307 0
 6492 252a 8B4D     		ldr	r5, .L564+16
1305:.\Protocolo.c **** 				for(y=0;y<=84;y+=42){
 6493              		.loc 1 1305 0
 6494 252c 7FE3     		b	.L440
 6495              	.L513:
1306:.\Protocolo.c **** 					rventa.manguera=(Surtidor_rxBuffer[y+2]&0x0F)+1;
 6496              		.loc 1 1306 0
 6497 252e 931C     		adds	r3, r2, #2
 6498 2530 8749     		ldr	r1, .L564+8
 6499 2532 C85C     		ldrb	r0, [r1, r3]	@ zero_extendqisi2
 6500 2534 00F00F00 		and	r0, r0, #15
 6501 2538 0130     		adds	r0, r0, #1
 6502 253a 884B     		ldr	r3, .L564+20
 6503 253c 83F8E000 		strb	r0, [r3, #224]
 6504              		.loc 1 1307 0
 6505 2540 0023     		movs	r3, #0
 6506 2542 2B60     		str	r3, [r5]
1308:.\Protocolo.c **** 						rventa.tvolumen[x]=(Surtidor_rxBuffer[y+4+x]&0x0F);
 6507              		.loc 1 1308 0
 6508 2544 8846     		mov	r8, r1
 6509 2546 DFF814C2 		ldr	ip, .L564+20
1307:.\Protocolo.c **** 					for(x=0;x<=11;x++){
 6510              		.loc 1 1307 0
 6511 254a 0BE0     		b	.L441
 6512              	.L442:
 6513              		.loc 1 1308 0 discriminator 2
 6514 254c D118     		adds	r1, r2, r3
 6515 254e 0431     		adds	r1, r1, #4
 6516 2550 18F801E0 		ldrb	lr, [r8, r1]	@ zero_extendqisi2
 6517 2554 0CEB0301 		add	r1, ip, r3
 6518 2558 0EF00F0E 		and	lr, lr, #15
 6519 255c 81F8BDE0 		strb	lr, [r1, #189]
1307:.\Protocolo.c **** 					for(x=0;x<=11;x++){
 6520              		.loc 1 1307 0 discriminator 2
 6521 2560 0133     		adds	r3, r3, #1
 6522 2562 2B60     		str	r3, [r5]
 6523              	.L441:
1307:.\Protocolo.c **** 					for(x=0;x<=11;x++){
 6524              		.loc 1 1307 0 is_stmt 0 discriminator 1
 6525 2564 2B68     		ldr	r3, [r5]
 6526 2566 0B2B     		cmp	r3, #11
 6527 2568 F0D9     		bls	.L442
1309:.\Protocolo.c **** 					}
1310:.\Protocolo.c **** 					for(x=0;x<=11;x++){
 6528              		.loc 1 1310 0 is_stmt 1
 6529 256a 0023     		movs	r3, #0
ARM GAS  C:\Users\RECEPC~1\AppData\Local\Temp\ccNG63cQ.s 			page 147


 6530 256c 2B60     		str	r3, [r5]
1311:.\Protocolo.c **** 						rventa.tdinero[x]=(Surtidor_rxBuffer[y+17+x]&0x0F);
 6531              		.loc 1 1311 0
 6532 256e DFF8E081 		ldr	r8, .L564+8
 6533 2572 DFF8E8C1 		ldr	ip, .L564+20
1310:.\Protocolo.c **** 					for(x=0;x<=11;x++){
 6534              		.loc 1 1310 0
 6535 2576 0BE0     		b	.L443
 6536              	.L444:
 6537              		.loc 1 1311 0 discriminator 2
 6538 2578 D118     		adds	r1, r2, r3
 6539 257a 1131     		adds	r1, r1, #17
 6540 257c 18F801E0 		ldrb	lr, [r8, r1]	@ zero_extendqisi2
 6541 2580 0CEB0301 		add	r1, ip, r3
 6542 2584 0EF00F0E 		and	lr, lr, #15
 6543 2588 81F8CAE0 		strb	lr, [r1, #202]
1310:.\Protocolo.c **** 					for(x=0;x<=11;x++){
 6544              		.loc 1 1310 0 discriminator 2
 6545 258c 0133     		adds	r3, r3, #1
 6546 258e 2B60     		str	r3, [r5]
 6547              	.L443:
1310:.\Protocolo.c **** 					for(x=0;x<=11;x++){
 6548              		.loc 1 1310 0 is_stmt 0 discriminator 1
 6549 2590 2B68     		ldr	r3, [r5]
 6550 2592 0B2B     		cmp	r3, #11
 6551 2594 F0D9     		bls	.L444
1312:.\Protocolo.c **** 					}
1313:.\Protocolo.c **** 					for(z=0;z<=11;z++){
 6552              		.loc 1 1313 0 is_stmt 1
 6553 2596 0022     		movs	r2, #0
 6554 2598 714B     		ldr	r3, .L564+24
 6555 259a 1A60     		str	r2, [r3]
 6556 259c 1946     		mov	r1, r3
1314:.\Protocolo.c **** 						corte[z+1]=rventa.tvolumen[z];
 6557              		.loc 1 1314 0
 6558 259e DFF8BCC1 		ldr	ip, .L564+20
1313:.\Protocolo.c **** 					for(z=0;z<=11;z++){
 6559              		.loc 1 1313 0
 6560 25a2 08E0     		b	.L445
 6561              	.L446:
 6562              		.loc 1 1314 0 discriminator 2
 6563 25a4 5A1C     		adds	r2, r3, #1
 6564 25a6 6344     		add	r3, r3, ip
 6565 25a8 93F8BDE0 		ldrb	lr, [r3, #189]	@ zero_extendqisi2
 6566 25ac 10AB     		add	r3, sp, #64
 6567 25ae 1344     		add	r3, r3, r2
 6568 25b0 03F81CEC 		strb	lr, [r3, #-28]
1313:.\Protocolo.c **** 					for(z=0;z<=11;z++){
 6569              		.loc 1 1313 0 discriminator 2
 6570 25b4 0A60     		str	r2, [r1]
 6571              	.L445:
1313:.\Protocolo.c **** 					for(z=0;z<=11;z++){
 6572              		.loc 1 1313 0 is_stmt 0 discriminator 1
 6573 25b6 0B68     		ldr	r3, [r1]
 6574 25b8 0B2B     		cmp	r3, #11
 6575 25ba F3D9     		bls	.L446
1315:.\Protocolo.c **** 					}
ARM GAS  C:\Users\RECEPC~1\AppData\Local\Temp\ccNG63cQ.s 			page 148


1316:.\Protocolo.c **** 					for(z=13;z<=24;z++){
 6576              		.loc 1 1316 0 is_stmt 1
 6577 25bc 0D22     		movs	r2, #13
 6578 25be 684B     		ldr	r3, .L564+24
 6579 25c0 1A60     		str	r2, [r3]
 6580 25c2 1A46     		mov	r2, r3
1317:.\Protocolo.c **** 						corte[z]=rventa.tdinero[z-13];
 6581              		.loc 1 1317 0
 6582 25c4 DFF894C1 		ldr	ip, .L564+20
1316:.\Protocolo.c **** 					for(z=13;z<=24;z++){
 6583              		.loc 1 1316 0
 6584 25c8 09E0     		b	.L447
 6585              	.L448:
 6586              		.loc 1 1317 0 discriminator 2
 6587 25ca 0CEB0301 		add	r1, ip, r3
 6588 25ce 91F8BDE0 		ldrb	lr, [r1, #189]	@ zero_extendqisi2
 6589 25d2 10A9     		add	r1, sp, #64
 6590 25d4 1944     		add	r1, r1, r3
 6591 25d6 01F81CEC 		strb	lr, [r1, #-28]
1316:.\Protocolo.c **** 					for(z=13;z<=24;z++){
 6592              		.loc 1 1316 0 discriminator 2
 6593 25da 0133     		adds	r3, r3, #1
 6594 25dc 1360     		str	r3, [r2]
 6595              	.L447:
1316:.\Protocolo.c **** 					for(z=13;z<=24;z++){
 6596              		.loc 1 1316 0 is_stmt 0 discriminator 1
 6597 25de 1368     		ldr	r3, [r2]
 6598 25e0 182B     		cmp	r3, #24
 6599 25e2 F2D9     		bls	.L448
1318:.\Protocolo.c **** 					}
1319:.\Protocolo.c **** 					corte[0]=24;				
 6600              		.loc 1 1319 0 is_stmt 1
 6601 25e4 1823     		movs	r3, #24
 6602 25e6 8DF82430 		strb	r3, [sp, #36]
1320:.\Protocolo.c **** 					if(((rventa.manguera==(corriente&0x0F))&&(dir==lado.a.dir))||((rventa.manguera==(corriente2&0x
 6603              		.loc 1 1320 0
 6604 25ea 5E4B     		ldr	r3, .L564+28
 6605 25ec 1B78     		ldrb	r3, [r3]	@ zero_extendqisi2
 6606 25ee 03F00F03 		and	r3, r3, #15
 6607 25f2 8342     		cmp	r3, r0
 6608 25f4 03D1     		bne	.L449
 6609              		.loc 1 1320 0 is_stmt 0 discriminator 1
 6610 25f6 554B     		ldr	r3, .L564+4
 6611 25f8 1B78     		ldrb	r3, [r3]	@ zero_extendqisi2
 6612 25fa B342     		cmp	r3, r6
 6613 25fc 0BD0     		beq	.L450
 6614              	.L449:
 6615              		.loc 1 1320 0 discriminator 2
 6616 25fe 5A4B     		ldr	r3, .L564+32
 6617 2600 1B78     		ldrb	r3, [r3]	@ zero_extendqisi2
 6618 2602 03F00F03 		and	r3, r3, #15
 6619 2606 9842     		cmp	r0, r3
 6620 2608 40F0BE80 		bne	.L451
 6621              		.loc 1 1320 0 discriminator 1
 6622 260c 4F4B     		ldr	r3, .L564+4
 6623 260e 1B79     		ldrb	r3, [r3, #4]	@ zero_extendqisi2
 6624 2610 B342     		cmp	r3, r6
ARM GAS  C:\Users\RECEPC~1\AppData\Local\Temp\ccNG63cQ.s 			page 149


 6625 2612 40F0B980 		bne	.L451
 6626              	.L450:
1321:.\Protocolo.c **** 						for(x=0;x<=16;x++){									
 6627              		.loc 1 1321 0 is_stmt 1
 6628 2616 0023     		movs	r3, #0
 6629 2618 2B60     		str	r3, [r5]
1322:.\Protocolo.c **** 							write_psoc1(val,msn_tc[x]);
 6630              		.loc 1 1322 0
 6631 261a DFF85081 		ldr	r8, .L564+36
1321:.\Protocolo.c **** 						for(x=0;x<=16;x++){									
 6632              		.loc 1 1321 0
 6633 261e 07E0     		b	.L452
 6634              	.L453:
 6635              		.loc 1 1322 0 discriminator 2
 6636 2620 2046     		mov	r0, r4
 6637 2622 18F80310 		ldrb	r1, [r8, r3]	@ zero_extendqisi2
 6638 2626 FFF7FEFF 		bl	write_psoc1
 6639              	.LVL469:
1321:.\Protocolo.c **** 						for(x=0;x<=16;x++){									
 6640              		.loc 1 1321 0 discriminator 2
 6641 262a 2B68     		ldr	r3, [r5]
 6642 262c 0133     		adds	r3, r3, #1
 6643 262e 2B60     		str	r3, [r5]
 6644              	.L452:
1321:.\Protocolo.c **** 						for(x=0;x<=16;x++){									
 6645              		.loc 1 1321 0 is_stmt 0 discriminator 1
 6646 2630 2B68     		ldr	r3, [r5]
 6647 2632 102B     		cmp	r3, #16
 6648 2634 F4D9     		bls	.L453
1323:.\Protocolo.c **** 						}
1324:.\Protocolo.c **** 						write_psoc1(val,10);
 6649              		.loc 1 1324 0 is_stmt 1
 6650 2636 2046     		mov	r0, r4
 6651 2638 0A21     		movs	r1, #10
 6652 263a FFF7FEFF 		bl	write_psoc1
 6653              	.LVL470:
1325:.\Protocolo.c **** 						for(x=0;x<=14;x++){									
 6654              		.loc 1 1325 0
 6655 263e 0023     		movs	r3, #0
 6656 2640 2B60     		str	r3, [r5]
1326:.\Protocolo.c **** 							write_psoc1(val,msn_lecact[x]);				//LECTURA ACTUAL
 6657              		.loc 1 1326 0
 6658 2642 DFF82881 		ldr	r8, .L564+36
1325:.\Protocolo.c **** 						for(x=0;x<=14;x++){									
 6659              		.loc 1 1325 0
 6660 2646 07E0     		b	.L454
 6661              	.L455:
 6662              		.loc 1 1326 0 discriminator 2
 6663 2648 4344     		add	r3, r3, r8
 6664 264a 2046     		mov	r0, r4
 6665 264c 197D     		ldrb	r1, [r3, #20]	@ zero_extendqisi2
 6666 264e FFF7FEFF 		bl	write_psoc1
 6667              	.LVL471:
1325:.\Protocolo.c **** 						for(x=0;x<=14;x++){									
 6668              		.loc 1 1325 0 discriminator 2
 6669 2652 2B68     		ldr	r3, [r5]
 6670 2654 0133     		adds	r3, r3, #1
ARM GAS  C:\Users\RECEPC~1\AppData\Local\Temp\ccNG63cQ.s 			page 150


 6671 2656 2B60     		str	r3, [r5]
 6672              	.L454:
1325:.\Protocolo.c **** 						for(x=0;x<=14;x++){									
 6673              		.loc 1 1325 0 is_stmt 0 discriminator 1
 6674 2658 2B68     		ldr	r3, [r5]
 6675 265a 0E2B     		cmp	r3, #14
 6676 265c F4D9     		bls	.L455
1327:.\Protocolo.c **** 						}
1328:.\Protocolo.c **** 						write_psoc1(val,10);
 6677              		.loc 1 1328 0 is_stmt 1
 6678 265e 2046     		mov	r0, r4
 6679 2660 0A21     		movs	r1, #10
 6680 2662 FFF7FEFF 		bl	write_psoc1
 6681              	.LVL472:
1329:.\Protocolo.c **** 						print_totalesac(12,val);	
 6682              		.loc 1 1329 0
 6683 2666 0C20     		movs	r0, #12
 6684 2668 2146     		mov	r1, r4
 6685 266a FFF7FEFF 		bl	print_totalesac
 6686              	.LVL473:
1330:.\Protocolo.c **** 						for(x=0;x<=16;x++){												
 6687              		.loc 1 1330 0
 6688 266e 0023     		movs	r3, #0
 6689 2670 2B60     		str	r3, [r5]
1331:.\Protocolo.c **** 							write_psoc1(val,msn_lecaan[x]);				//LECTURA ANTERIOR
 6690              		.loc 1 1331 0
 6691 2672 DFF8F880 		ldr	r8, .L564+36
1330:.\Protocolo.c **** 						for(x=0;x<=16;x++){												
 6692              		.loc 1 1330 0
 6693 2676 08E0     		b	.L456
 6694              	.L457:
 6695              		.loc 1 1331 0 discriminator 2
 6696 2678 4344     		add	r3, r3, r8
 6697 267a 2046     		mov	r0, r4
 6698 267c 93F82410 		ldrb	r1, [r3, #36]	@ zero_extendqisi2
 6699 2680 FFF7FEFF 		bl	write_psoc1
 6700              	.LVL474:
1330:.\Protocolo.c **** 						for(x=0;x<=16;x++){												
 6701              		.loc 1 1330 0 discriminator 2
 6702 2684 2B68     		ldr	r3, [r5]
 6703 2686 0133     		adds	r3, r3, #1
 6704 2688 2B60     		str	r3, [r5]
 6705              	.L456:
1330:.\Protocolo.c **** 						for(x=0;x<=16;x++){												
 6706              		.loc 1 1330 0 is_stmt 0 discriminator 1
 6707 268a 2B68     		ldr	r3, [r5]
 6708 268c 102B     		cmp	r3, #16
 6709 268e F3D9     		bls	.L457
1332:.\Protocolo.c **** 						}
1333:.\Protocolo.c **** 						write_psoc1(val,10);
 6710              		.loc 1 1333 0 is_stmt 1
 6711 2690 2046     		mov	r0, r4
 6712 2692 0A21     		movs	r1, #10
 6713 2694 FFF7FEFF 		bl	write_psoc1
 6714              	.LVL475:
1334:.\Protocolo.c **** 						if(dir==lado.a.dir){
 6715              		.loc 1 1334 0
ARM GAS  C:\Users\RECEPC~1\AppData\Local\Temp\ccNG63cQ.s 			page 151


 6716 2698 2C4B     		ldr	r3, .L564+4
 6717 269a 1B78     		ldrb	r3, [r3]	@ zero_extendqisi2
 6718 269c B342     		cmp	r3, r6
 6719 269e 04D1     		bne	.L458
1335:.\Protocolo.c **** 							leer_eeprom(192,25);
 6720              		.loc 1 1335 0
 6721 26a0 C020     		movs	r0, #192
 6722 26a2 1921     		movs	r1, #25
 6723 26a4 FFF7FEFF 		bl	leer_eeprom
 6724              	.LVL476:
 6725 26a8 04E0     		b	.L459
 6726              	.L458:
1336:.\Protocolo.c **** 						}
1337:.\Protocolo.c **** 						else{
1338:.\Protocolo.c **** 							leer_eeprom(281,25);
 6727              		.loc 1 1338 0
 6728 26aa 40F21910 		movw	r0, #281
 6729 26ae 1921     		movs	r1, #25
 6730 26b0 FFF7FEFF 		bl	leer_eeprom
 6731              	.LVL477:
 6732              	.L459:
1339:.\Protocolo.c **** 						}
1340:.\Protocolo.c **** 						print_totales(val);
 6733              		.loc 1 1340 0
 6734 26b4 2046     		mov	r0, r4
 6735 26b6 FFF7FEFF 		bl	print_totales
 6736              	.LVL478:
1341:.\Protocolo.c **** 						for(z=1;z<=12;z++){
 6737              		.loc 1 1341 0
 6738 26ba 0122     		movs	r2, #1
 6739 26bc 284B     		ldr	r3, .L564+24
 6740 26be 1A60     		str	r2, [r3]
 6741 26c0 1946     		mov	r1, r3
1342:.\Protocolo.c **** 							minuendo[z]=rventa.tdinero[z-1];
 6742              		.loc 1 1342 0
 6743 26c2 DFF898C0 		ldr	ip, .L564+20
1343:.\Protocolo.c **** 							sustraendo[z]=buffer_i2c[z+12];
 6744              		.loc 1 1343 0
 6745 26c6 DFF8A8E0 		ldr	lr, .L564+40
1341:.\Protocolo.c **** 						for(z=1;z<=12;z++){
 6746              		.loc 1 1341 0
 6747 26ca 0FE0     		b	.L460
 6748              	.L461:
1342:.\Protocolo.c **** 							minuendo[z]=rventa.tdinero[z-1];
 6749              		.loc 1 1342 0 discriminator 2
 6750 26cc 0CEB0302 		add	r2, ip, r3
 6751 26d0 92F8C900 		ldrb	r0, [r2, #201]	@ zero_extendqisi2
 6752 26d4 10AA     		add	r2, sp, #64
 6753 26d6 1A44     		add	r2, r2, r3
 6754 26d8 02F82C0C 		strb	r0, [r2, #-44]
 6755              		.loc 1 1343 0 discriminator 2
 6756 26dc 03F10C00 		add	r0, r3, #12
 6757 26e0 1EF80000 		ldrb	r0, [lr, r0]	@ zero_extendqisi2
 6758 26e4 02F83C0C 		strb	r0, [r2, #-60]
1341:.\Protocolo.c **** 						for(z=1;z<=12;z++){
 6759              		.loc 1 1341 0 discriminator 2
 6760 26e8 0133     		adds	r3, r3, #1
ARM GAS  C:\Users\RECEPC~1\AppData\Local\Temp\ccNG63cQ.s 			page 152


 6761 26ea 0B60     		str	r3, [r1]
 6762              	.L460:
1341:.\Protocolo.c **** 						for(z=1;z<=12;z++){
 6763              		.loc 1 1341 0 is_stmt 0 discriminator 1
 6764 26ec 0B68     		ldr	r3, [r1]
 6765 26ee 0C2B     		cmp	r3, #12
 6766 26f0 ECD9     		bls	.L461
1344:.\Protocolo.c **** 						}
1345:.\Protocolo.c **** 						minuendo[0]=12;
 6767              		.loc 1 1345 0 is_stmt 1
 6768 26f2 10A9     		add	r1, sp, #64
 6769 26f4 0C23     		movs	r3, #12
 6770 26f6 01F82C3D 		strb	r3, [r1, #-44]!
1346:.\Protocolo.c **** 						operacion(2,minuendo,sustraendo);
 6771              		.loc 1 1346 0
 6772 26fa 0220     		movs	r0, #2
 6773 26fc 01AA     		add	r2, sp, #4
 6774 26fe FFF7FEFF 		bl	operacion
 6775              	.LVL479:
1347:.\Protocolo.c **** 						for(x=0;x<=17;x++){									
 6776              		.loc 1 1347 0
 6777 2702 0023     		movs	r3, #0
 6778 2704 2B60     		str	r3, [r5]
1348:.\Protocolo.c **** 							write_psoc1(val,msn_tventas[x]);				//Total de ventas
 6779              		.loc 1 1348 0
 6780 2706 DFF86480 		ldr	r8, .L564+36
1347:.\Protocolo.c **** 						for(x=0;x<=17;x++){									
 6781              		.loc 1 1347 0
 6782 270a 08E0     		b	.L462
 6783              	.L463:
 6784              		.loc 1 1348 0 discriminator 2
 6785 270c 4344     		add	r3, r3, r8
 6786 270e 2046     		mov	r0, r4
 6787 2710 93F83810 		ldrb	r1, [r3, #56]	@ zero_extendqisi2
 6788 2714 FFF7FEFF 		bl	write_psoc1
 6789              	.LVL480:
1347:.\Protocolo.c **** 						for(x=0;x<=17;x++){									
 6790              		.loc 1 1347 0 discriminator 2
 6791 2718 2B68     		ldr	r3, [r5]
 6792 271a 0133     		adds	r3, r3, #1
 6793 271c 2B60     		str	r3, [r5]
 6794              	.L462:
1347:.\Protocolo.c **** 						for(x=0;x<=17;x++){									
 6795              		.loc 1 1347 0 is_stmt 0 discriminator 1
 6796 271e 2B68     		ldr	r3, [r5]
 6797 2720 112B     		cmp	r3, #17
 6798 2722 F3D9     		bls	.L463
1349:.\Protocolo.c **** 						}
1350:.\Protocolo.c **** 						print_valor(resultado,val);
 6799              		.loc 1 1350 0 is_stmt 1
 6800 2724 0848     		ldr	r0, .L564
 6801 2726 2146     		mov	r1, r4
 6802 2728 FFF7FEFF 		bl	print_valor
 6803              	.LVL481:
1351:.\Protocolo.c **** 						if(dir==lado.a.dir){
 6804              		.loc 1 1351 0
 6805 272c 074B     		ldr	r3, .L564+4
ARM GAS  C:\Users\RECEPC~1\AppData\Local\Temp\ccNG63cQ.s 			page 153


 6806 272e 1B78     		ldrb	r3, [r3]	@ zero_extendqisi2
 6807 2730 B342     		cmp	r3, r6
 6808 2732 1FD1     		bne	.L464
1352:.\Protocolo.c **** 							write_eeprom(192,corte);	
 6809              		.loc 1 1352 0
 6810 2734 C020     		movs	r0, #192
 6811 2736 09A9     		add	r1, sp, #36
 6812 2738 FFF7FEFF 		bl	write_eeprom
 6813              	.LVL482:
1353:.\Protocolo.c **** 							write_eeprom(512,resultado);
 6814              		.loc 1 1353 0
 6815 273c 4FF40070 		mov	r0, #512
 6816 2740 0149     		ldr	r1, .L564
 6817 2742 FFF7FEFF 		bl	write_eeprom
 6818              	.LVL483:
 6819 2746 1FE0     		b	.L451
 6820              	.L565:
 6821              		.align	2
 6822              	.L564:
 6823 2748 00000000 		.word	resultado
 6824 274c 00000000 		.word	lado
 6825 2750 00000000 		.word	Surtidor_rxBuffer
 6826 2754 00000000 		.word	y
 6827 2758 00000000 		.word	x
 6828 275c 00000000 		.word	rventa
 6829 2760 00000000 		.word	z
 6830 2764 00000000 		.word	corriente
 6831 2768 00000000 		.word	corriente2
 6832 276c 00000000 		.word	.LANCHOR1
 6833 2770 00000000 		.word	buffer_i2c
 6834              	.L464:
1354:.\Protocolo.c **** 						}
1355:.\Protocolo.c **** 						else{
1356:.\Protocolo.c **** 							write_eeprom(281,corte);
 6835              		.loc 1 1356 0
 6836 2774 40F21910 		movw	r0, #281
 6837 2778 09A9     		add	r1, sp, #36
 6838 277a FFF7FEFF 		bl	write_eeprom
 6839              	.LVL484:
1357:.\Protocolo.c **** 							write_eeprom(551,resultado);
 6840              		.loc 1 1357 0
 6841 277e 40F22720 		movw	r0, #551
 6842 2782 AB49     		ldr	r1, .L566
 6843 2784 FFF7FEFF 		bl	write_eeprom
 6844              	.LVL485:
 6845              	.L451:
1358:.\Protocolo.c **** 						}
1359:.\Protocolo.c **** 					}
1360:.\Protocolo.c **** 					if(((rventa.manguera==(diesel&0x0F))&&(dir==lado.a.dir))||((rventa.manguera==(diesel2&0x0F))&&
 6846              		.loc 1 1360 0
 6847 2788 AA4B     		ldr	r3, .L566+4
 6848 278a 93F8E030 		ldrb	r3, [r3, #224]	@ zero_extendqisi2
 6849 278e AA4A     		ldr	r2, .L566+8
 6850 2790 1278     		ldrb	r2, [r2]	@ zero_extendqisi2
 6851 2792 02F00F02 		and	r2, r2, #15
 6852 2796 9A42     		cmp	r2, r3
 6853 2798 03D1     		bne	.L465
ARM GAS  C:\Users\RECEPC~1\AppData\Local\Temp\ccNG63cQ.s 			page 154


 6854              		.loc 1 1360 0 is_stmt 0 discriminator 1
 6855 279a A84A     		ldr	r2, .L566+12
 6856 279c 1278     		ldrb	r2, [r2]	@ zero_extendqisi2
 6857 279e B242     		cmp	r2, r6
 6858 27a0 0BD0     		beq	.L466
 6859              	.L465:
 6860              		.loc 1 1360 0 discriminator 2
 6861 27a2 A74A     		ldr	r2, .L566+16
 6862 27a4 1278     		ldrb	r2, [r2]	@ zero_extendqisi2
 6863 27a6 02F00F02 		and	r2, r2, #15
 6864 27aa 9342     		cmp	r3, r2
 6865 27ac 40F0A980 		bne	.L467
 6866              		.loc 1 1360 0 discriminator 1
 6867 27b0 A24B     		ldr	r3, .L566+12
 6868 27b2 1B79     		ldrb	r3, [r3, #4]	@ zero_extendqisi2
 6869 27b4 B342     		cmp	r3, r6
 6870 27b6 40F0A480 		bne	.L467
 6871              	.L466:
1361:.\Protocolo.c **** 						for(x=0;x<=13;x++){									
 6872              		.loc 1 1361 0 is_stmt 1
 6873 27ba 0023     		movs	r3, #0
 6874 27bc 2B60     		str	r3, [r5]
1362:.\Protocolo.c **** 							write_psoc1(val,msn_td[x]);
 6875              		.loc 1 1362 0
 6876 27be DFF89082 		ldr	r8, .L566+32
1361:.\Protocolo.c **** 						for(x=0;x<=13;x++){									
 6877              		.loc 1 1361 0
 6878 27c2 08E0     		b	.L468
 6879              	.L469:
 6880              		.loc 1 1362 0 discriminator 2
 6881 27c4 4344     		add	r3, r3, r8
 6882 27c6 2046     		mov	r0, r4
 6883 27c8 93F84C10 		ldrb	r1, [r3, #76]	@ zero_extendqisi2
 6884 27cc FFF7FEFF 		bl	write_psoc1
 6885              	.LVL486:
1361:.\Protocolo.c **** 						for(x=0;x<=13;x++){									
 6886              		.loc 1 1361 0 discriminator 2
 6887 27d0 2B68     		ldr	r3, [r5]
 6888 27d2 0133     		adds	r3, r3, #1
 6889 27d4 2B60     		str	r3, [r5]
 6890              	.L468:
1361:.\Protocolo.c **** 						for(x=0;x<=13;x++){									
 6891              		.loc 1 1361 0 is_stmt 0 discriminator 1
 6892 27d6 2B68     		ldr	r3, [r5]
 6893 27d8 0D2B     		cmp	r3, #13
 6894 27da F3D9     		bls	.L469
1363:.\Protocolo.c **** 						}
1364:.\Protocolo.c **** 						write_psoc1(val,10);
 6895              		.loc 1 1364 0 is_stmt 1
 6896 27dc 2046     		mov	r0, r4
 6897 27de 0A21     		movs	r1, #10
 6898 27e0 FFF7FEFF 		bl	write_psoc1
 6899              	.LVL487:
1365:.\Protocolo.c **** 						for(x=0;x<=14;x++){									
 6900              		.loc 1 1365 0
 6901 27e4 0023     		movs	r3, #0
 6902 27e6 2B60     		str	r3, [r5]
ARM GAS  C:\Users\RECEPC~1\AppData\Local\Temp\ccNG63cQ.s 			page 155


1366:.\Protocolo.c **** 							write_psoc1(val,msn_lecact[x]);				//LECTURA ACTUAL
 6903              		.loc 1 1366 0
 6904 27e8 DFF86482 		ldr	r8, .L566+32
1365:.\Protocolo.c **** 						for(x=0;x<=14;x++){									
 6905              		.loc 1 1365 0
 6906 27ec 07E0     		b	.L470
 6907              	.L471:
 6908              		.loc 1 1366 0 discriminator 2
 6909 27ee 4344     		add	r3, r3, r8
 6910 27f0 2046     		mov	r0, r4
 6911 27f2 197D     		ldrb	r1, [r3, #20]	@ zero_extendqisi2
 6912 27f4 FFF7FEFF 		bl	write_psoc1
 6913              	.LVL488:
1365:.\Protocolo.c **** 						for(x=0;x<=14;x++){									
 6914              		.loc 1 1365 0 discriminator 2
 6915 27f8 2B68     		ldr	r3, [r5]
 6916 27fa 0133     		adds	r3, r3, #1
 6917 27fc 2B60     		str	r3, [r5]
 6918              	.L470:
1365:.\Protocolo.c **** 						for(x=0;x<=14;x++){									
 6919              		.loc 1 1365 0 is_stmt 0 discriminator 1
 6920 27fe 2B68     		ldr	r3, [r5]
 6921 2800 0E2B     		cmp	r3, #14
 6922 2802 F4D9     		bls	.L471
1367:.\Protocolo.c **** 						}
1368:.\Protocolo.c **** 						write_psoc1(val,10);
 6923              		.loc 1 1368 0 is_stmt 1
 6924 2804 2046     		mov	r0, r4
 6925 2806 0A21     		movs	r1, #10
 6926 2808 FFF7FEFF 		bl	write_psoc1
 6927              	.LVL489:
1369:.\Protocolo.c **** 						print_totalesac(12,val);	
 6928              		.loc 1 1369 0
 6929 280c 0C20     		movs	r0, #12
 6930 280e 2146     		mov	r1, r4
 6931 2810 FFF7FEFF 		bl	print_totalesac
 6932              	.LVL490:
1370:.\Protocolo.c **** 						for(x=0;x<=16;x++){												
 6933              		.loc 1 1370 0
 6934 2814 0023     		movs	r3, #0
 6935 2816 2B60     		str	r3, [r5]
1371:.\Protocolo.c **** 							write_psoc1(val,msn_lecaan[x]);				//LECTURA ANTERIOR
 6936              		.loc 1 1371 0
 6937 2818 DFF83482 		ldr	r8, .L566+32
1370:.\Protocolo.c **** 						for(x=0;x<=16;x++){												
 6938              		.loc 1 1370 0
 6939 281c 08E0     		b	.L472
 6940              	.L473:
 6941              		.loc 1 1371 0 discriminator 2
 6942 281e 4344     		add	r3, r3, r8
 6943 2820 2046     		mov	r0, r4
 6944 2822 93F82410 		ldrb	r1, [r3, #36]	@ zero_extendqisi2
 6945 2826 FFF7FEFF 		bl	write_psoc1
 6946              	.LVL491:
1370:.\Protocolo.c **** 						for(x=0;x<=16;x++){												
 6947              		.loc 1 1370 0 discriminator 2
 6948 282a 2B68     		ldr	r3, [r5]
ARM GAS  C:\Users\RECEPC~1\AppData\Local\Temp\ccNG63cQ.s 			page 156


 6949 282c 0133     		adds	r3, r3, #1
 6950 282e 2B60     		str	r3, [r5]
 6951              	.L472:
1370:.\Protocolo.c **** 						for(x=0;x<=16;x++){												
 6952              		.loc 1 1370 0 is_stmt 0 discriminator 1
 6953 2830 2B68     		ldr	r3, [r5]
 6954 2832 102B     		cmp	r3, #16
 6955 2834 F3D9     		bls	.L473
1372:.\Protocolo.c **** 						}
1373:.\Protocolo.c **** 						write_psoc1(val,10);
 6956              		.loc 1 1373 0 is_stmt 1
 6957 2836 2046     		mov	r0, r4
 6958 2838 0A21     		movs	r1, #10
 6959 283a FFF7FEFF 		bl	write_psoc1
 6960              	.LVL492:
1374:.\Protocolo.c **** 						if(dir==lado.a.dir){
 6961              		.loc 1 1374 0
 6962 283e 7F4B     		ldr	r3, .L566+12
 6963 2840 1B78     		ldrb	r3, [r3]	@ zero_extendqisi2
 6964 2842 B342     		cmp	r3, r6
 6965 2844 04D1     		bne	.L474
1375:.\Protocolo.c **** 							leer_eeprom(217,25);
 6966              		.loc 1 1375 0
 6967 2846 D920     		movs	r0, #217
 6968 2848 1921     		movs	r1, #25
 6969 284a FFF7FEFF 		bl	leer_eeprom
 6970              	.LVL493:
 6971 284e 04E0     		b	.L475
 6972              	.L474:
1376:.\Protocolo.c **** 						}
1377:.\Protocolo.c **** 						else{
1378:.\Protocolo.c **** 							leer_eeprom(320,25);
 6973              		.loc 1 1378 0
 6974 2850 4FF4A070 		mov	r0, #320
 6975 2854 1921     		movs	r1, #25
 6976 2856 FFF7FEFF 		bl	leer_eeprom
 6977              	.LVL494:
 6978              	.L475:
1379:.\Protocolo.c **** 						}
1380:.\Protocolo.c **** 						print_totales(val);
 6979              		.loc 1 1380 0
 6980 285a 2046     		mov	r0, r4
 6981 285c FFF7FEFF 		bl	print_totales
 6982              	.LVL495:
1381:.\Protocolo.c **** 						for(z=1;z<=12;z++){
 6983              		.loc 1 1381 0
 6984 2860 0122     		movs	r2, #1
 6985 2862 784B     		ldr	r3, .L566+20
 6986 2864 1A60     		str	r2, [r3]
 6987 2866 1946     		mov	r1, r3
1382:.\Protocolo.c **** 							minuendo[z]=rventa.tdinero[z-1];
 6988              		.loc 1 1382 0
 6989 2868 DFF8C8C1 		ldr	ip, .L566+4
1383:.\Protocolo.c **** 							sustraendo[z]=buffer_i2c[z+12];
 6990              		.loc 1 1383 0
 6991 286c DFF8E4E1 		ldr	lr, .L566+36
1381:.\Protocolo.c **** 						for(z=1;z<=12;z++){
ARM GAS  C:\Users\RECEPC~1\AppData\Local\Temp\ccNG63cQ.s 			page 157


 6992              		.loc 1 1381 0
 6993 2870 0FE0     		b	.L476
 6994              	.L477:
1382:.\Protocolo.c **** 							minuendo[z]=rventa.tdinero[z-1];
 6995              		.loc 1 1382 0 discriminator 2
 6996 2872 0CEB0302 		add	r2, ip, r3
 6997 2876 92F8C900 		ldrb	r0, [r2, #201]	@ zero_extendqisi2
 6998 287a 10AA     		add	r2, sp, #64
 6999 287c 1A44     		add	r2, r2, r3
 7000 287e 02F82C0C 		strb	r0, [r2, #-44]
 7001              		.loc 1 1383 0 discriminator 2
 7002 2882 03F10C00 		add	r0, r3, #12
 7003 2886 1EF80000 		ldrb	r0, [lr, r0]	@ zero_extendqisi2
 7004 288a 02F83C0C 		strb	r0, [r2, #-60]
1381:.\Protocolo.c **** 						for(z=1;z<=12;z++){
 7005              		.loc 1 1381 0 discriminator 2
 7006 288e 0133     		adds	r3, r3, #1
 7007 2890 0B60     		str	r3, [r1]
 7008              	.L476:
1381:.\Protocolo.c **** 						for(z=1;z<=12;z++){
 7009              		.loc 1 1381 0 is_stmt 0 discriminator 1
 7010 2892 0B68     		ldr	r3, [r1]
 7011 2894 0C2B     		cmp	r3, #12
 7012 2896 ECD9     		bls	.L477
1384:.\Protocolo.c **** 						}
1385:.\Protocolo.c **** 						minuendo[0]=12;
 7013              		.loc 1 1385 0 is_stmt 1
 7014 2898 10A9     		add	r1, sp, #64
 7015 289a 0C23     		movs	r3, #12
 7016 289c 01F82C3D 		strb	r3, [r1, #-44]!
1386:.\Protocolo.c **** 						operacion(2,minuendo,sustraendo);
 7017              		.loc 1 1386 0
 7018 28a0 0220     		movs	r0, #2
 7019 28a2 01AA     		add	r2, sp, #4
 7020 28a4 FFF7FEFF 		bl	operacion
 7021              	.LVL496:
1387:.\Protocolo.c **** 						for(x=0;x<=17;x++){									
 7022              		.loc 1 1387 0
 7023 28a8 0023     		movs	r3, #0
 7024 28aa 2B60     		str	r3, [r5]
1388:.\Protocolo.c **** 							write_psoc1(val,msn_tventas[x]);				//Total de ventas
 7025              		.loc 1 1388 0
 7026 28ac DFF8A081 		ldr	r8, .L566+32
1387:.\Protocolo.c **** 						for(x=0;x<=17;x++){									
 7027              		.loc 1 1387 0
 7028 28b0 08E0     		b	.L478
 7029              	.L479:
 7030              		.loc 1 1388 0 discriminator 2
 7031 28b2 4344     		add	r3, r3, r8
 7032 28b4 2046     		mov	r0, r4
 7033 28b6 93F83810 		ldrb	r1, [r3, #56]	@ zero_extendqisi2
 7034 28ba FFF7FEFF 		bl	write_psoc1
 7035              	.LVL497:
1387:.\Protocolo.c **** 						for(x=0;x<=17;x++){									
 7036              		.loc 1 1387 0 discriminator 2
 7037 28be 2B68     		ldr	r3, [r5]
 7038 28c0 0133     		adds	r3, r3, #1
ARM GAS  C:\Users\RECEPC~1\AppData\Local\Temp\ccNG63cQ.s 			page 158


 7039 28c2 2B60     		str	r3, [r5]
 7040              	.L478:
1387:.\Protocolo.c **** 						for(x=0;x<=17;x++){									
 7041              		.loc 1 1387 0 is_stmt 0 discriminator 1
 7042 28c4 2B68     		ldr	r3, [r5]
 7043 28c6 112B     		cmp	r3, #17
 7044 28c8 F3D9     		bls	.L479
1389:.\Protocolo.c **** 						}
1390:.\Protocolo.c **** 						print_valor(resultado,val);				
 7045              		.loc 1 1390 0 is_stmt 1
 7046 28ca 5948     		ldr	r0, .L566
 7047 28cc 2146     		mov	r1, r4
 7048 28ce FFF7FEFF 		bl	print_valor
 7049              	.LVL498:
1391:.\Protocolo.c **** 						if(dir==lado.a.dir){
 7050              		.loc 1 1391 0
 7051 28d2 5A4B     		ldr	r3, .L566+12
 7052 28d4 1B78     		ldrb	r3, [r3]	@ zero_extendqisi2
 7053 28d6 B342     		cmp	r3, r6
 7054 28d8 09D1     		bne	.L480
1392:.\Protocolo.c **** 							write_eeprom(217,corte);
 7055              		.loc 1 1392 0
 7056 28da D920     		movs	r0, #217
 7057 28dc 09A9     		add	r1, sp, #36
 7058 28de FFF7FEFF 		bl	write_eeprom
 7059              	.LVL499:
1393:.\Protocolo.c **** 							write_eeprom(538,resultado);
 7060              		.loc 1 1393 0
 7061 28e2 40F21A20 		movw	r0, #538
 7062 28e6 5249     		ldr	r1, .L566
 7063 28e8 FFF7FEFF 		bl	write_eeprom
 7064              	.LVL500:
 7065 28ec 09E0     		b	.L467
 7066              	.L480:
1394:.\Protocolo.c **** 						}
1395:.\Protocolo.c **** 						else{
1396:.\Protocolo.c **** 							write_eeprom(320,corte);
 7067              		.loc 1 1396 0
 7068 28ee 4FF4A070 		mov	r0, #320
 7069 28f2 09A9     		add	r1, sp, #36
 7070 28f4 FFF7FEFF 		bl	write_eeprom
 7071              	.LVL501:
1397:.\Protocolo.c **** 							write_eeprom(576,resultado);
 7072              		.loc 1 1397 0
 7073 28f8 4FF41070 		mov	r0, #576
 7074 28fc 4C49     		ldr	r1, .L566
 7075 28fe FFF7FEFF 		bl	write_eeprom
 7076              	.LVL502:
 7077              	.L467:
1398:.\Protocolo.c **** 						}				
1399:.\Protocolo.c **** 					}
1400:.\Protocolo.c **** 					if(((rventa.manguera==(extra&0x0F))&&(dir==lado.a.dir))||((rventa.manguera==(extra2&0x0F))&&(d
 7078              		.loc 1 1400 0
 7079 2902 4C4B     		ldr	r3, .L566+4
 7080 2904 93F8E030 		ldrb	r3, [r3, #224]	@ zero_extendqisi2
 7081 2908 4F4A     		ldr	r2, .L566+24
 7082 290a 1278     		ldrb	r2, [r2]	@ zero_extendqisi2
ARM GAS  C:\Users\RECEPC~1\AppData\Local\Temp\ccNG63cQ.s 			page 159


 7083 290c 02F00F02 		and	r2, r2, #15
 7084 2910 9A42     		cmp	r2, r3
 7085 2912 03D1     		bne	.L481
 7086              		.loc 1 1400 0 is_stmt 0 discriminator 1
 7087 2914 494A     		ldr	r2, .L566+12
 7088 2916 1278     		ldrb	r2, [r2]	@ zero_extendqisi2
 7089 2918 B242     		cmp	r2, r6
 7090 291a 0BD0     		beq	.L482
 7091              	.L481:
 7092              		.loc 1 1400 0 discriminator 2
 7093 291c 4B4A     		ldr	r2, .L566+28
 7094 291e 1278     		ldrb	r2, [r2]	@ zero_extendqisi2
 7095 2920 02F00F02 		and	r2, r2, #15
 7096 2924 9342     		cmp	r3, r2
 7097 2926 40F0C080 		bne	.L483
 7098              		.loc 1 1400 0 discriminator 1
 7099 292a 444B     		ldr	r3, .L566+12
 7100 292c 1B79     		ldrb	r3, [r3, #4]	@ zero_extendqisi2
 7101 292e B342     		cmp	r3, r6
 7102 2930 40F0BB80 		bne	.L483
 7103              	.L482:
1401:.\Protocolo.c **** 						for(x=0;x<=12;x++){									
 7104              		.loc 1 1401 0 is_stmt 1
 7105 2934 0023     		movs	r3, #0
 7106 2936 2B60     		str	r3, [r5]
1402:.\Protocolo.c **** 							write_psoc1(val,msn_te[x]);
 7107              		.loc 1 1402 0
 7108 2938 DFF81481 		ldr	r8, .L566+32
1401:.\Protocolo.c **** 						for(x=0;x<=12;x++){									
 7109              		.loc 1 1401 0
 7110 293c 08E0     		b	.L484
 7111              	.L485:
 7112              		.loc 1 1402 0 discriminator 2
 7113 293e 4344     		add	r3, r3, r8
 7114 2940 2046     		mov	r0, r4
 7115 2942 93F85C10 		ldrb	r1, [r3, #92]	@ zero_extendqisi2
 7116 2946 FFF7FEFF 		bl	write_psoc1
 7117              	.LVL503:
1401:.\Protocolo.c **** 						for(x=0;x<=12;x++){									
 7118              		.loc 1 1401 0 discriminator 2
 7119 294a 2B68     		ldr	r3, [r5]
 7120 294c 0133     		adds	r3, r3, #1
 7121 294e 2B60     		str	r3, [r5]
 7122              	.L484:
1401:.\Protocolo.c **** 						for(x=0;x<=12;x++){									
 7123              		.loc 1 1401 0 is_stmt 0 discriminator 1
 7124 2950 2B68     		ldr	r3, [r5]
 7125 2952 0C2B     		cmp	r3, #12
 7126 2954 F3D9     		bls	.L485
1403:.\Protocolo.c **** 						}
1404:.\Protocolo.c **** 						write_psoc1(val,10);
 7127              		.loc 1 1404 0 is_stmt 1
 7128 2956 2046     		mov	r0, r4
 7129 2958 0A21     		movs	r1, #10
 7130 295a FFF7FEFF 		bl	write_psoc1
 7131              	.LVL504:
1405:.\Protocolo.c **** 						for(x=0;x<=14;x++){									
ARM GAS  C:\Users\RECEPC~1\AppData\Local\Temp\ccNG63cQ.s 			page 160


 7132              		.loc 1 1405 0
 7133 295e 0023     		movs	r3, #0
 7134 2960 2B60     		str	r3, [r5]
1406:.\Protocolo.c **** 							write_psoc1(val,msn_lecact[x]);				//LECTURA ACTUAL
 7135              		.loc 1 1406 0
 7136 2962 DFF8EC80 		ldr	r8, .L566+32
1405:.\Protocolo.c **** 						for(x=0;x<=14;x++){									
 7137              		.loc 1 1405 0
 7138 2966 07E0     		b	.L486
 7139              	.L487:
 7140              		.loc 1 1406 0 discriminator 2
 7141 2968 4344     		add	r3, r3, r8
 7142 296a 2046     		mov	r0, r4
 7143 296c 197D     		ldrb	r1, [r3, #20]	@ zero_extendqisi2
 7144 296e FFF7FEFF 		bl	write_psoc1
 7145              	.LVL505:
1405:.\Protocolo.c **** 						for(x=0;x<=14;x++){									
 7146              		.loc 1 1405 0 discriminator 2
 7147 2972 2B68     		ldr	r3, [r5]
 7148 2974 0133     		adds	r3, r3, #1
 7149 2976 2B60     		str	r3, [r5]
 7150              	.L486:
1405:.\Protocolo.c **** 						for(x=0;x<=14;x++){									
 7151              		.loc 1 1405 0 is_stmt 0 discriminator 1
 7152 2978 2B68     		ldr	r3, [r5]
 7153 297a 0E2B     		cmp	r3, #14
 7154 297c F4D9     		bls	.L487
1407:.\Protocolo.c **** 						}
1408:.\Protocolo.c **** 						write_psoc1(val,10);
 7155              		.loc 1 1408 0 is_stmt 1
 7156 297e 2046     		mov	r0, r4
 7157 2980 0A21     		movs	r1, #10
 7158 2982 FFF7FEFF 		bl	write_psoc1
 7159              	.LVL506:
1409:.\Protocolo.c **** 						print_totalesac(12,val);	
 7160              		.loc 1 1409 0
 7161 2986 0C20     		movs	r0, #12
 7162 2988 2146     		mov	r1, r4
 7163 298a FFF7FEFF 		bl	print_totalesac
 7164              	.LVL507:
1410:.\Protocolo.c **** 						for(x=0;x<=16;x++){												
 7165              		.loc 1 1410 0
 7166 298e 0023     		movs	r3, #0
 7167 2990 2B60     		str	r3, [r5]
1411:.\Protocolo.c **** 							write_psoc1(val,msn_lecaan[x]);				//LECTURA ANTERIOR
 7168              		.loc 1 1411 0
 7169 2992 DFF8BC80 		ldr	r8, .L566+32
1410:.\Protocolo.c **** 						for(x=0;x<=16;x++){												
 7170              		.loc 1 1410 0
 7171 2996 08E0     		b	.L488
 7172              	.L489:
 7173              		.loc 1 1411 0 discriminator 2
 7174 2998 4344     		add	r3, r3, r8
 7175 299a 2046     		mov	r0, r4
 7176 299c 93F82410 		ldrb	r1, [r3, #36]	@ zero_extendqisi2
 7177 29a0 FFF7FEFF 		bl	write_psoc1
 7178              	.LVL508:
ARM GAS  C:\Users\RECEPC~1\AppData\Local\Temp\ccNG63cQ.s 			page 161


1410:.\Protocolo.c **** 						for(x=0;x<=16;x++){												
 7179              		.loc 1 1410 0 discriminator 2
 7180 29a4 2B68     		ldr	r3, [r5]
 7181 29a6 0133     		adds	r3, r3, #1
 7182 29a8 2B60     		str	r3, [r5]
 7183              	.L488:
1410:.\Protocolo.c **** 						for(x=0;x<=16;x++){												
 7184              		.loc 1 1410 0 is_stmt 0 discriminator 1
 7185 29aa 2B68     		ldr	r3, [r5]
 7186 29ac 102B     		cmp	r3, #16
 7187 29ae F3D9     		bls	.L489
1412:.\Protocolo.c **** 						}
1413:.\Protocolo.c **** 						write_psoc1(val,10);
 7188              		.loc 1 1413 0 is_stmt 1
 7189 29b0 2046     		mov	r0, r4
 7190 29b2 0A21     		movs	r1, #10
 7191 29b4 FFF7FEFF 		bl	write_psoc1
 7192              	.LVL509:
1414:.\Protocolo.c **** 						if(dir==lado.a.dir){
 7193              		.loc 1 1414 0
 7194 29b8 204B     		ldr	r3, .L566+12
 7195 29ba 1B78     		ldrb	r3, [r3]	@ zero_extendqisi2
 7196 29bc B342     		cmp	r3, r6
 7197 29be 05D1     		bne	.L490
1415:.\Protocolo.c **** 							leer_eeprom(256,25);
 7198              		.loc 1 1415 0
 7199 29c0 4FF48070 		mov	r0, #256
 7200 29c4 1921     		movs	r1, #25
 7201 29c6 FFF7FEFF 		bl	leer_eeprom
 7202              	.LVL510:
 7203 29ca 04E0     		b	.L491
 7204              	.L490:
1416:.\Protocolo.c **** 						}
1417:.\Protocolo.c **** 						else{
1418:.\Protocolo.c **** 							leer_eeprom(345,25);
 7205              		.loc 1 1418 0
 7206 29cc 40F25910 		movw	r0, #345
 7207 29d0 1921     		movs	r1, #25
 7208 29d2 FFF7FEFF 		bl	leer_eeprom
 7209              	.LVL511:
 7210              	.L491:
1419:.\Protocolo.c **** 						}
1420:.\Protocolo.c **** 						print_totales(val);
 7211              		.loc 1 1420 0
 7212 29d6 2046     		mov	r0, r4
 7213 29d8 FFF7FEFF 		bl	print_totales
 7214              	.LVL512:
1421:.\Protocolo.c **** 						for(z=1;z<=12;z++){
 7215              		.loc 1 1421 0
 7216 29dc 0122     		movs	r2, #1
 7217 29de 194B     		ldr	r3, .L566+20
 7218 29e0 1A60     		str	r2, [r3]
 7219 29e2 1946     		mov	r1, r3
1422:.\Protocolo.c **** 							minuendo[z]=rventa.tdinero[z-1];
 7220              		.loc 1 1422 0
 7221 29e4 DFF84CC0 		ldr	ip, .L566+4
1423:.\Protocolo.c **** 							sustraendo[z]=buffer_i2c[z+12];
ARM GAS  C:\Users\RECEPC~1\AppData\Local\Temp\ccNG63cQ.s 			page 162


 7222              		.loc 1 1423 0
 7223 29e8 DFF868E0 		ldr	lr, .L566+36
1421:.\Protocolo.c **** 						for(z=1;z<=12;z++){
 7224              		.loc 1 1421 0
 7225 29ec 0FE0     		b	.L492
 7226              	.L493:
1422:.\Protocolo.c **** 							minuendo[z]=rventa.tdinero[z-1];
 7227              		.loc 1 1422 0 discriminator 2
 7228 29ee 0CEB0302 		add	r2, ip, r3
 7229 29f2 92F8C900 		ldrb	r0, [r2, #201]	@ zero_extendqisi2
 7230 29f6 10AA     		add	r2, sp, #64
 7231 29f8 1A44     		add	r2, r2, r3
 7232 29fa 02F82C0C 		strb	r0, [r2, #-44]
 7233              		.loc 1 1423 0 discriminator 2
 7234 29fe 03F10C00 		add	r0, r3, #12
 7235 2a02 1EF80000 		ldrb	r0, [lr, r0]	@ zero_extendqisi2
 7236 2a06 02F83C0C 		strb	r0, [r2, #-60]
1421:.\Protocolo.c **** 						for(z=1;z<=12;z++){
 7237              		.loc 1 1421 0 discriminator 2
 7238 2a0a 0133     		adds	r3, r3, #1
 7239 2a0c 0B60     		str	r3, [r1]
 7240              	.L492:
1421:.\Protocolo.c **** 						for(z=1;z<=12;z++){
 7241              		.loc 1 1421 0 is_stmt 0 discriminator 1
 7242 2a0e 0B68     		ldr	r3, [r1]
 7243 2a10 0C2B     		cmp	r3, #12
 7244 2a12 ECD9     		bls	.L493
1424:.\Protocolo.c **** 						}
1425:.\Protocolo.c **** 						minuendo[0]=12;
 7245              		.loc 1 1425 0 is_stmt 1
 7246 2a14 10A9     		add	r1, sp, #64
 7247 2a16 0C23     		movs	r3, #12
 7248 2a18 01F82C3D 		strb	r3, [r1, #-44]!
1426:.\Protocolo.c **** 						operacion(2,minuendo,sustraendo);
 7249              		.loc 1 1426 0
 7250 2a1c 0220     		movs	r0, #2
 7251 2a1e 01AA     		add	r2, sp, #4
 7252 2a20 FFF7FEFF 		bl	operacion
 7253              	.LVL513:
1427:.\Protocolo.c **** 						for(x=0;x<=17;x++){									
 7254              		.loc 1 1427 0
 7255 2a24 0023     		movs	r3, #0
 7256 2a26 2B60     		str	r3, [r5]
1428:.\Protocolo.c **** 							write_psoc1(val,msn_tventas[x]);				//Total de ventas
 7257              		.loc 1 1428 0
 7258 2a28 DFF82480 		ldr	r8, .L566+32
1427:.\Protocolo.c **** 						for(x=0;x<=17;x++){									
 7259              		.loc 1 1427 0
 7260 2a2c 1DE0     		b	.L494
 7261              	.L567:
 7262 2a2e 00BF     		.align	2
 7263              	.L566:
 7264 2a30 00000000 		.word	resultado
 7265 2a34 00000000 		.word	rventa
 7266 2a38 00000000 		.word	diesel
 7267 2a3c 00000000 		.word	lado
 7268 2a40 00000000 		.word	diesel2
ARM GAS  C:\Users\RECEPC~1\AppData\Local\Temp\ccNG63cQ.s 			page 163


 7269 2a44 00000000 		.word	z
 7270 2a48 00000000 		.word	extra
 7271 2a4c 00000000 		.word	extra2
 7272 2a50 00000000 		.word	.LANCHOR1
 7273 2a54 00000000 		.word	buffer_i2c
 7274              	.L495:
 7275              		.loc 1 1428 0 discriminator 2
 7276 2a58 4344     		add	r3, r3, r8
 7277 2a5a 2046     		mov	r0, r4
 7278 2a5c 93F83810 		ldrb	r1, [r3, #56]	@ zero_extendqisi2
 7279 2a60 FFF7FEFF 		bl	write_psoc1
 7280              	.LVL514:
1427:.\Protocolo.c **** 						for(x=0;x<=17;x++){									
 7281              		.loc 1 1427 0 discriminator 2
 7282 2a64 2B68     		ldr	r3, [r5]
 7283 2a66 0133     		adds	r3, r3, #1
 7284 2a68 2B60     		str	r3, [r5]
 7285              	.L494:
1427:.\Protocolo.c **** 						for(x=0;x<=17;x++){									
 7286              		.loc 1 1427 0 is_stmt 0 discriminator 1
 7287 2a6a 2B68     		ldr	r3, [r5]
 7288 2a6c 112B     		cmp	r3, #17
 7289 2a6e F3D9     		bls	.L495
1429:.\Protocolo.c **** 						}
1430:.\Protocolo.c **** 						print_valor(resultado,val);							
 7290              		.loc 1 1430 0 is_stmt 1
 7291 2a70 9648     		ldr	r0, .L568
 7292 2a72 2146     		mov	r1, r4
 7293 2a74 FFF7FEFF 		bl	print_valor
 7294              	.LVL515:
1431:.\Protocolo.c **** 						if(dir==lado.a.dir){
 7295              		.loc 1 1431 0
 7296 2a78 954B     		ldr	r3, .L568+4
 7297 2a7a 1B78     		ldrb	r3, [r3]	@ zero_extendqisi2
 7298 2a7c B342     		cmp	r3, r6
 7299 2a7e 0AD1     		bne	.L496
1432:.\Protocolo.c **** 							write_eeprom(256,corte);
 7300              		.loc 1 1432 0
 7301 2a80 4FF48070 		mov	r0, #256
 7302 2a84 09A9     		add	r1, sp, #36
 7303 2a86 FFF7FEFF 		bl	write_eeprom
 7304              	.LVL516:
1433:.\Protocolo.c **** 							write_eeprom(525,resultado);
 7305              		.loc 1 1433 0
 7306 2a8a 40F20D20 		movw	r0, #525
 7307 2a8e 8F49     		ldr	r1, .L568
 7308 2a90 FFF7FEFF 		bl	write_eeprom
 7309              	.LVL517:
 7310 2a94 09E0     		b	.L483
 7311              	.L496:
1434:.\Protocolo.c **** 						}
1435:.\Protocolo.c **** 						else{
1436:.\Protocolo.c **** 							write_eeprom(345,corte);
 7312              		.loc 1 1436 0
 7313 2a96 40F25910 		movw	r0, #345
 7314 2a9a 09A9     		add	r1, sp, #36
 7315 2a9c FFF7FEFF 		bl	write_eeprom
ARM GAS  C:\Users\RECEPC~1\AppData\Local\Temp\ccNG63cQ.s 			page 164


 7316              	.LVL518:
1437:.\Protocolo.c **** 							write_eeprom(589,resultado);
 7317              		.loc 1 1437 0
 7318 2aa0 40F24D20 		movw	r0, #589
 7319 2aa4 8949     		ldr	r1, .L568
 7320 2aa6 FFF7FEFF 		bl	write_eeprom
 7321              	.LVL519:
 7322              	.L483:
1438:.\Protocolo.c **** 						}					
1439:.\Protocolo.c **** 					}
1440:.\Protocolo.c ****                     
1441:.\Protocolo.c ****                     if(((rventa.manguera==(kero&0x0F))&&(dir==lado.a.dir))||((rventa.manguera==(ker
 7323              		.loc 1 1441 0
 7324 2aaa 8A4B     		ldr	r3, .L568+8
 7325 2aac 93F8E030 		ldrb	r3, [r3, #224]	@ zero_extendqisi2
 7326 2ab0 894A     		ldr	r2, .L568+12
 7327 2ab2 1278     		ldrb	r2, [r2]	@ zero_extendqisi2
 7328 2ab4 02F00F02 		and	r2, r2, #15
 7329 2ab8 9A42     		cmp	r2, r3
 7330 2aba 03D1     		bne	.L497
 7331              		.loc 1 1441 0 is_stmt 0 discriminator 1
 7332 2abc 844A     		ldr	r2, .L568+4
 7333 2abe 1278     		ldrb	r2, [r2]	@ zero_extendqisi2
 7334 2ac0 B242     		cmp	r2, r6
 7335 2ac2 0BD0     		beq	.L498
 7336              	.L497:
 7337              		.loc 1 1441 0 discriminator 2
 7338 2ac4 854A     		ldr	r2, .L568+16
 7339 2ac6 1278     		ldrb	r2, [r2]	@ zero_extendqisi2
 7340 2ac8 02F00F02 		and	r2, r2, #15
 7341 2acc 9342     		cmp	r3, r2
 7342 2ace 40F0AB80 		bne	.L499
 7343              		.loc 1 1441 0 discriminator 1
 7344 2ad2 7F4B     		ldr	r3, .L568+4
 7345 2ad4 1B79     		ldrb	r3, [r3, #4]	@ zero_extendqisi2
 7346 2ad6 B342     		cmp	r3, r6
 7347 2ad8 40F0A680 		bne	.L499
 7348              	.L498:
1442:.\Protocolo.c **** 						for(x=0;x<=9;x++){									
 7349              		.loc 1 1442 0 is_stmt 1
 7350 2adc 0023     		movs	r3, #0
 7351 2ade 2B60     		str	r3, [r5]
1443:.\Protocolo.c **** 							write_psoc1(val,msn_tk[x]);
 7352              		.loc 1 1443 0
 7353 2ae0 DFF80482 		ldr	r8, .L568+28
1442:.\Protocolo.c **** 						for(x=0;x<=9;x++){									
 7354              		.loc 1 1442 0
 7355 2ae4 08E0     		b	.L500
 7356              	.L501:
 7357              		.loc 1 1443 0 discriminator 2
 7358 2ae6 4344     		add	r3, r3, r8
 7359 2ae8 2046     		mov	r0, r4
 7360 2aea 93F86C10 		ldrb	r1, [r3, #108]	@ zero_extendqisi2
 7361 2aee FFF7FEFF 		bl	write_psoc1
 7362              	.LVL520:
1442:.\Protocolo.c **** 						for(x=0;x<=9;x++){									
 7363              		.loc 1 1442 0 discriminator 2
ARM GAS  C:\Users\RECEPC~1\AppData\Local\Temp\ccNG63cQ.s 			page 165


 7364 2af2 2B68     		ldr	r3, [r5]
 7365 2af4 0133     		adds	r3, r3, #1
 7366 2af6 2B60     		str	r3, [r5]
 7367              	.L500:
1442:.\Protocolo.c **** 						for(x=0;x<=9;x++){									
 7368              		.loc 1 1442 0 is_stmt 0 discriminator 1
 7369 2af8 2B68     		ldr	r3, [r5]
 7370 2afa 092B     		cmp	r3, #9
 7371 2afc F3D9     		bls	.L501
1444:.\Protocolo.c **** 						}
1445:.\Protocolo.c **** 						write_psoc1(val,10);
 7372              		.loc 1 1445 0 is_stmt 1
 7373 2afe 2046     		mov	r0, r4
 7374 2b00 0A21     		movs	r1, #10
 7375 2b02 FFF7FEFF 		bl	write_psoc1
 7376              	.LVL521:
1446:.\Protocolo.c **** 						for(x=0;x<=14;x++){									
 7377              		.loc 1 1446 0
 7378 2b06 0023     		movs	r3, #0
 7379 2b08 2B60     		str	r3, [r5]
1447:.\Protocolo.c **** 							write_psoc1(val,msn_lecact[x]);				//LECTURA ACTUAL
 7380              		.loc 1 1447 0
 7381 2b0a DFF8DC81 		ldr	r8, .L568+28
1446:.\Protocolo.c **** 						for(x=0;x<=14;x++){									
 7382              		.loc 1 1446 0
 7383 2b0e 07E0     		b	.L502
 7384              	.L503:
 7385              		.loc 1 1447 0 discriminator 2
 7386 2b10 4344     		add	r3, r3, r8
 7387 2b12 2046     		mov	r0, r4
 7388 2b14 197D     		ldrb	r1, [r3, #20]	@ zero_extendqisi2
 7389 2b16 FFF7FEFF 		bl	write_psoc1
 7390              	.LVL522:
1446:.\Protocolo.c **** 						for(x=0;x<=14;x++){									
 7391              		.loc 1 1446 0 discriminator 2
 7392 2b1a 2B68     		ldr	r3, [r5]
 7393 2b1c 0133     		adds	r3, r3, #1
 7394 2b1e 2B60     		str	r3, [r5]
 7395              	.L502:
1446:.\Protocolo.c **** 						for(x=0;x<=14;x++){									
 7396              		.loc 1 1446 0 is_stmt 0 discriminator 1
 7397 2b20 2B68     		ldr	r3, [r5]
 7398 2b22 0E2B     		cmp	r3, #14
 7399 2b24 F4D9     		bls	.L503
1448:.\Protocolo.c **** 						}
1449:.\Protocolo.c **** 						write_psoc1(val,10);
 7400              		.loc 1 1449 0 is_stmt 1
 7401 2b26 2046     		mov	r0, r4
 7402 2b28 0A21     		movs	r1, #10
 7403 2b2a FFF7FEFF 		bl	write_psoc1
 7404              	.LVL523:
1450:.\Protocolo.c **** 						print_totalesac(12,val);	
 7405              		.loc 1 1450 0
 7406 2b2e 0C20     		movs	r0, #12
 7407 2b30 2146     		mov	r1, r4
 7408 2b32 FFF7FEFF 		bl	print_totalesac
 7409              	.LVL524:
ARM GAS  C:\Users\RECEPC~1\AppData\Local\Temp\ccNG63cQ.s 			page 166


1451:.\Protocolo.c **** 						for(x=0;x<=16;x++){												
 7410              		.loc 1 1451 0
 7411 2b36 0023     		movs	r3, #0
 7412 2b38 2B60     		str	r3, [r5]
1452:.\Protocolo.c **** 							write_psoc1(val,msn_lecaan[x]);				//LECTURA ANTERIOR
 7413              		.loc 1 1452 0
 7414 2b3a DFF8AC81 		ldr	r8, .L568+28
1451:.\Protocolo.c **** 						for(x=0;x<=16;x++){												
 7415              		.loc 1 1451 0
 7416 2b3e 08E0     		b	.L504
 7417              	.L505:
 7418              		.loc 1 1452 0 discriminator 2
 7419 2b40 4344     		add	r3, r3, r8
 7420 2b42 2046     		mov	r0, r4
 7421 2b44 93F82410 		ldrb	r1, [r3, #36]	@ zero_extendqisi2
 7422 2b48 FFF7FEFF 		bl	write_psoc1
 7423              	.LVL525:
1451:.\Protocolo.c **** 						for(x=0;x<=16;x++){												
 7424              		.loc 1 1451 0 discriminator 2
 7425 2b4c 2B68     		ldr	r3, [r5]
 7426 2b4e 0133     		adds	r3, r3, #1
 7427 2b50 2B60     		str	r3, [r5]
 7428              	.L504:
1451:.\Protocolo.c **** 						for(x=0;x<=16;x++){												
 7429              		.loc 1 1451 0 is_stmt 0 discriminator 1
 7430 2b52 2B68     		ldr	r3, [r5]
 7431 2b54 102B     		cmp	r3, #16
 7432 2b56 F3D9     		bls	.L505
1453:.\Protocolo.c **** 						}
1454:.\Protocolo.c **** 						write_psoc1(val,10);
 7433              		.loc 1 1454 0 is_stmt 1
 7434 2b58 2046     		mov	r0, r4
 7435 2b5a 0A21     		movs	r1, #10
 7436 2b5c FFF7FEFF 		bl	write_psoc1
 7437              	.LVL526:
1455:.\Protocolo.c **** 						if(dir==lado.a.dir){
 7438              		.loc 1 1455 0
 7439 2b60 5B4B     		ldr	r3, .L568+4
 7440 2b62 1B78     		ldrb	r3, [r3]	@ zero_extendqisi2
 7441 2b64 B342     		cmp	r3, r6
 7442 2b66 05D1     		bne	.L506
1456:.\Protocolo.c **** 							leer_eeprom(1096,25);
 7443              		.loc 1 1456 0
 7444 2b68 4FF48960 		mov	r0, #1096
 7445 2b6c 1921     		movs	r1, #25
 7446 2b6e FFF7FEFF 		bl	leer_eeprom
 7447              	.LVL527:
 7448 2b72 04E0     		b	.L507
 7449              	.L506:
1457:.\Protocolo.c **** 						}
1458:.\Protocolo.c **** 						else{
1459:.\Protocolo.c **** 							leer_eeprom(1054,25);
 7450              		.loc 1 1459 0
 7451 2b74 40F21E40 		movw	r0, #1054
 7452 2b78 1921     		movs	r1, #25
 7453 2b7a FFF7FEFF 		bl	leer_eeprom
 7454              	.LVL528:
ARM GAS  C:\Users\RECEPC~1\AppData\Local\Temp\ccNG63cQ.s 			page 167


 7455              	.L507:
1460:.\Protocolo.c **** 						}
1461:.\Protocolo.c **** 						print_totales(val);
 7456              		.loc 1 1461 0
 7457 2b7e 2046     		mov	r0, r4
 7458 2b80 FFF7FEFF 		bl	print_totales
 7459              	.LVL529:
1462:.\Protocolo.c **** 						for(z=1;z<=12;z++){
 7460              		.loc 1 1462 0
 7461 2b84 0122     		movs	r2, #1
 7462 2b86 564B     		ldr	r3, .L568+20
 7463 2b88 1A60     		str	r2, [r3]
 7464 2b8a 1946     		mov	r1, r3
1463:.\Protocolo.c **** 							minuendo[z]=rventa.tdinero[z-1];
 7465              		.loc 1 1463 0
 7466 2b8c DFF844C1 		ldr	ip, .L568+8
1464:.\Protocolo.c **** 							sustraendo[z]=buffer_i2c[z+12];
 7467              		.loc 1 1464 0
 7468 2b90 DFF858E1 		ldr	lr, .L568+32
1462:.\Protocolo.c **** 						for(z=1;z<=12;z++){
 7469              		.loc 1 1462 0
 7470 2b94 0FE0     		b	.L508
 7471              	.L509:
1463:.\Protocolo.c **** 							minuendo[z]=rventa.tdinero[z-1];
 7472              		.loc 1 1463 0 discriminator 2
 7473 2b96 0CEB0302 		add	r2, ip, r3
 7474 2b9a 92F8C900 		ldrb	r0, [r2, #201]	@ zero_extendqisi2
 7475 2b9e 10AA     		add	r2, sp, #64
 7476 2ba0 1A44     		add	r2, r2, r3
 7477 2ba2 02F82C0C 		strb	r0, [r2, #-44]
 7478              		.loc 1 1464 0 discriminator 2
 7479 2ba6 03F10C00 		add	r0, r3, #12
 7480 2baa 1EF80000 		ldrb	r0, [lr, r0]	@ zero_extendqisi2
 7481 2bae 02F83C0C 		strb	r0, [r2, #-60]
1462:.\Protocolo.c **** 						for(z=1;z<=12;z++){
 7482              		.loc 1 1462 0 discriminator 2
 7483 2bb2 0133     		adds	r3, r3, #1
 7484 2bb4 0B60     		str	r3, [r1]
 7485              	.L508:
1462:.\Protocolo.c **** 						for(z=1;z<=12;z++){
 7486              		.loc 1 1462 0 is_stmt 0 discriminator 1
 7487 2bb6 0B68     		ldr	r3, [r1]
 7488 2bb8 0C2B     		cmp	r3, #12
 7489 2bba ECD9     		bls	.L509
1465:.\Protocolo.c **** 						}
1466:.\Protocolo.c **** 						minuendo[0]=12;
 7490              		.loc 1 1466 0 is_stmt 1
 7491 2bbc 10A9     		add	r1, sp, #64
 7492 2bbe 0C23     		movs	r3, #12
 7493 2bc0 01F82C3D 		strb	r3, [r1, #-44]!
1467:.\Protocolo.c **** 						operacion(2,minuendo,sustraendo);
 7494              		.loc 1 1467 0
 7495 2bc4 0220     		movs	r0, #2
 7496 2bc6 01AA     		add	r2, sp, #4
 7497 2bc8 FFF7FEFF 		bl	operacion
 7498              	.LVL530:
1468:.\Protocolo.c **** 						for(x=0;x<=17;x++){									
ARM GAS  C:\Users\RECEPC~1\AppData\Local\Temp\ccNG63cQ.s 			page 168


 7499              		.loc 1 1468 0
 7500 2bcc 0023     		movs	r3, #0
 7501 2bce 2B60     		str	r3, [r5]
1469:.\Protocolo.c **** 							write_psoc1(val,msn_tventas[x]);				//Total de ventas
 7502              		.loc 1 1469 0
 7503 2bd0 DFF81481 		ldr	r8, .L568+28
1468:.\Protocolo.c **** 						for(x=0;x<=17;x++){									
 7504              		.loc 1 1468 0
 7505 2bd4 08E0     		b	.L510
 7506              	.L511:
 7507              		.loc 1 1469 0 discriminator 2
 7508 2bd6 4344     		add	r3, r3, r8
 7509 2bd8 2046     		mov	r0, r4
 7510 2bda 93F83810 		ldrb	r1, [r3, #56]	@ zero_extendqisi2
 7511 2bde FFF7FEFF 		bl	write_psoc1
 7512              	.LVL531:
1468:.\Protocolo.c **** 						for(x=0;x<=17;x++){									
 7513              		.loc 1 1468 0 discriminator 2
 7514 2be2 2B68     		ldr	r3, [r5]
 7515 2be4 0133     		adds	r3, r3, #1
 7516 2be6 2B60     		str	r3, [r5]
 7517              	.L510:
1468:.\Protocolo.c **** 						for(x=0;x<=17;x++){									
 7518              		.loc 1 1468 0 is_stmt 0 discriminator 1
 7519 2be8 2B68     		ldr	r3, [r5]
 7520 2bea 112B     		cmp	r3, #17
 7521 2bec F3D9     		bls	.L511
1470:.\Protocolo.c **** 						}
1471:.\Protocolo.c **** 						print_valor(resultado,val);							
 7522              		.loc 1 1471 0 is_stmt 1
 7523 2bee 3748     		ldr	r0, .L568
 7524 2bf0 2146     		mov	r1, r4
 7525 2bf2 FFF7FEFF 		bl	print_valor
 7526              	.LVL532:
1472:.\Protocolo.c **** 						if(dir==lado.a.dir){
 7527              		.loc 1 1472 0
 7528 2bf6 364B     		ldr	r3, .L568+4
 7529 2bf8 1B78     		ldrb	r3, [r3]	@ zero_extendqisi2
 7530 2bfa B342     		cmp	r3, r6
 7531 2bfc 0AD1     		bne	.L512
1473:.\Protocolo.c **** 						    write_eeprom(1096,corte);
 7532              		.loc 1 1473 0
 7533 2bfe 4FF48960 		mov	r0, #1096
 7534 2c02 09A9     		add	r1, sp, #36
 7535 2c04 FFF7FEFF 		bl	write_eeprom
 7536              	.LVL533:
1474:.\Protocolo.c **** 						    write_eeprom(1038,resultado);
 7537              		.loc 1 1474 0
 7538 2c08 40F20E40 		movw	r0, #1038
 7539 2c0c 2F49     		ldr	r1, .L568
 7540 2c0e FFF7FEFF 		bl	write_eeprom
 7541              	.LVL534:
 7542 2c12 09E0     		b	.L499
 7543              	.L512:
1475:.\Protocolo.c **** 					    }
1476:.\Protocolo.c **** 					    else{
1477:.\Protocolo.c **** 						    write_eeprom(1054,corte);
ARM GAS  C:\Users\RECEPC~1\AppData\Local\Temp\ccNG63cQ.s 			page 169


 7544              		.loc 1 1477 0
 7545 2c14 40F21E40 		movw	r0, #1054
 7546 2c18 09A9     		add	r1, sp, #36
 7547 2c1a FFF7FEFF 		bl	write_eeprom
 7548              	.LVL535:
1478:.\Protocolo.c **** 						    write_eeprom(1081,resultado);
 7549              		.loc 1 1478 0
 7550 2c1e 40F23940 		movw	r0, #1081
 7551 2c22 2A49     		ldr	r1, .L568
 7552 2c24 FFF7FEFF 		bl	write_eeprom
 7553              	.LVL536:
 7554              	.L499:
1305:.\Protocolo.c **** 				for(y=0;y<=84;y+=42){
 7555              		.loc 1 1305 0
 7556 2c28 3B68     		ldr	r3, [r7]
 7557 2c2a 2A33     		adds	r3, r3, #42
 7558 2c2c 3B60     		str	r3, [r7]
 7559              	.L440:
1305:.\Protocolo.c **** 				for(y=0;y<=84;y+=42){
 7560              		.loc 1 1305 0 is_stmt 0 discriminator 1
 7561 2c2e 3A68     		ldr	r2, [r7]
 7562 2c30 542A     		cmp	r2, #84
 7563 2c32 7FF67CAC 		bls	.L513
1479:.\Protocolo.c **** 				        }					
1480:.\Protocolo.c **** 					}
1481:.\Protocolo.c **** 				}
1482:.\Protocolo.c **** 				Surtidor_ClearRxBuffer();
 7564              		.loc 1 1482 0 is_stmt 1
 7565 2c36 FFF7FEFF 		bl	Surtidor_ClearRxBuffer
 7566              	.LVL537:
1483:.\Protocolo.c **** 				return 3;					
 7567              		.loc 1 1483 0
 7568 2c3a 0320     		movs	r0, #3
 7569 2c3c 42E0     		b	.L73
 7570              	.L65:
1484:.\Protocolo.c **** 			}			
1485:.\Protocolo.c **** 			else{
1486:.\Protocolo.c **** 				return 0;
1487:.\Protocolo.c **** 			}			
1488:.\Protocolo.c **** 		break;
1489:.\Protocolo.c **** 			
1490:.\Protocolo.c **** 		default:
1491:.\Protocolo.c ****             for(x=0;x<15;x++){									
 7571              		.loc 1 1491 0
 7572 2c3e 0022     		movs	r2, #0
 7573 2c40 284B     		ldr	r3, .L568+24
 7574 2c42 1A60     		str	r2, [r3]
 7575 2c44 1D46     		mov	r5, r3
1492:.\Protocolo.c **** 				write_psoc1(val,msn_totalcero[x]);				//Total de ventas
 7576              		.loc 1 1492 0
 7577 2c46 284E     		ldr	r6, .L568+28
1491:.\Protocolo.c ****             for(x=0;x<15;x++){									
 7578              		.loc 1 1491 0
 7579 2c48 08E0     		b	.L514
 7580              	.L515:
 7581              		.loc 1 1492 0 discriminator 2
 7582 2c4a 3344     		add	r3, r3, r6
ARM GAS  C:\Users\RECEPC~1\AppData\Local\Temp\ccNG63cQ.s 			page 170


 7583 2c4c 2046     		mov	r0, r4
 7584 2c4e 93F87810 		ldrb	r1, [r3, #120]	@ zero_extendqisi2
 7585 2c52 FFF7FEFF 		bl	write_psoc1
 7586              	.LVL538:
1491:.\Protocolo.c ****             for(x=0;x<15;x++){									
 7587              		.loc 1 1491 0 discriminator 2
 7588 2c56 2B68     		ldr	r3, [r5]
 7589 2c58 0133     		adds	r3, r3, #1
 7590 2c5a 2B60     		str	r3, [r5]
 7591              	.L514:
1491:.\Protocolo.c ****             for(x=0;x<15;x++){									
 7592              		.loc 1 1491 0 is_stmt 0 discriminator 1
 7593 2c5c 2B68     		ldr	r3, [r5]
 7594 2c5e 0E2B     		cmp	r3, #14
 7595 2c60 F3D9     		bls	.L515
1493:.\Protocolo.c **** 			}
1494:.\Protocolo.c **** 			return 0;	
 7596              		.loc 1 1494 0 is_stmt 1
 7597 2c62 0020     		movs	r0, #0
 7598 2c64 2EE0     		b	.L73
 7599              	.L516:
 550:.\Protocolo.c **** 				return 0;
 7600              		.loc 1 550 0
 7601 2c66 0020     		movs	r0, #0
 7602 2c68 2CE0     		b	.L73
 7603              	.L517:
 7604 2c6a 0020     		movs	r0, #0
 7605 2c6c 2AE0     		b	.L73
 7606              	.L518:
 7607 2c6e 0020     		movs	r0, #0
 7608 2c70 28E0     		b	.L73
 7609              	.L519:
 7610 2c72 0020     		movs	r0, #0
 7611 2c74 26E0     		b	.L73
 7612              	.L520:
 738:.\Protocolo.c **** 				return 0;
 7613              		.loc 1 738 0
 7614 2c76 0020     		movs	r0, #0
 7615 2c78 24E0     		b	.L73
 7616              	.L521:
 7617 2c7a 0020     		movs	r0, #0
 7618 2c7c 22E0     		b	.L73
 7619              	.L522:
 7620 2c7e 0020     		movs	r0, #0
 7621 2c80 20E0     		b	.L73
 7622              	.L523:
 7623 2c82 0020     		movs	r0, #0
 7624 2c84 1EE0     		b	.L73
 7625              	.L524:
 926:.\Protocolo.c **** 				return 0;
 7626              		.loc 1 926 0
 7627 2c86 0020     		movs	r0, #0
 7628 2c88 1CE0     		b	.L73
 7629              	.L525:
 7630 2c8a 0020     		movs	r0, #0
 7631 2c8c 1AE0     		b	.L73
 7632              	.L526:
ARM GAS  C:\Users\RECEPC~1\AppData\Local\Temp\ccNG63cQ.s 			page 171


 7633 2c8e 0020     		movs	r0, #0
 7634 2c90 18E0     		b	.L73
 7635              	.L527:
 7636 2c92 0020     		movs	r0, #0
 7637 2c94 16E0     		b	.L73
 7638              	.L528:
1111:.\Protocolo.c **** 				return 0;
 7639              		.loc 1 1111 0
 7640 2c96 0020     		movs	r0, #0
 7641 2c98 14E0     		b	.L73
 7642              	.L529:
 7643 2c9a 0020     		movs	r0, #0
 7644 2c9c 12E0     		b	.L73
 7645              	.L530:
 7646 2c9e 0020     		movs	r0, #0
 7647 2ca0 10E0     		b	.L73
 7648              	.L531:
 7649 2ca2 0020     		movs	r0, #0
 7650 2ca4 0EE0     		b	.L73
 7651              	.L532:
1299:.\Protocolo.c **** 				return 0;
 7652              		.loc 1 1299 0
 7653 2ca6 0020     		movs	r0, #0
 7654 2ca8 0CE0     		b	.L73
 7655              	.L533:
 7656 2caa 0020     		movs	r0, #0
 7657 2cac 0AE0     		b	.L73
 7658              	.L534:
 7659 2cae 0020     		movs	r0, #0
 7660 2cb0 08E0     		b	.L73
 7661              	.L535:
 7662 2cb2 0020     		movs	r0, #0
 7663 2cb4 06E0     		b	.L73
 7664              	.L536:
1486:.\Protocolo.c **** 				return 0;
 7665              		.loc 1 1486 0
 7666 2cb6 0020     		movs	r0, #0
 7667 2cb8 04E0     		b	.L73
 7668              	.L537:
 7669 2cba 0020     		movs	r0, #0
 7670 2cbc 02E0     		b	.L73
 7671              	.L538:
 7672 2cbe 0020     		movs	r0, #0
 7673 2cc0 00E0     		b	.L73
 7674              	.L539:
 7675 2cc2 0020     		movs	r0, #0
 7676              	.L73:
1495:.\Protocolo.c **** 		break;	
1496:.\Protocolo.c **** 	}		
1497:.\Protocolo.c **** }
 7677              		.loc 1 1497 0
 7678 2cc4 10B0     		add	sp, sp, #64
 7679              		@ sp needed
 7680 2cc6 BDE8F081 		pop	{r4, r5, r6, r7, r8, pc}
 7681              	.L569:
 7682 2cca 00BF     		.align	2
 7683              	.L568:
ARM GAS  C:\Users\RECEPC~1\AppData\Local\Temp\ccNG63cQ.s 			page 172


 7684 2ccc 00000000 		.word	resultado
 7685 2cd0 00000000 		.word	lado
 7686 2cd4 00000000 		.word	rventa
 7687 2cd8 00000000 		.word	kero
 7688 2cdc 00000000 		.word	kero2
 7689 2ce0 00000000 		.word	z
 7690 2ce4 00000000 		.word	x
 7691 2ce8 00000000 		.word	.LANCHOR1
 7692 2cec 00000000 		.word	buffer_i2c
 7693              		.cfi_endproc
 7694              	.LFE69:
 7695              		.size	get_totales, .-get_totales
 7696              		.section	.text.programar,"ax",%progbits
 7697              		.align	2
 7698              		.global	programar
 7699              		.thumb
 7700              		.thumb_func
 7701              		.type	programar, %function
 7702              	programar:
 7703              	.LFB70:
1498:.\Protocolo.c **** 
1499:.\Protocolo.c **** /*
1500:.\Protocolo.c **** ***************************************************************************************************
1501:.\Protocolo.c **** *                                         uint8 programar(uint8 dir)
1502:.\Protocolo.c **** *
1503:.\Protocolo.c **** * Description : 
1504:.\Protocolo.c **** *               
1505:.\Protocolo.c **** *
1506:.\Protocolo.c **** * Argument(s) : none
1507:.\Protocolo.c **** *
1508:.\Protocolo.c **** * Return(s)   : none
1509:.\Protocolo.c **** *
1510:.\Protocolo.c **** * Caller(s)   : 
1511:.\Protocolo.c **** *
1512:.\Protocolo.c **** * Note(s)     : none.
1513:.\Protocolo.c **** ***************************************************************************************************
1514:.\Protocolo.c **** */
1515:.\Protocolo.c **** uint8 programar(uint8 dir, uint8 grado, uint8 *valor, uint8 preset){
 7704              		.loc 1 1515 0
 7705              		.cfi_startproc
 7706              		@ args = 0, pretend = 0, frame = 24
 7707              		@ frame_needed = 0, uses_anonymous_args = 0
 7708              	.LVL539:
 7709 0000 2DE9F043 		push	{r4, r5, r6, r7, r8, r9, lr}
 7710              		.cfi_def_cfa_offset 28
 7711              		.cfi_offset 4, -28
 7712              		.cfi_offset 5, -24
 7713              		.cfi_offset 6, -20
 7714              		.cfi_offset 7, -16
 7715              		.cfi_offset 8, -12
 7716              		.cfi_offset 9, -8
 7717              		.cfi_offset 14, -4
 7718 0004 87B0     		sub	sp, sp, #28
 7719              		.cfi_def_cfa_offset 56
 7720 0006 0746     		mov	r7, r0
1516:.\Protocolo.c **** 	uint8 buffer[18]={0,0,0,0,0,0,0,0,0,0,0,0,0,0,0,0,0,0},size,temp,i,j,decimal=0;
 7721              		.loc 1 1516 0
ARM GAS  C:\Users\RECEPC~1\AppData\Local\Temp\ccNG63cQ.s 			page 173


 7722 0008 0020     		movs	r0, #0
 7723              	.LVL540:
 7724 000a 0190     		str	r0, [sp, #4]
 7725 000c 0290     		str	r0, [sp, #8]
 7726 000e 0390     		str	r0, [sp, #12]
 7727 0010 0490     		str	r0, [sp, #16]
 7728 0012 ADF81400 		strh	r0, [sp, #20]	@ movhi
 7729              	.LVL541:
1517:.\Protocolo.c **** 	temp=4;
1518:.\Protocolo.c **** 	if(((versurt==5)||(versurt==6))&&(preset==1)){
 7730              		.loc 1 1518 0
 7731 0016 CB48     		ldr	r0, .L645
 7732 0018 0078     		ldrb	r0, [r0]	@ zero_extendqisi2
 7733 001a 441F     		subs	r4, r0, #5
 7734 001c E4B2     		uxtb	r4, r4
 7735 001e 012C     		cmp	r4, #1
 7736 0020 04D8     		bhi	.L621
 7737              		.loc 1 1518 0 is_stmt 0 discriminator 1
 7738 0022 012B     		cmp	r3, #1
 7739 0024 05D0     		beq	.L622
1517:.\Protocolo.c **** 	temp=4;
 7740              		.loc 1 1517 0 is_stmt 1
 7741 0026 4FF0040C 		mov	ip, #4
 7742 002a 04E0     		b	.L571
 7743              	.L621:
 7744 002c 4FF0040C 		mov	ip, #4
 7745 0030 01E0     		b	.L571
 7746              	.L622:
1519:.\Protocolo.c **** 		temp=3;
 7747              		.loc 1 1519 0
 7748 0032 4FF0030C 		mov	ip, #3
 7749              	.L571:
 7750              	.LVL542:
1520:.\Protocolo.c **** 	}
1521:.\Protocolo.c **** 	if((versurt==5)&&(preset==2)){
 7751              		.loc 1 1521 0
 7752 0036 0528     		cmp	r0, #5
 7753 0038 03D1     		bne	.L572
 7754              		.loc 1 1521 0 is_stmt 0 discriminator 1
 7755 003a 022B     		cmp	r3, #2
 7756 003c 01D1     		bne	.L572
1522:.\Protocolo.c **** 		temp=5;
 7757              		.loc 1 1522 0 is_stmt 1
 7758 003e 4FF0050C 		mov	ip, #5
 7759              	.LVL543:
 7760              	.L572:
1523:.\Protocolo.c **** 	}
1524:.\Protocolo.c **** 	if((versurt==7)&&(preset==1)){
 7761              		.loc 1 1524 0
 7762 0042 0728     		cmp	r0, #7
 7763 0044 03D1     		bne	.L573
 7764              		.loc 1 1524 0 is_stmt 0 discriminator 1
 7765 0046 012B     		cmp	r3, #1
 7766 0048 01D1     		bne	.L573
1525:.\Protocolo.c **** 		temp=0;
 7767              		.loc 1 1525 0 is_stmt 1
 7768 004a 4FF0000C 		mov	ip, #0
ARM GAS  C:\Users\RECEPC~1\AppData\Local\Temp\ccNG63cQ.s 			page 174


 7769              	.LVL544:
 7770              	.L573:
1526:.\Protocolo.c **** 	}
1527:.\Protocolo.c **** 	if((versurt==7)&&(preset==2)){
 7771              		.loc 1 1527 0
 7772 004e 0728     		cmp	r0, #7
 7773 0050 03D1     		bne	.L574
 7774              		.loc 1 1527 0 is_stmt 0 discriminator 1
 7775 0052 022B     		cmp	r3, #2
 7776 0054 01D1     		bne	.L574
1528:.\Protocolo.c **** 		temp=2;
 7777              		.loc 1 1528 0 is_stmt 1
 7778 0056 4FF0020C 		mov	ip, #2
 7779              	.LVL545:
 7780              	.L574:
1529:.\Protocolo.c **** 	}	
1530:.\Protocolo.c **** 	decimal=0;
 7781              		.loc 1 1530 0
 7782 005a 0025     		movs	r5, #0
1531:.\Protocolo.c **** 	for(i=1;i<=valor[0];i++){
 7783              		.loc 1 1531 0
 7784 005c 0124     		movs	r4, #1
 7785 005e 0FE0     		b	.L575
 7786              	.LVL546:
 7787              	.L578:
1532:.\Protocolo.c **** 		if(decimal>=1){
 7788              		.loc 1 1532 0
 7789 0060 25B1     		cbz	r5, .L576
1533:.\Protocolo.c **** 			decimal++;
 7790              		.loc 1 1533 0
 7791 0062 0135     		adds	r5, r5, #1
 7792              	.LVL547:
 7793 0064 EDB2     		uxtb	r5, r5
 7794              	.LVL548:
1534:.\Protocolo.c **** 			valor[i]=valor[i+1];
 7795              		.loc 1 1534 0
 7796 0066 1019     		adds	r0, r2, r4
 7797 0068 4078     		ldrb	r0, [r0, #1]	@ zero_extendqisi2
 7798 006a 1055     		strb	r0, [r2, r4]
 7799              	.LVL549:
 7800              	.L576:
1535:.\Protocolo.c **** 		}				
1536:.\Protocolo.c **** 		if(valor[i]==','){
 7801              		.loc 1 1536 0
 7802 006c 105D     		ldrb	r0, [r2, r4]	@ zero_extendqisi2
 7803 006e 2C28     		cmp	r0, #44
 7804 0070 04D1     		bne	.L577
1537:.\Protocolo.c **** 			decimal++;
 7805              		.loc 1 1537 0
 7806 0072 0135     		adds	r5, r5, #1
 7807              	.LVL550:
 7808 0074 EDB2     		uxtb	r5, r5
 7809              	.LVL551:
1538:.\Protocolo.c **** 			valor[i]=valor[i+1];
 7810              		.loc 1 1538 0
 7811 0076 1019     		adds	r0, r2, r4
 7812 0078 4078     		ldrb	r0, [r0, #1]	@ zero_extendqisi2
ARM GAS  C:\Users\RECEPC~1\AppData\Local\Temp\ccNG63cQ.s 			page 175


 7813 007a 1055     		strb	r0, [r2, r4]
 7814              	.LVL552:
 7815              	.L577:
1531:.\Protocolo.c **** 	for(i=1;i<=valor[0];i++){
 7816              		.loc 1 1531 0
 7817 007c 0134     		adds	r4, r4, #1
 7818              	.LVL553:
 7819 007e E4B2     		uxtb	r4, r4
 7820              	.LVL554:
 7821              	.L575:
1531:.\Protocolo.c **** 	for(i=1;i<=valor[0];i++){
 7822              		.loc 1 1531 0 is_stmt 0 discriminator 1
 7823 0080 1678     		ldrb	r6, [r2]	@ zero_extendqisi2
 7824 0082 A642     		cmp	r6, r4
 7825 0084 ECD2     		bcs	.L578
1539:.\Protocolo.c **** 		}
1540:.\Protocolo.c **** 	}
1541:.\Protocolo.c **** 	if(decimal>=1){
 7826              		.loc 1 1541 0 is_stmt 1
 7827 0086 1DB1     		cbz	r5, .L579
1542:.\Protocolo.c **** 		decimal=decimal-1;
 7828              		.loc 1 1542 0
 7829 0088 013D     		subs	r5, r5, #1
 7830              	.LVL555:
 7831 008a EDB2     		uxtb	r5, r5
 7832              	.LVL556:
1543:.\Protocolo.c **** 		valor[0]=valor[0]-1;
 7833              		.loc 1 1543 0
 7834 008c 013E     		subs	r6, r6, #1
 7835 008e 1670     		strb	r6, [r2]
 7836              	.LVL557:
 7837              	.L579:
1544:.\Protocolo.c **** 	}	
1545:.\Protocolo.c **** 	if(decimal>=4){
 7838              		.loc 1 1545 0
 7839 0090 032D     		cmp	r5, #3
 7840 0092 00F20182 		bhi	.L626
1546:.\Protocolo.c **** 		return 0;
1547:.\Protocolo.c **** 	}	
1548:.\Protocolo.c **** 	if(versurt!=7){		
 7841              		.loc 1 1548 0
 7842 0096 AB48     		ldr	r0, .L645
 7843 0098 90F800E0 		ldrb	lr, [r0]	@ zero_extendqisi2
 7844 009c BEF1070F 		cmp	lr, #7
 7845 00a0 00F0FB80 		beq	.L581
1549:.\Protocolo.c **** 		buffer[0]=0xFF;
 7846              		.loc 1 1549 0
 7847 00a4 FF20     		movs	r0, #255
 7848 00a6 8DF80400 		strb	r0, [sp, #4]
1550:.\Protocolo.c **** 		buffer[1]=(0xE0|temp);
 7849              		.loc 1 1550 0
 7850 00aa 6CF01F00 		orn	r0, ip, #31
 7851 00ae 8DF80500 		strb	r0, [sp, #5]
1551:.\Protocolo.c **** 		buffer[2]=(0xF0|preset);
 7852              		.loc 1 1551 0
 7853 00b2 63F00F00 		orn	r0, r3, #15
 7854 00b6 8DF80600 		strb	r0, [sp, #6]
ARM GAS  C:\Users\RECEPC~1\AppData\Local\Temp\ccNG63cQ.s 			page 176


1552:.\Protocolo.c **** 		buffer[3]=0xF4;
 7855              		.loc 1 1552 0
 7856 00ba F420     		movs	r0, #244
 7857 00bc 8DF80700 		strb	r0, [sp, #7]
1553:.\Protocolo.c **** 		buffer[4]=0xF8;	
 7858              		.loc 1 1553 0
 7859 00c0 F820     		movs	r0, #248
 7860 00c2 8DF80800 		strb	r0, [sp, #8]
 7861              	.LVL558:
1554:.\Protocolo.c **** 		for(i=5;i<((5+decimalD)-decimal);i++){
 7862              		.loc 1 1554 0
 7863 00c6 0524     		movs	r4, #5
 7864 00c8 DFF87C82 		ldr	r8, .L645+4
1555:.\Protocolo.c **** 			buffer[i]=0xE0;
 7865              		.loc 1 1555 0
 7866 00cc 4FF0E009 		mov	r9, #224
1554:.\Protocolo.c **** 		for(i=5;i<((5+decimalD)-decimal);i++){
 7867              		.loc 1 1554 0
 7868 00d0 05E0     		b	.L582
 7869              	.LVL559:
 7870              	.L583:
 7871              		.loc 1 1555 0 discriminator 2
 7872 00d2 06A8     		add	r0, sp, #24
 7873 00d4 2044     		add	r0, r0, r4
 7874 00d6 00F8149C 		strb	r9, [r0, #-20]
1554:.\Protocolo.c **** 		for(i=5;i<((5+decimalD)-decimal);i++){
 7875              		.loc 1 1554 0 discriminator 2
 7876 00da 0134     		adds	r4, r4, #1
 7877              	.LVL560:
 7878 00dc E4B2     		uxtb	r4, r4
 7879              	.LVL561:
 7880              	.L582:
1554:.\Protocolo.c **** 		for(i=5;i<((5+decimalD)-decimal);i++){
 7881              		.loc 1 1554 0 is_stmt 0 discriminator 1
 7882 00de 2646     		mov	r6, r4
 7883 00e0 98F80000 		ldrb	r0, [r8]	@ zero_extendqisi2
 7884 00e4 0530     		adds	r0, r0, #5
 7885 00e6 401B     		subs	r0, r0, r5
 7886 00e8 8442     		cmp	r4, r0
 7887 00ea F2DB     		blt	.L583
 7888 00ec 0EE0     		b	.L632
 7889              	.LVL562:
 7890              	.L585:
1556:.\Protocolo.c **** 		}
1557:.\Protocolo.c **** 		for(j=i;j<(i+valor[0]);j++){
1558:.\Protocolo.c **** 			buffer[j]=(0xE0|(valor[valor[0]-(j-i)]&0x0F));	
 7891              		.loc 1 1558 0 is_stmt 1 discriminator 2
 7892 00ee C4EB0608 		rsb	r8, r4, r6
 7893 00f2 4044     		add	r0, r0, r8
 7894 00f4 12F80080 		ldrb	r8, [r2, r0]	@ zero_extendqisi2
 7895 00f8 06A8     		add	r0, sp, #24
 7896 00fa 2044     		add	r0, r0, r4
 7897 00fc 08F00F08 		and	r8, r8, #15
 7898 0100 68F01F08 		orn	r8, r8, #31
 7899 0104 00F8148C 		strb	r8, [r0, #-20]
1557:.\Protocolo.c **** 		for(j=i;j<(i+valor[0]);j++){
 7900              		.loc 1 1557 0 discriminator 2
ARM GAS  C:\Users\RECEPC~1\AppData\Local\Temp\ccNG63cQ.s 			page 177


 7901 0108 0134     		adds	r4, r4, #1
 7902              	.LVL563:
 7903 010a E4B2     		uxtb	r4, r4
 7904              	.LVL564:
 7905              	.L632:
1557:.\Protocolo.c **** 		for(j=i;j<(i+valor[0]);j++){
 7906              		.loc 1 1557 0 is_stmt 0 discriminator 1
 7907 010c 1078     		ldrb	r0, [r2]	@ zero_extendqisi2
 7908 010e 06EB0008 		add	r8, r6, r0
 7909 0112 4445     		cmp	r4, r8
 7910 0114 EBDB     		blt	.L585
 7911 0116 06E0     		b	.L633
 7912              	.LVL565:
 7913              	.L587:
1559:.\Protocolo.c **** 		}
1560:.\Protocolo.c **** 		for(i=j;i<=10;i++){
1561:.\Protocolo.c **** 			buffer[i]=0xE0;
 7914              		.loc 1 1561 0 is_stmt 1 discriminator 2
 7915 0118 06AE     		add	r6, sp, #24
 7916 011a 2644     		add	r6, r6, r4
 7917 011c 06F8148C 		strb	r8, [r6, #-20]
1560:.\Protocolo.c **** 		for(i=j;i<=10;i++){
 7918              		.loc 1 1560 0 discriminator 2
 7919 0120 0134     		adds	r4, r4, #1
 7920              	.LVL566:
 7921 0122 E4B2     		uxtb	r4, r4
 7922              	.LVL567:
 7923 0124 01E0     		b	.L634
 7924              	.LVL568:
 7925              	.L633:
 7926              		.loc 1 1561 0 discriminator 1
 7927 0126 4FF0E008 		mov	r8, #224
 7928              	.LVL569:
 7929              	.L634:
1560:.\Protocolo.c **** 		for(i=j;i<=10;i++){
 7930              		.loc 1 1560 0 discriminator 1
 7931 012a 0A2C     		cmp	r4, #10
 7932 012c F4D9     		bls	.L587
1562:.\Protocolo.c **** 		}
1563:.\Protocolo.c **** 		buffer[11]=0xFB;
 7933              		.loc 1 1563 0
 7934 012e FB24     		movs	r4, #251
 7935              	.LVL570:
 7936 0130 8DF80F40 		strb	r4, [sp, #15]
1564:.\Protocolo.c **** 		buffer[12]=0;
 7937              		.loc 1 1564 0
 7938 0134 0024     		movs	r4, #0
 7939 0136 8DF81040 		strb	r4, [sp, #16]
 7940              	.LVL571:
1565:.\Protocolo.c **** 		for(i=0;i<=11;i++){
 7941              		.loc 1 1565 0
 7942 013a 0CE0     		b	.L588
 7943              	.LVL572:
 7944              	.L589:
1566:.\Protocolo.c **** 			buffer[12]+=(buffer[i]&0x0F);	
 7945              		.loc 1 1566 0 discriminator 2
 7946 013c 06AE     		add	r6, sp, #24
ARM GAS  C:\Users\RECEPC~1\AppData\Local\Temp\ccNG63cQ.s 			page 178


 7947 013e 2644     		add	r6, r6, r4
 7948 0140 16F8146C 		ldrb	r6, [r6, #-20]	@ zero_extendqisi2
 7949 0144 06F00F06 		and	r6, r6, #15
 7950 0148 9DF81080 		ldrb	r8, [sp, #16]	@ zero_extendqisi2
 7951 014c 4644     		add	r6, r6, r8
 7952 014e 8DF81060 		strb	r6, [sp, #16]
1565:.\Protocolo.c **** 		for(i=0;i<=11;i++){
 7953              		.loc 1 1565 0 discriminator 2
 7954 0152 0134     		adds	r4, r4, #1
 7955              	.LVL573:
 7956 0154 E4B2     		uxtb	r4, r4
 7957              	.LVL574:
 7958              	.L588:
1565:.\Protocolo.c **** 		for(i=0;i<=11;i++){
 7959              		.loc 1 1565 0 is_stmt 0 discriminator 1
 7960 0156 0B2C     		cmp	r4, #11
 7961 0158 F0D9     		bls	.L589
1567:.\Protocolo.c **** 		}
1568:.\Protocolo.c **** 		buffer[12]=(((~buffer[12])+1)&0x0F)|0xE0;
 7962              		.loc 1 1568 0 is_stmt 1
 7963 015a 9DF81040 		ldrb	r4, [sp, #16]	@ zero_extendqisi2
 7964              	.LVL575:
 7965 015e 6442     		negs	r4, r4
 7966 0160 04F00F04 		and	r4, r4, #15
 7967 0164 64F01F04 		orn	r4, r4, #31
 7968 0168 8DF81040 		strb	r4, [sp, #16]
1569:.\Protocolo.c **** 		buffer[13]=0xF0;
 7969              		.loc 1 1569 0
 7970 016c F024     		movs	r4, #240
 7971 016e 8DF81140 		strb	r4, [sp, #17]
 7972              	.LVL576:
1570:.\Protocolo.c **** 		size=13;
1571:.\Protocolo.c **** 		if(versurt==5){
 7973              		.loc 1 1571 0
 7974 0172 BEF1050F 		cmp	lr, #5
 7975 0176 24D1     		bne	.L627
1572:.\Protocolo.c **** 			buffer[10]=0xFB;
 7976              		.loc 1 1572 0
 7977 0178 FB24     		movs	r4, #251
 7978 017a 8DF80E40 		strb	r4, [sp, #14]
1573:.\Protocolo.c **** 			buffer[11]=0;
 7979              		.loc 1 1573 0
 7980 017e 0024     		movs	r4, #0
 7981 0180 8DF80F40 		strb	r4, [sp, #15]
 7982              	.LVL577:
1574:.\Protocolo.c **** 			for(i=0;i<=10;i++){
 7983              		.loc 1 1574 0
 7984 0184 0CE0     		b	.L591
 7985              	.LVL578:
 7986              	.L592:
1575:.\Protocolo.c **** 				buffer[11]+=(buffer[i]&0x0F);	
 7987              		.loc 1 1575 0 discriminator 2
 7988 0186 06AE     		add	r6, sp, #24
 7989 0188 2644     		add	r6, r6, r4
 7990 018a 16F8146C 		ldrb	r6, [r6, #-20]	@ zero_extendqisi2
 7991 018e 06F00F06 		and	r6, r6, #15
 7992 0192 9DF80FE0 		ldrb	lr, [sp, #15]	@ zero_extendqisi2
ARM GAS  C:\Users\RECEPC~1\AppData\Local\Temp\ccNG63cQ.s 			page 179


 7993 0196 7644     		add	r6, r6, lr
 7994 0198 8DF80F60 		strb	r6, [sp, #15]
1574:.\Protocolo.c **** 			for(i=0;i<=10;i++){
 7995              		.loc 1 1574 0 discriminator 2
 7996 019c 0134     		adds	r4, r4, #1
 7997              	.LVL579:
 7998 019e E4B2     		uxtb	r4, r4
 7999              	.LVL580:
 8000              	.L591:
1574:.\Protocolo.c **** 			for(i=0;i<=10;i++){
 8001              		.loc 1 1574 0 is_stmt 0 discriminator 1
 8002 01a0 0A2C     		cmp	r4, #10
 8003 01a2 F0D9     		bls	.L592
1576:.\Protocolo.c **** 			}
1577:.\Protocolo.c **** 			buffer[11]=(((~buffer[11])+1)&0x0F)|0xE0;
 8004              		.loc 1 1577 0 is_stmt 1
 8005 01a4 9DF80F40 		ldrb	r4, [sp, #15]	@ zero_extendqisi2
 8006              	.LVL581:
 8007 01a8 6442     		negs	r4, r4
 8008 01aa 04F00F04 		and	r4, r4, #15
 8009 01ae 64F01F04 		orn	r4, r4, #31
 8010 01b2 8DF80F40 		strb	r4, [sp, #15]
1578:.\Protocolo.c **** 			buffer[12]=0xF0;
 8011              		.loc 1 1578 0
 8012 01b6 F024     		movs	r4, #240
 8013 01b8 8DF81040 		strb	r4, [sp, #16]
 8014              	.LVL582:
1579:.\Protocolo.c **** 			size=12;		
 8015              		.loc 1 1579 0
 8016 01bc 4FF00C08 		mov	r8, #12
 8017 01c0 01E0     		b	.L590
 8018              	.LVL583:
 8019              	.L627:
1570:.\Protocolo.c **** 		size=13;
 8020              		.loc 1 1570 0
 8021 01c2 4FF00D08 		mov	r8, #13
 8022              	.LVL584:
 8023              	.L590:
1580:.\Protocolo.c **** 		}
1581:.\Protocolo.c **** 		if(preset==1){
 8024              		.loc 1 1581 0
 8025 01c6 012B     		cmp	r3, #1
 8026 01c8 67D1     		bne	.L581
1582:.\Protocolo.c **** 			if(decimal==3){
 8027              		.loc 1 1582 0
 8028 01ca 032D     		cmp	r5, #3
 8029 01cc 03D1     		bne	.L593
1583:.\Protocolo.c **** 				valor[0]=valor[0]-1;
 8030              		.loc 1 1583 0
 8031 01ce 0138     		subs	r0, r0, #1
 8032 01d0 1070     		strb	r0, [r2]
1584:.\Protocolo.c **** 				decimal=decimal-1;
 8033              		.loc 1 1584 0
 8034 01d2 013D     		subs	r5, r5, #1
 8035              	.LVL585:
 8036 01d4 EDB2     		uxtb	r5, r5
 8037              	.LVL586:
ARM GAS  C:\Users\RECEPC~1\AppData\Local\Temp\ccNG63cQ.s 			page 180


 8038              	.L593:
1585:.\Protocolo.c **** 			}
1586:.\Protocolo.c **** 			buffer[4]=0xF6;
 8039              		.loc 1 1586 0
 8040 01d6 F620     		movs	r0, #246
 8041 01d8 8DF80800 		strb	r0, [sp, #8]
1587:.\Protocolo.c **** 			buffer[5]=(0xE0|(grado-1));
 8042              		.loc 1 1587 0
 8043 01dc 481E     		subs	r0, r1, #1
 8044 01de 60F01F00 		orn	r0, r0, #31
 8045 01e2 8DF80900 		strb	r0, [sp, #9]
1588:.\Protocolo.c **** 			buffer[6]=0xF8;
 8046              		.loc 1 1588 0
 8047 01e6 F820     		movs	r0, #248
 8048 01e8 8DF80A00 		strb	r0, [sp, #10]
 8049              	.LVL587:
1589:.\Protocolo.c **** 			for(i=7;i<((7+(decimalV-1))-decimal);i++){
 8050              		.loc 1 1589 0
 8051 01ec 0720     		movs	r0, #7
 8052 01ee DFF85CE1 		ldr	lr, .L645+8
1590:.\Protocolo.c **** 				buffer[i]=0xE0;
 8053              		.loc 1 1590 0
 8054 01f2 4FF0E008 		mov	r8, #224
 8055              	.LVL588:
1589:.\Protocolo.c **** 			for(i=7;i<((7+(decimalV-1))-decimal);i++){
 8056              		.loc 1 1589 0
 8057 01f6 05E0     		b	.L594
 8058              	.LVL589:
 8059              	.L595:
 8060              		.loc 1 1590 0 discriminator 2
 8061 01f8 06AC     		add	r4, sp, #24
 8062 01fa 0444     		add	r4, r4, r0
 8063 01fc 04F8148C 		strb	r8, [r4, #-20]
1589:.\Protocolo.c **** 			for(i=7;i<((7+(decimalV-1))-decimal);i++){
 8064              		.loc 1 1589 0 discriminator 2
 8065 0200 0130     		adds	r0, r0, #1
 8066              	.LVL590:
 8067 0202 C0B2     		uxtb	r0, r0
 8068              	.LVL591:
 8069              	.L594:
1589:.\Protocolo.c **** 			for(i=7;i<((7+(decimalV-1))-decimal);i++){
 8070              		.loc 1 1589 0 is_stmt 0 discriminator 1
 8071 0204 0446     		mov	r4, r0
 8072 0206 9EF80060 		ldrb	r6, [lr]	@ zero_extendqisi2
 8073 020a 0636     		adds	r6, r6, #6
 8074 020c 761B     		subs	r6, r6, r5
 8075 020e B042     		cmp	r0, r6
 8076 0210 F2DB     		blt	.L595
 8077 0212 0EE0     		b	.L635
 8078              	.LVL592:
 8079              	.L597:
1591:.\Protocolo.c **** 			}
1592:.\Protocolo.c **** 			for(j=i;j<(i+valor[0]);j++){
1593:.\Protocolo.c **** 				buffer[j]=(0xE0|(valor[valor[0]-(j-i)]&0x0F));	
 8080              		.loc 1 1593 0 is_stmt 1 discriminator 2
 8081 0214 C0EB040E 		rsb	lr, r0, r4
 8082 0218 7644     		add	r6, r6, lr
ARM GAS  C:\Users\RECEPC~1\AppData\Local\Temp\ccNG63cQ.s 			page 181


 8083 021a 12F806E0 		ldrb	lr, [r2, r6]	@ zero_extendqisi2
 8084 021e 06AE     		add	r6, sp, #24
 8085 0220 0644     		add	r6, r6, r0
 8086 0222 0EF00F0E 		and	lr, lr, #15
 8087 0226 6EF01F0E 		orn	lr, lr, #31
 8088 022a 06F814EC 		strb	lr, [r6, #-20]
1592:.\Protocolo.c **** 			for(j=i;j<(i+valor[0]);j++){
 8089              		.loc 1 1592 0 discriminator 2
 8090 022e 0130     		adds	r0, r0, #1
 8091              	.LVL593:
 8092 0230 C0B2     		uxtb	r0, r0
 8093              	.LVL594:
 8094              	.L635:
1592:.\Protocolo.c **** 			for(j=i;j<(i+valor[0]);j++){
 8095              		.loc 1 1592 0 is_stmt 0 discriminator 1
 8096 0232 1678     		ldrb	r6, [r2]	@ zero_extendqisi2
 8097 0234 04EB060E 		add	lr, r4, r6
 8098 0238 7045     		cmp	r0, lr
 8099 023a EBDB     		blt	.L597
 8100 023c 06E0     		b	.L636
 8101              	.LVL595:
 8102              	.L599:
1594:.\Protocolo.c **** 			}
1595:.\Protocolo.c **** 			for(i=j;i<=11;i++){
1596:.\Protocolo.c **** 				buffer[i]=0xE0;
 8103              		.loc 1 1596 0 is_stmt 1 discriminator 2
 8104 023e 06AC     		add	r4, sp, #24
 8105 0240 0444     		add	r4, r4, r0
 8106 0242 04F8146C 		strb	r6, [r4, #-20]
1595:.\Protocolo.c **** 			for(i=j;i<=11;i++){
 8107              		.loc 1 1595 0 discriminator 2
 8108 0246 0130     		adds	r0, r0, #1
 8109              	.LVL596:
 8110 0248 C0B2     		uxtb	r0, r0
 8111              	.LVL597:
 8112 024a 00E0     		b	.L637
 8113              	.LVL598:
 8114              	.L636:
 8115              		.loc 1 1596 0 discriminator 1
 8116 024c E026     		movs	r6, #224
 8117              	.LVL599:
 8118              	.L637:
1595:.\Protocolo.c **** 			for(i=j;i<=11;i++){
 8119              		.loc 1 1595 0 discriminator 1
 8120 024e 0B28     		cmp	r0, #11
 8121 0250 F5D9     		bls	.L599
1597:.\Protocolo.c **** 			}			
1598:.\Protocolo.c **** 			buffer[12]=0xFB;
 8122              		.loc 1 1598 0
 8123 0252 FB20     		movs	r0, #251
 8124              	.LVL600:
 8125 0254 8DF81000 		strb	r0, [sp, #16]
1599:.\Protocolo.c **** 			buffer[13]=0;
 8126              		.loc 1 1599 0
 8127 0258 0020     		movs	r0, #0
 8128 025a 8DF81100 		strb	r0, [sp, #17]
 8129              	.LVL601:
ARM GAS  C:\Users\RECEPC~1\AppData\Local\Temp\ccNG63cQ.s 			page 182


1600:.\Protocolo.c **** 			for(i=0;i<=12;i++){
 8130              		.loc 1 1600 0
 8131 025e 0CE0     		b	.L600
 8132              	.LVL602:
 8133              	.L601:
1601:.\Protocolo.c **** 				buffer[13]+=(buffer[i]&0x0F);	
 8134              		.loc 1 1601 0 discriminator 2
 8135 0260 06AC     		add	r4, sp, #24
 8136 0262 0444     		add	r4, r4, r0
 8137 0264 14F8144C 		ldrb	r4, [r4, #-20]	@ zero_extendqisi2
 8138 0268 04F00F04 		and	r4, r4, #15
 8139 026c 9DF81160 		ldrb	r6, [sp, #17]	@ zero_extendqisi2
 8140 0270 3444     		add	r4, r4, r6
 8141 0272 8DF81140 		strb	r4, [sp, #17]
1600:.\Protocolo.c **** 			for(i=0;i<=12;i++){
 8142              		.loc 1 1600 0 discriminator 2
 8143 0276 0130     		adds	r0, r0, #1
 8144              	.LVL603:
 8145 0278 C0B2     		uxtb	r0, r0
 8146              	.LVL604:
 8147              	.L600:
1600:.\Protocolo.c **** 			for(i=0;i<=12;i++){
 8148              		.loc 1 1600 0 is_stmt 0 discriminator 1
 8149 027a 0C28     		cmp	r0, #12
 8150 027c F0D9     		bls	.L601
1602:.\Protocolo.c **** 			}
1603:.\Protocolo.c **** 			buffer[13]=(((~buffer[13])+1)&0x0F)|0xE0;			
 8151              		.loc 1 1603 0 is_stmt 1
 8152 027e 9DF81100 		ldrb	r0, [sp, #17]	@ zero_extendqisi2
 8153              	.LVL605:
 8154 0282 4042     		negs	r0, r0
 8155 0284 00F00F00 		and	r0, r0, #15
 8156 0288 60F01F00 		orn	r0, r0, #31
 8157 028c 8DF81100 		strb	r0, [sp, #17]
1604:.\Protocolo.c **** 			buffer[14]=0xF0;
 8158              		.loc 1 1604 0
 8159 0290 F020     		movs	r0, #240
 8160 0292 8DF81200 		strb	r0, [sp, #18]
 8161              	.LVL606:
1605:.\Protocolo.c **** 			size=14;
 8162              		.loc 1 1605 0
 8163 0296 4FF00E08 		mov	r8, #14
 8164              	.LVL607:
 8165              	.L581:
1606:.\Protocolo.c **** 		}	
1607:.\Protocolo.c **** 	}	
1608:.\Protocolo.c **** 	if(versurt==7){
 8166              		.loc 1 1608 0
 8167 029a 2A48     		ldr	r0, .L645
 8168 029c 0078     		ldrb	r0, [r0]	@ zero_extendqisi2
 8169 029e 0728     		cmp	r0, #7
 8170 02a0 40F0D380 		bne	.L602
1609:.\Protocolo.c **** 		buffer[0]=0xFF;
 8171              		.loc 1 1609 0
 8172 02a4 FF20     		movs	r0, #255
 8173 02a6 8DF80400 		strb	r0, [sp, #4]
1610:.\Protocolo.c **** 		buffer[1]=(0xE0|temp);
ARM GAS  C:\Users\RECEPC~1\AppData\Local\Temp\ccNG63cQ.s 			page 183


 8174              		.loc 1 1610 0
 8175 02aa 6CF01F0C 		orn	ip, ip, #31
 8176              	.LVL608:
 8177 02ae 8DF805C0 		strb	ip, [sp, #5]
1611:.\Protocolo.c **** 		buffer[2]=(0xF0|preset);
 8178              		.loc 1 1611 0
 8179 02b2 63F00F00 		orn	r0, r3, #15
 8180 02b6 8DF80600 		strb	r0, [sp, #6]
1612:.\Protocolo.c **** 		buffer[3]=0xF4;
 8181              		.loc 1 1612 0
 8182 02ba F420     		movs	r0, #244
 8183 02bc 8DF80700 		strb	r0, [sp, #7]
1613:.\Protocolo.c **** 		buffer[4]=0xF8;	
 8184              		.loc 1 1613 0
 8185 02c0 F820     		movs	r0, #248
 8186 02c2 8DF80800 		strb	r0, [sp, #8]
 8187              	.LVL609:
1614:.\Protocolo.c **** 		for(i=5;i<((5+decimalD)-decimal);i++){
 8188              		.loc 1 1614 0
 8189 02c6 0524     		movs	r4, #5
 8190 02c8 DFF87C80 		ldr	r8, .L645+4
 8191              	.LVL610:
 8192 02cc AC46     		mov	ip, r5
1615:.\Protocolo.c **** 			buffer[i]=0xE0;
 8193              		.loc 1 1615 0
 8194 02ce 4FF0E009 		mov	r9, #224
1614:.\Protocolo.c **** 		for(i=5;i<((5+decimalD)-decimal);i++){
 8195              		.loc 1 1614 0
 8196 02d2 05E0     		b	.L603
 8197              	.LVL611:
 8198              	.L604:
 8199              		.loc 1 1615 0 discriminator 2
 8200 02d4 06A8     		add	r0, sp, #24
 8201              	.LVL612:
 8202 02d6 2044     		add	r0, r0, r4
 8203 02d8 00F8149C 		strb	r9, [r0, #-20]
1614:.\Protocolo.c **** 		for(i=5;i<((5+decimalD)-decimal);i++){
 8204              		.loc 1 1614 0 discriminator 2
 8205 02dc 0134     		adds	r4, r4, #1
 8206              	.LVL613:
 8207 02de E4B2     		uxtb	r4, r4
 8208              	.LVL614:
 8209              	.L603:
1614:.\Protocolo.c **** 		for(i=5;i<((5+decimalD)-decimal);i++){
 8210              		.loc 1 1614 0 is_stmt 0 discriminator 1
 8211 02e0 2046     		mov	r0, r4
 8212 02e2 98F800E0 		ldrb	lr, [r8]	@ zero_extendqisi2
 8213 02e6 0EF1050E 		add	lr, lr, #5
 8214 02ea 6646     		mov	r6, ip
 8215 02ec C5EB0E0E 		rsb	lr, r5, lr
 8216 02f0 7445     		cmp	r4, lr
 8217 02f2 EFDB     		blt	.L604
 8218 02f4 0EE0     		b	.L638
 8219              	.LVL615:
 8220              	.L606:
1616:.\Protocolo.c **** 		}
1617:.\Protocolo.c **** 		for(j=i;j<(i+valor[0]);j++){
ARM GAS  C:\Users\RECEPC~1\AppData\Local\Temp\ccNG63cQ.s 			page 184


1618:.\Protocolo.c **** 			buffer[j]=(0xE0|(valor[valor[0]-(j-i)]&0x0F));	
 8221              		.loc 1 1618 0 is_stmt 1 discriminator 2
 8222 02f6 C4EB000E 		rsb	lr, r4, r0
 8223 02fa 7544     		add	r5, r5, lr
 8224 02fc 12F805E0 		ldrb	lr, [r2, r5]	@ zero_extendqisi2
 8225 0300 06AD     		add	r5, sp, #24
 8226 0302 2544     		add	r5, r5, r4
 8227 0304 0EF00F0E 		and	lr, lr, #15
 8228 0308 6EF01F0E 		orn	lr, lr, #31
 8229 030c 05F814EC 		strb	lr, [r5, #-20]
1617:.\Protocolo.c **** 		for(j=i;j<(i+valor[0]);j++){
 8230              		.loc 1 1617 0 discriminator 2
 8231 0310 0134     		adds	r4, r4, #1
 8232              	.LVL616:
 8233 0312 E4B2     		uxtb	r4, r4
 8234              	.LVL617:
 8235              	.L638:
1617:.\Protocolo.c **** 		for(j=i;j<(i+valor[0]);j++){
 8236              		.loc 1 1617 0 is_stmt 0 discriminator 1
 8237 0314 1578     		ldrb	r5, [r2]	@ zero_extendqisi2
 8238 0316 00EB050E 		add	lr, r0, r5
 8239 031a 7445     		cmp	r4, lr
 8240 031c EBDB     		blt	.L606
 8241 031e 06E0     		b	.L639
 8242              	.LVL618:
 8243              	.L608:
1619:.\Protocolo.c **** 		}
1620:.\Protocolo.c **** 		for(i=j;i<=12;i++){
1621:.\Protocolo.c **** 			buffer[i]=0xE0;
 8244              		.loc 1 1621 0 is_stmt 1 discriminator 2
 8245 0320 06A8     		add	r0, sp, #24
 8246 0322 2044     		add	r0, r0, r4
 8247 0324 00F814EC 		strb	lr, [r0, #-20]
1620:.\Protocolo.c **** 		for(i=j;i<=12;i++){
 8248              		.loc 1 1620 0 discriminator 2
 8249 0328 0134     		adds	r4, r4, #1
 8250              	.LVL619:
 8251 032a E4B2     		uxtb	r4, r4
 8252              	.LVL620:
 8253 032c 01E0     		b	.L640
 8254              	.LVL621:
 8255              	.L639:
 8256              		.loc 1 1621 0 discriminator 1
 8257 032e 4FF0E00E 		mov	lr, #224
 8258              	.LVL622:
 8259              	.L640:
1620:.\Protocolo.c **** 		for(i=j;i<=12;i++){
 8260              		.loc 1 1620 0 discriminator 1
 8261 0332 0C2C     		cmp	r4, #12
 8262 0334 F4D9     		bls	.L608
1622:.\Protocolo.c **** 		}
1623:.\Protocolo.c **** 		buffer[13]=0xFB;
 8263              		.loc 1 1623 0
 8264 0336 FB20     		movs	r0, #251
 8265 0338 8DF81100 		strb	r0, [sp, #17]
1624:.\Protocolo.c **** 		buffer[14]=0;
 8266              		.loc 1 1624 0
ARM GAS  C:\Users\RECEPC~1\AppData\Local\Temp\ccNG63cQ.s 			page 185


 8267 033c 0020     		movs	r0, #0
 8268 033e 8DF81200 		strb	r0, [sp, #18]
 8269              	.LVL623:
1625:.\Protocolo.c **** 		for(i=0;i<=13;i++){
 8270              		.loc 1 1625 0
 8271 0342 12E0     		b	.L609
 8272              	.L646:
 8273              		.align	2
 8274              	.L645:
 8275 0344 00000000 		.word	versurt
 8276 0348 00000000 		.word	decimalD
 8277 034c 00000000 		.word	decimalV
 8278              	.LVL624:
 8279              	.L610:
1626:.\Protocolo.c **** 			buffer[14]+=(buffer[i]&0x0F);	
 8280              		.loc 1 1626 0 discriminator 2
 8281 0350 06AC     		add	r4, sp, #24
 8282 0352 0444     		add	r4, r4, r0
 8283 0354 14F8144C 		ldrb	r4, [r4, #-20]	@ zero_extendqisi2
 8284 0358 04F00F04 		and	r4, r4, #15
 8285 035c 9DF812E0 		ldrb	lr, [sp, #18]	@ zero_extendqisi2
 8286 0360 7444     		add	r4, r4, lr
 8287 0362 8DF81240 		strb	r4, [sp, #18]
1625:.\Protocolo.c **** 		for(i=0;i<=13;i++){
 8288              		.loc 1 1625 0 discriminator 2
 8289 0366 0130     		adds	r0, r0, #1
 8290              	.LVL625:
 8291 0368 C0B2     		uxtb	r0, r0
 8292              	.LVL626:
 8293              	.L609:
1625:.\Protocolo.c **** 		for(i=0;i<=13;i++){
 8294              		.loc 1 1625 0 is_stmt 0 discriminator 1
 8295 036a 0D28     		cmp	r0, #13
 8296 036c F0D9     		bls	.L610
1627:.\Protocolo.c **** 		}
1628:.\Protocolo.c **** 		buffer[14]=(((~buffer[14])+1)&0x0F)|0xE0;
 8297              		.loc 1 1628 0 is_stmt 1
 8298 036e 9DF81200 		ldrb	r0, [sp, #18]	@ zero_extendqisi2
 8299              	.LVL627:
 8300 0372 4042     		negs	r0, r0
 8301 0374 00F00F00 		and	r0, r0, #15
 8302 0378 60F01F00 		orn	r0, r0, #31
 8303 037c 8DF81200 		strb	r0, [sp, #18]
1629:.\Protocolo.c **** 		buffer[15]=0xF0;
 8304              		.loc 1 1629 0
 8305 0380 F020     		movs	r0, #240
 8306 0382 8DF81300 		strb	r0, [sp, #19]
 8307              	.LVL628:
1630:.\Protocolo.c **** 		size=15;
1631:.\Protocolo.c **** 		if(preset==1){
 8308              		.loc 1 1631 0
 8309 0386 012B     		cmp	r3, #1
 8310 0388 5DD1     		bne	.L628
1632:.\Protocolo.c **** 			buffer[4]=0xF6;
 8311              		.loc 1 1632 0
 8312 038a F623     		movs	r3, #246
 8313              	.LVL629:
ARM GAS  C:\Users\RECEPC~1\AppData\Local\Temp\ccNG63cQ.s 			page 186


 8314 038c 8DF80830 		strb	r3, [sp, #8]
1633:.\Protocolo.c **** 			buffer[5]=(0xE0|(grado-1));
 8315              		.loc 1 1633 0
 8316 0390 4B1E     		subs	r3, r1, #1
 8317 0392 63F01F03 		orn	r3, r3, #31
 8318 0396 8DF80930 		strb	r3, [sp, #9]
1634:.\Protocolo.c **** 			buffer[6]=0xF8;
 8319              		.loc 1 1634 0
 8320 039a F823     		movs	r3, #248
 8321 039c 8DF80A30 		strb	r3, [sp, #10]
 8322              	.LVL630:
1635:.\Protocolo.c **** 			for(i=7;i<((7+decimalV)-decimal);i++){
 8323              		.loc 1 1635 0
 8324 03a0 0723     		movs	r3, #7
 8325 03a2 434C     		ldr	r4, .L647
1636:.\Protocolo.c **** 				buffer[i]=0xE0;
 8326              		.loc 1 1636 0
 8327 03a4 4FF0E00E 		mov	lr, #224
1635:.\Protocolo.c **** 			for(i=7;i<((7+decimalV)-decimal);i++){
 8328              		.loc 1 1635 0
 8329 03a8 05E0     		b	.L611
 8330              	.LVL631:
 8331              	.L612:
 8332              		.loc 1 1636 0 discriminator 2
 8333 03aa 06A9     		add	r1, sp, #24
 8334              	.LVL632:
 8335 03ac 1944     		add	r1, r1, r3
 8336 03ae 01F814EC 		strb	lr, [r1, #-20]
1635:.\Protocolo.c **** 			for(i=7;i<((7+decimalV)-decimal);i++){
 8337              		.loc 1 1635 0 discriminator 2
 8338 03b2 0133     		adds	r3, r3, #1
 8339              	.LVL633:
 8340 03b4 DBB2     		uxtb	r3, r3
 8341              	.LVL634:
 8342              	.L611:
1635:.\Protocolo.c **** 			for(i=7;i<((7+decimalV)-decimal);i++){
 8343              		.loc 1 1635 0 is_stmt 0 discriminator 1
 8344 03b6 1946     		mov	r1, r3
 8345 03b8 2078     		ldrb	r0, [r4]	@ zero_extendqisi2
 8346 03ba 0730     		adds	r0, r0, #7
 8347 03bc 801B     		subs	r0, r0, r6
 8348 03be 8342     		cmp	r3, r0
 8349 03c0 F3DB     		blt	.L612
 8350 03c2 0DE0     		b	.L641
 8351              	.LVL635:
 8352              	.L614:
1637:.\Protocolo.c **** 			}
1638:.\Protocolo.c **** 			for(j=i;j<(i+valor[0]);j++){
1639:.\Protocolo.c **** 				buffer[j]=(0xE0|(valor[valor[0]-(j-i)]&0x0F));	
 8353              		.loc 1 1639 0 is_stmt 1 discriminator 2
 8354 03c4 C81A     		subs	r0, r1, r3
 8355 03c6 2844     		add	r0, r0, r5
 8356 03c8 145C     		ldrb	r4, [r2, r0]	@ zero_extendqisi2
 8357 03ca 06A8     		add	r0, sp, #24
 8358 03cc 1844     		add	r0, r0, r3
 8359 03ce 04F00F04 		and	r4, r4, #15
 8360 03d2 64F01F04 		orn	r4, r4, #31
ARM GAS  C:\Users\RECEPC~1\AppData\Local\Temp\ccNG63cQ.s 			page 187


 8361 03d6 00F8144C 		strb	r4, [r0, #-20]
1638:.\Protocolo.c **** 			for(j=i;j<(i+valor[0]);j++){
 8362              		.loc 1 1638 0 discriminator 2
 8363 03da 0133     		adds	r3, r3, #1
 8364              	.LVL636:
 8365 03dc DBB2     		uxtb	r3, r3
 8366              	.LVL637:
 8367 03de 00E0     		b	.L642
 8368              	.LVL638:
 8369              	.L641:
1638:.\Protocolo.c **** 			for(j=i;j<(i+valor[0]);j++){
 8370              		.loc 1 1638 0 is_stmt 0 discriminator 1
 8371 03e0 EE18     		adds	r6, r5, r3
 8372              	.LVL639:
 8373              	.L642:
 8374 03e2 B342     		cmp	r3, r6
 8375 03e4 EEDB     		blt	.L614
 8376 03e6 06E0     		b	.L643
 8377              	.LVL640:
 8378              	.L616:
1640:.\Protocolo.c **** 			}
1641:.\Protocolo.c **** 			for(i=j;i<=14;i++){
1642:.\Protocolo.c **** 				buffer[i]=0xE0;
 8379              		.loc 1 1642 0 is_stmt 1 discriminator 2
 8380 03e8 06AA     		add	r2, sp, #24
 8381 03ea 1A44     		add	r2, r2, r3
 8382 03ec 02F8141C 		strb	r1, [r2, #-20]
1641:.\Protocolo.c **** 			for(i=j;i<=14;i++){
 8383              		.loc 1 1641 0 discriminator 2
 8384 03f0 0133     		adds	r3, r3, #1
 8385              	.LVL641:
 8386 03f2 DBB2     		uxtb	r3, r3
 8387              	.LVL642:
 8388 03f4 00E0     		b	.L644
 8389              	.LVL643:
 8390              	.L643:
 8391              		.loc 1 1642 0 discriminator 1
 8392 03f6 E021     		movs	r1, #224
 8393              	.LVL644:
 8394              	.L644:
1641:.\Protocolo.c **** 			for(i=j;i<=14;i++){
 8395              		.loc 1 1641 0 discriminator 1
 8396 03f8 0E2B     		cmp	r3, #14
 8397 03fa F5D9     		bls	.L616
1643:.\Protocolo.c **** 			}			
1644:.\Protocolo.c **** 			buffer[15]=0xFB;
 8398              		.loc 1 1644 0
 8399 03fc FB23     		movs	r3, #251
 8400              	.LVL645:
 8401 03fe 8DF81330 		strb	r3, [sp, #19]
1645:.\Protocolo.c **** 			buffer[16]=0;
 8402              		.loc 1 1645 0
 8403 0402 0023     		movs	r3, #0
 8404 0404 8DF81430 		strb	r3, [sp, #20]
 8405              	.LVL646:
1646:.\Protocolo.c **** 			for(i=0;i<=15;i++){
 8406              		.loc 1 1646 0
ARM GAS  C:\Users\RECEPC~1\AppData\Local\Temp\ccNG63cQ.s 			page 188


 8407 0408 0CE0     		b	.L617
 8408              	.LVL647:
 8409              	.L618:
1647:.\Protocolo.c **** 				buffer[16]+=(buffer[i]&0x0F);	
 8410              		.loc 1 1647 0 discriminator 2
 8411 040a 06AA     		add	r2, sp, #24
 8412 040c 1A44     		add	r2, r2, r3
 8413 040e 12F8142C 		ldrb	r2, [r2, #-20]	@ zero_extendqisi2
 8414 0412 02F00F02 		and	r2, r2, #15
 8415 0416 9DF81410 		ldrb	r1, [sp, #20]	@ zero_extendqisi2
 8416 041a 0A44     		add	r2, r2, r1
 8417 041c 8DF81420 		strb	r2, [sp, #20]
1646:.\Protocolo.c **** 			for(i=0;i<=15;i++){
 8418              		.loc 1 1646 0 discriminator 2
 8419 0420 0133     		adds	r3, r3, #1
 8420              	.LVL648:
 8421 0422 DBB2     		uxtb	r3, r3
 8422              	.LVL649:
 8423              	.L617:
1646:.\Protocolo.c **** 			for(i=0;i<=15;i++){
 8424              		.loc 1 1646 0 is_stmt 0 discriminator 1
 8425 0424 0F2B     		cmp	r3, #15
 8426 0426 F0D9     		bls	.L618
1648:.\Protocolo.c **** 			}
1649:.\Protocolo.c **** 			buffer[16]=(((~buffer[16])+1)&0x0F)|0xE0;			
 8427              		.loc 1 1649 0 is_stmt 1
 8428 0428 9DF81430 		ldrb	r3, [sp, #20]	@ zero_extendqisi2
 8429              	.LVL650:
 8430 042c 5B42     		negs	r3, r3
 8431 042e 03F00F03 		and	r3, r3, #15
 8432 0432 63F01F03 		orn	r3, r3, #31
 8433 0436 8DF81430 		strb	r3, [sp, #20]
1650:.\Protocolo.c **** 			buffer[17]=0xF0;
 8434              		.loc 1 1650 0
 8435 043a F023     		movs	r3, #240
 8436 043c 8DF81530 		strb	r3, [sp, #21]
 8437              	.LVL651:
1651:.\Protocolo.c **** 			size=17;
 8438              		.loc 1 1651 0
 8439 0440 4FF01108 		mov	r8, #17
 8440 0444 01E0     		b	.L602
 8441              	.LVL652:
 8442              	.L628:
1630:.\Protocolo.c **** 		size=15;
 8443              		.loc 1 1630 0
 8444 0446 4FF00F08 		mov	r8, #15
 8445              	.LVL653:
 8446              	.L602:
1652:.\Protocolo.c **** 		}		
1653:.\Protocolo.c **** 	}	
1654:.\Protocolo.c **** 	Surtidor_PutChar(0x20|dir);	
 8447              		.loc 1 1654 0
 8448 044a 47F02000 		orr	r0, r7, #32
 8449 044e FFF7FEFF 		bl	Surtidor_PutChar
 8450              	.LVL654:
1655:.\Protocolo.c ****     CyDelay(50);
 8451              		.loc 1 1655 0
ARM GAS  C:\Users\RECEPC~1\AppData\Local\Temp\ccNG63cQ.s 			page 189


 8452 0452 3220     		movs	r0, #50
 8453 0454 FFF7FEFF 		bl	CyDelay
 8454              	.LVL655:
1656:.\Protocolo.c ****     if(Surtidor_GetRxBufferSize()>=1){
 8455              		.loc 1 1656 0
 8456 0458 FFF7FEFF 		bl	Surtidor_GetRxBufferSize
 8457              	.LVL656:
 8458 045c F0B1     		cbz	r0, .L629
1657:.\Protocolo.c **** 		if(Surtidor_ReadRxData()==(0xD0|dir)){
 8459              		.loc 1 1657 0
 8460 045e FFF7FEFF 		bl	Surtidor_ReadRxData
 8461              	.LVL657:
 8462 0462 47F0D003 		orr	r3, r7, #208
 8463 0466 9842     		cmp	r0, r3
 8464 0468 1AD1     		bne	.L630
1658:.\Protocolo.c ****             Surtidor_ClearRxBuffer();
 8465              		.loc 1 1658 0
 8466 046a FFF7FEFF 		bl	Surtidor_ClearRxBuffer
 8467              	.LVL658:
1659:.\Protocolo.c ****             for(i=0;i<=size;i++){
 8468              		.loc 1 1659 0
 8469 046e 0024     		movs	r4, #0
 8470 0470 07E0     		b	.L619
 8471              	.LVL659:
 8472              	.L620:
1660:.\Protocolo.c ****                	Surtidor_PutChar(buffer[i]);
 8473              		.loc 1 1660 0 discriminator 2
 8474 0472 06AB     		add	r3, sp, #24
 8475 0474 2344     		add	r3, r3, r4
 8476 0476 13F8140C 		ldrb	r0, [r3, #-20]	@ zero_extendqisi2
 8477 047a FFF7FEFF 		bl	Surtidor_PutChar
 8478              	.LVL660:
1659:.\Protocolo.c ****             for(i=0;i<=size;i++){
 8479              		.loc 1 1659 0 discriminator 2
 8480 047e 0134     		adds	r4, r4, #1
 8481              	.LVL661:
 8482 0480 E4B2     		uxtb	r4, r4
 8483              	.LVL662:
 8484              	.L619:
1659:.\Protocolo.c ****             for(i=0;i<=size;i++){
 8485              		.loc 1 1659 0 is_stmt 0 discriminator 1
 8486 0482 4445     		cmp	r4, r8
 8487 0484 F5D9     		bls	.L620
1661:.\Protocolo.c ****             }
1662:.\Protocolo.c **** 			CyDelay(50);
 8488              		.loc 1 1662 0 is_stmt 1
 8489 0486 3220     		movs	r0, #50
 8490 0488 FFF7FEFF 		bl	CyDelay
 8491              	.LVL663:
1663:.\Protocolo.c **** 			if(get_estado(dir)==0){
 8492              		.loc 1 1663 0
 8493 048c 3846     		mov	r0, r7
 8494 048e FFF7FEFF 		bl	get_estado
 8495              	.LVL664:
 8496 0492 0346     		mov	r3, r0
 8497 0494 30B9     		cbnz	r0, .L631
 8498 0496 06E0     		b	.L580
ARM GAS  C:\Users\RECEPC~1\AppData\Local\Temp\ccNG63cQ.s 			page 190


 8499              	.LVL665:
 8500              	.L626:
1546:.\Protocolo.c **** 		return 0;
 8501              		.loc 1 1546 0
 8502 0498 0023     		movs	r3, #0
 8503              	.LVL666:
 8504 049a 04E0     		b	.L580
 8505              	.LVL667:
 8506              	.L629:
1664:.\Protocolo.c **** 				return 0;
1665:.\Protocolo.c **** 			}
1666:.\Protocolo.c **** 			else{
1667:.\Protocolo.c **** 				return 1;
1668:.\Protocolo.c **** 			}
1669:.\Protocolo.c **** 		}
1670:.\Protocolo.c **** 		else{
1671:.\Protocolo.c **** 			return 0;
1672:.\Protocolo.c **** 		}
1673:.\Protocolo.c **** 	}
1674:.\Protocolo.c **** 	else{
1675:.\Protocolo.c **** 		return 0;	
 8507              		.loc 1 1675 0
 8508 049c 0023     		movs	r3, #0
 8509 049e 02E0     		b	.L580
 8510              	.L630:
1671:.\Protocolo.c **** 			return 0;
 8511              		.loc 1 1671 0
 8512 04a0 0023     		movs	r3, #0
 8513 04a2 00E0     		b	.L580
 8514              	.LVL668:
 8515              	.L631:
1667:.\Protocolo.c **** 				return 1;
 8516              		.loc 1 1667 0
 8517 04a4 0123     		movs	r3, #1
 8518              	.LVL669:
 8519              	.L580:
1676:.\Protocolo.c **** 	}
1677:.\Protocolo.c **** }
 8520              		.loc 1 1677 0
 8521 04a6 1846     		mov	r0, r3
 8522 04a8 07B0     		add	sp, sp, #28
 8523              		@ sp needed
 8524 04aa BDE8F083 		pop	{r4, r5, r6, r7, r8, r9, pc}
 8525              	.L648:
 8526 04ae 00BF     		.align	2
 8527              	.L647:
 8528 04b0 00000000 		.word	decimalV
 8529              		.cfi_endproc
 8530              	.LFE70:
 8531              		.size	programar, .-programar
 8532              		.section	.text.cambiar_precio,"ax",%progbits
 8533              		.align	2
 8534              		.global	cambiar_precio
 8535              		.thumb
 8536              		.thumb_func
 8537              		.type	cambiar_precio, %function
 8538              	cambiar_precio:
ARM GAS  C:\Users\RECEPC~1\AppData\Local\Temp\ccNG63cQ.s 			page 191


 8539              	.LFB71:
1678:.\Protocolo.c **** 
1679:.\Protocolo.c **** /*
1680:.\Protocolo.c **** ***************************************************************************************************
1681:.\Protocolo.c **** *                                         uint8 programar(uint8 dir)
1682:.\Protocolo.c **** *
1683:.\Protocolo.c **** * Description : 
1684:.\Protocolo.c **** *               
1685:.\Protocolo.c **** *
1686:.\Protocolo.c **** * Argument(s) : none
1687:.\Protocolo.c **** *
1688:.\Protocolo.c **** * Return(s)   : none
1689:.\Protocolo.c **** *
1690:.\Protocolo.c **** * Caller(s)   : 
1691:.\Protocolo.c **** *
1692:.\Protocolo.c **** * Note(s)     : none.
1693:.\Protocolo.c **** ***************************************************************************************************
1694:.\Protocolo.c **** */
1695:.\Protocolo.c **** uint8 cambiar_precio(uint8 dir){
 8540              		.loc 1 1695 0
 8541              		.cfi_startproc
 8542              		@ args = 0, pretend = 0, frame = 16
 8543              		@ frame_needed = 0, uses_anonymous_args = 0
 8544              	.LVL670:
 8545 0000 F0B5     		push	{r4, r5, r6, r7, lr}
 8546              		.cfi_def_cfa_offset 20
 8547              		.cfi_offset 4, -20
 8548              		.cfi_offset 5, -16
 8549              		.cfi_offset 6, -12
 8550              		.cfi_offset 7, -8
 8551              		.cfi_offset 14, -4
 8552 0002 85B0     		sub	sp, sp, #20
 8553              		.cfi_def_cfa_offset 40
 8554 0004 0446     		mov	r4, r0
1696:.\Protocolo.c **** 	uint8 buffer[15]={0,0,0,0,0,0,0,0,0,0,0,0,0,0,0},size;
 8555              		.loc 1 1696 0
 8556 0006 0023     		movs	r3, #0
 8557 0008 8DF80030 		strb	r3, [sp]
 8558 000c 8DF80130 		strb	r3, [sp, #1]
 8559 0010 8DF80230 		strb	r3, [sp, #2]
 8560 0014 8DF80330 		strb	r3, [sp, #3]
 8561 0018 8DF80430 		strb	r3, [sp, #4]
 8562 001c 8DF80530 		strb	r3, [sp, #5]
 8563 0020 8DF80630 		strb	r3, [sp, #6]
 8564 0024 8DF80730 		strb	r3, [sp, #7]
 8565 0028 8DF80830 		strb	r3, [sp, #8]
 8566 002c 8DF80930 		strb	r3, [sp, #9]
 8567 0030 8DF80A30 		strb	r3, [sp, #10]
 8568 0034 8DF80B30 		strb	r3, [sp, #11]
 8569 0038 8DF80C30 		strb	r3, [sp, #12]
 8570 003c 8DF80D30 		strb	r3, [sp, #13]
 8571 0040 8DF80E30 		strb	r3, [sp, #14]
1697:.\Protocolo.c **** 	if(versurt!=7){
 8572              		.loc 1 1697 0
 8573 0044 944B     		ldr	r3, .L675
 8574 0046 1B78     		ldrb	r3, [r3]	@ zero_extendqisi2
 8575 0048 072B     		cmp	r3, #7
ARM GAS  C:\Users\RECEPC~1\AppData\Local\Temp\ccNG63cQ.s 			page 192


 8576 004a 00F08680 		beq	.L650
1698:.\Protocolo.c **** 		buffer[0]=0xFF;
 8577              		.loc 1 1698 0
 8578 004e FF23     		movs	r3, #255
 8579 0050 8DF80030 		strb	r3, [sp]
1699:.\Protocolo.c **** 		buffer[1]=0xE5;
 8580              		.loc 1 1699 0
 8581 0054 E523     		movs	r3, #229
 8582 0056 8DF80130 		strb	r3, [sp, #1]
1700:.\Protocolo.c **** 		buffer[2]=0xF4;
 8583              		.loc 1 1700 0
 8584 005a F423     		movs	r3, #244
 8585 005c 8DF80230 		strb	r3, [sp, #2]
1701:.\Protocolo.c **** 		buffer[3]=0xF6;
 8586              		.loc 1 1701 0
 8587 0060 F623     		movs	r3, #246
 8588 0062 8DF80330 		strb	r3, [sp, #3]
1702:.\Protocolo.c **** 		buffer[4]=(0xE0|((rventa.producto&0x0f)-1));
 8589              		.loc 1 1702 0
 8590 0066 8D4B     		ldr	r3, .L675+4
 8591 0068 93F8A330 		ldrb	r3, [r3, #163]	@ zero_extendqisi2
 8592 006c 03F00F03 		and	r3, r3, #15
 8593 0070 013B     		subs	r3, r3, #1
 8594 0072 63F01F03 		orn	r3, r3, #31
 8595 0076 8DF80430 		strb	r3, [sp, #4]
1703:.\Protocolo.c **** 		buffer[5]=0xF7;	
 8596              		.loc 1 1703 0
 8597 007a F723     		movs	r3, #247
 8598 007c 8DF80530 		strb	r3, [sp, #5]
1704:.\Protocolo.c **** 		if(ppux10==0){
 8599              		.loc 1 1704 0
 8600 0080 874B     		ldr	r3, .L675+8
 8601 0082 1B78     		ldrb	r3, [r3]	@ zero_extendqisi2
 8602 0084 CBB9     		cbnz	r3, .L651
1705:.\Protocolo.c **** 			for(x=6;x<(6+teclas1);x++){
 8603              		.loc 1 1705 0
 8604 0086 0622     		movs	r2, #6
 8605 0088 864B     		ldr	r3, .L675+12
 8606 008a 1A60     		str	r2, [r3]
 8607 008c 864D     		ldr	r5, .L675+16
 8608 008e 1946     		mov	r1, r3
1706:.\Protocolo.c **** 				buffer[x]=(0xE0|(Buffer_LCD1.valor[teclas1-(x-6)]&0x0F));
 8609              		.loc 1 1706 0
 8610 0090 864E     		ldr	r6, .L675+20
1705:.\Protocolo.c **** 			for(x=6;x<(6+teclas1);x++){
 8611              		.loc 1 1705 0
 8612 0092 0CE0     		b	.L652
 8613              	.LVL671:
 8614              	.L653:
 8615              		.loc 1 1706 0 discriminator 2
 8616 0094 D21A     		subs	r2, r2, r3
 8617 0096 3244     		add	r2, r2, r6
 8618 0098 507C     		ldrb	r0, [r2, #17]	@ zero_extendqisi2
 8619 009a 04AA     		add	r2, sp, #16
 8620 009c 1A44     		add	r2, r2, r3
 8621 009e 00F00F00 		and	r0, r0, #15
 8622 00a2 60F01F00 		orn	r0, r0, #31
ARM GAS  C:\Users\RECEPC~1\AppData\Local\Temp\ccNG63cQ.s 			page 193


 8623 00a6 02F8100C 		strb	r0, [r2, #-16]
1705:.\Protocolo.c **** 			for(x=6;x<(6+teclas1);x++){
 8624              		.loc 1 1705 0 discriminator 2
 8625 00aa 0133     		adds	r3, r3, #1
 8626 00ac 0B60     		str	r3, [r1]
 8627              	.L652:
1705:.\Protocolo.c **** 			for(x=6;x<(6+teclas1);x++){
 8628              		.loc 1 1705 0 is_stmt 0 discriminator 1
 8629 00ae 2A78     		ldrb	r2, [r5]	@ zero_extendqisi2
 8630 00b0 901D     		adds	r0, r2, #6
 8631 00b2 0B68     		ldr	r3, [r1]
 8632 00b4 9842     		cmp	r0, r3
 8633 00b6 EDD8     		bhi	.L653
 8634 00b8 1BE0     		b	.L654
 8635              	.LVL672:
 8636              	.L651:
1707:.\Protocolo.c **** 			}
1708:.\Protocolo.c **** 		}
1709:.\Protocolo.c **** 		else{
1710:.\Protocolo.c **** 			teclas1=teclas1-1;
 8637              		.loc 1 1710 0 is_stmt 1
 8638 00ba 7B4B     		ldr	r3, .L675+16
 8639 00bc 1D78     		ldrb	r5, [r3]	@ zero_extendqisi2
 8640 00be 013D     		subs	r5, r5, #1
 8641 00c0 EDB2     		uxtb	r5, r5
 8642 00c2 1D70     		strb	r5, [r3]
1711:.\Protocolo.c **** 			for(x=6;x<(6+teclas1);x++){
 8643              		.loc 1 1711 0
 8644 00c4 0622     		movs	r2, #6
 8645 00c6 774B     		ldr	r3, .L675+12
 8646 00c8 1A60     		str	r2, [r3]
 8647 00ca AE18     		adds	r6, r5, r2
 8648 00cc 1A46     		mov	r2, r3
1712:.\Protocolo.c **** 				buffer[x]=(0xE0|(Buffer_LCD1.valor[teclas1-(x-6)]&0x0F));
 8649              		.loc 1 1712 0
 8650 00ce 774F     		ldr	r7, .L675+20
1711:.\Protocolo.c **** 			for(x=6;x<(6+teclas1);x++){
 8651              		.loc 1 1711 0
 8652 00d0 0CE0     		b	.L655
 8653              	.LVL673:
 8654              	.L656:
 8655              		.loc 1 1712 0 discriminator 2
 8656 00d2 E91A     		subs	r1, r5, r3
 8657 00d4 3944     		add	r1, r1, r7
 8658 00d6 487C     		ldrb	r0, [r1, #17]	@ zero_extendqisi2
 8659 00d8 04A9     		add	r1, sp, #16
 8660 00da 1944     		add	r1, r1, r3
 8661 00dc 00F00F00 		and	r0, r0, #15
 8662 00e0 60F01F00 		orn	r0, r0, #31
 8663 00e4 01F8100C 		strb	r0, [r1, #-16]
1711:.\Protocolo.c **** 			for(x=6;x<(6+teclas1);x++){
 8664              		.loc 1 1711 0 discriminator 2
 8665 00e8 0133     		adds	r3, r3, #1
 8666 00ea 1360     		str	r3, [r2]
 8667              	.L655:
1711:.\Protocolo.c **** 			for(x=6;x<(6+teclas1);x++){
 8668              		.loc 1 1711 0 is_stmt 0 discriminator 1
ARM GAS  C:\Users\RECEPC~1\AppData\Local\Temp\ccNG63cQ.s 			page 194


 8669 00ec 1368     		ldr	r3, [r2]
 8670 00ee 9E42     		cmp	r6, r3
 8671 00f0 EFD8     		bhi	.L656
 8672              	.L654:
1713:.\Protocolo.c **** 			}	
1714:.\Protocolo.c **** 		}
1715:.\Protocolo.c **** 		for(y=x;y<=9;y++){
 8673              		.loc 1 1715 0 is_stmt 1
 8674 00f2 6C4B     		ldr	r3, .L675+12
 8675 00f4 1A68     		ldr	r2, [r3]
 8676 00f6 6E4B     		ldr	r3, .L675+24
 8677 00f8 1A60     		str	r2, [r3]
 8678 00fa 1A46     		mov	r2, r3
1716:.\Protocolo.c **** 			buffer[y]=0xE0;	
 8679              		.loc 1 1716 0
 8680 00fc E020     		movs	r0, #224
1715:.\Protocolo.c **** 		for(y=x;y<=9;y++){
 8681              		.loc 1 1715 0
 8682 00fe 05E0     		b	.L657
 8683              	.L658:
 8684              		.loc 1 1716 0 discriminator 2
 8685 0100 04A9     		add	r1, sp, #16
 8686 0102 1944     		add	r1, r1, r3
 8687 0104 01F8100C 		strb	r0, [r1, #-16]
1715:.\Protocolo.c **** 		for(y=x;y<=9;y++){
 8688              		.loc 1 1715 0 discriminator 2
 8689 0108 0133     		adds	r3, r3, #1
 8690 010a 1360     		str	r3, [r2]
 8691              	.L657:
1715:.\Protocolo.c **** 		for(y=x;y<=9;y++){
 8692              		.loc 1 1715 0 is_stmt 0 discriminator 1
 8693 010c 1368     		ldr	r3, [r2]
 8694 010e 092B     		cmp	r3, #9
 8695 0110 F6D9     		bls	.L658
1717:.\Protocolo.c **** 		}
1718:.\Protocolo.c **** 		buffer[10]=0xFB;
 8696              		.loc 1 1718 0 is_stmt 1
 8697 0112 FB23     		movs	r3, #251
 8698 0114 8DF80A30 		strb	r3, [sp, #10]
1719:.\Protocolo.c **** 		for(x=0;x<=10;x++){
 8699              		.loc 1 1719 0
 8700 0118 0022     		movs	r2, #0
 8701 011a 624B     		ldr	r3, .L675+12
 8702 011c 1A60     		str	r2, [r3]
 8703 011e 1A46     		mov	r2, r3
 8704 0120 0CE0     		b	.L659
 8705              	.L660:
1720:.\Protocolo.c **** 			buffer[11]+=(buffer[x]&0x0F);	
 8706              		.loc 1 1720 0 discriminator 2
 8707 0122 04A9     		add	r1, sp, #16
 8708 0124 1944     		add	r1, r1, r3
 8709 0126 11F8101C 		ldrb	r1, [r1, #-16]	@ zero_extendqisi2
 8710 012a 01F00F01 		and	r1, r1, #15
 8711 012e 9DF80B00 		ldrb	r0, [sp, #11]	@ zero_extendqisi2
 8712 0132 0144     		add	r1, r1, r0
 8713 0134 8DF80B10 		strb	r1, [sp, #11]
1719:.\Protocolo.c **** 		for(x=0;x<=10;x++){
ARM GAS  C:\Users\RECEPC~1\AppData\Local\Temp\ccNG63cQ.s 			page 195


 8714              		.loc 1 1719 0 discriminator 2
 8715 0138 0133     		adds	r3, r3, #1
 8716 013a 1360     		str	r3, [r2]
 8717              	.L659:
1719:.\Protocolo.c **** 		for(x=0;x<=10;x++){
 8718              		.loc 1 1719 0 is_stmt 0 discriminator 1
 8719 013c 1368     		ldr	r3, [r2]
 8720 013e 0A2B     		cmp	r3, #10
 8721 0140 EFD9     		bls	.L660
1721:.\Protocolo.c **** 		}
1722:.\Protocolo.c **** 		buffer[11]=(((~buffer[11])+1)&0x0F)|0xE0;
 8722              		.loc 1 1722 0 is_stmt 1
 8723 0142 9DF80B30 		ldrb	r3, [sp, #11]	@ zero_extendqisi2
 8724 0146 5B42     		negs	r3, r3
 8725 0148 03F00F03 		and	r3, r3, #15
 8726 014c 63F01F03 		orn	r3, r3, #31
 8727 0150 8DF80B30 		strb	r3, [sp, #11]
1723:.\Protocolo.c **** 		buffer[12]=0xF0;
 8728              		.loc 1 1723 0
 8729 0154 F023     		movs	r3, #240
 8730 0156 8DF80C30 		strb	r3, [sp, #12]
 8731              	.LVL674:
 8732              	.L650:
1724:.\Protocolo.c **** 		size=12;
1725:.\Protocolo.c **** 	}
1726:.\Protocolo.c **** 	if(versurt==7){
 8733              		.loc 1 1726 0
 8734 015a 4F4B     		ldr	r3, .L675
 8735 015c 1B78     		ldrb	r3, [r3]	@ zero_extendqisi2
 8736 015e 072B     		cmp	r3, #7
 8737 0160 64D1     		bne	.L671
1727:.\Protocolo.c **** 		buffer[0]=0xFF;
 8738              		.loc 1 1727 0
 8739 0162 FF23     		movs	r3, #255
 8740 0164 8DF80030 		strb	r3, [sp]
1728:.\Protocolo.c **** 		buffer[1]=0xE3;
 8741              		.loc 1 1728 0
 8742 0168 E323     		movs	r3, #227
 8743 016a 8DF80130 		strb	r3, [sp, #1]
1729:.\Protocolo.c **** 		buffer[2]=0xF4;
 8744              		.loc 1 1729 0
 8745 016e F423     		movs	r3, #244
 8746 0170 8DF80230 		strb	r3, [sp, #2]
1730:.\Protocolo.c **** 		buffer[3]=0xF6;
 8747              		.loc 1 1730 0
 8748 0174 F623     		movs	r3, #246
 8749 0176 8DF80330 		strb	r3, [sp, #3]
1731:.\Protocolo.c **** 		buffer[4]=(0xE0|((rventa.producto&0x0f)-1));
 8750              		.loc 1 1731 0
 8751 017a 484B     		ldr	r3, .L675+4
 8752 017c 93F8A330 		ldrb	r3, [r3, #163]	@ zero_extendqisi2
 8753 0180 03F00F03 		and	r3, r3, #15
 8754 0184 013B     		subs	r3, r3, #1
 8755 0186 63F01F03 		orn	r3, r3, #31
 8756 018a 8DF80430 		strb	r3, [sp, #4]
1732:.\Protocolo.c **** 		buffer[5]=0xF7;		
 8757              		.loc 1 1732 0
ARM GAS  C:\Users\RECEPC~1\AppData\Local\Temp\ccNG63cQ.s 			page 196


 8758 018e F723     		movs	r3, #247
 8759 0190 8DF80530 		strb	r3, [sp, #5]
1733:.\Protocolo.c **** 		for(x=6;x<(6+teclas1);x++){
 8760              		.loc 1 1733 0
 8761 0194 0622     		movs	r2, #6
 8762 0196 434B     		ldr	r3, .L675+12
 8763 0198 1A60     		str	r2, [r3]
 8764 019a 434D     		ldr	r5, .L675+16
 8765 019c 1946     		mov	r1, r3
1734:.\Protocolo.c **** 			buffer[x]=(0xE0|(Buffer_LCD1.valor[teclas1-(x-6)]&0x0F));
 8766              		.loc 1 1734 0
 8767 019e 434E     		ldr	r6, .L675+20
1733:.\Protocolo.c **** 		for(x=6;x<(6+teclas1);x++){
 8768              		.loc 1 1733 0
 8769 01a0 0CE0     		b	.L662
 8770              	.L663:
 8771              		.loc 1 1734 0 discriminator 2
 8772 01a2 D21A     		subs	r2, r2, r3
 8773 01a4 3244     		add	r2, r2, r6
 8774 01a6 507C     		ldrb	r0, [r2, #17]	@ zero_extendqisi2
 8775 01a8 04AA     		add	r2, sp, #16
 8776 01aa 1A44     		add	r2, r2, r3
 8777 01ac 00F00F00 		and	r0, r0, #15
 8778 01b0 60F01F00 		orn	r0, r0, #31
 8779 01b4 02F8100C 		strb	r0, [r2, #-16]
1733:.\Protocolo.c **** 		for(x=6;x<(6+teclas1);x++){
 8780              		.loc 1 1733 0 discriminator 2
 8781 01b8 0133     		adds	r3, r3, #1
 8782 01ba 0B60     		str	r3, [r1]
 8783              	.L662:
1733:.\Protocolo.c **** 		for(x=6;x<(6+teclas1);x++){
 8784              		.loc 1 1733 0 is_stmt 0 discriminator 1
 8785 01bc 2A78     		ldrb	r2, [r5]	@ zero_extendqisi2
 8786 01be 901D     		adds	r0, r2, #6
 8787 01c0 0B68     		ldr	r3, [r1]
 8788 01c2 9842     		cmp	r0, r3
 8789 01c4 EDD8     		bhi	.L663
1735:.\Protocolo.c **** 		}	
1736:.\Protocolo.c **** 		for(y=x;y<=11;y++){
 8790              		.loc 1 1736 0 is_stmt 1
 8791 01c6 3A4A     		ldr	r2, .L675+24
 8792 01c8 1360     		str	r3, [r2]
1737:.\Protocolo.c **** 			buffer[y]=0xE0;	
 8793              		.loc 1 1737 0
 8794 01ca E020     		movs	r0, #224
1736:.\Protocolo.c **** 		for(y=x;y<=11;y++){
 8795              		.loc 1 1736 0
 8796 01cc 05E0     		b	.L664
 8797              	.L665:
 8798              		.loc 1 1737 0 discriminator 2
 8799 01ce 04A9     		add	r1, sp, #16
 8800 01d0 1944     		add	r1, r1, r3
 8801 01d2 01F8100C 		strb	r0, [r1, #-16]
1736:.\Protocolo.c **** 		for(y=x;y<=11;y++){
 8802              		.loc 1 1736 0 discriminator 2
 8803 01d6 0133     		adds	r3, r3, #1
 8804 01d8 1360     		str	r3, [r2]
ARM GAS  C:\Users\RECEPC~1\AppData\Local\Temp\ccNG63cQ.s 			page 197


 8805              	.L664:
1736:.\Protocolo.c **** 		for(y=x;y<=11;y++){
 8806              		.loc 1 1736 0 is_stmt 0 discriminator 1
 8807 01da 1368     		ldr	r3, [r2]
 8808 01dc 0B2B     		cmp	r3, #11
 8809 01de F6D9     		bls	.L665
1738:.\Protocolo.c **** 		}		
1739:.\Protocolo.c **** 		buffer[12]=0xFB;
 8810              		.loc 1 1739 0 is_stmt 1
 8811 01e0 FB23     		movs	r3, #251
 8812 01e2 8DF80C30 		strb	r3, [sp, #12]
1740:.\Protocolo.c **** 		for(x=0;x<=12;x++){
 8813              		.loc 1 1740 0
 8814 01e6 0022     		movs	r2, #0
 8815 01e8 2E4B     		ldr	r3, .L675+12
 8816 01ea 1A60     		str	r2, [r3]
 8817 01ec 1A46     		mov	r2, r3
 8818 01ee 0CE0     		b	.L666
 8819              	.L667:
1741:.\Protocolo.c **** 			buffer[13]+=(buffer[x]&0x0F);	
 8820              		.loc 1 1741 0 discriminator 2
 8821 01f0 04A9     		add	r1, sp, #16
 8822 01f2 1944     		add	r1, r1, r3
 8823 01f4 11F8101C 		ldrb	r1, [r1, #-16]	@ zero_extendqisi2
 8824 01f8 01F00F01 		and	r1, r1, #15
 8825 01fc 9DF80D00 		ldrb	r0, [sp, #13]	@ zero_extendqisi2
 8826 0200 0144     		add	r1, r1, r0
 8827 0202 8DF80D10 		strb	r1, [sp, #13]
1740:.\Protocolo.c **** 		for(x=0;x<=12;x++){
 8828              		.loc 1 1740 0 discriminator 2
 8829 0206 0133     		adds	r3, r3, #1
 8830 0208 1360     		str	r3, [r2]
 8831              	.L666:
1740:.\Protocolo.c **** 		for(x=0;x<=12;x++){
 8832              		.loc 1 1740 0 is_stmt 0 discriminator 1
 8833 020a 1368     		ldr	r3, [r2]
 8834 020c 0C2B     		cmp	r3, #12
 8835 020e EFD9     		bls	.L667
1742:.\Protocolo.c **** 		}
1743:.\Protocolo.c **** 		buffer[13]=(((~buffer[13])+1)&0x0F)|0xE0;
 8836              		.loc 1 1743 0 is_stmt 1
 8837 0210 9DF80D30 		ldrb	r3, [sp, #13]	@ zero_extendqisi2
 8838 0214 5B42     		negs	r3, r3
 8839 0216 03F00F03 		and	r3, r3, #15
 8840 021a 63F01F03 		orn	r3, r3, #31
 8841 021e 8DF80D30 		strb	r3, [sp, #13]
1744:.\Protocolo.c **** 		buffer[14]=0xF0;
 8842              		.loc 1 1744 0
 8843 0222 F023     		movs	r3, #240
 8844 0224 8DF80E30 		strb	r3, [sp, #14]
 8845              	.LVL675:
1745:.\Protocolo.c **** 		size=14;
 8846              		.loc 1 1745 0
 8847 0228 0E26     		movs	r6, #14
 8848 022a 00E0     		b	.L661
 8849              	.LVL676:
 8850              	.L671:
ARM GAS  C:\Users\RECEPC~1\AppData\Local\Temp\ccNG63cQ.s 			page 198


 8851 022c 0C26     		movs	r6, #12
 8852              	.LVL677:
 8853              	.L661:
1746:.\Protocolo.c **** 	}	
1747:.\Protocolo.c **** 	Surtidor_PutChar(0x20|dir);	
 8854              		.loc 1 1747 0
 8855 022e 44F02000 		orr	r0, r4, #32
 8856 0232 FFF7FEFF 		bl	Surtidor_PutChar
 8857              	.LVL678:
1748:.\Protocolo.c ****     CyDelay(100);
 8858              		.loc 1 1748 0
 8859 0236 6420     		movs	r0, #100
 8860 0238 FFF7FEFF 		bl	CyDelay
 8861              	.LVL679:
1749:.\Protocolo.c ****     if(Surtidor_GetRxBufferSize()>=1){
 8862              		.loc 1 1749 0
 8863 023c FFF7FEFF 		bl	Surtidor_GetRxBufferSize
 8864              	.LVL680:
 8865 0240 08B3     		cbz	r0, .L672
1750:.\Protocolo.c **** 		if(Surtidor_ReadRxData()==(0xD0|dir)){
 8866              		.loc 1 1750 0
 8867 0242 FFF7FEFF 		bl	Surtidor_ReadRxData
 8868              	.LVL681:
 8869 0246 44F0D003 		orr	r3, r4, #208
 8870 024a 9842     		cmp	r0, r3
 8871 024c 1DD1     		bne	.L673
1751:.\Protocolo.c ****             Surtidor_ClearRxBuffer();
 8872              		.loc 1 1751 0
 8873 024e FFF7FEFF 		bl	Surtidor_ClearRxBuffer
 8874              	.LVL682:
1752:.\Protocolo.c ****             for(x=0;x<=size;x++){
 8875              		.loc 1 1752 0
 8876 0252 0022     		movs	r2, #0
 8877 0254 134B     		ldr	r3, .L675+12
 8878 0256 1A60     		str	r2, [r3]
 8879 0258 1D46     		mov	r5, r3
 8880 025a 08E0     		b	.L669
 8881              	.L670:
1753:.\Protocolo.c ****                	Surtidor_PutChar(buffer[x]); 	
 8882              		.loc 1 1753 0 discriminator 2
 8883 025c 04AA     		add	r2, sp, #16
 8884 025e 1344     		add	r3, r3, r2
 8885 0260 13F8100C 		ldrb	r0, [r3, #-16]	@ zero_extendqisi2
 8886 0264 FFF7FEFF 		bl	Surtidor_PutChar
 8887              	.LVL683:
1752:.\Protocolo.c ****             for(x=0;x<=size;x++){
 8888              		.loc 1 1752 0 discriminator 2
 8889 0268 2B68     		ldr	r3, [r5]
 8890 026a 0133     		adds	r3, r3, #1
 8891 026c 2B60     		str	r3, [r5]
 8892              	.L669:
1752:.\Protocolo.c ****             for(x=0;x<=size;x++){
 8893              		.loc 1 1752 0 is_stmt 0 discriminator 1
 8894 026e 2B68     		ldr	r3, [r5]
 8895 0270 9E42     		cmp	r6, r3
 8896 0272 F3D2     		bcs	.L670
1754:.\Protocolo.c ****             }
ARM GAS  C:\Users\RECEPC~1\AppData\Local\Temp\ccNG63cQ.s 			page 199


1755:.\Protocolo.c **** 			CyDelay(50);
 8897              		.loc 1 1755 0 is_stmt 1
 8898 0274 3220     		movs	r0, #50
 8899 0276 FFF7FEFF 		bl	CyDelay
 8900              	.LVL684:
1756:.\Protocolo.c **** 			if(get_estado(dir)==0){
 8901              		.loc 1 1756 0
 8902 027a 2046     		mov	r0, r4
 8903 027c FFF7FEFF 		bl	get_estado
 8904              	.LVL685:
 8905 0280 0346     		mov	r3, r0
 8906 0282 20B9     		cbnz	r0, .L674
 8907 0284 04E0     		b	.L668
 8908              	.L672:
1757:.\Protocolo.c **** 				return 0;
1758:.\Protocolo.c **** 			}
1759:.\Protocolo.c **** 			else{
1760:.\Protocolo.c **** 				return 1;
1761:.\Protocolo.c **** 			}
1762:.\Protocolo.c **** 		}
1763:.\Protocolo.c **** 		else{
1764:.\Protocolo.c **** 			return 0;
1765:.\Protocolo.c **** 		}
1766:.\Protocolo.c **** 	}
1767:.\Protocolo.c **** 	else{
1768:.\Protocolo.c **** 		return 0;	
 8909              		.loc 1 1768 0
 8910 0286 0023     		movs	r3, #0
 8911 0288 02E0     		b	.L668
 8912              	.L673:
1764:.\Protocolo.c **** 			return 0;
 8913              		.loc 1 1764 0
 8914 028a 0023     		movs	r3, #0
 8915 028c 00E0     		b	.L668
 8916              	.L674:
1760:.\Protocolo.c **** 				return 1;
 8917              		.loc 1 1760 0
 8918 028e 0123     		movs	r3, #1
 8919              	.L668:
1769:.\Protocolo.c **** 	}
1770:.\Protocolo.c **** }
 8920              		.loc 1 1770 0
 8921 0290 1846     		mov	r0, r3
 8922 0292 05B0     		add	sp, sp, #20
 8923              		@ sp needed
 8924 0294 F0BD     		pop	{r4, r5, r6, r7, pc}
 8925              	.LVL686:
 8926              	.L676:
 8927 0296 00BF     		.align	2
 8928              	.L675:
 8929 0298 00000000 		.word	versurt
 8930 029c 00000000 		.word	rventa
 8931 02a0 00000000 		.word	ppux10
 8932 02a4 00000000 		.word	x
 8933 02a8 00000000 		.word	teclas1
 8934 02ac 00000000 		.word	Buffer_LCD1
 8935 02b0 00000000 		.word	y
ARM GAS  C:\Users\RECEPC~1\AppData\Local\Temp\ccNG63cQ.s 			page 200


 8936              		.cfi_endproc
 8937              	.LFE71:
 8938              		.size	cambiar_precio, .-cambiar_precio
 8939              		.global	msn_totalcero
 8940              		.global	msn_tventas
 8941              		.global	msn_lecaan
 8942              		.global	msn_lecact
 8943              		.global	msn_tk
 8944              		.global	msn_td
 8945              		.global	msn_te
 8946              		.global	msn_tc
 8947              		.comm	rventa2,225,4
 8948              		.comm	rventa,225,4
 8949              		.comm	lado,8,4
 8950              		.comm	producto,1,1
 8951              		.comm	producto2,1,1
 8952              		.comm	producto1,1,1
 8953              		.comm	modulo,400,4
 8954              		.comm	w,4,4
 8955              		.comm	z,4,4
 8956              		.comm	y,4,4
 8957              		.comm	x,4,4
 8958              		.comm	estado_0,1,1
 8959              		.comm	Buffer_LCD2,152,4
 8960              		.comm	Buffer_LCD1,152,4
 8961              		.comm	no_venta,4,4
 8962              		.comm	id_venta,6,4
 8963              		.comm	id_corte,2,2
 8964              		.comm	copia_recibo,2,4
 8965              		.comm	print2,2,4
 8966              		.comm	print1,2,4
 8967              		.comm	crc_total,1,1
 8968              		.comm	pos_ibutton,1,1
 8969              		.comm	fecha_corte,6,4
 8970              		.comm	decimalD,1,1
 8971              		.comm	decimalV,1,1
 8972              		.comm	tipo_imp,2,4
 8973              		.comm	bandera,2,4
 8974              		.comm	ppux10,1,1
 8975              		.comm	teclado2,1,1
 8976              		.comm	teclado,1,1
 8977              		.comm	resultado,14,4
 8978              		.comm	buffer_i2c,64,4
 8979              		.comm	kero2,1,1
 8980              		.comm	diesel2,1,1
 8981              		.comm	corriente2,1,1
 8982              		.comm	extra2,1,1
 8983              		.comm	kero,1,1
 8984              		.comm	corriente,1,1
 8985              		.comm	diesel,1,1
 8986              		.comm	extra,1,1
 8987              		.comm	versurt,1,1
 8988              		.comm	version,1,1
 8989              		.comm	comas2,1,1
 8990              		.comm	comas1,1,1
 8991              		.comm	teclas2,1,1
 8992              		.comm	teclas1,1,1
ARM GAS  C:\Users\RECEPC~1\AppData\Local\Temp\ccNG63cQ.s 			page 201


 8993              		.comm	cont1,1,1
 8994              		.comm	ok_LCD2,1,1
 8995              		.comm	ok_LCD1,1,1
 8996              		.comm	count_protector2,1,1
 8997              		.comm	count_protector,1,1
 8998              		.comm	flujo_LCD2,1,1
 8999              		.comm	flujo_LCD,1,1
 9000              		.section	.rodata
 9001              		.align	2
 9002              		.set	.LANCHOR0,. + 0
 9003              	.LC0:
 9004 0000 FF       		.byte	-1
 9005 0001 E9       		.byte	-23
 9006 0002 FE       		.byte	-2
 9007 0003 E0       		.byte	-32
 9008 0004 E1       		.byte	-31
 9009 0005 E0       		.byte	-32
 9010 0006 FB       		.byte	-5
 9011 0007 EE       		.byte	-18
 9012 0008 F0       		.byte	-16
 9013 0009 000000   		.data
 9014              		.align	2
 9015              		.set	.LANCHOR1,. + 0
 9016              		.type	msn_tc, %object
 9017              		.size	msn_tc, 17
 9018              	msn_tc:
 9019 0000 44494553 		.ascii	"DIESEL P TOTAL\000"
 9019      454C2050 
 9019      20544F54 
 9019      414C00
 9020 000f 0000     		.space	2
 9021 0011 000000   		.space	3
 9022              		.type	msn_lecact, %object
 9023              		.size	msn_lecact, 15
 9024              	msn_lecact:
 9025 0014 43757272 		.ascii	"Current Value: "
 9025      656E7420 
 9025      56616C75 
 9025      653A20
 9026 0023 00       		.space	1
 9027              		.type	msn_lecaan, %object
 9028              		.size	msn_lecaan, 17
 9029              	msn_lecaan:
 9030 0024 50726576 		.ascii	"Previous Value:  "
 9030      696F7573 
 9030      2056616C 
 9030      75653A20 
 9030      20
 9031 0035 000000   		.space	3
 9032              		.type	msn_tventas, %object
 9033              		.size	msn_tventas, 18
 9034              	msn_tventas:
 9035 0038 546F7461 		.ascii	"Total Amount: H   "
 9035      6C20416D 
 9035      6F756E74 
 9035      3A204820 
 9035      2020
ARM GAS  C:\Users\RECEPC~1\AppData\Local\Temp\ccNG63cQ.s 			page 202


 9036 004a 0000     		.space	2
 9037              		.type	msn_td, %object
 9038              		.size	msn_td, 14
 9039              	msn_td:
 9040 004c 53414E53 		.ascii	"SANS P TOTAL\000"
 9040      20502054 
 9040      4F54414C 
 9040      00
 9041 0059 00       		.space	1
 9042 005a 0000     		.space	2
 9043              		.type	msn_te, %object
 9044              		.size	msn_te, 13
 9045              	msn_te:
 9046 005c 44494553 		.ascii	"DIESEL TOTAL\000"
 9046      454C2054 
 9046      4F54414C 
 9046      00
 9047 0069 000000   		.space	3
 9048              		.type	msn_tk, %object
 9049              		.size	msn_tk, 10
 9050              	msn_tk:
 9051 006c 4B45524F 		.ascii	"KERO TOTAL"
 9051      20544F54 
 9051      414C
 9052 0076 0000     		.space	2
 9053              		.type	msn_totalcero, %object
 9054              		.size	msn_totalcero, 15
 9055              	msn_totalcero:
 9056 0078 4E4F2054 		.ascii	"NO TOMO TOTALES"
 9056      4F4D4F20 
 9056      544F5441 
 9056      4C4553
 9057 0087 00       		.text
 9058              	.Letext0:
 9059              		.file 2 "c:\\program files (x86)\\cypress\\psoc creator\\3.2\\psoc creator\\import\\gnu\\arm\\4.8.
 9060              		.file 3 "c:\\program files (x86)\\cypress\\psoc creator\\3.2\\psoc creator\\import\\gnu\\arm\\4.8.
 9061              		.file 4 "Generated_Source\\PSoC5/cytypes.h"
 9062              		.file 5 ".\\VariablesG.h"
 9063              		.file 6 "Generated_Source\\PSoC5/Surtidor.h"
 9064              		.file 7 "Generated_Source\\PSoC5/core_cm3.h"
 9065              		.file 8 "Generated_Source\\PSoC5/CyLib.h"
 9066              		.file 9 ".\\i2c.h"
 9067              		.file 10 ".\\Print.h"
 9068              		.section	.debug_info,"",%progbits
 9069              	.Ldebug_info0:
 9070 0000 94370000 		.4byte	0x3794
 9071 0004 0400     		.2byte	0x4
 9072 0006 00000000 		.4byte	.Ldebug_abbrev0
 9073 000a 04       		.byte	0x4
 9074 000b 01       		.uleb128 0x1
 9075 000c 9B030000 		.4byte	.LASF134
 9076 0010 01       		.byte	0x1
 9077 0011 96010000 		.4byte	.LASF135
 9078 0015 F3020000 		.4byte	.LASF136
 9079 0019 00000000 		.4byte	.Ldebug_ranges0+0
 9080 001d 00000000 		.4byte	0
 9081 0021 00000000 		.4byte	.Ldebug_line0
ARM GAS  C:\Users\RECEPC~1\AppData\Local\Temp\ccNG63cQ.s 			page 203


 9082 0025 02       		.uleb128 0x2
 9083 0026 01       		.byte	0x1
 9084 0027 06       		.byte	0x6
 9085 0028 40050000 		.4byte	.LASF0
 9086 002c 02       		.uleb128 0x2
 9087 002d 01       		.byte	0x1
 9088 002e 08       		.byte	0x8
 9089 002f 17050000 		.4byte	.LASF1
 9090 0033 02       		.uleb128 0x2
 9091 0034 02       		.byte	0x2
 9092 0035 05       		.byte	0x5
 9093 0036 45040000 		.4byte	.LASF2
 9094 003a 02       		.uleb128 0x2
 9095 003b 02       		.byte	0x2
 9096 003c 07       		.byte	0x7
 9097 003d 62050000 		.4byte	.LASF3
 9098 0041 03       		.uleb128 0x3
 9099 0042 7F000000 		.4byte	.LASF9
 9100 0046 02       		.byte	0x2
 9101 0047 37       		.byte	0x37
 9102 0048 4C000000 		.4byte	0x4c
 9103 004c 02       		.uleb128 0x2
 9104 004d 04       		.byte	0x4
 9105 004e 05       		.byte	0x5
 9106 004f 4F040000 		.4byte	.LASF4
 9107 0053 02       		.uleb128 0x2
 9108 0054 04       		.byte	0x4
 9109 0055 07       		.byte	0x7
 9110 0056 E0040000 		.4byte	.LASF5
 9111 005a 02       		.uleb128 0x2
 9112 005b 08       		.byte	0x8
 9113 005c 05       		.byte	0x5
 9114 005d D2020000 		.4byte	.LASF6
 9115 0061 02       		.uleb128 0x2
 9116 0062 08       		.byte	0x8
 9117 0063 07       		.byte	0x7
 9118 0064 70010000 		.4byte	.LASF7
 9119 0068 04       		.uleb128 0x4
 9120 0069 04       		.byte	0x4
 9121 006a 05       		.byte	0x5
 9122 006b 696E7400 		.ascii	"int\000"
 9123 006f 02       		.uleb128 0x2
 9124 0070 04       		.byte	0x4
 9125 0071 07       		.byte	0x7
 9126 0072 51000000 		.4byte	.LASF8
 9127 0076 03       		.uleb128 0x3
 9128 0077 0F050000 		.4byte	.LASF10
 9129 007b 03       		.byte	0x3
 9130 007c 41       		.byte	0x41
 9131 007d 41000000 		.4byte	0x41
 9132 0081 03       		.uleb128 0x3
 9133 0082 A8050000 		.4byte	.LASF11
 9134 0086 04       		.byte	0x4
 9135 0087 B4       		.byte	0xb4
 9136 0088 2C000000 		.4byte	0x2c
 9137 008c 03       		.uleb128 0x3
 9138 008d 87020000 		.4byte	.LASF12
ARM GAS  C:\Users\RECEPC~1\AppData\Local\Temp\ccNG63cQ.s 			page 204


 9139 0091 04       		.byte	0x4
 9140 0092 B5       		.byte	0xb5
 9141 0093 3A000000 		.4byte	0x3a
 9142 0097 03       		.uleb128 0x3
 9143 0098 5E030000 		.4byte	.LASF13
 9144 009c 04       		.byte	0x4
 9145 009d B6       		.byte	0xb6
 9146 009e 53000000 		.4byte	0x53
 9147 00a2 02       		.uleb128 0x2
 9148 00a3 04       		.byte	0x4
 9149 00a4 04       		.byte	0x4
 9150 00a5 3E010000 		.4byte	.LASF14
 9151 00a9 02       		.uleb128 0x2
 9152 00aa 08       		.byte	0x8
 9153 00ab 04       		.byte	0x4
 9154 00ac AE050000 		.4byte	.LASF15
 9155 00b0 02       		.uleb128 0x2
 9156 00b1 01       		.byte	0x1
 9157 00b2 08       		.byte	0x8
 9158 00b3 74020000 		.4byte	.LASF16
 9159 00b7 02       		.uleb128 0x2
 9160 00b8 04       		.byte	0x4
 9161 00b9 07       		.byte	0x7
 9162 00ba D7040000 		.4byte	.LASF17
 9163 00be 05       		.uleb128 0x5
 9164 00bf 4A000000 		.4byte	.LASF28
 9165 00c3 98       		.byte	0x98
 9166 00c4 05       		.byte	0x5
 9167 00c5 80       		.byte	0x80
 9168 00c6 65010000 		.4byte	0x165
 9169 00ca 06       		.uleb128 0x6
 9170 00cb 59030000 		.4byte	.LASF18
 9171 00cf 05       		.byte	0x5
 9172 00d0 81       		.byte	0x81
 9173 00d1 81000000 		.4byte	0x81
 9174 00d5 00       		.byte	0
 9175 00d6 07       		.uleb128 0x7
 9176 00d7 706F7300 		.ascii	"pos\000"
 9177 00db 05       		.byte	0x5
 9178 00dc 82       		.byte	0x82
 9179 00dd 81000000 		.4byte	0x81
 9180 00e1 01       		.byte	0x1
 9181 00e2 06       		.uleb128 0x6
 9182 00e3 A2000000 		.4byte	.LASF19
 9183 00e7 05       		.byte	0x5
 9184 00e8 83       		.byte	0x83
 9185 00e9 81000000 		.4byte	0x81
 9186 00ed 02       		.byte	0x2
 9187 00ee 06       		.uleb128 0x6
 9188 00ef 2D010000 		.4byte	.LASF20
 9189 00f3 05       		.byte	0x5
 9190 00f4 84       		.byte	0x84
 9191 00f5 81000000 		.4byte	0x81
 9192 00f9 03       		.byte	0x3
 9193 00fa 07       		.uleb128 0x7
 9194 00fb 6B6D00   		.ascii	"km\000"
 9195 00fe 05       		.byte	0x5
ARM GAS  C:\Users\RECEPC~1\AppData\Local\Temp\ccNG63cQ.s 			page 205


 9196 00ff 85       		.byte	0x85
 9197 0100 65010000 		.4byte	0x165
 9198 0104 04       		.byte	0x4
 9199 0105 06       		.uleb128 0x6
 9200 0106 4C050000 		.4byte	.LASF21
 9201 010a 05       		.byte	0x5
 9202 010b 86       		.byte	0x86
 9203 010c 75010000 		.4byte	0x175
 9204 0110 0B       		.byte	0xb
 9205 0111 07       		.uleb128 0x7
 9206 0112 696400   		.ascii	"id\000"
 9207 0115 05       		.byte	0x5
 9208 0116 87       		.byte	0x87
 9209 0117 75010000 		.4byte	0x175
 9210 011b 29       		.byte	0x29
 9211 011c 06       		.uleb128 0x6
 9212 011d 8F010000 		.4byte	.LASF22
 9213 0121 05       		.byte	0x5
 9214 0122 88       		.byte	0x88
 9215 0123 75010000 		.4byte	0x175
 9216 0127 47       		.byte	0x47
 9217 0128 06       		.uleb128 0x6
 9218 0129 DE010000 		.4byte	.LASF23
 9219 012d 05       		.byte	0x5
 9220 012e 89       		.byte	0x89
 9221 012f 75010000 		.4byte	0x175
 9222 0133 65       		.byte	0x65
 9223 0134 06       		.uleb128 0x6
 9224 0135 89000000 		.4byte	.LASF24
 9225 0139 05       		.byte	0x5
 9226 013a 8A       		.byte	0x8a
 9227 013b 81000000 		.4byte	0x81
 9228 013f 83       		.byte	0x83
 9229 0140 06       		.uleb128 0x6
 9230 0141 3E030000 		.4byte	.LASF25
 9231 0145 05       		.byte	0x5
 9232 0146 8B       		.byte	0x8b
 9233 0147 85010000 		.4byte	0x185
 9234 014b 84       		.byte	0x84
 9235 014c 06       		.uleb128 0x6
 9236 014d 00000000 		.4byte	.LASF26
 9237 0151 05       		.byte	0x5
 9238 0152 8C       		.byte	0x8c
 9239 0153 95010000 		.4byte	0x195
 9240 0157 8E       		.byte	0x8e
 9241 0158 06       		.uleb128 0x6
 9242 0159 A3020000 		.4byte	.LASF27
 9243 015d 05       		.byte	0x5
 9244 015e 8D       		.byte	0x8d
 9245 015f 81000000 		.4byte	0x81
 9246 0163 97       		.byte	0x97
 9247 0164 00       		.byte	0
 9248 0165 08       		.uleb128 0x8
 9249 0166 81000000 		.4byte	0x81
 9250 016a 75010000 		.4byte	0x175
 9251 016e 09       		.uleb128 0x9
 9252 016f B7000000 		.4byte	0xb7
ARM GAS  C:\Users\RECEPC~1\AppData\Local\Temp\ccNG63cQ.s 			page 206


 9253 0173 06       		.byte	0x6
 9254 0174 00       		.byte	0
 9255 0175 08       		.uleb128 0x8
 9256 0176 81000000 		.4byte	0x81
 9257 017a 85010000 		.4byte	0x185
 9258 017e 09       		.uleb128 0x9
 9259 017f B7000000 		.4byte	0xb7
 9260 0183 1D       		.byte	0x1d
 9261 0184 00       		.byte	0
 9262 0185 08       		.uleb128 0x8
 9263 0186 81000000 		.4byte	0x81
 9264 018a 95010000 		.4byte	0x195
 9265 018e 09       		.uleb128 0x9
 9266 018f B7000000 		.4byte	0xb7
 9267 0193 09       		.byte	0x9
 9268 0194 00       		.byte	0
 9269 0195 08       		.uleb128 0x8
 9270 0196 81000000 		.4byte	0x81
 9271 019a A5010000 		.4byte	0x1a5
 9272 019e 09       		.uleb128 0x9
 9273 019f B7000000 		.4byte	0xb7
 9274 01a3 08       		.byte	0x8
 9275 01a4 00       		.byte	0
 9276 01a5 0A       		.uleb128 0xa
 9277 01a6 706F7300 		.ascii	"pos\000"
 9278 01aa 04       		.byte	0x4
 9279 01ab 05       		.byte	0x5
 9280 01ac 95       		.byte	0x95
 9281 01ad E2010000 		.4byte	0x1e2
 9282 01b1 07       		.uleb128 0x7
 9283 01b2 64697200 		.ascii	"dir\000"
 9284 01b6 05       		.byte	0x5
 9285 01b7 96       		.byte	0x96
 9286 01b8 81000000 		.4byte	0x81
 9287 01bc 00       		.byte	0
 9288 01bd 06       		.uleb128 0x6
 9289 01be 88030000 		.4byte	.LASF29
 9290 01c2 05       		.byte	0x5
 9291 01c3 97       		.byte	0x97
 9292 01c4 81000000 		.4byte	0x81
 9293 01c8 01       		.byte	0x1
 9294 01c9 06       		.uleb128 0x6
 9295 01ca CD050000 		.4byte	.LASF30
 9296 01ce 05       		.byte	0x5
 9297 01cf 98       		.byte	0x98
 9298 01d0 81000000 		.4byte	0x81
 9299 01d4 02       		.byte	0x2
 9300 01d5 06       		.uleb128 0x6
 9301 01d6 14000000 		.4byte	.LASF31
 9302 01da 05       		.byte	0x5
 9303 01db 99       		.byte	0x99
 9304 01dc 81000000 		.4byte	0x81
 9305 01e0 03       		.byte	0x3
 9306 01e1 00       		.byte	0
 9307 01e2 05       		.uleb128 0x5
 9308 01e3 7E040000 		.4byte	.LASF32
 9309 01e7 08       		.byte	0x8
ARM GAS  C:\Users\RECEPC~1\AppData\Local\Temp\ccNG63cQ.s 			page 207


 9310 01e8 05       		.byte	0x5
 9311 01e9 9D       		.byte	0x9d
 9312 01ea 03020000 		.4byte	0x203
 9313 01ee 07       		.uleb128 0x7
 9314 01ef 6100     		.ascii	"a\000"
 9315 01f1 05       		.byte	0x5
 9316 01f2 9E       		.byte	0x9e
 9317 01f3 A5010000 		.4byte	0x1a5
 9318 01f7 00       		.byte	0
 9319 01f8 07       		.uleb128 0x7
 9320 01f9 6200     		.ascii	"b\000"
 9321 01fb 05       		.byte	0x5
 9322 01fc 9F       		.byte	0x9f
 9323 01fd A5010000 		.4byte	0x1a5
 9324 0201 04       		.byte	0x4
 9325 0202 00       		.byte	0
 9326 0203 05       		.uleb128 0x5
 9327 0204 6E030000 		.4byte	.LASF33
 9328 0208 E1       		.byte	0xe1
 9329 0209 05       		.byte	0x5
 9330 020a A2       		.byte	0xa2
 9331 020b E8020000 		.4byte	0x2e8
 9332 020f 06       		.uleb128 0x6
 9333 0210 1E040000 		.4byte	.LASF34
 9334 0214 05       		.byte	0x5
 9335 0215 A3       		.byte	0xa3
 9336 0216 75010000 		.4byte	0x175
 9337 021a 00       		.byte	0
 9338 021b 07       		.uleb128 0x7
 9339 021c 6E697400 		.ascii	"nit\000"
 9340 0220 05       		.byte	0x5
 9341 0221 A4       		.byte	0xa4
 9342 0222 E8020000 		.4byte	0x2e8
 9343 0226 1E       		.byte	0x1e
 9344 0227 06       		.uleb128 0x6
 9345 0228 E9020000 		.4byte	.LASF35
 9346 022c 05       		.byte	0x5
 9347 022d A5       		.byte	0xa5
 9348 022e F8020000 		.4byte	0x2f8
 9349 0232 2D       		.byte	0x2d
 9350 0233 06       		.uleb128 0x6
 9351 0234 18020000 		.4byte	.LASF36
 9352 0238 05       		.byte	0x5
 9353 0239 A6       		.byte	0xa6
 9354 023a 08030000 		.4byte	0x308
 9355 023e 2F       		.byte	0x2f
 9356 023f 06       		.uleb128 0x6
 9357 0240 17010000 		.4byte	.LASF37
 9358 0244 05       		.byte	0x5
 9359 0245 A7       		.byte	0xa7
 9360 0246 75010000 		.4byte	0x175
 9361 024a 43       		.byte	0x43
 9362 024b 06       		.uleb128 0x6
 9363 024c 64010000 		.4byte	.LASF38
 9364 0250 05       		.byte	0x5
 9365 0251 A8       		.byte	0xa8
 9366 0252 75010000 		.4byte	0x175
ARM GAS  C:\Users\RECEPC~1\AppData\Local\Temp\ccNG63cQ.s 			page 208


 9367 0256 61       		.byte	0x61
 9368 0257 06       		.uleb128 0x6
 9369 0258 6A010000 		.4byte	.LASF39
 9370 025c 05       		.byte	0x5
 9371 025d A9       		.byte	0xa9
 9372 025e 75010000 		.4byte	0x175
 9373 0262 7F       		.byte	0x7f
 9374 0263 06       		.uleb128 0x6
 9375 0264 30050000 		.4byte	.LASF40
 9376 0268 05       		.byte	0x5
 9377 0269 AA       		.byte	0xaa
 9378 026a 18030000 		.4byte	0x318
 9379 026e 9D       		.byte	0x9d
 9380 026f 06       		.uleb128 0x6
 9381 0270 C7000000 		.4byte	.LASF41
 9382 0274 05       		.byte	0x5
 9383 0275 AB       		.byte	0xab
 9384 0276 F8020000 		.4byte	0x2f8
 9385 027a A0       		.byte	0xa0
 9386 027b 06       		.uleb128 0x6
 9387 027c FD000000 		.4byte	.LASF42
 9388 0280 05       		.byte	0x5
 9389 0281 AC       		.byte	0xac
 9390 0282 81000000 		.4byte	0x81
 9391 0286 A2       		.byte	0xa2
 9392 0287 06       		.uleb128 0x6
 9393 0288 E0020000 		.4byte	.LASF43
 9394 028c 05       		.byte	0x5
 9395 028d AD       		.byte	0xad
 9396 028e 81000000 		.4byte	0x81
 9397 0292 A3       		.byte	0xa3
 9398 0293 07       		.uleb128 0x7
 9399 0294 70707500 		.ascii	"ppu\000"
 9400 0298 05       		.byte	0x5
 9401 0299 AE       		.byte	0xae
 9402 029a 65010000 		.4byte	0x165
 9403 029e A4       		.byte	0xa4
 9404 029f 06       		.uleb128 0x6
 9405 02a0 75030000 		.4byte	.LASF44
 9406 02a4 05       		.byte	0x5
 9407 02a5 AF       		.byte	0xaf
 9408 02a6 95010000 		.4byte	0x195
 9409 02aa AB       		.byte	0xab
 9410 02ab 06       		.uleb128 0x6
 9411 02ac 0A020000 		.4byte	.LASF45
 9412 02b0 05       		.byte	0x5
 9413 02b1 B0       		.byte	0xb0
 9414 02b2 95010000 		.4byte	0x195
 9415 02b6 B4       		.byte	0xb4
 9416 02b7 06       		.uleb128 0x6
 9417 02b8 31020000 		.4byte	.LASF46
 9418 02bc 05       		.byte	0x5
 9419 02bd B1       		.byte	0xb1
 9420 02be 28030000 		.4byte	0x328
 9421 02c2 BD       		.byte	0xbd
 9422 02c3 06       		.uleb128 0x6
 9423 02c4 F5000000 		.4byte	.LASF47
ARM GAS  C:\Users\RECEPC~1\AppData\Local\Temp\ccNG63cQ.s 			page 209


 9424 02c8 05       		.byte	0x5
 9425 02c9 B2       		.byte	0xb2
 9426 02ca 28030000 		.4byte	0x328
 9427 02ce CA       		.byte	0xca
 9428 02cf 06       		.uleb128 0x6
 9429 02d0 00000000 		.4byte	.LASF26
 9430 02d4 05       		.byte	0x5
 9431 02d5 B3       		.byte	0xb3
 9432 02d6 95010000 		.4byte	0x195
 9433 02da D7       		.byte	0xd7
 9434 02db 06       		.uleb128 0x6
 9435 02dc CD050000 		.4byte	.LASF30
 9436 02e0 05       		.byte	0x5
 9437 02e1 B4       		.byte	0xb4
 9438 02e2 81000000 		.4byte	0x81
 9439 02e6 E0       		.byte	0xe0
 9440 02e7 00       		.byte	0
 9441 02e8 08       		.uleb128 0x8
 9442 02e9 81000000 		.4byte	0x81
 9443 02ed F8020000 		.4byte	0x2f8
 9444 02f1 09       		.uleb128 0x9
 9445 02f2 B7000000 		.4byte	0xb7
 9446 02f6 0E       		.byte	0xe
 9447 02f7 00       		.byte	0
 9448 02f8 08       		.uleb128 0x8
 9449 02f9 81000000 		.4byte	0x81
 9450 02fd 08030000 		.4byte	0x308
 9451 0301 09       		.uleb128 0x9
 9452 0302 B7000000 		.4byte	0xb7
 9453 0306 01       		.byte	0x1
 9454 0307 00       		.byte	0
 9455 0308 08       		.uleb128 0x8
 9456 0309 81000000 		.4byte	0x81
 9457 030d 18030000 		.4byte	0x318
 9458 0311 09       		.uleb128 0x9
 9459 0312 B7000000 		.4byte	0xb7
 9460 0316 13       		.byte	0x13
 9461 0317 00       		.byte	0
 9462 0318 08       		.uleb128 0x8
 9463 0319 81000000 		.4byte	0x81
 9464 031d 28030000 		.4byte	0x328
 9465 0321 09       		.uleb128 0x9
 9466 0322 B7000000 		.4byte	0xb7
 9467 0326 02       		.byte	0x2
 9468 0327 00       		.byte	0
 9469 0328 08       		.uleb128 0x8
 9470 0329 81000000 		.4byte	0x81
 9471 032d 38030000 		.4byte	0x338
 9472 0331 09       		.uleb128 0x9
 9473 0332 B7000000 		.4byte	0xb7
 9474 0336 0C       		.byte	0xc
 9475 0337 00       		.byte	0
 9476 0338 0B       		.uleb128 0xb
 9477 0339 02020000 		.4byte	.LASF48
 9478 033d 01       		.byte	0x1
 9479 033e 4D       		.byte	0x4d
 9480 033f 81000000 		.4byte	0x81
ARM GAS  C:\Users\RECEPC~1\AppData\Local\Temp\ccNG63cQ.s 			page 210


 9481 0343 00000000 		.4byte	.LFB63
 9482 0347 7C000000 		.4byte	.LFE63-.LFB63
 9483 034b 01       		.uleb128 0x1
 9484 034c 9C       		.byte	0x9c
 9485 034d AB030000 		.4byte	0x3ab
 9486 0351 0C       		.uleb128 0xc
 9487 0352 7800     		.ascii	"x\000"
 9488 0354 01       		.byte	0x1
 9489 0355 4E       		.byte	0x4e
 9490 0356 81000000 		.4byte	0x81
 9491 035a 00000000 		.4byte	.LLST0
 9492 035e 0D       		.uleb128 0xd
 9493 035f 18000000 		.4byte	.LVL2
 9494 0363 B6360000 		.4byte	0x36b6
 9495 0367 72030000 		.4byte	0x372
 9496 036b 0E       		.uleb128 0xe
 9497 036c 01       		.uleb128 0x1
 9498 036d 50       		.byte	0x50
 9499 036e 02       		.uleb128 0x2
 9500 036f 74       		.byte	0x74
 9501 0370 00       		.sleb128 0
 9502 0371 00       		.byte	0
 9503 0372 0D       		.uleb128 0xd
 9504 0373 1E000000 		.4byte	.LVL3
 9505 0377 C7360000 		.4byte	0x36c7
 9506 037b 86030000 		.4byte	0x386
 9507 037f 0E       		.uleb128 0xe
 9508 0380 01       		.uleb128 0x1
 9509 0381 50       		.byte	0x50
 9510 0382 02       		.uleb128 0x2
 9511 0383 76       		.byte	0x76
 9512 0384 00       		.sleb128 0
 9513 0385 00       		.byte	0
 9514 0386 0F       		.uleb128 0xf
 9515 0387 22000000 		.4byte	.LVL4
 9516 038b D8360000 		.4byte	0x36d8
 9517 038f 0F       		.uleb128 0xf
 9518 0390 30000000 		.4byte	.LVL5
 9519 0394 E3360000 		.4byte	0x36e3
 9520 0398 0F       		.uleb128 0xf
 9521 0399 34000000 		.4byte	.LVL6
 9522 039d D8360000 		.4byte	0x36d8
 9523 03a1 0F       		.uleb128 0xf
 9524 03a2 42000000 		.4byte	.LVL7
 9525 03a6 E3360000 		.4byte	0x36e3
 9526 03aa 00       		.byte	0
 9527 03ab 0B       		.uleb128 0xb
 9528 03ac 25050000 		.4byte	.LASF49
 9529 03b0 01       		.byte	0x1
 9530 03b1 7B       		.byte	0x7b
 9531 03b2 81000000 		.4byte	0x81
 9532 03b6 00000000 		.4byte	.LFB64
 9533 03ba 26000000 		.4byte	.LFE64-.LFB64
 9534 03be 01       		.uleb128 0x1
 9535 03bf 9C       		.byte	0x9c
 9536 03c0 1B040000 		.4byte	0x41b
 9537 03c4 10       		.uleb128 0x10
ARM GAS  C:\Users\RECEPC~1\AppData\Local\Temp\ccNG63cQ.s 			page 211


 9538 03c5 64697200 		.ascii	"dir\000"
 9539 03c9 01       		.byte	0x1
 9540 03ca 7B       		.byte	0x7b
 9541 03cb 81000000 		.4byte	0x81
 9542 03cf 37000000 		.4byte	.LLST1
 9543 03d3 11       		.uleb128 0x11
 9544 03d4 88030000 		.4byte	.LASF29
 9545 03d8 01       		.byte	0x1
 9546 03d9 7C       		.byte	0x7c
 9547 03da 81000000 		.4byte	0x81
 9548 03de 58000000 		.4byte	.LLST2
 9549 03e2 0F       		.uleb128 0xf
 9550 03e3 06000000 		.4byte	.LVL15
 9551 03e7 B6360000 		.4byte	0x36b6
 9552 03eb 0D       		.uleb128 0xd
 9553 03ec 0C000000 		.4byte	.LVL16
 9554 03f0 C7360000 		.4byte	0x36c7
 9555 03f4 FF030000 		.4byte	0x3ff
 9556 03f8 0E       		.uleb128 0xe
 9557 03f9 01       		.uleb128 0x1
 9558 03fa 50       		.byte	0x50
 9559 03fb 02       		.uleb128 0x2
 9560 03fc 08       		.byte	0x8
 9561 03fd 32       		.byte	0x32
 9562 03fe 00       		.byte	0
 9563 03ff 0F       		.uleb128 0xf
 9564 0400 10000000 		.4byte	.LVL17
 9565 0404 D8360000 		.4byte	0x36d8
 9566 0408 0F       		.uleb128 0xf
 9567 0409 16000000 		.4byte	.LVL18
 9568 040d EA360000 		.4byte	0x36ea
 9569 0411 0F       		.uleb128 0xf
 9570 0412 1E000000 		.4byte	.LVL20
 9571 0416 E3360000 		.4byte	0x36e3
 9572 041a 00       		.byte	0
 9573 041b 12       		.uleb128 0x12
 9574 041c 36050000 		.4byte	.LASF53
 9575 0420 01       		.byte	0x1
 9576 0421 99       		.byte	0x99
 9577 0422 00000000 		.4byte	.LFB65
 9578 0426 1C000000 		.4byte	.LFE65-.LFB65
 9579 042a 01       		.uleb128 0x1
 9580 042b 9C       		.byte	0x9c
 9581 042c 83040000 		.4byte	0x483
 9582 0430 10       		.uleb128 0x10
 9583 0431 76616C00 		.ascii	"val\000"
 9584 0435 01       		.byte	0x1
 9585 0436 99       		.byte	0x99
 9586 0437 81000000 		.4byte	0x81
 9587 043b 6B000000 		.4byte	.LLST3
 9588 043f 13       		.uleb128 0x13
 9589 0440 88030000 		.4byte	.LASF29
 9590 0444 01       		.byte	0x1
 9591 0445 9A       		.byte	0x9a
 9592 0446 81000000 		.4byte	0x81
 9593 044a 0F       		.uleb128 0xf
 9594 044b 06000000 		.4byte	.LVL23
ARM GAS  C:\Users\RECEPC~1\AppData\Local\Temp\ccNG63cQ.s 			page 212


 9595 044f B6360000 		.4byte	0x36b6
 9596 0453 0D       		.uleb128 0xd
 9597 0454 0C000000 		.4byte	.LVL24
 9598 0458 C7360000 		.4byte	0x36c7
 9599 045c 67040000 		.4byte	0x467
 9600 0460 0E       		.uleb128 0xe
 9601 0461 01       		.uleb128 0x1
 9602 0462 50       		.byte	0x50
 9603 0463 02       		.uleb128 0x2
 9604 0464 08       		.byte	0x8
 9605 0465 C8       		.byte	0xc8
 9606 0466 00       		.byte	0
 9607 0467 0F       		.uleb128 0xf
 9608 0468 10000000 		.4byte	.LVL25
 9609 046c D8360000 		.4byte	0x36d8
 9610 0470 0F       		.uleb128 0xf
 9611 0471 16000000 		.4byte	.LVL26
 9612 0475 EA360000 		.4byte	0x36ea
 9613 0479 0F       		.uleb128 0xf
 9614 047a 1A000000 		.4byte	.LVL27
 9615 047e E3360000 		.4byte	0x36e3
 9616 0482 00       		.byte	0
 9617 0483 0B       		.uleb128 0xb
 9618 0484 BD040000 		.4byte	.LASF50
 9619 0488 01       		.byte	0x1
 9620 0489 B6       		.byte	0xb6
 9621 048a 81000000 		.4byte	0x81
 9622 048e 00000000 		.4byte	.LFB66
 9623 0492 E8000000 		.4byte	.LFE66-.LFB66
 9624 0496 01       		.uleb128 0x1
 9625 0497 9C       		.byte	0x9c
 9626 0498 66050000 		.4byte	0x566
 9627 049c 10       		.uleb128 0x10
 9628 049d 76616C00 		.ascii	"val\000"
 9629 04a1 01       		.byte	0x1
 9630 04a2 B6       		.byte	0xb6
 9631 04a3 81000000 		.4byte	0x81
 9632 04a7 8C000000 		.4byte	.LLST4
 9633 04ab 14       		.uleb128 0x14
 9634 04ac B5050000 		.4byte	.LASF51
 9635 04b0 01       		.byte	0x1
 9636 04b1 B7       		.byte	0xb7
 9637 04b2 66050000 		.4byte	0x566
 9638 04b6 02       		.uleb128 0x2
 9639 04b7 91       		.byte	0x91
 9640 04b8 64       		.sleb128 -28
 9641 04b9 0C       		.uleb128 0xc
 9642 04ba 7800     		.ascii	"x\000"
 9643 04bc 01       		.byte	0x1
 9644 04bd B7       		.byte	0xb7
 9645 04be 81000000 		.4byte	0x81
 9646 04c2 AD000000 		.4byte	.LLST5
 9647 04c6 14       		.uleb128 0x14
 9648 04c7 5B020000 		.4byte	.LASF52
 9649 04cb 01       		.byte	0x1
 9650 04cc B7       		.byte	0xb7
 9651 04cd 95010000 		.4byte	0x195
ARM GAS  C:\Users\RECEPC~1\AppData\Local\Temp\ccNG63cQ.s 			page 213


 9652 04d1 02       		.uleb128 0x2
 9653 04d2 91       		.byte	0x91
 9654 04d3 58       		.sleb128 -40
 9655 04d4 0D       		.uleb128 0xd
 9656 04d5 1C000000 		.4byte	.LVL30
 9657 04d9 B6360000 		.4byte	0x36b6
 9658 04dd EB040000 		.4byte	0x4eb
 9659 04e1 0E       		.uleb128 0xe
 9660 04e2 01       		.uleb128 0x1
 9661 04e3 50       		.byte	0x50
 9662 04e4 05       		.uleb128 0x5
 9663 04e5 74       		.byte	0x74
 9664 04e6 00       		.sleb128 0
 9665 04e7 08       		.byte	0x8
 9666 04e8 20       		.byte	0x20
 9667 04e9 21       		.byte	0x21
 9668 04ea 00       		.byte	0
 9669 04eb 0D       		.uleb128 0xd
 9670 04ec 28000000 		.4byte	.LVL31
 9671 04f0 C7360000 		.4byte	0x36c7
 9672 04f4 FF040000 		.4byte	0x4ff
 9673 04f8 0E       		.uleb128 0xe
 9674 04f9 01       		.uleb128 0x1
 9675 04fa 50       		.byte	0x50
 9676 04fb 02       		.uleb128 0x2
 9677 04fc 08       		.byte	0x8
 9678 04fd 64       		.byte	0x64
 9679 04fe 00       		.byte	0
 9680 04ff 0F       		.uleb128 0xf
 9681 0500 2C000000 		.4byte	.LVL32
 9682 0504 D8360000 		.4byte	0x36d8
 9683 0508 0F       		.uleb128 0xf
 9684 0509 34000000 		.4byte	.LVL33
 9685 050d EA360000 		.4byte	0x36ea
 9686 0511 0F       		.uleb128 0xf
 9687 0512 40000000 		.4byte	.LVL34
 9688 0516 E3360000 		.4byte	0x36e3
 9689 051a 0D       		.uleb128 0xd
 9690 051b 50000000 		.4byte	.LVL36
 9691 051f B6360000 		.4byte	0x36b6
 9692 0523 36050000 		.4byte	0x536
 9693 0527 0E       		.uleb128 0xe
 9694 0528 01       		.uleb128 0x1
 9695 0529 50       		.byte	0x50
 9696 052a 0A       		.uleb128 0xa
 9697 052b 91       		.byte	0x91
 9698 052c 00       		.sleb128 0
 9699 052d 74       		.byte	0x74
 9700 052e 00       		.sleb128 0
 9701 052f 22       		.byte	0x22
 9702 0530 08       		.byte	0x8
 9703 0531 28       		.byte	0x28
 9704 0532 1C       		.byte	0x1c
 9705 0533 94       		.byte	0x94
 9706 0534 01       		.byte	0x1
 9707 0535 00       		.byte	0
 9708 0536 0D       		.uleb128 0xd
ARM GAS  C:\Users\RECEPC~1\AppData\Local\Temp\ccNG63cQ.s 			page 214


 9709 0537 5E000000 		.4byte	.LVL39
 9710 053b C7360000 		.4byte	0x36c7
 9711 053f 4A050000 		.4byte	0x54a
 9712 0543 0E       		.uleb128 0xe
 9713 0544 01       		.uleb128 0x1
 9714 0545 50       		.byte	0x50
 9715 0546 02       		.uleb128 0x2
 9716 0547 08       		.byte	0x8
 9717 0548 C8       		.byte	0xc8
 9718 0549 00       		.byte	0
 9719 054a 0F       		.uleb128 0xf
 9720 054b 62000000 		.4byte	.LVL40
 9721 054f D8360000 		.4byte	0x36d8
 9722 0553 0F       		.uleb128 0xf
 9723 0554 6E000000 		.4byte	.LVL41
 9724 0558 EA360000 		.4byte	0x36ea
 9725 055c 0F       		.uleb128 0xf
 9726 055d 86000000 		.4byte	.LVL45
 9727 0561 E3360000 		.4byte	0x36e3
 9728 0565 00       		.byte	0
 9729 0566 08       		.uleb128 0x8
 9730 0567 81000000 		.4byte	0x81
 9731 056b 76050000 		.4byte	0x576
 9732 056f 09       		.uleb128 0x9
 9733 0570 B7000000 		.4byte	0xb7
 9734 0574 12       		.byte	0x12
 9735 0575 00       		.byte	0
 9736 0576 12       		.uleb128 0x12
 9737 0577 53020000 		.4byte	.LASF54
 9738 057b 01       		.byte	0x1
 9739 057c F7       		.byte	0xf7
 9740 057d 00000000 		.4byte	.LFB67
 9741 0581 12000000 		.4byte	.LFE67-.LFB67
 9742 0585 01       		.uleb128 0x1
 9743 0586 9C       		.byte	0x9c
 9744 0587 B4050000 		.4byte	0x5b4
 9745 058b 10       		.uleb128 0x10
 9746 058c 76616C00 		.ascii	"val\000"
 9747 0590 01       		.byte	0x1
 9748 0591 F7       		.byte	0xf7
 9749 0592 81000000 		.4byte	0x81
 9750 0596 07010000 		.4byte	.LLST6
 9751 059a 0F       		.uleb128 0xf
 9752 059b 0A000000 		.4byte	.LVL51
 9753 059f B6360000 		.4byte	0x36b6
 9754 05a3 15       		.uleb128 0x15
 9755 05a4 10000000 		.4byte	.LVL52
 9756 05a8 C7360000 		.4byte	0x36c7
 9757 05ac 0E       		.uleb128 0xe
 9758 05ad 01       		.uleb128 0x1
 9759 05ae 50       		.byte	0x50
 9760 05af 02       		.uleb128 0x2
 9761 05b0 08       		.byte	0x8
 9762 05b1 C8       		.byte	0xc8
 9763 05b2 00       		.byte	0
 9764 05b3 00       		.byte	0
 9765 05b4 16       		.uleb128 0x16
ARM GAS  C:\Users\RECEPC~1\AppData\Local\Temp\ccNG63cQ.s 			page 215


 9766 05b5 12020000 		.4byte	.LASF55
 9767 05b9 01       		.byte	0x1
 9768 05ba 0C01     		.2byte	0x10c
 9769 05bc 81000000 		.4byte	0x81
 9770 05c0 00000000 		.4byte	.LFB68
 9771 05c4 E8010000 		.4byte	.LFE68-.LFB68
 9772 05c8 01       		.uleb128 0x1
 9773 05c9 9C       		.byte	0x9c
 9774 05ca 08070000 		.4byte	0x708
 9775 05ce 17       		.uleb128 0x17
 9776 05cf 76616C00 		.ascii	"val\000"
 9777 05d3 01       		.byte	0x1
 9778 05d4 0C01     		.2byte	0x10c
 9779 05d6 81000000 		.4byte	0x81
 9780 05da 28010000 		.4byte	.LLST7
 9781 05de 18       		.uleb128 0x18
 9782 05df F2040000 		.4byte	.LASF56
 9783 05e3 01       		.byte	0x1
 9784 05e4 0D01     		.2byte	0x10d
 9785 05e6 08070000 		.4byte	0x708
 9786 05ea 02       		.uleb128 0x2
 9787 05eb 91       		.byte	0x91
 9788 05ec 48       		.sleb128 -56
 9789 05ed 19       		.uleb128 0x19
 9790 05ee 7800     		.ascii	"x\000"
 9791 05f0 01       		.byte	0x1
 9792 05f1 0D01     		.2byte	0x10d
 9793 05f3 81000000 		.4byte	0x81
 9794 05f7 49010000 		.4byte	.LLST8
 9795 05fb 19       		.uleb128 0x19
 9796 05fc 706F7300 		.ascii	"pos\000"
 9797 0600 01       		.byte	0x1
 9798 0601 0D01     		.2byte	0x10d
 9799 0603 81000000 		.4byte	0x81
 9800 0607 BE020000 		.4byte	.LLST9
 9801 060b 19       		.uleb128 0x19
 9802 060c 7900     		.ascii	"y\000"
 9803 060e 01       		.byte	0x1
 9804 060f 0D01     		.2byte	0x10d
 9805 0611 81000000 		.4byte	0x81
 9806 0615 0D030000 		.4byte	.LLST10
 9807 0619 0D       		.uleb128 0xd
 9808 061a 0E000000 		.4byte	.LVL56
 9809 061e B6360000 		.4byte	0x36b6
 9810 0622 30060000 		.4byte	0x630
 9811 0626 0E       		.uleb128 0xe
 9812 0627 01       		.uleb128 0x1
 9813 0628 50       		.byte	0x50
 9814 0629 05       		.uleb128 0x5
 9815 062a 75       		.byte	0x75
 9816 062b 00       		.sleb128 0
 9817 062c 08       		.byte	0x8
 9818 062d 40       		.byte	0x40
 9819 062e 21       		.byte	0x21
 9820 062f 00       		.byte	0
 9821 0630 0D       		.uleb128 0xd
 9822 0631 16000000 		.4byte	.LVL57
ARM GAS  C:\Users\RECEPC~1\AppData\Local\Temp\ccNG63cQ.s 			page 216


 9823 0635 C7360000 		.4byte	0x36c7
 9824 0639 45060000 		.4byte	0x645
 9825 063d 0E       		.uleb128 0xe
 9826 063e 01       		.uleb128 0x1
 9827 063f 50       		.byte	0x50
 9828 0640 03       		.uleb128 0x3
 9829 0641 0A       		.byte	0xa
 9830 0642 2C01     		.2byte	0x12c
 9831 0644 00       		.byte	0
 9832 0645 0F       		.uleb128 0xf
 9833 0646 1A000000 		.4byte	.LVL58
 9834 064a D8360000 		.4byte	0x36d8
 9835 064e 0F       		.uleb128 0xf
 9836 064f 26000000 		.4byte	.LVL60
 9837 0653 EA360000 		.4byte	0x36ea
 9838 0657 0F       		.uleb128 0xf
 9839 0658 3A000000 		.4byte	.LVL65
 9840 065c D8360000 		.4byte	0x36d8
 9841 0660 0F       		.uleb128 0xf
 9842 0661 42000000 		.4byte	.LVL66
 9843 0665 E3360000 		.4byte	0x36e3
 9844 0669 0D       		.uleb128 0xd
 9845 066a 88010000 		.4byte	.LVL108
 9846 066e F5360000 		.4byte	0x36f5
 9847 0672 84060000 		.4byte	0x684
 9848 0676 0E       		.uleb128 0xe
 9849 0677 01       		.uleb128 0x1
 9850 0678 51       		.byte	0x51
 9851 0679 02       		.uleb128 0x2
 9852 067a 74       		.byte	0x74
 9853 067b 00       		.sleb128 0
 9854 067c 0E       		.uleb128 0xe
 9855 067d 01       		.uleb128 0x1
 9856 067e 50       		.byte	0x50
 9857 067f 03       		.uleb128 0x3
 9858 0680 0A       		.byte	0xa
 9859 0681 C901     		.2byte	0x1c9
 9860 0683 00       		.byte	0
 9861 0684 0D       		.uleb128 0xd
 9862 0685 94010000 		.4byte	.LVL109
 9863 0689 F5360000 		.4byte	0x36f5
 9864 068d 9F060000 		.4byte	0x69f
 9865 0691 0E       		.uleb128 0xe
 9866 0692 01       		.uleb128 0x1
 9867 0693 51       		.byte	0x51
 9868 0694 02       		.uleb128 0x2
 9869 0695 74       		.byte	0x74
 9870 0696 09       		.sleb128 9
 9871 0697 0E       		.uleb128 0xe
 9872 0698 01       		.uleb128 0x1
 9873 0699 50       		.byte	0x50
 9874 069a 03       		.uleb128 0x3
 9875 069b 0A       		.byte	0xa
 9876 069c D201     		.2byte	0x1d2
 9877 069e 00       		.byte	0
 9878 069f 0D       		.uleb128 0xd
 9879 06a0 9E010000 		.4byte	.LVL110
ARM GAS  C:\Users\RECEPC~1\AppData\Local\Temp\ccNG63cQ.s 			page 217


 9880 06a4 F5360000 		.4byte	0x36f5
 9881 06a8 BA060000 		.4byte	0x6ba
 9882 06ac 0E       		.uleb128 0xe
 9883 06ad 01       		.uleb128 0x1
 9884 06ae 51       		.byte	0x51
 9885 06af 02       		.uleb128 0x2
 9886 06b0 74       		.byte	0x74
 9887 06b1 79       		.sleb128 -7
 9888 06b2 0E       		.uleb128 0xe
 9889 06b3 01       		.uleb128 0x1
 9890 06b4 50       		.byte	0x50
 9891 06b5 03       		.uleb128 0x3
 9892 06b6 0A       		.byte	0xa
 9893 06b7 DB01     		.2byte	0x1db
 9894 06b9 00       		.byte	0
 9895 06ba 0D       		.uleb128 0xd
 9896 06bb AE010000 		.4byte	.LVL113
 9897 06bf F5360000 		.4byte	0x36f5
 9898 06c3 D5060000 		.4byte	0x6d5
 9899 06c7 0E       		.uleb128 0xe
 9900 06c8 01       		.uleb128 0x1
 9901 06c9 51       		.byte	0x51
 9902 06ca 02       		.uleb128 0x2
 9903 06cb 74       		.byte	0x74
 9904 06cc 00       		.sleb128 0
 9905 06cd 0E       		.uleb128 0xe
 9906 06ce 01       		.uleb128 0x1
 9907 06cf 50       		.byte	0x50
 9908 06d0 03       		.uleb128 0x3
 9909 06d1 0A       		.byte	0xa
 9910 06d2 E201     		.2byte	0x1e2
 9911 06d4 00       		.byte	0
 9912 06d5 0D       		.uleb128 0xd
 9913 06d6 B8010000 		.4byte	.LVL114
 9914 06da F5360000 		.4byte	0x36f5
 9915 06de F0060000 		.4byte	0x6f0
 9916 06e2 0E       		.uleb128 0xe
 9917 06e3 01       		.uleb128 0x1
 9918 06e4 51       		.byte	0x51
 9919 06e5 02       		.uleb128 0x2
 9920 06e6 74       		.byte	0x74
 9921 06e7 79       		.sleb128 -7
 9922 06e8 0E       		.uleb128 0xe
 9923 06e9 01       		.uleb128 0x1
 9924 06ea 50       		.byte	0x50
 9925 06eb 03       		.uleb128 0x3
 9926 06ec 0A       		.byte	0xa
 9927 06ed F401     		.2byte	0x1f4
 9928 06ef 00       		.byte	0
 9929 06f0 15       		.uleb128 0x15
 9930 06f1 C4010000 		.4byte	.LVL115
 9931 06f5 F5360000 		.4byte	0x36f5
 9932 06f9 0E       		.uleb128 0xe
 9933 06fa 01       		.uleb128 0x1
 9934 06fb 51       		.byte	0x51
 9935 06fc 02       		.uleb128 0x2
 9936 06fd 74       		.byte	0x74
ARM GAS  C:\Users\RECEPC~1\AppData\Local\Temp\ccNG63cQ.s 			page 218


 9937 06fe 09       		.sleb128 9
 9938 06ff 0E       		.uleb128 0xe
 9939 0700 01       		.uleb128 0x1
 9940 0701 50       		.byte	0x50
 9941 0702 03       		.uleb128 0x3
 9942 0703 0A       		.byte	0xa
 9943 0704 EB01     		.2byte	0x1eb
 9944 0706 00       		.byte	0
 9945 0707 00       		.byte	0
 9946 0708 08       		.uleb128 0x8
 9947 0709 81000000 		.4byte	0x81
 9948 070d 18070000 		.4byte	0x718
 9949 0711 09       		.uleb128 0x9
 9950 0712 B7000000 		.4byte	0xb7
 9951 0716 26       		.byte	0x26
 9952 0717 00       		.byte	0
 9953 0718 16       		.uleb128 0x16
 9954 0719 72040000 		.4byte	.LASF57
 9955 071d 01       		.byte	0x1
 9956 071e 6B01     		.2byte	0x16b
 9957 0720 81000000 		.4byte	0x81
 9958 0724 00000000 		.4byte	.LFB69
 9959 0728 F02C0000 		.4byte	.LFE69-.LFB69
 9960 072c 01       		.uleb128 0x1
 9961 072d 9C       		.byte	0x9c
 9962 072e 05300000 		.4byte	0x3005
 9963 0732 17       		.uleb128 0x17
 9964 0733 64697200 		.ascii	"dir\000"
 9965 0737 01       		.byte	0x1
 9966 0738 6B01     		.2byte	0x16b
 9967 073a 81000000 		.4byte	0x81
 9968 073e E3030000 		.4byte	.LLST11
 9969 0742 17       		.uleb128 0x17
 9970 0743 76616C00 		.ascii	"val\000"
 9971 0747 01       		.byte	0x1
 9972 0748 6B01     		.2byte	0x16b
 9973 074a 81000000 		.4byte	0x81
 9974 074e 04040000 		.4byte	.LLST12
 9975 0752 18       		.uleb128 0x18
 9976 0753 79020000 		.4byte	.LASF58
 9977 0757 01       		.byte	0x1
 9978 0758 6C01     		.2byte	0x16c
 9979 075a 05300000 		.4byte	0x3005
 9980 075e 02       		.uleb128 0x2
 9981 075f 91       		.byte	0x91
 9982 0760 4C       		.sleb128 -52
 9983 0761 18       		.uleb128 0x18
 9984 0762 75050000 		.4byte	.LASF59
 9985 0766 01       		.byte	0x1
 9986 0767 6C01     		.2byte	0x16c
 9987 0769 15300000 		.4byte	0x3015
 9988 076d 03       		.uleb128 0x3
 9989 076e 91       		.byte	0x91
 9990 076f BC7F     		.sleb128 -68
 9991 0771 18       		.uleb128 0x18
 9992 0772 E4010000 		.4byte	.LASF60
 9993 0776 01       		.byte	0x1
ARM GAS  C:\Users\RECEPC~1\AppData\Local\Temp\ccNG63cQ.s 			page 219


 9994 0777 6C01     		.2byte	0x16c
 9995 0779 15300000 		.4byte	0x3015
 9996 077d 03       		.uleb128 0x3
 9997 077e 91       		.byte	0x91
 9998 077f AC7F     		.sleb128 -84
 9999 0781 0D       		.uleb128 0xd
 10000 0782 12000000 		.4byte	.LVL121
 10001 0786 B6360000 		.4byte	0x36b6
 10002 078a 98070000 		.4byte	0x798
 10003 078e 0E       		.uleb128 0xe
 10004 078f 01       		.uleb128 0x1
 10005 0790 50       		.byte	0x50
 10006 0791 05       		.uleb128 0x5
 10007 0792 76       		.byte	0x76
 10008 0793 00       		.sleb128 0
 10009 0794 08       		.byte	0x8
 10010 0795 50       		.byte	0x50
 10011 0796 21       		.byte	0x21
 10012 0797 00       		.byte	0
 10013 0798 0D       		.uleb128 0xd
 10014 0799 1A000000 		.4byte	.LVL122
 10015 079d C7360000 		.4byte	0x36c7
 10016 07a1 AD070000 		.4byte	0x7ad
 10017 07a5 0E       		.uleb128 0xe
 10018 07a6 01       		.uleb128 0x1
 10019 07a7 50       		.byte	0x50
 10020 07a8 03       		.uleb128 0x3
 10021 07a9 0A       		.byte	0xa
 10022 07aa E803     		.2byte	0x3e8
 10023 07ac 00       		.byte	0
 10024 07ad 0F       		.uleb128 0xf
 10025 07ae 1E000000 		.4byte	.LVL123
 10026 07b2 D8360000 		.4byte	0x36d8
 10027 07b6 0D       		.uleb128 0xd
 10028 07b7 70010000 		.4byte	.LVL124
 10029 07bb 0F370000 		.4byte	0x370f
 10030 07bf CA070000 		.4byte	0x7ca
 10031 07c3 0E       		.uleb128 0xe
 10032 07c4 01       		.uleb128 0x1
 10033 07c5 50       		.byte	0x50
 10034 07c6 02       		.uleb128 0x2
 10035 07c7 74       		.byte	0x74
 10036 07c8 00       		.sleb128 0
 10037 07c9 00       		.byte	0
 10038 07ca 0D       		.uleb128 0xd
 10039 07cb 84010000 		.4byte	.LVL125
 10040 07cf 0F370000 		.4byte	0x370f
 10041 07d3 E3070000 		.4byte	0x7e3
 10042 07d7 0E       		.uleb128 0xe
 10043 07d8 01       		.uleb128 0x1
 10044 07d9 51       		.byte	0x51
 10045 07da 01       		.uleb128 0x1
 10046 07db 3A       		.byte	0x3a
 10047 07dc 0E       		.uleb128 0xe
 10048 07dd 01       		.uleb128 0x1
 10049 07de 50       		.byte	0x50
 10050 07df 02       		.uleb128 0x2
ARM GAS  C:\Users\RECEPC~1\AppData\Local\Temp\ccNG63cQ.s 			page 220


 10051 07e0 74       		.byte	0x74
 10052 07e1 00       		.sleb128 0
 10053 07e2 00       		.byte	0
 10054 07e3 0D       		.uleb128 0xd
 10055 07e4 9A010000 		.4byte	.LVL126
 10056 07e8 0F370000 		.4byte	0x370f
 10057 07ec F7070000 		.4byte	0x7f7
 10058 07f0 0E       		.uleb128 0xe
 10059 07f1 01       		.uleb128 0x1
 10060 07f2 50       		.byte	0x50
 10061 07f3 02       		.uleb128 0x2
 10062 07f4 74       		.byte	0x74
 10063 07f5 00       		.sleb128 0
 10064 07f6 00       		.byte	0
 10065 07f7 0D       		.uleb128 0xd
 10066 07f8 AE010000 		.4byte	.LVL127
 10067 07fc 0F370000 		.4byte	0x370f
 10068 0800 10080000 		.4byte	0x810
 10069 0804 0E       		.uleb128 0xe
 10070 0805 01       		.uleb128 0x1
 10071 0806 51       		.byte	0x51
 10072 0807 01       		.uleb128 0x1
 10073 0808 3A       		.byte	0x3a
 10074 0809 0E       		.uleb128 0xe
 10075 080a 01       		.uleb128 0x1
 10076 080b 50       		.byte	0x50
 10077 080c 02       		.uleb128 0x2
 10078 080d 74       		.byte	0x74
 10079 080e 00       		.sleb128 0
 10080 080f 00       		.byte	0
 10081 0810 0D       		.uleb128 0xd
 10082 0811 B6010000 		.4byte	.LVL128
 10083 0815 29370000 		.4byte	0x3729
 10084 0819 29080000 		.4byte	0x829
 10085 081d 0E       		.uleb128 0xe
 10086 081e 01       		.uleb128 0x1
 10087 081f 51       		.byte	0x51
 10088 0820 02       		.uleb128 0x2
 10089 0821 74       		.byte	0x74
 10090 0822 00       		.sleb128 0
 10091 0823 0E       		.uleb128 0xe
 10092 0824 01       		.uleb128 0x1
 10093 0825 50       		.byte	0x50
 10094 0826 01       		.uleb128 0x1
 10095 0827 38       		.byte	0x38
 10096 0828 00       		.byte	0
 10097 0829 0D       		.uleb128 0xd
 10098 082a CE010000 		.4byte	.LVL129
 10099 082e 0F370000 		.4byte	0x370f
 10100 0832 3D080000 		.4byte	0x83d
 10101 0836 0E       		.uleb128 0xe
 10102 0837 01       		.uleb128 0x1
 10103 0838 50       		.byte	0x50
 10104 0839 02       		.uleb128 0x2
 10105 083a 74       		.byte	0x74
 10106 083b 00       		.sleb128 0
 10107 083c 00       		.byte	0
ARM GAS  C:\Users\RECEPC~1\AppData\Local\Temp\ccNG63cQ.s 			page 221


 10108 083d 0D       		.uleb128 0xd
 10109 083e E2010000 		.4byte	.LVL130
 10110 0842 0F370000 		.4byte	0x370f
 10111 0846 56080000 		.4byte	0x856
 10112 084a 0E       		.uleb128 0xe
 10113 084b 01       		.uleb128 0x1
 10114 084c 51       		.byte	0x51
 10115 084d 01       		.uleb128 0x1
 10116 084e 3A       		.byte	0x3a
 10117 084f 0E       		.uleb128 0xe
 10118 0850 01       		.uleb128 0x1
 10119 0851 50       		.byte	0x50
 10120 0852 02       		.uleb128 0x2
 10121 0853 74       		.byte	0x74
 10122 0854 00       		.sleb128 0
 10123 0855 00       		.byte	0
 10124 0856 0D       		.uleb128 0xd
 10125 0857 F2010000 		.4byte	.LVL131
 10126 085b 3F370000 		.4byte	0x373f
 10127 085f 6F080000 		.4byte	0x86f
 10128 0863 0E       		.uleb128 0xe
 10129 0864 01       		.uleb128 0x1
 10130 0865 51       		.byte	0x51
 10131 0866 01       		.uleb128 0x1
 10132 0867 49       		.byte	0x49
 10133 0868 0E       		.uleb128 0xe
 10134 0869 01       		.uleb128 0x1
 10135 086a 50       		.byte	0x50
 10136 086b 02       		.uleb128 0x2
 10137 086c 08       		.byte	0x8
 10138 086d C0       		.byte	0xc0
 10139 086e 00       		.byte	0
 10140 086f 0D       		.uleb128 0xd
 10141 0870 FE010000 		.4byte	.LVL132
 10142 0874 3F370000 		.4byte	0x373f
 10143 0878 89080000 		.4byte	0x889
 10144 087c 0E       		.uleb128 0xe
 10145 087d 01       		.uleb128 0x1
 10146 087e 51       		.byte	0x51
 10147 087f 01       		.uleb128 0x1
 10148 0880 49       		.byte	0x49
 10149 0881 0E       		.uleb128 0xe
 10150 0882 01       		.uleb128 0x1
 10151 0883 50       		.byte	0x50
 10152 0884 03       		.uleb128 0x3
 10153 0885 0A       		.byte	0xa
 10154 0886 1901     		.2byte	0x119
 10155 0888 00       		.byte	0
 10156 0889 0D       		.uleb128 0xd
 10157 088a 04020000 		.4byte	.LVL133
 10158 088e 59370000 		.4byte	0x3759
 10159 0892 9D080000 		.4byte	0x89d
 10160 0896 0E       		.uleb128 0xe
 10161 0897 01       		.uleb128 0x1
 10162 0898 50       		.byte	0x50
 10163 0899 02       		.uleb128 0x2
 10164 089a 74       		.byte	0x74
ARM GAS  C:\Users\RECEPC~1\AppData\Local\Temp\ccNG63cQ.s 			page 222


 10165 089b 00       		.sleb128 0
 10166 089c 00       		.byte	0
 10167 089d 0D       		.uleb128 0xd
 10168 089e 44020000 		.4byte	.LVL134
 10169 08a2 6A370000 		.4byte	0x376a
 10170 08a6 BE080000 		.4byte	0x8be
 10171 08aa 0E       		.uleb128 0xe
 10172 08ab 01       		.uleb128 0x1
 10173 08ac 52       		.byte	0x52
 10174 08ad 03       		.uleb128 0x3
 10175 08ae 91       		.byte	0x91
 10176 08af AC7F     		.sleb128 -84
 10177 08b1 0E       		.uleb128 0xe
 10178 08b2 01       		.uleb128 0x1
 10179 08b3 51       		.byte	0x51
 10180 08b4 03       		.uleb128 0x3
 10181 08b5 91       		.byte	0x91
 10182 08b6 BC7F     		.sleb128 -68
 10183 08b8 0E       		.uleb128 0xe
 10184 08b9 01       		.uleb128 0x1
 10185 08ba 50       		.byte	0x50
 10186 08bb 01       		.uleb128 0x1
 10187 08bc 32       		.byte	0x32
 10188 08bd 00       		.byte	0
 10189 08be 0D       		.uleb128 0xd
 10190 08bf 5C020000 		.4byte	.LVL135
 10191 08c3 0F370000 		.4byte	0x370f
 10192 08c7 D2080000 		.4byte	0x8d2
 10193 08cb 0E       		.uleb128 0xe
 10194 08cc 01       		.uleb128 0x1
 10195 08cd 50       		.byte	0x50
 10196 08ce 02       		.uleb128 0x2
 10197 08cf 74       		.byte	0x74
 10198 08d0 00       		.sleb128 0
 10199 08d1 00       		.byte	0
 10200 08d2 0D       		.uleb128 0xd
 10201 08d3 70020000 		.4byte	.LVL136
 10202 08d7 85370000 		.4byte	0x3785
 10203 08db EF080000 		.4byte	0x8ef
 10204 08df 0E       		.uleb128 0xe
 10205 08e0 01       		.uleb128 0x1
 10206 08e1 51       		.byte	0x51
 10207 08e2 02       		.uleb128 0x2
 10208 08e3 74       		.byte	0x74
 10209 08e4 00       		.sleb128 0
 10210 08e5 0E       		.uleb128 0xe
 10211 08e6 01       		.uleb128 0x1
 10212 08e7 50       		.byte	0x50
 10213 08e8 05       		.uleb128 0x5
 10214 08e9 03       		.byte	0x3
 10215 08ea 00000000 		.4byte	resultado
 10216 08ee 00       		.byte	0
 10217 08ef 0D       		.uleb128 0xd
 10218 08f0 80020000 		.4byte	.LVL137
 10219 08f4 F5360000 		.4byte	0x36f5
 10220 08f8 09090000 		.4byte	0x909
 10221 08fc 0E       		.uleb128 0xe
ARM GAS  C:\Users\RECEPC~1\AppData\Local\Temp\ccNG63cQ.s 			page 223


 10222 08fd 01       		.uleb128 0x1
 10223 08fe 51       		.byte	0x51
 10224 08ff 02       		.uleb128 0x2
 10225 0900 91       		.byte	0x91
 10226 0901 4C       		.sleb128 -52
 10227 0902 0E       		.uleb128 0xe
 10228 0903 01       		.uleb128 0x1
 10229 0904 50       		.byte	0x50
 10230 0905 02       		.uleb128 0x2
 10231 0906 08       		.byte	0x8
 10232 0907 C0       		.byte	0xc0
 10233 0908 00       		.byte	0
 10234 0909 0D       		.uleb128 0xd
 10235 090a 8A020000 		.4byte	.LVL138
 10236 090e F5360000 		.4byte	0x36f5
 10237 0912 27090000 		.4byte	0x927
 10238 0916 0E       		.uleb128 0xe
 10239 0917 01       		.uleb128 0x1
 10240 0918 51       		.byte	0x51
 10241 0919 05       		.uleb128 0x5
 10242 091a 03       		.byte	0x3
 10243 091b 00000000 		.4byte	resultado
 10244 091f 0E       		.uleb128 0xe
 10245 0920 01       		.uleb128 0x1
 10246 0921 50       		.byte	0x50
 10247 0922 03       		.uleb128 0x3
 10248 0923 0A       		.byte	0xa
 10249 0924 0002     		.2byte	0x200
 10250 0926 00       		.byte	0
 10251 0927 0D       		.uleb128 0xd
 10252 0928 96020000 		.4byte	.LVL139
 10253 092c F5360000 		.4byte	0x36f5
 10254 0930 42090000 		.4byte	0x942
 10255 0934 0E       		.uleb128 0xe
 10256 0935 01       		.uleb128 0x1
 10257 0936 51       		.byte	0x51
 10258 0937 02       		.uleb128 0x2
 10259 0938 91       		.byte	0x91
 10260 0939 4C       		.sleb128 -52
 10261 093a 0E       		.uleb128 0xe
 10262 093b 01       		.uleb128 0x1
 10263 093c 50       		.byte	0x50
 10264 093d 03       		.uleb128 0x3
 10265 093e 0A       		.byte	0xa
 10266 093f 1901     		.2byte	0x119
 10267 0941 00       		.byte	0
 10268 0942 0D       		.uleb128 0xd
 10269 0943 A0020000 		.4byte	.LVL140
 10270 0947 F5360000 		.4byte	0x36f5
 10271 094b 60090000 		.4byte	0x960
 10272 094f 0E       		.uleb128 0xe
 10273 0950 01       		.uleb128 0x1
 10274 0951 51       		.byte	0x51
 10275 0952 05       		.uleb128 0x5
 10276 0953 03       		.byte	0x3
 10277 0954 00000000 		.4byte	resultado
 10278 0958 0E       		.uleb128 0xe
ARM GAS  C:\Users\RECEPC~1\AppData\Local\Temp\ccNG63cQ.s 			page 224


 10279 0959 01       		.uleb128 0x1
 10280 095a 50       		.byte	0x50
 10281 095b 03       		.uleb128 0x3
 10282 095c 0A       		.byte	0xa
 10283 095d 2702     		.2byte	0x227
 10284 095f 00       		.byte	0
 10285 0960 0D       		.uleb128 0xd
 10286 0961 1C030000 		.4byte	.LVL141
 10287 0965 0F370000 		.4byte	0x370f
 10288 0969 74090000 		.4byte	0x974
 10289 096d 0E       		.uleb128 0xe
 10290 096e 01       		.uleb128 0x1
 10291 096f 50       		.byte	0x50
 10292 0970 02       		.uleb128 0x2
 10293 0971 74       		.byte	0x74
 10294 0972 00       		.sleb128 0
 10295 0973 00       		.byte	0
 10296 0974 0D       		.uleb128 0xd
 10297 0975 30030000 		.4byte	.LVL142
 10298 0979 0F370000 		.4byte	0x370f
 10299 097d 8D090000 		.4byte	0x98d
 10300 0981 0E       		.uleb128 0xe
 10301 0982 01       		.uleb128 0x1
 10302 0983 51       		.byte	0x51
 10303 0984 01       		.uleb128 0x1
 10304 0985 3A       		.byte	0x3a
 10305 0986 0E       		.uleb128 0xe
 10306 0987 01       		.uleb128 0x1
 10307 0988 50       		.byte	0x50
 10308 0989 02       		.uleb128 0x2
 10309 098a 74       		.byte	0x74
 10310 098b 00       		.sleb128 0
 10311 098c 00       		.byte	0
 10312 098d 0D       		.uleb128 0xd
 10313 098e 46030000 		.4byte	.LVL143
 10314 0992 0F370000 		.4byte	0x370f
 10315 0996 A1090000 		.4byte	0x9a1
 10316 099a 0E       		.uleb128 0xe
 10317 099b 01       		.uleb128 0x1
 10318 099c 50       		.byte	0x50
 10319 099d 02       		.uleb128 0x2
 10320 099e 74       		.byte	0x74
 10321 099f 00       		.sleb128 0
 10322 09a0 00       		.byte	0
 10323 09a1 0D       		.uleb128 0xd
 10324 09a2 5A030000 		.4byte	.LVL144
 10325 09a6 0F370000 		.4byte	0x370f
 10326 09aa BA090000 		.4byte	0x9ba
 10327 09ae 0E       		.uleb128 0xe
 10328 09af 01       		.uleb128 0x1
 10329 09b0 51       		.byte	0x51
 10330 09b1 01       		.uleb128 0x1
 10331 09b2 3A       		.byte	0x3a
 10332 09b3 0E       		.uleb128 0xe
 10333 09b4 01       		.uleb128 0x1
 10334 09b5 50       		.byte	0x50
 10335 09b6 02       		.uleb128 0x2
ARM GAS  C:\Users\RECEPC~1\AppData\Local\Temp\ccNG63cQ.s 			page 225


 10336 09b7 74       		.byte	0x74
 10337 09b8 00       		.sleb128 0
 10338 09b9 00       		.byte	0
 10339 09ba 0D       		.uleb128 0xd
 10340 09bb 62030000 		.4byte	.LVL145
 10341 09bf 29370000 		.4byte	0x3729
 10342 09c3 D3090000 		.4byte	0x9d3
 10343 09c7 0E       		.uleb128 0xe
 10344 09c8 01       		.uleb128 0x1
 10345 09c9 51       		.byte	0x51
 10346 09ca 02       		.uleb128 0x2
 10347 09cb 74       		.byte	0x74
 10348 09cc 00       		.sleb128 0
 10349 09cd 0E       		.uleb128 0xe
 10350 09ce 01       		.uleb128 0x1
 10351 09cf 50       		.byte	0x50
 10352 09d0 01       		.uleb128 0x1
 10353 09d1 38       		.byte	0x38
 10354 09d2 00       		.byte	0
 10355 09d3 0D       		.uleb128 0xd
 10356 09d4 7A030000 		.4byte	.LVL146
 10357 09d8 0F370000 		.4byte	0x370f
 10358 09dc E7090000 		.4byte	0x9e7
 10359 09e0 0E       		.uleb128 0xe
 10360 09e1 01       		.uleb128 0x1
 10361 09e2 50       		.byte	0x50
 10362 09e3 02       		.uleb128 0x2
 10363 09e4 74       		.byte	0x74
 10364 09e5 00       		.sleb128 0
 10365 09e6 00       		.byte	0
 10366 09e7 0D       		.uleb128 0xd
 10367 09e8 8E030000 		.4byte	.LVL147
 10368 09ec 0F370000 		.4byte	0x370f
 10369 09f0 000A0000 		.4byte	0xa00
 10370 09f4 0E       		.uleb128 0xe
 10371 09f5 01       		.uleb128 0x1
 10372 09f6 51       		.byte	0x51
 10373 09f7 01       		.uleb128 0x1
 10374 09f8 3A       		.byte	0x3a
 10375 09f9 0E       		.uleb128 0xe
 10376 09fa 01       		.uleb128 0x1
 10377 09fb 50       		.byte	0x50
 10378 09fc 02       		.uleb128 0x2
 10379 09fd 74       		.byte	0x74
 10380 09fe 00       		.sleb128 0
 10381 09ff 00       		.byte	0
 10382 0a00 0D       		.uleb128 0xd
 10383 0a01 9E030000 		.4byte	.LVL148
 10384 0a05 3F370000 		.4byte	0x373f
 10385 0a09 190A0000 		.4byte	0xa19
 10386 0a0d 0E       		.uleb128 0xe
 10387 0a0e 01       		.uleb128 0x1
 10388 0a0f 51       		.byte	0x51
 10389 0a10 01       		.uleb128 0x1
 10390 0a11 49       		.byte	0x49
 10391 0a12 0E       		.uleb128 0xe
 10392 0a13 01       		.uleb128 0x1
ARM GAS  C:\Users\RECEPC~1\AppData\Local\Temp\ccNG63cQ.s 			page 226


 10393 0a14 50       		.byte	0x50
 10394 0a15 02       		.uleb128 0x2
 10395 0a16 08       		.byte	0x8
 10396 0a17 D9       		.byte	0xd9
 10397 0a18 00       		.byte	0
 10398 0a19 0D       		.uleb128 0xd
 10399 0a1a AA030000 		.4byte	.LVL149
 10400 0a1e 3F370000 		.4byte	0x373f
 10401 0a22 330A0000 		.4byte	0xa33
 10402 0a26 0E       		.uleb128 0xe
 10403 0a27 01       		.uleb128 0x1
 10404 0a28 51       		.byte	0x51
 10405 0a29 01       		.uleb128 0x1
 10406 0a2a 49       		.byte	0x49
 10407 0a2b 0E       		.uleb128 0xe
 10408 0a2c 01       		.uleb128 0x1
 10409 0a2d 50       		.byte	0x50
 10410 0a2e 03       		.uleb128 0x3
 10411 0a2f 0A       		.byte	0xa
 10412 0a30 4001     		.2byte	0x140
 10413 0a32 00       		.byte	0
 10414 0a33 0D       		.uleb128 0xd
 10415 0a34 B0030000 		.4byte	.LVL150
 10416 0a38 59370000 		.4byte	0x3759
 10417 0a3c 470A0000 		.4byte	0xa47
 10418 0a40 0E       		.uleb128 0xe
 10419 0a41 01       		.uleb128 0x1
 10420 0a42 50       		.byte	0x50
 10421 0a43 02       		.uleb128 0x2
 10422 0a44 74       		.byte	0x74
 10423 0a45 00       		.sleb128 0
 10424 0a46 00       		.byte	0
 10425 0a47 0D       		.uleb128 0xd
 10426 0a48 F0030000 		.4byte	.LVL151
 10427 0a4c 6A370000 		.4byte	0x376a
 10428 0a50 680A0000 		.4byte	0xa68
 10429 0a54 0E       		.uleb128 0xe
 10430 0a55 01       		.uleb128 0x1
 10431 0a56 52       		.byte	0x52
 10432 0a57 03       		.uleb128 0x3
 10433 0a58 91       		.byte	0x91
 10434 0a59 AC7F     		.sleb128 -84
 10435 0a5b 0E       		.uleb128 0xe
 10436 0a5c 01       		.uleb128 0x1
 10437 0a5d 51       		.byte	0x51
 10438 0a5e 03       		.uleb128 0x3
 10439 0a5f 91       		.byte	0x91
 10440 0a60 BC7F     		.sleb128 -68
 10441 0a62 0E       		.uleb128 0xe
 10442 0a63 01       		.uleb128 0x1
 10443 0a64 50       		.byte	0x50
 10444 0a65 01       		.uleb128 0x1
 10445 0a66 32       		.byte	0x32
 10446 0a67 00       		.byte	0
 10447 0a68 0D       		.uleb128 0xd
 10448 0a69 08040000 		.4byte	.LVL152
 10449 0a6d 0F370000 		.4byte	0x370f
ARM GAS  C:\Users\RECEPC~1\AppData\Local\Temp\ccNG63cQ.s 			page 227


 10450 0a71 7C0A0000 		.4byte	0xa7c
 10451 0a75 0E       		.uleb128 0xe
 10452 0a76 01       		.uleb128 0x1
 10453 0a77 50       		.byte	0x50
 10454 0a78 02       		.uleb128 0x2
 10455 0a79 74       		.byte	0x74
 10456 0a7a 00       		.sleb128 0
 10457 0a7b 00       		.byte	0
 10458 0a7c 0D       		.uleb128 0xd
 10459 0a7d 1C040000 		.4byte	.LVL153
 10460 0a81 85370000 		.4byte	0x3785
 10461 0a85 990A0000 		.4byte	0xa99
 10462 0a89 0E       		.uleb128 0xe
 10463 0a8a 01       		.uleb128 0x1
 10464 0a8b 51       		.byte	0x51
 10465 0a8c 02       		.uleb128 0x2
 10466 0a8d 74       		.byte	0x74
 10467 0a8e 00       		.sleb128 0
 10468 0a8f 0E       		.uleb128 0xe
 10469 0a90 01       		.uleb128 0x1
 10470 0a91 50       		.byte	0x50
 10471 0a92 05       		.uleb128 0x5
 10472 0a93 03       		.byte	0x3
 10473 0a94 00000000 		.4byte	resultado
 10474 0a98 00       		.byte	0
 10475 0a99 0D       		.uleb128 0xd
 10476 0a9a 2C040000 		.4byte	.LVL154
 10477 0a9e F5360000 		.4byte	0x36f5
 10478 0aa2 B30A0000 		.4byte	0xab3
 10479 0aa6 0E       		.uleb128 0xe
 10480 0aa7 01       		.uleb128 0x1
 10481 0aa8 51       		.byte	0x51
 10482 0aa9 02       		.uleb128 0x2
 10483 0aaa 91       		.byte	0x91
 10484 0aab 4C       		.sleb128 -52
 10485 0aac 0E       		.uleb128 0xe
 10486 0aad 01       		.uleb128 0x1
 10487 0aae 50       		.byte	0x50
 10488 0aaf 02       		.uleb128 0x2
 10489 0ab0 08       		.byte	0x8
 10490 0ab1 D9       		.byte	0xd9
 10491 0ab2 00       		.byte	0
 10492 0ab3 0D       		.uleb128 0xd
 10493 0ab4 36040000 		.4byte	.LVL155
 10494 0ab8 F5360000 		.4byte	0x36f5
 10495 0abc D10A0000 		.4byte	0xad1
 10496 0ac0 0E       		.uleb128 0xe
 10497 0ac1 01       		.uleb128 0x1
 10498 0ac2 51       		.byte	0x51
 10499 0ac3 05       		.uleb128 0x5
 10500 0ac4 03       		.byte	0x3
 10501 0ac5 00000000 		.4byte	resultado
 10502 0ac9 0E       		.uleb128 0xe
 10503 0aca 01       		.uleb128 0x1
 10504 0acb 50       		.byte	0x50
 10505 0acc 03       		.uleb128 0x3
 10506 0acd 0A       		.byte	0xa
ARM GAS  C:\Users\RECEPC~1\AppData\Local\Temp\ccNG63cQ.s 			page 228


 10507 0ace 1A02     		.2byte	0x21a
 10508 0ad0 00       		.byte	0
 10509 0ad1 0D       		.uleb128 0xd
 10510 0ad2 42040000 		.4byte	.LVL156
 10511 0ad6 F5360000 		.4byte	0x36f5
 10512 0ada EC0A0000 		.4byte	0xaec
 10513 0ade 0E       		.uleb128 0xe
 10514 0adf 01       		.uleb128 0x1
 10515 0ae0 51       		.byte	0x51
 10516 0ae1 02       		.uleb128 0x2
 10517 0ae2 91       		.byte	0x91
 10518 0ae3 4C       		.sleb128 -52
 10519 0ae4 0E       		.uleb128 0xe
 10520 0ae5 01       		.uleb128 0x1
 10521 0ae6 50       		.byte	0x50
 10522 0ae7 03       		.uleb128 0x3
 10523 0ae8 0A       		.byte	0xa
 10524 0ae9 4001     		.2byte	0x140
 10525 0aeb 00       		.byte	0
 10526 0aec 0D       		.uleb128 0xd
 10527 0aed 4C040000 		.4byte	.LVL157
 10528 0af1 F5360000 		.4byte	0x36f5
 10529 0af5 0A0B0000 		.4byte	0xb0a
 10530 0af9 0E       		.uleb128 0xe
 10531 0afa 01       		.uleb128 0x1
 10532 0afb 51       		.byte	0x51
 10533 0afc 05       		.uleb128 0x5
 10534 0afd 03       		.byte	0x3
 10535 0afe 00000000 		.4byte	resultado
 10536 0b02 0E       		.uleb128 0xe
 10537 0b03 01       		.uleb128 0x1
 10538 0b04 50       		.byte	0x50
 10539 0b05 03       		.uleb128 0x3
 10540 0b06 0A       		.byte	0xa
 10541 0b07 4002     		.2byte	0x240
 10542 0b09 00       		.byte	0
 10543 0b0a 0D       		.uleb128 0xd
 10544 0b0b 96040000 		.4byte	.LVL158
 10545 0b0f 0F370000 		.4byte	0x370f
 10546 0b13 1E0B0000 		.4byte	0xb1e
 10547 0b17 0E       		.uleb128 0xe
 10548 0b18 01       		.uleb128 0x1
 10549 0b19 50       		.byte	0x50
 10550 0b1a 02       		.uleb128 0x2
 10551 0b1b 74       		.byte	0x74
 10552 0b1c 00       		.sleb128 0
 10553 0b1d 00       		.byte	0
 10554 0b1e 0D       		.uleb128 0xd
 10555 0b1f AA040000 		.4byte	.LVL159
 10556 0b23 0F370000 		.4byte	0x370f
 10557 0b27 370B0000 		.4byte	0xb37
 10558 0b2b 0E       		.uleb128 0xe
 10559 0b2c 01       		.uleb128 0x1
 10560 0b2d 51       		.byte	0x51
 10561 0b2e 01       		.uleb128 0x1
 10562 0b2f 3A       		.byte	0x3a
 10563 0b30 0E       		.uleb128 0xe
ARM GAS  C:\Users\RECEPC~1\AppData\Local\Temp\ccNG63cQ.s 			page 229


 10564 0b31 01       		.uleb128 0x1
 10565 0b32 50       		.byte	0x50
 10566 0b33 02       		.uleb128 0x2
 10567 0b34 74       		.byte	0x74
 10568 0b35 00       		.sleb128 0
 10569 0b36 00       		.byte	0
 10570 0b37 0D       		.uleb128 0xd
 10571 0b38 C0040000 		.4byte	.LVL160
 10572 0b3c 0F370000 		.4byte	0x370f
 10573 0b40 4B0B0000 		.4byte	0xb4b
 10574 0b44 0E       		.uleb128 0xe
 10575 0b45 01       		.uleb128 0x1
 10576 0b46 50       		.byte	0x50
 10577 0b47 02       		.uleb128 0x2
 10578 0b48 74       		.byte	0x74
 10579 0b49 00       		.sleb128 0
 10580 0b4a 00       		.byte	0
 10581 0b4b 0D       		.uleb128 0xd
 10582 0b4c D4040000 		.4byte	.LVL161
 10583 0b50 0F370000 		.4byte	0x370f
 10584 0b54 640B0000 		.4byte	0xb64
 10585 0b58 0E       		.uleb128 0xe
 10586 0b59 01       		.uleb128 0x1
 10587 0b5a 51       		.byte	0x51
 10588 0b5b 01       		.uleb128 0x1
 10589 0b5c 3A       		.byte	0x3a
 10590 0b5d 0E       		.uleb128 0xe
 10591 0b5e 01       		.uleb128 0x1
 10592 0b5f 50       		.byte	0x50
 10593 0b60 02       		.uleb128 0x2
 10594 0b61 74       		.byte	0x74
 10595 0b62 00       		.sleb128 0
 10596 0b63 00       		.byte	0
 10597 0b64 0D       		.uleb128 0xd
 10598 0b65 DC040000 		.4byte	.LVL162
 10599 0b69 29370000 		.4byte	0x3729
 10600 0b6d 7D0B0000 		.4byte	0xb7d
 10601 0b71 0E       		.uleb128 0xe
 10602 0b72 01       		.uleb128 0x1
 10603 0b73 51       		.byte	0x51
 10604 0b74 02       		.uleb128 0x2
 10605 0b75 74       		.byte	0x74
 10606 0b76 00       		.sleb128 0
 10607 0b77 0E       		.uleb128 0xe
 10608 0b78 01       		.uleb128 0x1
 10609 0b79 50       		.byte	0x50
 10610 0b7a 01       		.uleb128 0x1
 10611 0b7b 38       		.byte	0x38
 10612 0b7c 00       		.byte	0
 10613 0b7d 0D       		.uleb128 0xd
 10614 0b7e F4040000 		.4byte	.LVL163
 10615 0b82 0F370000 		.4byte	0x370f
 10616 0b86 910B0000 		.4byte	0xb91
 10617 0b8a 0E       		.uleb128 0xe
 10618 0b8b 01       		.uleb128 0x1
 10619 0b8c 50       		.byte	0x50
 10620 0b8d 02       		.uleb128 0x2
ARM GAS  C:\Users\RECEPC~1\AppData\Local\Temp\ccNG63cQ.s 			page 230


 10621 0b8e 74       		.byte	0x74
 10622 0b8f 00       		.sleb128 0
 10623 0b90 00       		.byte	0
 10624 0b91 0D       		.uleb128 0xd
 10625 0b92 08050000 		.4byte	.LVL164
 10626 0b96 0F370000 		.4byte	0x370f
 10627 0b9a AA0B0000 		.4byte	0xbaa
 10628 0b9e 0E       		.uleb128 0xe
 10629 0b9f 01       		.uleb128 0x1
 10630 0ba0 51       		.byte	0x51
 10631 0ba1 01       		.uleb128 0x1
 10632 0ba2 3A       		.byte	0x3a
 10633 0ba3 0E       		.uleb128 0xe
 10634 0ba4 01       		.uleb128 0x1
 10635 0ba5 50       		.byte	0x50
 10636 0ba6 02       		.uleb128 0x2
 10637 0ba7 74       		.byte	0x74
 10638 0ba8 00       		.sleb128 0
 10639 0ba9 00       		.byte	0
 10640 0baa 0D       		.uleb128 0xd
 10641 0bab 1A050000 		.4byte	.LVL165
 10642 0baf 3F370000 		.4byte	0x373f
 10643 0bb3 C40B0000 		.4byte	0xbc4
 10644 0bb7 0E       		.uleb128 0xe
 10645 0bb8 01       		.uleb128 0x1
 10646 0bb9 51       		.byte	0x51
 10647 0bba 01       		.uleb128 0x1
 10648 0bbb 49       		.byte	0x49
 10649 0bbc 0E       		.uleb128 0xe
 10650 0bbd 01       		.uleb128 0x1
 10651 0bbe 50       		.byte	0x50
 10652 0bbf 03       		.uleb128 0x3
 10653 0bc0 0A       		.byte	0xa
 10654 0bc1 0001     		.2byte	0x100
 10655 0bc3 00       		.byte	0
 10656 0bc4 0D       		.uleb128 0xd
 10657 0bc5 26050000 		.4byte	.LVL166
 10658 0bc9 3F370000 		.4byte	0x373f
 10659 0bcd DE0B0000 		.4byte	0xbde
 10660 0bd1 0E       		.uleb128 0xe
 10661 0bd2 01       		.uleb128 0x1
 10662 0bd3 51       		.byte	0x51
 10663 0bd4 01       		.uleb128 0x1
 10664 0bd5 49       		.byte	0x49
 10665 0bd6 0E       		.uleb128 0xe
 10666 0bd7 01       		.uleb128 0x1
 10667 0bd8 50       		.byte	0x50
 10668 0bd9 03       		.uleb128 0x3
 10669 0bda 0A       		.byte	0xa
 10670 0bdb 5901     		.2byte	0x159
 10671 0bdd 00       		.byte	0
 10672 0bde 0D       		.uleb128 0xd
 10673 0bdf 2C050000 		.4byte	.LVL167
 10674 0be3 59370000 		.4byte	0x3759
 10675 0be7 F20B0000 		.4byte	0xbf2
 10676 0beb 0E       		.uleb128 0xe
 10677 0bec 01       		.uleb128 0x1
ARM GAS  C:\Users\RECEPC~1\AppData\Local\Temp\ccNG63cQ.s 			page 231


 10678 0bed 50       		.byte	0x50
 10679 0bee 02       		.uleb128 0x2
 10680 0bef 74       		.byte	0x74
 10681 0bf0 00       		.sleb128 0
 10682 0bf1 00       		.byte	0
 10683 0bf2 0D       		.uleb128 0xd
 10684 0bf3 6C050000 		.4byte	.LVL168
 10685 0bf7 6A370000 		.4byte	0x376a
 10686 0bfb 130C0000 		.4byte	0xc13
 10687 0bff 0E       		.uleb128 0xe
 10688 0c00 01       		.uleb128 0x1
 10689 0c01 52       		.byte	0x52
 10690 0c02 03       		.uleb128 0x3
 10691 0c03 91       		.byte	0x91
 10692 0c04 AC7F     		.sleb128 -84
 10693 0c06 0E       		.uleb128 0xe
 10694 0c07 01       		.uleb128 0x1
 10695 0c08 51       		.byte	0x51
 10696 0c09 03       		.uleb128 0x3
 10697 0c0a 91       		.byte	0x91
 10698 0c0b BC7F     		.sleb128 -68
 10699 0c0d 0E       		.uleb128 0xe
 10700 0c0e 01       		.uleb128 0x1
 10701 0c0f 50       		.byte	0x50
 10702 0c10 01       		.uleb128 0x1
 10703 0c11 32       		.byte	0x32
 10704 0c12 00       		.byte	0
 10705 0c13 0D       		.uleb128 0xd
 10706 0c14 84050000 		.4byte	.LVL169
 10707 0c18 0F370000 		.4byte	0x370f
 10708 0c1c 270C0000 		.4byte	0xc27
 10709 0c20 0E       		.uleb128 0xe
 10710 0c21 01       		.uleb128 0x1
 10711 0c22 50       		.byte	0x50
 10712 0c23 02       		.uleb128 0x2
 10713 0c24 74       		.byte	0x74
 10714 0c25 00       		.sleb128 0
 10715 0c26 00       		.byte	0
 10716 0c27 0D       		.uleb128 0xd
 10717 0c28 98050000 		.4byte	.LVL170
 10718 0c2c 85370000 		.4byte	0x3785
 10719 0c30 440C0000 		.4byte	0xc44
 10720 0c34 0E       		.uleb128 0xe
 10721 0c35 01       		.uleb128 0x1
 10722 0c36 51       		.byte	0x51
 10723 0c37 02       		.uleb128 0x2
 10724 0c38 74       		.byte	0x74
 10725 0c39 00       		.sleb128 0
 10726 0c3a 0E       		.uleb128 0xe
 10727 0c3b 01       		.uleb128 0x1
 10728 0c3c 50       		.byte	0x50
 10729 0c3d 05       		.uleb128 0x5
 10730 0c3e 03       		.byte	0x3
 10731 0c3f 00000000 		.4byte	resultado
 10732 0c43 00       		.byte	0
 10733 0c44 0D       		.uleb128 0xd
 10734 0c45 AA050000 		.4byte	.LVL171
ARM GAS  C:\Users\RECEPC~1\AppData\Local\Temp\ccNG63cQ.s 			page 232


 10735 0c49 F5360000 		.4byte	0x36f5
 10736 0c4d 5F0C0000 		.4byte	0xc5f
 10737 0c51 0E       		.uleb128 0xe
 10738 0c52 01       		.uleb128 0x1
 10739 0c53 51       		.byte	0x51
 10740 0c54 02       		.uleb128 0x2
 10741 0c55 91       		.byte	0x91
 10742 0c56 4C       		.sleb128 -52
 10743 0c57 0E       		.uleb128 0xe
 10744 0c58 01       		.uleb128 0x1
 10745 0c59 50       		.byte	0x50
 10746 0c5a 03       		.uleb128 0x3
 10747 0c5b 0A       		.byte	0xa
 10748 0c5c 0001     		.2byte	0x100
 10749 0c5e 00       		.byte	0
 10750 0c5f 0D       		.uleb128 0xd
 10751 0c60 B4050000 		.4byte	.LVL172
 10752 0c64 F5360000 		.4byte	0x36f5
 10753 0c68 7D0C0000 		.4byte	0xc7d
 10754 0c6c 0E       		.uleb128 0xe
 10755 0c6d 01       		.uleb128 0x1
 10756 0c6e 51       		.byte	0x51
 10757 0c6f 05       		.uleb128 0x5
 10758 0c70 03       		.byte	0x3
 10759 0c71 00000000 		.4byte	resultado
 10760 0c75 0E       		.uleb128 0xe
 10761 0c76 01       		.uleb128 0x1
 10762 0c77 50       		.byte	0x50
 10763 0c78 03       		.uleb128 0x3
 10764 0c79 0A       		.byte	0xa
 10765 0c7a 0D02     		.2byte	0x20d
 10766 0c7c 00       		.byte	0
 10767 0c7d 0D       		.uleb128 0xd
 10768 0c7e E6050000 		.4byte	.LVL173
 10769 0c82 F5360000 		.4byte	0x36f5
 10770 0c86 980C0000 		.4byte	0xc98
 10771 0c8a 0E       		.uleb128 0xe
 10772 0c8b 01       		.uleb128 0x1
 10773 0c8c 51       		.byte	0x51
 10774 0c8d 02       		.uleb128 0x2
 10775 0c8e 91       		.byte	0x91
 10776 0c8f 4C       		.sleb128 -52
 10777 0c90 0E       		.uleb128 0xe
 10778 0c91 01       		.uleb128 0x1
 10779 0c92 50       		.byte	0x50
 10780 0c93 03       		.uleb128 0x3
 10781 0c94 0A       		.byte	0xa
 10782 0c95 5901     		.2byte	0x159
 10783 0c97 00       		.byte	0
 10784 0c98 0D       		.uleb128 0xd
 10785 0c99 F0050000 		.4byte	.LVL174
 10786 0c9d F5360000 		.4byte	0x36f5
 10787 0ca1 B60C0000 		.4byte	0xcb6
 10788 0ca5 0E       		.uleb128 0xe
 10789 0ca6 01       		.uleb128 0x1
 10790 0ca7 51       		.byte	0x51
 10791 0ca8 05       		.uleb128 0x5
ARM GAS  C:\Users\RECEPC~1\AppData\Local\Temp\ccNG63cQ.s 			page 233


 10792 0ca9 03       		.byte	0x3
 10793 0caa 00000000 		.4byte	resultado
 10794 0cae 0E       		.uleb128 0xe
 10795 0caf 01       		.uleb128 0x1
 10796 0cb0 50       		.byte	0x50
 10797 0cb1 03       		.uleb128 0x3
 10798 0cb2 0A       		.byte	0xa
 10799 0cb3 4D02     		.2byte	0x24d
 10800 0cb5 00       		.byte	0
 10801 0cb6 0D       		.uleb128 0xd
 10802 0cb7 3A060000 		.4byte	.LVL175
 10803 0cbb 0F370000 		.4byte	0x370f
 10804 0cbf CA0C0000 		.4byte	0xcca
 10805 0cc3 0E       		.uleb128 0xe
 10806 0cc4 01       		.uleb128 0x1
 10807 0cc5 50       		.byte	0x50
 10808 0cc6 02       		.uleb128 0x2
 10809 0cc7 74       		.byte	0x74
 10810 0cc8 00       		.sleb128 0
 10811 0cc9 00       		.byte	0
 10812 0cca 0D       		.uleb128 0xd
 10813 0ccb 4E060000 		.4byte	.LVL176
 10814 0ccf 0F370000 		.4byte	0x370f
 10815 0cd3 E30C0000 		.4byte	0xce3
 10816 0cd7 0E       		.uleb128 0xe
 10817 0cd8 01       		.uleb128 0x1
 10818 0cd9 51       		.byte	0x51
 10819 0cda 01       		.uleb128 0x1
 10820 0cdb 3A       		.byte	0x3a
 10821 0cdc 0E       		.uleb128 0xe
 10822 0cdd 01       		.uleb128 0x1
 10823 0cde 50       		.byte	0x50
 10824 0cdf 02       		.uleb128 0x2
 10825 0ce0 74       		.byte	0x74
 10826 0ce1 00       		.sleb128 0
 10827 0ce2 00       		.byte	0
 10828 0ce3 0D       		.uleb128 0xd
 10829 0ce4 64060000 		.4byte	.LVL177
 10830 0ce8 0F370000 		.4byte	0x370f
 10831 0cec F70C0000 		.4byte	0xcf7
 10832 0cf0 0E       		.uleb128 0xe
 10833 0cf1 01       		.uleb128 0x1
 10834 0cf2 50       		.byte	0x50
 10835 0cf3 02       		.uleb128 0x2
 10836 0cf4 74       		.byte	0x74
 10837 0cf5 00       		.sleb128 0
 10838 0cf6 00       		.byte	0
 10839 0cf7 0D       		.uleb128 0xd
 10840 0cf8 78060000 		.4byte	.LVL178
 10841 0cfc 0F370000 		.4byte	0x370f
 10842 0d00 100D0000 		.4byte	0xd10
 10843 0d04 0E       		.uleb128 0xe
 10844 0d05 01       		.uleb128 0x1
 10845 0d06 51       		.byte	0x51
 10846 0d07 01       		.uleb128 0x1
 10847 0d08 3A       		.byte	0x3a
 10848 0d09 0E       		.uleb128 0xe
ARM GAS  C:\Users\RECEPC~1\AppData\Local\Temp\ccNG63cQ.s 			page 234


 10849 0d0a 01       		.uleb128 0x1
 10850 0d0b 50       		.byte	0x50
 10851 0d0c 02       		.uleb128 0x2
 10852 0d0d 74       		.byte	0x74
 10853 0d0e 00       		.sleb128 0
 10854 0d0f 00       		.byte	0
 10855 0d10 0D       		.uleb128 0xd
 10856 0d11 80060000 		.4byte	.LVL179
 10857 0d15 29370000 		.4byte	0x3729
 10858 0d19 290D0000 		.4byte	0xd29
 10859 0d1d 0E       		.uleb128 0xe
 10860 0d1e 01       		.uleb128 0x1
 10861 0d1f 51       		.byte	0x51
 10862 0d20 02       		.uleb128 0x2
 10863 0d21 74       		.byte	0x74
 10864 0d22 00       		.sleb128 0
 10865 0d23 0E       		.uleb128 0xe
 10866 0d24 01       		.uleb128 0x1
 10867 0d25 50       		.byte	0x50
 10868 0d26 01       		.uleb128 0x1
 10869 0d27 38       		.byte	0x38
 10870 0d28 00       		.byte	0
 10871 0d29 0D       		.uleb128 0xd
 10872 0d2a 98060000 		.4byte	.LVL180
 10873 0d2e 0F370000 		.4byte	0x370f
 10874 0d32 3D0D0000 		.4byte	0xd3d
 10875 0d36 0E       		.uleb128 0xe
 10876 0d37 01       		.uleb128 0x1
 10877 0d38 50       		.byte	0x50
 10878 0d39 02       		.uleb128 0x2
 10879 0d3a 74       		.byte	0x74
 10880 0d3b 00       		.sleb128 0
 10881 0d3c 00       		.byte	0
 10882 0d3d 0D       		.uleb128 0xd
 10883 0d3e AC060000 		.4byte	.LVL181
 10884 0d42 0F370000 		.4byte	0x370f
 10885 0d46 560D0000 		.4byte	0xd56
 10886 0d4a 0E       		.uleb128 0xe
 10887 0d4b 01       		.uleb128 0x1
 10888 0d4c 51       		.byte	0x51
 10889 0d4d 01       		.uleb128 0x1
 10890 0d4e 3A       		.byte	0x3a
 10891 0d4f 0E       		.uleb128 0xe
 10892 0d50 01       		.uleb128 0x1
 10893 0d51 50       		.byte	0x50
 10894 0d52 02       		.uleb128 0x2
 10895 0d53 74       		.byte	0x74
 10896 0d54 00       		.sleb128 0
 10897 0d55 00       		.byte	0
 10898 0d56 0D       		.uleb128 0xd
 10899 0d57 BE060000 		.4byte	.LVL182
 10900 0d5b 3F370000 		.4byte	0x373f
 10901 0d5f 700D0000 		.4byte	0xd70
 10902 0d63 0E       		.uleb128 0xe
 10903 0d64 01       		.uleb128 0x1
 10904 0d65 51       		.byte	0x51
 10905 0d66 01       		.uleb128 0x1
ARM GAS  C:\Users\RECEPC~1\AppData\Local\Temp\ccNG63cQ.s 			page 235


 10906 0d67 49       		.byte	0x49
 10907 0d68 0E       		.uleb128 0xe
 10908 0d69 01       		.uleb128 0x1
 10909 0d6a 50       		.byte	0x50
 10910 0d6b 03       		.uleb128 0x3
 10911 0d6c 0A       		.byte	0xa
 10912 0d6d 4804     		.2byte	0x448
 10913 0d6f 00       		.byte	0
 10914 0d70 0D       		.uleb128 0xd
 10915 0d71 CA060000 		.4byte	.LVL183
 10916 0d75 3F370000 		.4byte	0x373f
 10917 0d79 8A0D0000 		.4byte	0xd8a
 10918 0d7d 0E       		.uleb128 0xe
 10919 0d7e 01       		.uleb128 0x1
 10920 0d7f 51       		.byte	0x51
 10921 0d80 01       		.uleb128 0x1
 10922 0d81 49       		.byte	0x49
 10923 0d82 0E       		.uleb128 0xe
 10924 0d83 01       		.uleb128 0x1
 10925 0d84 50       		.byte	0x50
 10926 0d85 03       		.uleb128 0x3
 10927 0d86 0A       		.byte	0xa
 10928 0d87 1E04     		.2byte	0x41e
 10929 0d89 00       		.byte	0
 10930 0d8a 0D       		.uleb128 0xd
 10931 0d8b D0060000 		.4byte	.LVL184
 10932 0d8f 59370000 		.4byte	0x3759
 10933 0d93 9E0D0000 		.4byte	0xd9e
 10934 0d97 0E       		.uleb128 0xe
 10935 0d98 01       		.uleb128 0x1
 10936 0d99 50       		.byte	0x50
 10937 0d9a 02       		.uleb128 0x2
 10938 0d9b 74       		.byte	0x74
 10939 0d9c 00       		.sleb128 0
 10940 0d9d 00       		.byte	0
 10941 0d9e 0D       		.uleb128 0xd
 10942 0d9f 10070000 		.4byte	.LVL185
 10943 0da3 6A370000 		.4byte	0x376a
 10944 0da7 BF0D0000 		.4byte	0xdbf
 10945 0dab 0E       		.uleb128 0xe
 10946 0dac 01       		.uleb128 0x1
 10947 0dad 52       		.byte	0x52
 10948 0dae 03       		.uleb128 0x3
 10949 0daf 91       		.byte	0x91
 10950 0db0 AC7F     		.sleb128 -84
 10951 0db2 0E       		.uleb128 0xe
 10952 0db3 01       		.uleb128 0x1
 10953 0db4 51       		.byte	0x51
 10954 0db5 03       		.uleb128 0x3
 10955 0db6 91       		.byte	0x91
 10956 0db7 BC7F     		.sleb128 -68
 10957 0db9 0E       		.uleb128 0xe
 10958 0dba 01       		.uleb128 0x1
 10959 0dbb 50       		.byte	0x50
 10960 0dbc 01       		.uleb128 0x1
 10961 0dbd 32       		.byte	0x32
 10962 0dbe 00       		.byte	0
ARM GAS  C:\Users\RECEPC~1\AppData\Local\Temp\ccNG63cQ.s 			page 236


 10963 0dbf 0D       		.uleb128 0xd
 10964 0dc0 28070000 		.4byte	.LVL186
 10965 0dc4 0F370000 		.4byte	0x370f
 10966 0dc8 D30D0000 		.4byte	0xdd3
 10967 0dcc 0E       		.uleb128 0xe
 10968 0dcd 01       		.uleb128 0x1
 10969 0dce 50       		.byte	0x50
 10970 0dcf 02       		.uleb128 0x2
 10971 0dd0 74       		.byte	0x74
 10972 0dd1 00       		.sleb128 0
 10973 0dd2 00       		.byte	0
 10974 0dd3 0D       		.uleb128 0xd
 10975 0dd4 3C070000 		.4byte	.LVL187
 10976 0dd8 85370000 		.4byte	0x3785
 10977 0ddc F00D0000 		.4byte	0xdf0
 10978 0de0 0E       		.uleb128 0xe
 10979 0de1 01       		.uleb128 0x1
 10980 0de2 51       		.byte	0x51
 10981 0de3 02       		.uleb128 0x2
 10982 0de4 74       		.byte	0x74
 10983 0de5 00       		.sleb128 0
 10984 0de6 0E       		.uleb128 0xe
 10985 0de7 01       		.uleb128 0x1
 10986 0de8 50       		.byte	0x50
 10987 0de9 05       		.uleb128 0x5
 10988 0dea 03       		.byte	0x3
 10989 0deb 00000000 		.4byte	resultado
 10990 0def 00       		.byte	0
 10991 0df0 0D       		.uleb128 0xd
 10992 0df1 4E070000 		.4byte	.LVL188
 10993 0df5 F5360000 		.4byte	0x36f5
 10994 0df9 0B0E0000 		.4byte	0xe0b
 10995 0dfd 0E       		.uleb128 0xe
 10996 0dfe 01       		.uleb128 0x1
 10997 0dff 51       		.byte	0x51
 10998 0e00 02       		.uleb128 0x2
 10999 0e01 91       		.byte	0x91
 11000 0e02 4C       		.sleb128 -52
 11001 0e03 0E       		.uleb128 0xe
 11002 0e04 01       		.uleb128 0x1
 11003 0e05 50       		.byte	0x50
 11004 0e06 03       		.uleb128 0x3
 11005 0e07 0A       		.byte	0xa
 11006 0e08 4804     		.2byte	0x448
 11007 0e0a 00       		.byte	0
 11008 0e0b 0D       		.uleb128 0xd
 11009 0e0c 58070000 		.4byte	.LVL189
 11010 0e10 F5360000 		.4byte	0x36f5
 11011 0e14 290E0000 		.4byte	0xe29
 11012 0e18 0E       		.uleb128 0xe
 11013 0e19 01       		.uleb128 0x1
 11014 0e1a 51       		.byte	0x51
 11015 0e1b 05       		.uleb128 0x5
 11016 0e1c 03       		.byte	0x3
 11017 0e1d 00000000 		.4byte	resultado
 11018 0e21 0E       		.uleb128 0xe
 11019 0e22 01       		.uleb128 0x1
ARM GAS  C:\Users\RECEPC~1\AppData\Local\Temp\ccNG63cQ.s 			page 237


 11020 0e23 50       		.byte	0x50
 11021 0e24 03       		.uleb128 0x3
 11022 0e25 0A       		.byte	0xa
 11023 0e26 0E04     		.2byte	0x40e
 11024 0e28 00       		.byte	0
 11025 0e29 0D       		.uleb128 0xd
 11026 0e2a 64070000 		.4byte	.LVL190
 11027 0e2e F5360000 		.4byte	0x36f5
 11028 0e32 440E0000 		.4byte	0xe44
 11029 0e36 0E       		.uleb128 0xe
 11030 0e37 01       		.uleb128 0x1
 11031 0e38 51       		.byte	0x51
 11032 0e39 02       		.uleb128 0x2
 11033 0e3a 91       		.byte	0x91
 11034 0e3b 4C       		.sleb128 -52
 11035 0e3c 0E       		.uleb128 0xe
 11036 0e3d 01       		.uleb128 0x1
 11037 0e3e 50       		.byte	0x50
 11038 0e3f 03       		.uleb128 0x3
 11039 0e40 0A       		.byte	0xa
 11040 0e41 1E04     		.2byte	0x41e
 11041 0e43 00       		.byte	0
 11042 0e44 0D       		.uleb128 0xd
 11043 0e45 6E070000 		.4byte	.LVL191
 11044 0e49 F5360000 		.4byte	0x36f5
 11045 0e4d 620E0000 		.4byte	0xe62
 11046 0e51 0E       		.uleb128 0xe
 11047 0e52 01       		.uleb128 0x1
 11048 0e53 51       		.byte	0x51
 11049 0e54 05       		.uleb128 0x5
 11050 0e55 03       		.byte	0x3
 11051 0e56 00000000 		.4byte	resultado
 11052 0e5a 0E       		.uleb128 0xe
 11053 0e5b 01       		.uleb128 0x1
 11054 0e5c 50       		.byte	0x50
 11055 0e5d 03       		.uleb128 0x3
 11056 0e5e 0A       		.byte	0xa
 11057 0e5f 3904     		.2byte	0x439
 11058 0e61 00       		.byte	0
 11059 0e62 0F       		.uleb128 0xf
 11060 0e63 72070000 		.4byte	.LVL192
 11061 0e67 E3360000 		.4byte	0x36e3
 11062 0e6b 0D       		.uleb128 0xd
 11063 0e6c E6080000 		.4byte	.LVL193
 11064 0e70 0F370000 		.4byte	0x370f
 11065 0e74 7F0E0000 		.4byte	0xe7f
 11066 0e78 0E       		.uleb128 0xe
 11067 0e79 01       		.uleb128 0x1
 11068 0e7a 50       		.byte	0x50
 11069 0e7b 02       		.uleb128 0x2
 11070 0e7c 74       		.byte	0x74
 11071 0e7d 00       		.sleb128 0
 11072 0e7e 00       		.byte	0
 11073 0e7f 0D       		.uleb128 0xd
 11074 0e80 FA080000 		.4byte	.LVL194
 11075 0e84 0F370000 		.4byte	0x370f
 11076 0e88 980E0000 		.4byte	0xe98
ARM GAS  C:\Users\RECEPC~1\AppData\Local\Temp\ccNG63cQ.s 			page 238


 11077 0e8c 0E       		.uleb128 0xe
 11078 0e8d 01       		.uleb128 0x1
 11079 0e8e 51       		.byte	0x51
 11080 0e8f 01       		.uleb128 0x1
 11081 0e90 3A       		.byte	0x3a
 11082 0e91 0E       		.uleb128 0xe
 11083 0e92 01       		.uleb128 0x1
 11084 0e93 50       		.byte	0x50
 11085 0e94 02       		.uleb128 0x2
 11086 0e95 74       		.byte	0x74
 11087 0e96 00       		.sleb128 0
 11088 0e97 00       		.byte	0
 11089 0e98 0D       		.uleb128 0xd
 11090 0e99 0E090000 		.4byte	.LVL195
 11091 0e9d 0F370000 		.4byte	0x370f
 11092 0ea1 AC0E0000 		.4byte	0xeac
 11093 0ea5 0E       		.uleb128 0xe
 11094 0ea6 01       		.uleb128 0x1
 11095 0ea7 50       		.byte	0x50
 11096 0ea8 02       		.uleb128 0x2
 11097 0ea9 74       		.byte	0x74
 11098 0eaa 00       		.sleb128 0
 11099 0eab 00       		.byte	0
 11100 0eac 0D       		.uleb128 0xd
 11101 0ead 22090000 		.4byte	.LVL196
 11102 0eb1 0F370000 		.4byte	0x370f
 11103 0eb5 C50E0000 		.4byte	0xec5
 11104 0eb9 0E       		.uleb128 0xe
 11105 0eba 01       		.uleb128 0x1
 11106 0ebb 51       		.byte	0x51
 11107 0ebc 01       		.uleb128 0x1
 11108 0ebd 3A       		.byte	0x3a
 11109 0ebe 0E       		.uleb128 0xe
 11110 0ebf 01       		.uleb128 0x1
 11111 0ec0 50       		.byte	0x50
 11112 0ec1 02       		.uleb128 0x2
 11113 0ec2 74       		.byte	0x74
 11114 0ec3 00       		.sleb128 0
 11115 0ec4 00       		.byte	0
 11116 0ec5 0D       		.uleb128 0xd
 11117 0ec6 2A090000 		.4byte	.LVL197
 11118 0eca 29370000 		.4byte	0x3729
 11119 0ece DE0E0000 		.4byte	0xede
 11120 0ed2 0E       		.uleb128 0xe
 11121 0ed3 01       		.uleb128 0x1
 11122 0ed4 51       		.byte	0x51
 11123 0ed5 02       		.uleb128 0x2
 11124 0ed6 74       		.byte	0x74
 11125 0ed7 00       		.sleb128 0
 11126 0ed8 0E       		.uleb128 0xe
 11127 0ed9 01       		.uleb128 0x1
 11128 0eda 50       		.byte	0x50
 11129 0edb 01       		.uleb128 0x1
 11130 0edc 38       		.byte	0x38
 11131 0edd 00       		.byte	0
 11132 0ede 0D       		.uleb128 0xd
 11133 0edf 40090000 		.4byte	.LVL198
ARM GAS  C:\Users\RECEPC~1\AppData\Local\Temp\ccNG63cQ.s 			page 239


 11134 0ee3 0F370000 		.4byte	0x370f
 11135 0ee7 F20E0000 		.4byte	0xef2
 11136 0eeb 0E       		.uleb128 0xe
 11137 0eec 01       		.uleb128 0x1
 11138 0eed 50       		.byte	0x50
 11139 0eee 02       		.uleb128 0x2
 11140 0eef 74       		.byte	0x74
 11141 0ef0 00       		.sleb128 0
 11142 0ef1 00       		.byte	0
 11143 0ef2 0D       		.uleb128 0xd
 11144 0ef3 54090000 		.4byte	.LVL199
 11145 0ef7 0F370000 		.4byte	0x370f
 11146 0efb 0B0F0000 		.4byte	0xf0b
 11147 0eff 0E       		.uleb128 0xe
 11148 0f00 01       		.uleb128 0x1
 11149 0f01 51       		.byte	0x51
 11150 0f02 01       		.uleb128 0x1
 11151 0f03 3A       		.byte	0x3a
 11152 0f04 0E       		.uleb128 0xe
 11153 0f05 01       		.uleb128 0x1
 11154 0f06 50       		.byte	0x50
 11155 0f07 02       		.uleb128 0x2
 11156 0f08 74       		.byte	0x74
 11157 0f09 00       		.sleb128 0
 11158 0f0a 00       		.byte	0
 11159 0f0b 0D       		.uleb128 0xd
 11160 0f0c 64090000 		.4byte	.LVL200
 11161 0f10 3F370000 		.4byte	0x373f
 11162 0f14 240F0000 		.4byte	0xf24
 11163 0f18 0E       		.uleb128 0xe
 11164 0f19 01       		.uleb128 0x1
 11165 0f1a 51       		.byte	0x51
 11166 0f1b 01       		.uleb128 0x1
 11167 0f1c 49       		.byte	0x49
 11168 0f1d 0E       		.uleb128 0xe
 11169 0f1e 01       		.uleb128 0x1
 11170 0f1f 50       		.byte	0x50
 11171 0f20 02       		.uleb128 0x2
 11172 0f21 08       		.byte	0x8
 11173 0f22 C0       		.byte	0xc0
 11174 0f23 00       		.byte	0
 11175 0f24 0D       		.uleb128 0xd
 11176 0f25 70090000 		.4byte	.LVL201
 11177 0f29 3F370000 		.4byte	0x373f
 11178 0f2d 3E0F0000 		.4byte	0xf3e
 11179 0f31 0E       		.uleb128 0xe
 11180 0f32 01       		.uleb128 0x1
 11181 0f33 51       		.byte	0x51
 11182 0f34 01       		.uleb128 0x1
 11183 0f35 49       		.byte	0x49
 11184 0f36 0E       		.uleb128 0xe
 11185 0f37 01       		.uleb128 0x1
 11186 0f38 50       		.byte	0x50
 11187 0f39 03       		.uleb128 0x3
 11188 0f3a 0A       		.byte	0xa
 11189 0f3b 1901     		.2byte	0x119
 11190 0f3d 00       		.byte	0
ARM GAS  C:\Users\RECEPC~1\AppData\Local\Temp\ccNG63cQ.s 			page 240


 11191 0f3e 0D       		.uleb128 0xd
 11192 0f3f 76090000 		.4byte	.LVL202
 11193 0f43 59370000 		.4byte	0x3759
 11194 0f47 520F0000 		.4byte	0xf52
 11195 0f4b 0E       		.uleb128 0xe
 11196 0f4c 01       		.uleb128 0x1
 11197 0f4d 50       		.byte	0x50
 11198 0f4e 02       		.uleb128 0x2
 11199 0f4f 74       		.byte	0x74
 11200 0f50 00       		.sleb128 0
 11201 0f51 00       		.byte	0
 11202 0f52 0D       		.uleb128 0xd
 11203 0f53 BE090000 		.4byte	.LVL203
 11204 0f57 6A370000 		.4byte	0x376a
 11205 0f5b 730F0000 		.4byte	0xf73
 11206 0f5f 0E       		.uleb128 0xe
 11207 0f60 01       		.uleb128 0x1
 11208 0f61 52       		.byte	0x52
 11209 0f62 03       		.uleb128 0x3
 11210 0f63 91       		.byte	0x91
 11211 0f64 AC7F     		.sleb128 -84
 11212 0f66 0E       		.uleb128 0xe
 11213 0f67 01       		.uleb128 0x1
 11214 0f68 51       		.byte	0x51
 11215 0f69 03       		.uleb128 0x3
 11216 0f6a 91       		.byte	0x91
 11217 0f6b BC7F     		.sleb128 -68
 11218 0f6d 0E       		.uleb128 0xe
 11219 0f6e 01       		.uleb128 0x1
 11220 0f6f 50       		.byte	0x50
 11221 0f70 01       		.uleb128 0x1
 11222 0f71 32       		.byte	0x32
 11223 0f72 00       		.byte	0
 11224 0f73 0D       		.uleb128 0xd
 11225 0f74 D4090000 		.4byte	.LVL204
 11226 0f78 0F370000 		.4byte	0x370f
 11227 0f7c 870F0000 		.4byte	0xf87
 11228 0f80 0E       		.uleb128 0xe
 11229 0f81 01       		.uleb128 0x1
 11230 0f82 50       		.byte	0x50
 11231 0f83 02       		.uleb128 0x2
 11232 0f84 74       		.byte	0x74
 11233 0f85 00       		.sleb128 0
 11234 0f86 00       		.byte	0
 11235 0f87 0D       		.uleb128 0xd
 11236 0f88 E8090000 		.4byte	.LVL205
 11237 0f8c 85370000 		.4byte	0x3785
 11238 0f90 A40F0000 		.4byte	0xfa4
 11239 0f94 0E       		.uleb128 0xe
 11240 0f95 01       		.uleb128 0x1
 11241 0f96 51       		.byte	0x51
 11242 0f97 02       		.uleb128 0x2
 11243 0f98 74       		.byte	0x74
 11244 0f99 00       		.sleb128 0
 11245 0f9a 0E       		.uleb128 0xe
 11246 0f9b 01       		.uleb128 0x1
 11247 0f9c 50       		.byte	0x50
ARM GAS  C:\Users\RECEPC~1\AppData\Local\Temp\ccNG63cQ.s 			page 241


 11248 0f9d 05       		.uleb128 0x5
 11249 0f9e 03       		.byte	0x3
 11250 0f9f 00000000 		.4byte	resultado
 11251 0fa3 00       		.byte	0
 11252 0fa4 0D       		.uleb128 0xd
 11253 0fa5 F8090000 		.4byte	.LVL206
 11254 0fa9 F5360000 		.4byte	0x36f5
 11255 0fad BE0F0000 		.4byte	0xfbe
 11256 0fb1 0E       		.uleb128 0xe
 11257 0fb2 01       		.uleb128 0x1
 11258 0fb3 51       		.byte	0x51
 11259 0fb4 02       		.uleb128 0x2
 11260 0fb5 91       		.byte	0x91
 11261 0fb6 4C       		.sleb128 -52
 11262 0fb7 0E       		.uleb128 0xe
 11263 0fb8 01       		.uleb128 0x1
 11264 0fb9 50       		.byte	0x50
 11265 0fba 02       		.uleb128 0x2
 11266 0fbb 08       		.byte	0x8
 11267 0fbc C0       		.byte	0xc0
 11268 0fbd 00       		.byte	0
 11269 0fbe 0D       		.uleb128 0xd
 11270 0fbf 020A0000 		.4byte	.LVL207
 11271 0fc3 F5360000 		.4byte	0x36f5
 11272 0fc7 DC0F0000 		.4byte	0xfdc
 11273 0fcb 0E       		.uleb128 0xe
 11274 0fcc 01       		.uleb128 0x1
 11275 0fcd 51       		.byte	0x51
 11276 0fce 05       		.uleb128 0x5
 11277 0fcf 03       		.byte	0x3
 11278 0fd0 00000000 		.4byte	resultado
 11279 0fd4 0E       		.uleb128 0xe
 11280 0fd5 01       		.uleb128 0x1
 11281 0fd6 50       		.byte	0x50
 11282 0fd7 03       		.uleb128 0x3
 11283 0fd8 0A       		.byte	0xa
 11284 0fd9 0002     		.2byte	0x200
 11285 0fdb 00       		.byte	0
 11286 0fdc 0D       		.uleb128 0xd
 11287 0fdd 0E0A0000 		.4byte	.LVL208
 11288 0fe1 F5360000 		.4byte	0x36f5
 11289 0fe5 F70F0000 		.4byte	0xff7
 11290 0fe9 0E       		.uleb128 0xe
 11291 0fea 01       		.uleb128 0x1
 11292 0feb 51       		.byte	0x51
 11293 0fec 02       		.uleb128 0x2
 11294 0fed 91       		.byte	0x91
 11295 0fee 4C       		.sleb128 -52
 11296 0fef 0E       		.uleb128 0xe
 11297 0ff0 01       		.uleb128 0x1
 11298 0ff1 50       		.byte	0x50
 11299 0ff2 03       		.uleb128 0x3
 11300 0ff3 0A       		.byte	0xa
 11301 0ff4 1901     		.2byte	0x119
 11302 0ff6 00       		.byte	0
 11303 0ff7 0D       		.uleb128 0xd
 11304 0ff8 180A0000 		.4byte	.LVL209
ARM GAS  C:\Users\RECEPC~1\AppData\Local\Temp\ccNG63cQ.s 			page 242


 11305 0ffc F5360000 		.4byte	0x36f5
 11306 1000 15100000 		.4byte	0x1015
 11307 1004 0E       		.uleb128 0xe
 11308 1005 01       		.uleb128 0x1
 11309 1006 51       		.byte	0x51
 11310 1007 05       		.uleb128 0x5
 11311 1008 03       		.byte	0x3
 11312 1009 00000000 		.4byte	resultado
 11313 100d 0E       		.uleb128 0xe
 11314 100e 01       		.uleb128 0x1
 11315 100f 50       		.byte	0x50
 11316 1010 03       		.uleb128 0x3
 11317 1011 0A       		.byte	0xa
 11318 1012 2702     		.2byte	0x227
 11319 1014 00       		.byte	0
 11320 1015 0D       		.uleb128 0xd
 11321 1016 600A0000 		.4byte	.LVL210
 11322 101a 0F370000 		.4byte	0x370f
 11323 101e 29100000 		.4byte	0x1029
 11324 1022 0E       		.uleb128 0xe
 11325 1023 01       		.uleb128 0x1
 11326 1024 50       		.byte	0x50
 11327 1025 02       		.uleb128 0x2
 11328 1026 74       		.byte	0x74
 11329 1027 00       		.sleb128 0
 11330 1028 00       		.byte	0
 11331 1029 0D       		.uleb128 0xd
 11332 102a 740A0000 		.4byte	.LVL211
 11333 102e 0F370000 		.4byte	0x370f
 11334 1032 42100000 		.4byte	0x1042
 11335 1036 0E       		.uleb128 0xe
 11336 1037 01       		.uleb128 0x1
 11337 1038 51       		.byte	0x51
 11338 1039 01       		.uleb128 0x1
 11339 103a 3A       		.byte	0x3a
 11340 103b 0E       		.uleb128 0xe
 11341 103c 01       		.uleb128 0x1
 11342 103d 50       		.byte	0x50
 11343 103e 02       		.uleb128 0x2
 11344 103f 74       		.byte	0x74
 11345 1040 00       		.sleb128 0
 11346 1041 00       		.byte	0
 11347 1042 0D       		.uleb128 0xd
 11348 1043 880A0000 		.4byte	.LVL212
 11349 1047 0F370000 		.4byte	0x370f
 11350 104b 56100000 		.4byte	0x1056
 11351 104f 0E       		.uleb128 0xe
 11352 1050 01       		.uleb128 0x1
 11353 1051 50       		.byte	0x50
 11354 1052 02       		.uleb128 0x2
 11355 1053 74       		.byte	0x74
 11356 1054 00       		.sleb128 0
 11357 1055 00       		.byte	0
 11358 1056 0D       		.uleb128 0xd
 11359 1057 9C0A0000 		.4byte	.LVL213
 11360 105b 0F370000 		.4byte	0x370f
 11361 105f 6F100000 		.4byte	0x106f
ARM GAS  C:\Users\RECEPC~1\AppData\Local\Temp\ccNG63cQ.s 			page 243


 11362 1063 0E       		.uleb128 0xe
 11363 1064 01       		.uleb128 0x1
 11364 1065 51       		.byte	0x51
 11365 1066 01       		.uleb128 0x1
 11366 1067 3A       		.byte	0x3a
 11367 1068 0E       		.uleb128 0xe
 11368 1069 01       		.uleb128 0x1
 11369 106a 50       		.byte	0x50
 11370 106b 02       		.uleb128 0x2
 11371 106c 74       		.byte	0x74
 11372 106d 00       		.sleb128 0
 11373 106e 00       		.byte	0
 11374 106f 0D       		.uleb128 0xd
 11375 1070 A40A0000 		.4byte	.LVL214
 11376 1074 29370000 		.4byte	0x3729
 11377 1078 88100000 		.4byte	0x1088
 11378 107c 0E       		.uleb128 0xe
 11379 107d 01       		.uleb128 0x1
 11380 107e 51       		.byte	0x51
 11381 107f 02       		.uleb128 0x2
 11382 1080 74       		.byte	0x74
 11383 1081 00       		.sleb128 0
 11384 1082 0E       		.uleb128 0xe
 11385 1083 01       		.uleb128 0x1
 11386 1084 50       		.byte	0x50
 11387 1085 01       		.uleb128 0x1
 11388 1086 38       		.byte	0x38
 11389 1087 00       		.byte	0
 11390 1088 0D       		.uleb128 0xd
 11391 1089 BA0A0000 		.4byte	.LVL215
 11392 108d 0F370000 		.4byte	0x370f
 11393 1091 9C100000 		.4byte	0x109c
 11394 1095 0E       		.uleb128 0xe
 11395 1096 01       		.uleb128 0x1
 11396 1097 50       		.byte	0x50
 11397 1098 02       		.uleb128 0x2
 11398 1099 74       		.byte	0x74
 11399 109a 00       		.sleb128 0
 11400 109b 00       		.byte	0
 11401 109c 0D       		.uleb128 0xd
 11402 109d CE0A0000 		.4byte	.LVL216
 11403 10a1 0F370000 		.4byte	0x370f
 11404 10a5 B5100000 		.4byte	0x10b5
 11405 10a9 0E       		.uleb128 0xe
 11406 10aa 01       		.uleb128 0x1
 11407 10ab 51       		.byte	0x51
 11408 10ac 01       		.uleb128 0x1
 11409 10ad 3A       		.byte	0x3a
 11410 10ae 0E       		.uleb128 0xe
 11411 10af 01       		.uleb128 0x1
 11412 10b0 50       		.byte	0x50
 11413 10b1 02       		.uleb128 0x2
 11414 10b2 74       		.byte	0x74
 11415 10b3 00       		.sleb128 0
 11416 10b4 00       		.byte	0
 11417 10b5 0D       		.uleb128 0xd
 11418 10b6 DE0A0000 		.4byte	.LVL217
ARM GAS  C:\Users\RECEPC~1\AppData\Local\Temp\ccNG63cQ.s 			page 244


 11419 10ba 3F370000 		.4byte	0x373f
 11420 10be CE100000 		.4byte	0x10ce
 11421 10c2 0E       		.uleb128 0xe
 11422 10c3 01       		.uleb128 0x1
 11423 10c4 51       		.byte	0x51
 11424 10c5 01       		.uleb128 0x1
 11425 10c6 49       		.byte	0x49
 11426 10c7 0E       		.uleb128 0xe
 11427 10c8 01       		.uleb128 0x1
 11428 10c9 50       		.byte	0x50
 11429 10ca 02       		.uleb128 0x2
 11430 10cb 08       		.byte	0x8
 11431 10cc D9       		.byte	0xd9
 11432 10cd 00       		.byte	0
 11433 10ce 0D       		.uleb128 0xd
 11434 10cf EA0A0000 		.4byte	.LVL218
 11435 10d3 3F370000 		.4byte	0x373f
 11436 10d7 E8100000 		.4byte	0x10e8
 11437 10db 0E       		.uleb128 0xe
 11438 10dc 01       		.uleb128 0x1
 11439 10dd 51       		.byte	0x51
 11440 10de 01       		.uleb128 0x1
 11441 10df 49       		.byte	0x49
 11442 10e0 0E       		.uleb128 0xe
 11443 10e1 01       		.uleb128 0x1
 11444 10e2 50       		.byte	0x50
 11445 10e3 03       		.uleb128 0x3
 11446 10e4 0A       		.byte	0xa
 11447 10e5 4001     		.2byte	0x140
 11448 10e7 00       		.byte	0
 11449 10e8 0D       		.uleb128 0xd
 11450 10e9 F00A0000 		.4byte	.LVL219
 11451 10ed 59370000 		.4byte	0x3759
 11452 10f1 FC100000 		.4byte	0x10fc
 11453 10f5 0E       		.uleb128 0xe
 11454 10f6 01       		.uleb128 0x1
 11455 10f7 50       		.byte	0x50
 11456 10f8 02       		.uleb128 0x2
 11457 10f9 74       		.byte	0x74
 11458 10fa 00       		.sleb128 0
 11459 10fb 00       		.byte	0
 11460 10fc 0D       		.uleb128 0xd
 11461 10fd 380B0000 		.4byte	.LVL220
 11462 1101 6A370000 		.4byte	0x376a
 11463 1105 1D110000 		.4byte	0x111d
 11464 1109 0E       		.uleb128 0xe
 11465 110a 01       		.uleb128 0x1
 11466 110b 52       		.byte	0x52
 11467 110c 03       		.uleb128 0x3
 11468 110d 91       		.byte	0x91
 11469 110e AC7F     		.sleb128 -84
 11470 1110 0E       		.uleb128 0xe
 11471 1111 01       		.uleb128 0x1
 11472 1112 51       		.byte	0x51
 11473 1113 03       		.uleb128 0x3
 11474 1114 91       		.byte	0x91
 11475 1115 BC7F     		.sleb128 -68
ARM GAS  C:\Users\RECEPC~1\AppData\Local\Temp\ccNG63cQ.s 			page 245


 11476 1117 0E       		.uleb128 0xe
 11477 1118 01       		.uleb128 0x1
 11478 1119 50       		.byte	0x50
 11479 111a 01       		.uleb128 0x1
 11480 111b 32       		.byte	0x32
 11481 111c 00       		.byte	0
 11482 111d 0D       		.uleb128 0xd
 11483 111e 4E0B0000 		.4byte	.LVL221
 11484 1122 0F370000 		.4byte	0x370f
 11485 1126 31110000 		.4byte	0x1131
 11486 112a 0E       		.uleb128 0xe
 11487 112b 01       		.uleb128 0x1
 11488 112c 50       		.byte	0x50
 11489 112d 02       		.uleb128 0x2
 11490 112e 74       		.byte	0x74
 11491 112f 00       		.sleb128 0
 11492 1130 00       		.byte	0
 11493 1131 0D       		.uleb128 0xd
 11494 1132 620B0000 		.4byte	.LVL222
 11495 1136 85370000 		.4byte	0x3785
 11496 113a 4E110000 		.4byte	0x114e
 11497 113e 0E       		.uleb128 0xe
 11498 113f 01       		.uleb128 0x1
 11499 1140 51       		.byte	0x51
 11500 1141 02       		.uleb128 0x2
 11501 1142 74       		.byte	0x74
 11502 1143 00       		.sleb128 0
 11503 1144 0E       		.uleb128 0xe
 11504 1145 01       		.uleb128 0x1
 11505 1146 50       		.byte	0x50
 11506 1147 05       		.uleb128 0x5
 11507 1148 03       		.byte	0x3
 11508 1149 00000000 		.4byte	resultado
 11509 114d 00       		.byte	0
 11510 114e 0D       		.uleb128 0xd
 11511 114f 720B0000 		.4byte	.LVL223
 11512 1153 F5360000 		.4byte	0x36f5
 11513 1157 68110000 		.4byte	0x1168
 11514 115b 0E       		.uleb128 0xe
 11515 115c 01       		.uleb128 0x1
 11516 115d 51       		.byte	0x51
 11517 115e 02       		.uleb128 0x2
 11518 115f 91       		.byte	0x91
 11519 1160 4C       		.sleb128 -52
 11520 1161 0E       		.uleb128 0xe
 11521 1162 01       		.uleb128 0x1
 11522 1163 50       		.byte	0x50
 11523 1164 02       		.uleb128 0x2
 11524 1165 08       		.byte	0x8
 11525 1166 D9       		.byte	0xd9
 11526 1167 00       		.byte	0
 11527 1168 0D       		.uleb128 0xd
 11528 1169 7C0B0000 		.4byte	.LVL224
 11529 116d F5360000 		.4byte	0x36f5
 11530 1171 86110000 		.4byte	0x1186
 11531 1175 0E       		.uleb128 0xe
 11532 1176 01       		.uleb128 0x1
ARM GAS  C:\Users\RECEPC~1\AppData\Local\Temp\ccNG63cQ.s 			page 246


 11533 1177 51       		.byte	0x51
 11534 1178 05       		.uleb128 0x5
 11535 1179 03       		.byte	0x3
 11536 117a 00000000 		.4byte	resultado
 11537 117e 0E       		.uleb128 0xe
 11538 117f 01       		.uleb128 0x1
 11539 1180 50       		.byte	0x50
 11540 1181 03       		.uleb128 0x3
 11541 1182 0A       		.byte	0xa
 11542 1183 1A02     		.2byte	0x21a
 11543 1185 00       		.byte	0
 11544 1186 0D       		.uleb128 0xd
 11545 1187 880B0000 		.4byte	.LVL225
 11546 118b F5360000 		.4byte	0x36f5
 11547 118f A1110000 		.4byte	0x11a1
 11548 1193 0E       		.uleb128 0xe
 11549 1194 01       		.uleb128 0x1
 11550 1195 51       		.byte	0x51
 11551 1196 02       		.uleb128 0x2
 11552 1197 91       		.byte	0x91
 11553 1198 4C       		.sleb128 -52
 11554 1199 0E       		.uleb128 0xe
 11555 119a 01       		.uleb128 0x1
 11556 119b 50       		.byte	0x50
 11557 119c 03       		.uleb128 0x3
 11558 119d 0A       		.byte	0xa
 11559 119e 4001     		.2byte	0x140
 11560 11a0 00       		.byte	0
 11561 11a1 0D       		.uleb128 0xd
 11562 11a2 920B0000 		.4byte	.LVL226
 11563 11a6 F5360000 		.4byte	0x36f5
 11564 11aa BF110000 		.4byte	0x11bf
 11565 11ae 0E       		.uleb128 0xe
 11566 11af 01       		.uleb128 0x1
 11567 11b0 51       		.byte	0x51
 11568 11b1 05       		.uleb128 0x5
 11569 11b2 03       		.byte	0x3
 11570 11b3 00000000 		.4byte	resultado
 11571 11b7 0E       		.uleb128 0xe
 11572 11b8 01       		.uleb128 0x1
 11573 11b9 50       		.byte	0x50
 11574 11ba 03       		.uleb128 0x3
 11575 11bb 0A       		.byte	0xa
 11576 11bc 4002     		.2byte	0x240
 11577 11be 00       		.byte	0
 11578 11bf 0D       		.uleb128 0xd
 11579 11c0 DA0B0000 		.4byte	.LVL227
 11580 11c4 0F370000 		.4byte	0x370f
 11581 11c8 D3110000 		.4byte	0x11d3
 11582 11cc 0E       		.uleb128 0xe
 11583 11cd 01       		.uleb128 0x1
 11584 11ce 50       		.byte	0x50
 11585 11cf 02       		.uleb128 0x2
 11586 11d0 74       		.byte	0x74
 11587 11d1 00       		.sleb128 0
 11588 11d2 00       		.byte	0
 11589 11d3 0D       		.uleb128 0xd
ARM GAS  C:\Users\RECEPC~1\AppData\Local\Temp\ccNG63cQ.s 			page 247


 11590 11d4 EE0B0000 		.4byte	.LVL228
 11591 11d8 0F370000 		.4byte	0x370f
 11592 11dc EC110000 		.4byte	0x11ec
 11593 11e0 0E       		.uleb128 0xe
 11594 11e1 01       		.uleb128 0x1
 11595 11e2 51       		.byte	0x51
 11596 11e3 01       		.uleb128 0x1
 11597 11e4 3A       		.byte	0x3a
 11598 11e5 0E       		.uleb128 0xe
 11599 11e6 01       		.uleb128 0x1
 11600 11e7 50       		.byte	0x50
 11601 11e8 02       		.uleb128 0x2
 11602 11e9 74       		.byte	0x74
 11603 11ea 00       		.sleb128 0
 11604 11eb 00       		.byte	0
 11605 11ec 0D       		.uleb128 0xd
 11606 11ed 020C0000 		.4byte	.LVL229
 11607 11f1 0F370000 		.4byte	0x370f
 11608 11f5 00120000 		.4byte	0x1200
 11609 11f9 0E       		.uleb128 0xe
 11610 11fa 01       		.uleb128 0x1
 11611 11fb 50       		.byte	0x50
 11612 11fc 02       		.uleb128 0x2
 11613 11fd 74       		.byte	0x74
 11614 11fe 00       		.sleb128 0
 11615 11ff 00       		.byte	0
 11616 1200 0D       		.uleb128 0xd
 11617 1201 160C0000 		.4byte	.LVL230
 11618 1205 0F370000 		.4byte	0x370f
 11619 1209 19120000 		.4byte	0x1219
 11620 120d 0E       		.uleb128 0xe
 11621 120e 01       		.uleb128 0x1
 11622 120f 51       		.byte	0x51
 11623 1210 01       		.uleb128 0x1
 11624 1211 3A       		.byte	0x3a
 11625 1212 0E       		.uleb128 0xe
 11626 1213 01       		.uleb128 0x1
 11627 1214 50       		.byte	0x50
 11628 1215 02       		.uleb128 0x2
 11629 1216 74       		.byte	0x74
 11630 1217 00       		.sleb128 0
 11631 1218 00       		.byte	0
 11632 1219 0D       		.uleb128 0xd
 11633 121a 1E0C0000 		.4byte	.LVL231
 11634 121e 29370000 		.4byte	0x3729
 11635 1222 32120000 		.4byte	0x1232
 11636 1226 0E       		.uleb128 0xe
 11637 1227 01       		.uleb128 0x1
 11638 1228 51       		.byte	0x51
 11639 1229 02       		.uleb128 0x2
 11640 122a 74       		.byte	0x74
 11641 122b 00       		.sleb128 0
 11642 122c 0E       		.uleb128 0xe
 11643 122d 01       		.uleb128 0x1
 11644 122e 50       		.byte	0x50
 11645 122f 01       		.uleb128 0x1
 11646 1230 38       		.byte	0x38
ARM GAS  C:\Users\RECEPC~1\AppData\Local\Temp\ccNG63cQ.s 			page 248


 11647 1231 00       		.byte	0
 11648 1232 0D       		.uleb128 0xd
 11649 1233 5C0C0000 		.4byte	.LVL232
 11650 1237 0F370000 		.4byte	0x370f
 11651 123b 46120000 		.4byte	0x1246
 11652 123f 0E       		.uleb128 0xe
 11653 1240 01       		.uleb128 0x1
 11654 1241 50       		.byte	0x50
 11655 1242 02       		.uleb128 0x2
 11656 1243 74       		.byte	0x74
 11657 1244 00       		.sleb128 0
 11658 1245 00       		.byte	0
 11659 1246 0D       		.uleb128 0xd
 11660 1247 700C0000 		.4byte	.LVL233
 11661 124b 0F370000 		.4byte	0x370f
 11662 124f 5F120000 		.4byte	0x125f
 11663 1253 0E       		.uleb128 0xe
 11664 1254 01       		.uleb128 0x1
 11665 1255 51       		.byte	0x51
 11666 1256 01       		.uleb128 0x1
 11667 1257 3A       		.byte	0x3a
 11668 1258 0E       		.uleb128 0xe
 11669 1259 01       		.uleb128 0x1
 11670 125a 50       		.byte	0x50
 11671 125b 02       		.uleb128 0x2
 11672 125c 74       		.byte	0x74
 11673 125d 00       		.sleb128 0
 11674 125e 00       		.byte	0
 11675 125f 0D       		.uleb128 0xd
 11676 1260 820C0000 		.4byte	.LVL234
 11677 1264 3F370000 		.4byte	0x373f
 11678 1268 79120000 		.4byte	0x1279
 11679 126c 0E       		.uleb128 0xe
 11680 126d 01       		.uleb128 0x1
 11681 126e 51       		.byte	0x51
 11682 126f 01       		.uleb128 0x1
 11683 1270 49       		.byte	0x49
 11684 1271 0E       		.uleb128 0xe
 11685 1272 01       		.uleb128 0x1
 11686 1273 50       		.byte	0x50
 11687 1274 03       		.uleb128 0x3
 11688 1275 0A       		.byte	0xa
 11689 1276 0001     		.2byte	0x100
 11690 1278 00       		.byte	0
 11691 1279 0D       		.uleb128 0xd
 11692 127a 8E0C0000 		.4byte	.LVL235
 11693 127e 3F370000 		.4byte	0x373f
 11694 1282 93120000 		.4byte	0x1293
 11695 1286 0E       		.uleb128 0xe
 11696 1287 01       		.uleb128 0x1
 11697 1288 51       		.byte	0x51
 11698 1289 01       		.uleb128 0x1
 11699 128a 49       		.byte	0x49
 11700 128b 0E       		.uleb128 0xe
 11701 128c 01       		.uleb128 0x1
 11702 128d 50       		.byte	0x50
 11703 128e 03       		.uleb128 0x3
ARM GAS  C:\Users\RECEPC~1\AppData\Local\Temp\ccNG63cQ.s 			page 249


 11704 128f 0A       		.byte	0xa
 11705 1290 5901     		.2byte	0x159
 11706 1292 00       		.byte	0
 11707 1293 0D       		.uleb128 0xd
 11708 1294 940C0000 		.4byte	.LVL236
 11709 1298 59370000 		.4byte	0x3759
 11710 129c A7120000 		.4byte	0x12a7
 11711 12a0 0E       		.uleb128 0xe
 11712 12a1 01       		.uleb128 0x1
 11713 12a2 50       		.byte	0x50
 11714 12a3 02       		.uleb128 0x2
 11715 12a4 74       		.byte	0x74
 11716 12a5 00       		.sleb128 0
 11717 12a6 00       		.byte	0
 11718 12a7 0D       		.uleb128 0xd
 11719 12a8 DC0C0000 		.4byte	.LVL237
 11720 12ac 6A370000 		.4byte	0x376a
 11721 12b0 C8120000 		.4byte	0x12c8
 11722 12b4 0E       		.uleb128 0xe
 11723 12b5 01       		.uleb128 0x1
 11724 12b6 52       		.byte	0x52
 11725 12b7 03       		.uleb128 0x3
 11726 12b8 91       		.byte	0x91
 11727 12b9 AC7F     		.sleb128 -84
 11728 12bb 0E       		.uleb128 0xe
 11729 12bc 01       		.uleb128 0x1
 11730 12bd 51       		.byte	0x51
 11731 12be 03       		.uleb128 0x3
 11732 12bf 91       		.byte	0x91
 11733 12c0 BC7F     		.sleb128 -68
 11734 12c2 0E       		.uleb128 0xe
 11735 12c3 01       		.uleb128 0x1
 11736 12c4 50       		.byte	0x50
 11737 12c5 01       		.uleb128 0x1
 11738 12c6 32       		.byte	0x32
 11739 12c7 00       		.byte	0
 11740 12c8 0D       		.uleb128 0xd
 11741 12c9 F20C0000 		.4byte	.LVL238
 11742 12cd 0F370000 		.4byte	0x370f
 11743 12d1 DC120000 		.4byte	0x12dc
 11744 12d5 0E       		.uleb128 0xe
 11745 12d6 01       		.uleb128 0x1
 11746 12d7 50       		.byte	0x50
 11747 12d8 02       		.uleb128 0x2
 11748 12d9 74       		.byte	0x74
 11749 12da 00       		.sleb128 0
 11750 12db 00       		.byte	0
 11751 12dc 0D       		.uleb128 0xd
 11752 12dd 060D0000 		.4byte	.LVL239
 11753 12e1 85370000 		.4byte	0x3785
 11754 12e5 F9120000 		.4byte	0x12f9
 11755 12e9 0E       		.uleb128 0xe
 11756 12ea 01       		.uleb128 0x1
 11757 12eb 51       		.byte	0x51
 11758 12ec 02       		.uleb128 0x2
 11759 12ed 74       		.byte	0x74
 11760 12ee 00       		.sleb128 0
ARM GAS  C:\Users\RECEPC~1\AppData\Local\Temp\ccNG63cQ.s 			page 250


 11761 12ef 0E       		.uleb128 0xe
 11762 12f0 01       		.uleb128 0x1
 11763 12f1 50       		.byte	0x50
 11764 12f2 05       		.uleb128 0x5
 11765 12f3 03       		.byte	0x3
 11766 12f4 00000000 		.4byte	resultado
 11767 12f8 00       		.byte	0
 11768 12f9 0D       		.uleb128 0xd
 11769 12fa 180D0000 		.4byte	.LVL240
 11770 12fe F5360000 		.4byte	0x36f5
 11771 1302 14130000 		.4byte	0x1314
 11772 1306 0E       		.uleb128 0xe
 11773 1307 01       		.uleb128 0x1
 11774 1308 51       		.byte	0x51
 11775 1309 02       		.uleb128 0x2
 11776 130a 91       		.byte	0x91
 11777 130b 4C       		.sleb128 -52
 11778 130c 0E       		.uleb128 0xe
 11779 130d 01       		.uleb128 0x1
 11780 130e 50       		.byte	0x50
 11781 130f 03       		.uleb128 0x3
 11782 1310 0A       		.byte	0xa
 11783 1311 0001     		.2byte	0x100
 11784 1313 00       		.byte	0
 11785 1314 0D       		.uleb128 0xd
 11786 1315 220D0000 		.4byte	.LVL241
 11787 1319 F5360000 		.4byte	0x36f5
 11788 131d 32130000 		.4byte	0x1332
 11789 1321 0E       		.uleb128 0xe
 11790 1322 01       		.uleb128 0x1
 11791 1323 51       		.byte	0x51
 11792 1324 05       		.uleb128 0x5
 11793 1325 03       		.byte	0x3
 11794 1326 00000000 		.4byte	resultado
 11795 132a 0E       		.uleb128 0xe
 11796 132b 01       		.uleb128 0x1
 11797 132c 50       		.byte	0x50
 11798 132d 03       		.uleb128 0x3
 11799 132e 0A       		.byte	0xa
 11800 132f 0D02     		.2byte	0x20d
 11801 1331 00       		.byte	0
 11802 1332 0D       		.uleb128 0xd
 11803 1333 2E0D0000 		.4byte	.LVL242
 11804 1337 F5360000 		.4byte	0x36f5
 11805 133b 4D130000 		.4byte	0x134d
 11806 133f 0E       		.uleb128 0xe
 11807 1340 01       		.uleb128 0x1
 11808 1341 51       		.byte	0x51
 11809 1342 02       		.uleb128 0x2
 11810 1343 91       		.byte	0x91
 11811 1344 4C       		.sleb128 -52
 11812 1345 0E       		.uleb128 0xe
 11813 1346 01       		.uleb128 0x1
 11814 1347 50       		.byte	0x50
 11815 1348 03       		.uleb128 0x3
 11816 1349 0A       		.byte	0xa
 11817 134a 5901     		.2byte	0x159
ARM GAS  C:\Users\RECEPC~1\AppData\Local\Temp\ccNG63cQ.s 			page 251


 11818 134c 00       		.byte	0
 11819 134d 0D       		.uleb128 0xd
 11820 134e 380D0000 		.4byte	.LVL243
 11821 1352 F5360000 		.4byte	0x36f5
 11822 1356 6B130000 		.4byte	0x136b
 11823 135a 0E       		.uleb128 0xe
 11824 135b 01       		.uleb128 0x1
 11825 135c 51       		.byte	0x51
 11826 135d 05       		.uleb128 0x5
 11827 135e 03       		.byte	0x3
 11828 135f 00000000 		.4byte	resultado
 11829 1363 0E       		.uleb128 0xe
 11830 1364 01       		.uleb128 0x1
 11831 1365 50       		.byte	0x50
 11832 1366 03       		.uleb128 0x3
 11833 1367 0A       		.byte	0xa
 11834 1368 4D02     		.2byte	0x24d
 11835 136a 00       		.byte	0
 11836 136b 0D       		.uleb128 0xd
 11837 136c 800D0000 		.4byte	.LVL244
 11838 1370 0F370000 		.4byte	0x370f
 11839 1374 7F130000 		.4byte	0x137f
 11840 1378 0E       		.uleb128 0xe
 11841 1379 01       		.uleb128 0x1
 11842 137a 50       		.byte	0x50
 11843 137b 02       		.uleb128 0x2
 11844 137c 74       		.byte	0x74
 11845 137d 00       		.sleb128 0
 11846 137e 00       		.byte	0
 11847 137f 0D       		.uleb128 0xd
 11848 1380 940D0000 		.4byte	.LVL245
 11849 1384 0F370000 		.4byte	0x370f
 11850 1388 98130000 		.4byte	0x1398
 11851 138c 0E       		.uleb128 0xe
 11852 138d 01       		.uleb128 0x1
 11853 138e 51       		.byte	0x51
 11854 138f 01       		.uleb128 0x1
 11855 1390 3A       		.byte	0x3a
 11856 1391 0E       		.uleb128 0xe
 11857 1392 01       		.uleb128 0x1
 11858 1393 50       		.byte	0x50
 11859 1394 02       		.uleb128 0x2
 11860 1395 74       		.byte	0x74
 11861 1396 00       		.sleb128 0
 11862 1397 00       		.byte	0
 11863 1398 0D       		.uleb128 0xd
 11864 1399 A80D0000 		.4byte	.LVL246
 11865 139d 0F370000 		.4byte	0x370f
 11866 13a1 AC130000 		.4byte	0x13ac
 11867 13a5 0E       		.uleb128 0xe
 11868 13a6 01       		.uleb128 0x1
 11869 13a7 50       		.byte	0x50
 11870 13a8 02       		.uleb128 0x2
 11871 13a9 74       		.byte	0x74
 11872 13aa 00       		.sleb128 0
 11873 13ab 00       		.byte	0
 11874 13ac 0D       		.uleb128 0xd
ARM GAS  C:\Users\RECEPC~1\AppData\Local\Temp\ccNG63cQ.s 			page 252


 11875 13ad BC0D0000 		.4byte	.LVL247
 11876 13b1 0F370000 		.4byte	0x370f
 11877 13b5 C5130000 		.4byte	0x13c5
 11878 13b9 0E       		.uleb128 0xe
 11879 13ba 01       		.uleb128 0x1
 11880 13bb 51       		.byte	0x51
 11881 13bc 01       		.uleb128 0x1
 11882 13bd 3A       		.byte	0x3a
 11883 13be 0E       		.uleb128 0xe
 11884 13bf 01       		.uleb128 0x1
 11885 13c0 50       		.byte	0x50
 11886 13c1 02       		.uleb128 0x2
 11887 13c2 74       		.byte	0x74
 11888 13c3 00       		.sleb128 0
 11889 13c4 00       		.byte	0
 11890 13c5 0D       		.uleb128 0xd
 11891 13c6 C40D0000 		.4byte	.LVL248
 11892 13ca 29370000 		.4byte	0x3729
 11893 13ce DE130000 		.4byte	0x13de
 11894 13d2 0E       		.uleb128 0xe
 11895 13d3 01       		.uleb128 0x1
 11896 13d4 51       		.byte	0x51
 11897 13d5 02       		.uleb128 0x2
 11898 13d6 74       		.byte	0x74
 11899 13d7 00       		.sleb128 0
 11900 13d8 0E       		.uleb128 0xe
 11901 13d9 01       		.uleb128 0x1
 11902 13da 50       		.byte	0x50
 11903 13db 01       		.uleb128 0x1
 11904 13dc 38       		.byte	0x38
 11905 13dd 00       		.byte	0
 11906 13de 0D       		.uleb128 0xd
 11907 13df DA0D0000 		.4byte	.LVL249
 11908 13e3 0F370000 		.4byte	0x370f
 11909 13e7 F2130000 		.4byte	0x13f2
 11910 13eb 0E       		.uleb128 0xe
 11911 13ec 01       		.uleb128 0x1
 11912 13ed 50       		.byte	0x50
 11913 13ee 02       		.uleb128 0x2
 11914 13ef 74       		.byte	0x74
 11915 13f0 00       		.sleb128 0
 11916 13f1 00       		.byte	0
 11917 13f2 0D       		.uleb128 0xd
 11918 13f3 EE0D0000 		.4byte	.LVL250
 11919 13f7 0F370000 		.4byte	0x370f
 11920 13fb 0B140000 		.4byte	0x140b
 11921 13ff 0E       		.uleb128 0xe
 11922 1400 01       		.uleb128 0x1
 11923 1401 51       		.byte	0x51
 11924 1402 01       		.uleb128 0x1
 11925 1403 3A       		.byte	0x3a
 11926 1404 0E       		.uleb128 0xe
 11927 1405 01       		.uleb128 0x1
 11928 1406 50       		.byte	0x50
 11929 1407 02       		.uleb128 0x2
 11930 1408 74       		.byte	0x74
 11931 1409 00       		.sleb128 0
ARM GAS  C:\Users\RECEPC~1\AppData\Local\Temp\ccNG63cQ.s 			page 253


 11932 140a 00       		.byte	0
 11933 140b 0D       		.uleb128 0xd
 11934 140c 000E0000 		.4byte	.LVL251
 11935 1410 3F370000 		.4byte	0x373f
 11936 1414 25140000 		.4byte	0x1425
 11937 1418 0E       		.uleb128 0xe
 11938 1419 01       		.uleb128 0x1
 11939 141a 51       		.byte	0x51
 11940 141b 01       		.uleb128 0x1
 11941 141c 49       		.byte	0x49
 11942 141d 0E       		.uleb128 0xe
 11943 141e 01       		.uleb128 0x1
 11944 141f 50       		.byte	0x50
 11945 1420 03       		.uleb128 0x3
 11946 1421 0A       		.byte	0xa
 11947 1422 4804     		.2byte	0x448
 11948 1424 00       		.byte	0
 11949 1425 0D       		.uleb128 0xd
 11950 1426 0C0E0000 		.4byte	.LVL252
 11951 142a 3F370000 		.4byte	0x373f
 11952 142e 3F140000 		.4byte	0x143f
 11953 1432 0E       		.uleb128 0xe
 11954 1433 01       		.uleb128 0x1
 11955 1434 51       		.byte	0x51
 11956 1435 01       		.uleb128 0x1
 11957 1436 49       		.byte	0x49
 11958 1437 0E       		.uleb128 0xe
 11959 1438 01       		.uleb128 0x1
 11960 1439 50       		.byte	0x50
 11961 143a 03       		.uleb128 0x3
 11962 143b 0A       		.byte	0xa
 11963 143c 1E04     		.2byte	0x41e
 11964 143e 00       		.byte	0
 11965 143f 0D       		.uleb128 0xd
 11966 1440 120E0000 		.4byte	.LVL253
 11967 1444 59370000 		.4byte	0x3759
 11968 1448 53140000 		.4byte	0x1453
 11969 144c 0E       		.uleb128 0xe
 11970 144d 01       		.uleb128 0x1
 11971 144e 50       		.byte	0x50
 11972 144f 02       		.uleb128 0x2
 11973 1450 74       		.byte	0x74
 11974 1451 00       		.sleb128 0
 11975 1452 00       		.byte	0
 11976 1453 0D       		.uleb128 0xd
 11977 1454 5A0E0000 		.4byte	.LVL254
 11978 1458 6A370000 		.4byte	0x376a
 11979 145c 74140000 		.4byte	0x1474
 11980 1460 0E       		.uleb128 0xe
 11981 1461 01       		.uleb128 0x1
 11982 1462 52       		.byte	0x52
 11983 1463 03       		.uleb128 0x3
 11984 1464 91       		.byte	0x91
 11985 1465 AC7F     		.sleb128 -84
 11986 1467 0E       		.uleb128 0xe
 11987 1468 01       		.uleb128 0x1
 11988 1469 51       		.byte	0x51
ARM GAS  C:\Users\RECEPC~1\AppData\Local\Temp\ccNG63cQ.s 			page 254


 11989 146a 03       		.uleb128 0x3
 11990 146b 91       		.byte	0x91
 11991 146c BC7F     		.sleb128 -68
 11992 146e 0E       		.uleb128 0xe
 11993 146f 01       		.uleb128 0x1
 11994 1470 50       		.byte	0x50
 11995 1471 01       		.uleb128 0x1
 11996 1472 32       		.byte	0x32
 11997 1473 00       		.byte	0
 11998 1474 0D       		.uleb128 0xd
 11999 1475 700E0000 		.4byte	.LVL255
 12000 1479 0F370000 		.4byte	0x370f
 12001 147d 88140000 		.4byte	0x1488
 12002 1481 0E       		.uleb128 0xe
 12003 1482 01       		.uleb128 0x1
 12004 1483 50       		.byte	0x50
 12005 1484 02       		.uleb128 0x2
 12006 1485 74       		.byte	0x74
 12007 1486 00       		.sleb128 0
 12008 1487 00       		.byte	0
 12009 1488 0D       		.uleb128 0xd
 12010 1489 840E0000 		.4byte	.LVL256
 12011 148d 85370000 		.4byte	0x3785
 12012 1491 A5140000 		.4byte	0x14a5
 12013 1495 0E       		.uleb128 0xe
 12014 1496 01       		.uleb128 0x1
 12015 1497 51       		.byte	0x51
 12016 1498 02       		.uleb128 0x2
 12017 1499 74       		.byte	0x74
 12018 149a 00       		.sleb128 0
 12019 149b 0E       		.uleb128 0xe
 12020 149c 01       		.uleb128 0x1
 12021 149d 50       		.byte	0x50
 12022 149e 05       		.uleb128 0x5
 12023 149f 03       		.byte	0x3
 12024 14a0 00000000 		.4byte	resultado
 12025 14a4 00       		.byte	0
 12026 14a5 0D       		.uleb128 0xd
 12027 14a6 960E0000 		.4byte	.LVL257
 12028 14aa F5360000 		.4byte	0x36f5
 12029 14ae C0140000 		.4byte	0x14c0
 12030 14b2 0E       		.uleb128 0xe
 12031 14b3 01       		.uleb128 0x1
 12032 14b4 51       		.byte	0x51
 12033 14b5 02       		.uleb128 0x2
 12034 14b6 91       		.byte	0x91
 12035 14b7 4C       		.sleb128 -52
 12036 14b8 0E       		.uleb128 0xe
 12037 14b9 01       		.uleb128 0x1
 12038 14ba 50       		.byte	0x50
 12039 14bb 03       		.uleb128 0x3
 12040 14bc 0A       		.byte	0xa
 12041 14bd 4804     		.2byte	0x448
 12042 14bf 00       		.byte	0
 12043 14c0 0D       		.uleb128 0xd
 12044 14c1 A00E0000 		.4byte	.LVL258
 12045 14c5 F5360000 		.4byte	0x36f5
ARM GAS  C:\Users\RECEPC~1\AppData\Local\Temp\ccNG63cQ.s 			page 255


 12046 14c9 DE140000 		.4byte	0x14de
 12047 14cd 0E       		.uleb128 0xe
 12048 14ce 01       		.uleb128 0x1
 12049 14cf 51       		.byte	0x51
 12050 14d0 05       		.uleb128 0x5
 12051 14d1 03       		.byte	0x3
 12052 14d2 00000000 		.4byte	resultado
 12053 14d6 0E       		.uleb128 0xe
 12054 14d7 01       		.uleb128 0x1
 12055 14d8 50       		.byte	0x50
 12056 14d9 03       		.uleb128 0x3
 12057 14da 0A       		.byte	0xa
 12058 14db 0E04     		.2byte	0x40e
 12059 14dd 00       		.byte	0
 12060 14de 0D       		.uleb128 0xd
 12061 14df AC0E0000 		.4byte	.LVL259
 12062 14e3 F5360000 		.4byte	0x36f5
 12063 14e7 F9140000 		.4byte	0x14f9
 12064 14eb 0E       		.uleb128 0xe
 12065 14ec 01       		.uleb128 0x1
 12066 14ed 51       		.byte	0x51
 12067 14ee 02       		.uleb128 0x2
 12068 14ef 91       		.byte	0x91
 12069 14f0 4C       		.sleb128 -52
 12070 14f1 0E       		.uleb128 0xe
 12071 14f2 01       		.uleb128 0x1
 12072 14f3 50       		.byte	0x50
 12073 14f4 03       		.uleb128 0x3
 12074 14f5 0A       		.byte	0xa
 12075 14f6 1E04     		.2byte	0x41e
 12076 14f8 00       		.byte	0
 12077 14f9 0D       		.uleb128 0xd
 12078 14fa B60E0000 		.4byte	.LVL260
 12079 14fe F5360000 		.4byte	0x36f5
 12080 1502 17150000 		.4byte	0x1517
 12081 1506 0E       		.uleb128 0xe
 12082 1507 01       		.uleb128 0x1
 12083 1508 51       		.byte	0x51
 12084 1509 05       		.uleb128 0x5
 12085 150a 03       		.byte	0x3
 12086 150b 00000000 		.4byte	resultado
 12087 150f 0E       		.uleb128 0xe
 12088 1510 01       		.uleb128 0x1
 12089 1511 50       		.byte	0x50
 12090 1512 03       		.uleb128 0x3
 12091 1513 0A       		.byte	0xa
 12092 1514 3904     		.2byte	0x439
 12093 1516 00       		.byte	0
 12094 1517 0F       		.uleb128 0xf
 12095 1518 C80E0000 		.4byte	.LVL261
 12096 151c E3360000 		.4byte	0x36e3
 12097 1520 0D       		.uleb128 0xd
 12098 1521 36100000 		.4byte	.LVL262
 12099 1525 0F370000 		.4byte	0x370f
 12100 1529 34150000 		.4byte	0x1534
 12101 152d 0E       		.uleb128 0xe
 12102 152e 01       		.uleb128 0x1
ARM GAS  C:\Users\RECEPC~1\AppData\Local\Temp\ccNG63cQ.s 			page 256


 12103 152f 50       		.byte	0x50
 12104 1530 02       		.uleb128 0x2
 12105 1531 74       		.byte	0x74
 12106 1532 00       		.sleb128 0
 12107 1533 00       		.byte	0
 12108 1534 0D       		.uleb128 0xd
 12109 1535 4A100000 		.4byte	.LVL263
 12110 1539 0F370000 		.4byte	0x370f
 12111 153d 4D150000 		.4byte	0x154d
 12112 1541 0E       		.uleb128 0xe
 12113 1542 01       		.uleb128 0x1
 12114 1543 51       		.byte	0x51
 12115 1544 01       		.uleb128 0x1
 12116 1545 3A       		.byte	0x3a
 12117 1546 0E       		.uleb128 0xe
 12118 1547 01       		.uleb128 0x1
 12119 1548 50       		.byte	0x50
 12120 1549 02       		.uleb128 0x2
 12121 154a 74       		.byte	0x74
 12122 154b 00       		.sleb128 0
 12123 154c 00       		.byte	0
 12124 154d 0D       		.uleb128 0xd
 12125 154e 5E100000 		.4byte	.LVL264
 12126 1552 0F370000 		.4byte	0x370f
 12127 1556 61150000 		.4byte	0x1561
 12128 155a 0E       		.uleb128 0xe
 12129 155b 01       		.uleb128 0x1
 12130 155c 50       		.byte	0x50
 12131 155d 02       		.uleb128 0x2
 12132 155e 74       		.byte	0x74
 12133 155f 00       		.sleb128 0
 12134 1560 00       		.byte	0
 12135 1561 0D       		.uleb128 0xd
 12136 1562 72100000 		.4byte	.LVL265
 12137 1566 0F370000 		.4byte	0x370f
 12138 156a 7A150000 		.4byte	0x157a
 12139 156e 0E       		.uleb128 0xe
 12140 156f 01       		.uleb128 0x1
 12141 1570 51       		.byte	0x51
 12142 1571 01       		.uleb128 0x1
 12143 1572 3A       		.byte	0x3a
 12144 1573 0E       		.uleb128 0xe
 12145 1574 01       		.uleb128 0x1
 12146 1575 50       		.byte	0x50
 12147 1576 02       		.uleb128 0x2
 12148 1577 74       		.byte	0x74
 12149 1578 00       		.sleb128 0
 12150 1579 00       		.byte	0
 12151 157a 0D       		.uleb128 0xd
 12152 157b 7A100000 		.4byte	.LVL266
 12153 157f 29370000 		.4byte	0x3729
 12154 1583 93150000 		.4byte	0x1593
 12155 1587 0E       		.uleb128 0xe
 12156 1588 01       		.uleb128 0x1
 12157 1589 51       		.byte	0x51
 12158 158a 02       		.uleb128 0x2
 12159 158b 74       		.byte	0x74
ARM GAS  C:\Users\RECEPC~1\AppData\Local\Temp\ccNG63cQ.s 			page 257


 12160 158c 00       		.sleb128 0
 12161 158d 0E       		.uleb128 0xe
 12162 158e 01       		.uleb128 0x1
 12163 158f 50       		.byte	0x50
 12164 1590 01       		.uleb128 0x1
 12165 1591 38       		.byte	0x38
 12166 1592 00       		.byte	0
 12167 1593 0D       		.uleb128 0xd
 12168 1594 90100000 		.4byte	.LVL267
 12169 1598 0F370000 		.4byte	0x370f
 12170 159c A7150000 		.4byte	0x15a7
 12171 15a0 0E       		.uleb128 0xe
 12172 15a1 01       		.uleb128 0x1
 12173 15a2 50       		.byte	0x50
 12174 15a3 02       		.uleb128 0x2
 12175 15a4 74       		.byte	0x74
 12176 15a5 00       		.sleb128 0
 12177 15a6 00       		.byte	0
 12178 15a7 0D       		.uleb128 0xd
 12179 15a8 A4100000 		.4byte	.LVL268
 12180 15ac 0F370000 		.4byte	0x370f
 12181 15b0 C0150000 		.4byte	0x15c0
 12182 15b4 0E       		.uleb128 0xe
 12183 15b5 01       		.uleb128 0x1
 12184 15b6 51       		.byte	0x51
 12185 15b7 01       		.uleb128 0x1
 12186 15b8 3A       		.byte	0x3a
 12187 15b9 0E       		.uleb128 0xe
 12188 15ba 01       		.uleb128 0x1
 12189 15bb 50       		.byte	0x50
 12190 15bc 02       		.uleb128 0x2
 12191 15bd 74       		.byte	0x74
 12192 15be 00       		.sleb128 0
 12193 15bf 00       		.byte	0
 12194 15c0 0D       		.uleb128 0xd
 12195 15c1 B4100000 		.4byte	.LVL269
 12196 15c5 3F370000 		.4byte	0x373f
 12197 15c9 D9150000 		.4byte	0x15d9
 12198 15cd 0E       		.uleb128 0xe
 12199 15ce 01       		.uleb128 0x1
 12200 15cf 51       		.byte	0x51
 12201 15d0 01       		.uleb128 0x1
 12202 15d1 49       		.byte	0x49
 12203 15d2 0E       		.uleb128 0xe
 12204 15d3 01       		.uleb128 0x1
 12205 15d4 50       		.byte	0x50
 12206 15d5 02       		.uleb128 0x2
 12207 15d6 08       		.byte	0x8
 12208 15d7 C0       		.byte	0xc0
 12209 15d8 00       		.byte	0
 12210 15d9 0D       		.uleb128 0xd
 12211 15da C0100000 		.4byte	.LVL270
 12212 15de 3F370000 		.4byte	0x373f
 12213 15e2 F3150000 		.4byte	0x15f3
 12214 15e6 0E       		.uleb128 0xe
 12215 15e7 01       		.uleb128 0x1
 12216 15e8 51       		.byte	0x51
ARM GAS  C:\Users\RECEPC~1\AppData\Local\Temp\ccNG63cQ.s 			page 258


 12217 15e9 01       		.uleb128 0x1
 12218 15ea 49       		.byte	0x49
 12219 15eb 0E       		.uleb128 0xe
 12220 15ec 01       		.uleb128 0x1
 12221 15ed 50       		.byte	0x50
 12222 15ee 03       		.uleb128 0x3
 12223 15ef 0A       		.byte	0xa
 12224 15f0 1901     		.2byte	0x119
 12225 15f2 00       		.byte	0
 12226 15f3 0D       		.uleb128 0xd
 12227 15f4 C6100000 		.4byte	.LVL271
 12228 15f8 59370000 		.4byte	0x3759
 12229 15fc 07160000 		.4byte	0x1607
 12230 1600 0E       		.uleb128 0xe
 12231 1601 01       		.uleb128 0x1
 12232 1602 50       		.byte	0x50
 12233 1603 02       		.uleb128 0x2
 12234 1604 74       		.byte	0x74
 12235 1605 00       		.sleb128 0
 12236 1606 00       		.byte	0
 12237 1607 0D       		.uleb128 0xd
 12238 1608 0E110000 		.4byte	.LVL272
 12239 160c 6A370000 		.4byte	0x376a
 12240 1610 28160000 		.4byte	0x1628
 12241 1614 0E       		.uleb128 0xe
 12242 1615 01       		.uleb128 0x1
 12243 1616 52       		.byte	0x52
 12244 1617 03       		.uleb128 0x3
 12245 1618 91       		.byte	0x91
 12246 1619 AC7F     		.sleb128 -84
 12247 161b 0E       		.uleb128 0xe
 12248 161c 01       		.uleb128 0x1
 12249 161d 51       		.byte	0x51
 12250 161e 03       		.uleb128 0x3
 12251 161f 91       		.byte	0x91
 12252 1620 BC7F     		.sleb128 -68
 12253 1622 0E       		.uleb128 0xe
 12254 1623 01       		.uleb128 0x1
 12255 1624 50       		.byte	0x50
 12256 1625 01       		.uleb128 0x1
 12257 1626 32       		.byte	0x32
 12258 1627 00       		.byte	0
 12259 1628 0D       		.uleb128 0xd
 12260 1629 24110000 		.4byte	.LVL273
 12261 162d 0F370000 		.4byte	0x370f
 12262 1631 3C160000 		.4byte	0x163c
 12263 1635 0E       		.uleb128 0xe
 12264 1636 01       		.uleb128 0x1
 12265 1637 50       		.byte	0x50
 12266 1638 02       		.uleb128 0x2
 12267 1639 74       		.byte	0x74
 12268 163a 00       		.sleb128 0
 12269 163b 00       		.byte	0
 12270 163c 0D       		.uleb128 0xd
 12271 163d 38110000 		.4byte	.LVL274
 12272 1641 85370000 		.4byte	0x3785
 12273 1645 59160000 		.4byte	0x1659
ARM GAS  C:\Users\RECEPC~1\AppData\Local\Temp\ccNG63cQ.s 			page 259


 12274 1649 0E       		.uleb128 0xe
 12275 164a 01       		.uleb128 0x1
 12276 164b 51       		.byte	0x51
 12277 164c 02       		.uleb128 0x2
 12278 164d 74       		.byte	0x74
 12279 164e 00       		.sleb128 0
 12280 164f 0E       		.uleb128 0xe
 12281 1650 01       		.uleb128 0x1
 12282 1651 50       		.byte	0x50
 12283 1652 05       		.uleb128 0x5
 12284 1653 03       		.byte	0x3
 12285 1654 00000000 		.4byte	resultado
 12286 1658 00       		.byte	0
 12287 1659 0D       		.uleb128 0xd
 12288 165a 48110000 		.4byte	.LVL275
 12289 165e F5360000 		.4byte	0x36f5
 12290 1662 73160000 		.4byte	0x1673
 12291 1666 0E       		.uleb128 0xe
 12292 1667 01       		.uleb128 0x1
 12293 1668 51       		.byte	0x51
 12294 1669 02       		.uleb128 0x2
 12295 166a 91       		.byte	0x91
 12296 166b 4C       		.sleb128 -52
 12297 166c 0E       		.uleb128 0xe
 12298 166d 01       		.uleb128 0x1
 12299 166e 50       		.byte	0x50
 12300 166f 02       		.uleb128 0x2
 12301 1670 08       		.byte	0x8
 12302 1671 C0       		.byte	0xc0
 12303 1672 00       		.byte	0
 12304 1673 0D       		.uleb128 0xd
 12305 1674 52110000 		.4byte	.LVL276
 12306 1678 F5360000 		.4byte	0x36f5
 12307 167c 91160000 		.4byte	0x1691
 12308 1680 0E       		.uleb128 0xe
 12309 1681 01       		.uleb128 0x1
 12310 1682 51       		.byte	0x51
 12311 1683 05       		.uleb128 0x5
 12312 1684 03       		.byte	0x3
 12313 1685 00000000 		.4byte	resultado
 12314 1689 0E       		.uleb128 0xe
 12315 168a 01       		.uleb128 0x1
 12316 168b 50       		.byte	0x50
 12317 168c 03       		.uleb128 0x3
 12318 168d 0A       		.byte	0xa
 12319 168e 0002     		.2byte	0x200
 12320 1690 00       		.byte	0
 12321 1691 0D       		.uleb128 0xd
 12322 1692 5E110000 		.4byte	.LVL277
 12323 1696 F5360000 		.4byte	0x36f5
 12324 169a AC160000 		.4byte	0x16ac
 12325 169e 0E       		.uleb128 0xe
 12326 169f 01       		.uleb128 0x1
 12327 16a0 51       		.byte	0x51
 12328 16a1 02       		.uleb128 0x2
 12329 16a2 91       		.byte	0x91
 12330 16a3 4C       		.sleb128 -52
ARM GAS  C:\Users\RECEPC~1\AppData\Local\Temp\ccNG63cQ.s 			page 260


 12331 16a4 0E       		.uleb128 0xe
 12332 16a5 01       		.uleb128 0x1
 12333 16a6 50       		.byte	0x50
 12334 16a7 03       		.uleb128 0x3
 12335 16a8 0A       		.byte	0xa
 12336 16a9 1901     		.2byte	0x119
 12337 16ab 00       		.byte	0
 12338 16ac 0D       		.uleb128 0xd
 12339 16ad 68110000 		.4byte	.LVL278
 12340 16b1 F5360000 		.4byte	0x36f5
 12341 16b5 CA160000 		.4byte	0x16ca
 12342 16b9 0E       		.uleb128 0xe
 12343 16ba 01       		.uleb128 0x1
 12344 16bb 51       		.byte	0x51
 12345 16bc 05       		.uleb128 0x5
 12346 16bd 03       		.byte	0x3
 12347 16be 00000000 		.4byte	resultado
 12348 16c2 0E       		.uleb128 0xe
 12349 16c3 01       		.uleb128 0x1
 12350 16c4 50       		.byte	0x50
 12351 16c5 03       		.uleb128 0x3
 12352 16c6 0A       		.byte	0xa
 12353 16c7 2702     		.2byte	0x227
 12354 16c9 00       		.byte	0
 12355 16ca 0D       		.uleb128 0xd
 12356 16cb B0110000 		.4byte	.LVL279
 12357 16cf 0F370000 		.4byte	0x370f
 12358 16d3 DE160000 		.4byte	0x16de
 12359 16d7 0E       		.uleb128 0xe
 12360 16d8 01       		.uleb128 0x1
 12361 16d9 50       		.byte	0x50
 12362 16da 02       		.uleb128 0x2
 12363 16db 74       		.byte	0x74
 12364 16dc 00       		.sleb128 0
 12365 16dd 00       		.byte	0
 12366 16de 0D       		.uleb128 0xd
 12367 16df C4110000 		.4byte	.LVL280
 12368 16e3 0F370000 		.4byte	0x370f
 12369 16e7 F7160000 		.4byte	0x16f7
 12370 16eb 0E       		.uleb128 0xe
 12371 16ec 01       		.uleb128 0x1
 12372 16ed 51       		.byte	0x51
 12373 16ee 01       		.uleb128 0x1
 12374 16ef 3A       		.byte	0x3a
 12375 16f0 0E       		.uleb128 0xe
 12376 16f1 01       		.uleb128 0x1
 12377 16f2 50       		.byte	0x50
 12378 16f3 02       		.uleb128 0x2
 12379 16f4 74       		.byte	0x74
 12380 16f5 00       		.sleb128 0
 12381 16f6 00       		.byte	0
 12382 16f7 0D       		.uleb128 0xd
 12383 16f8 D8110000 		.4byte	.LVL281
 12384 16fc 0F370000 		.4byte	0x370f
 12385 1700 0B170000 		.4byte	0x170b
 12386 1704 0E       		.uleb128 0xe
 12387 1705 01       		.uleb128 0x1
ARM GAS  C:\Users\RECEPC~1\AppData\Local\Temp\ccNG63cQ.s 			page 261


 12388 1706 50       		.byte	0x50
 12389 1707 02       		.uleb128 0x2
 12390 1708 74       		.byte	0x74
 12391 1709 00       		.sleb128 0
 12392 170a 00       		.byte	0
 12393 170b 0D       		.uleb128 0xd
 12394 170c EC110000 		.4byte	.LVL282
 12395 1710 0F370000 		.4byte	0x370f
 12396 1714 24170000 		.4byte	0x1724
 12397 1718 0E       		.uleb128 0xe
 12398 1719 01       		.uleb128 0x1
 12399 171a 51       		.byte	0x51
 12400 171b 01       		.uleb128 0x1
 12401 171c 3A       		.byte	0x3a
 12402 171d 0E       		.uleb128 0xe
 12403 171e 01       		.uleb128 0x1
 12404 171f 50       		.byte	0x50
 12405 1720 02       		.uleb128 0x2
 12406 1721 74       		.byte	0x74
 12407 1722 00       		.sleb128 0
 12408 1723 00       		.byte	0
 12409 1724 0D       		.uleb128 0xd
 12410 1725 F4110000 		.4byte	.LVL283
 12411 1729 29370000 		.4byte	0x3729
 12412 172d 3D170000 		.4byte	0x173d
 12413 1731 0E       		.uleb128 0xe
 12414 1732 01       		.uleb128 0x1
 12415 1733 51       		.byte	0x51
 12416 1734 02       		.uleb128 0x2
 12417 1735 74       		.byte	0x74
 12418 1736 00       		.sleb128 0
 12419 1737 0E       		.uleb128 0xe
 12420 1738 01       		.uleb128 0x1
 12421 1739 50       		.byte	0x50
 12422 173a 01       		.uleb128 0x1
 12423 173b 38       		.byte	0x38
 12424 173c 00       		.byte	0
 12425 173d 0D       		.uleb128 0xd
 12426 173e 0A120000 		.4byte	.LVL284
 12427 1742 0F370000 		.4byte	0x370f
 12428 1746 51170000 		.4byte	0x1751
 12429 174a 0E       		.uleb128 0xe
 12430 174b 01       		.uleb128 0x1
 12431 174c 50       		.byte	0x50
 12432 174d 02       		.uleb128 0x2
 12433 174e 74       		.byte	0x74
 12434 174f 00       		.sleb128 0
 12435 1750 00       		.byte	0
 12436 1751 0D       		.uleb128 0xd
 12437 1752 1E120000 		.4byte	.LVL285
 12438 1756 0F370000 		.4byte	0x370f
 12439 175a 6A170000 		.4byte	0x176a
 12440 175e 0E       		.uleb128 0xe
 12441 175f 01       		.uleb128 0x1
 12442 1760 51       		.byte	0x51
 12443 1761 01       		.uleb128 0x1
 12444 1762 3A       		.byte	0x3a
ARM GAS  C:\Users\RECEPC~1\AppData\Local\Temp\ccNG63cQ.s 			page 262


 12445 1763 0E       		.uleb128 0xe
 12446 1764 01       		.uleb128 0x1
 12447 1765 50       		.byte	0x50
 12448 1766 02       		.uleb128 0x2
 12449 1767 74       		.byte	0x74
 12450 1768 00       		.sleb128 0
 12451 1769 00       		.byte	0
 12452 176a 0D       		.uleb128 0xd
 12453 176b 2E120000 		.4byte	.LVL286
 12454 176f 3F370000 		.4byte	0x373f
 12455 1773 83170000 		.4byte	0x1783
 12456 1777 0E       		.uleb128 0xe
 12457 1778 01       		.uleb128 0x1
 12458 1779 51       		.byte	0x51
 12459 177a 01       		.uleb128 0x1
 12460 177b 49       		.byte	0x49
 12461 177c 0E       		.uleb128 0xe
 12462 177d 01       		.uleb128 0x1
 12463 177e 50       		.byte	0x50
 12464 177f 02       		.uleb128 0x2
 12465 1780 08       		.byte	0x8
 12466 1781 D9       		.byte	0xd9
 12467 1782 00       		.byte	0
 12468 1783 0D       		.uleb128 0xd
 12469 1784 3A120000 		.4byte	.LVL287
 12470 1788 3F370000 		.4byte	0x373f
 12471 178c 9D170000 		.4byte	0x179d
 12472 1790 0E       		.uleb128 0xe
 12473 1791 01       		.uleb128 0x1
 12474 1792 51       		.byte	0x51
 12475 1793 01       		.uleb128 0x1
 12476 1794 49       		.byte	0x49
 12477 1795 0E       		.uleb128 0xe
 12478 1796 01       		.uleb128 0x1
 12479 1797 50       		.byte	0x50
 12480 1798 03       		.uleb128 0x3
 12481 1799 0A       		.byte	0xa
 12482 179a 4001     		.2byte	0x140
 12483 179c 00       		.byte	0
 12484 179d 0D       		.uleb128 0xd
 12485 179e 40120000 		.4byte	.LVL288
 12486 17a2 59370000 		.4byte	0x3759
 12487 17a6 B1170000 		.4byte	0x17b1
 12488 17aa 0E       		.uleb128 0xe
 12489 17ab 01       		.uleb128 0x1
 12490 17ac 50       		.byte	0x50
 12491 17ad 02       		.uleb128 0x2
 12492 17ae 74       		.byte	0x74
 12493 17af 00       		.sleb128 0
 12494 17b0 00       		.byte	0
 12495 17b1 0D       		.uleb128 0xd
 12496 17b2 B2120000 		.4byte	.LVL289
 12497 17b6 6A370000 		.4byte	0x376a
 12498 17ba D2170000 		.4byte	0x17d2
 12499 17be 0E       		.uleb128 0xe
 12500 17bf 01       		.uleb128 0x1
 12501 17c0 52       		.byte	0x52
ARM GAS  C:\Users\RECEPC~1\AppData\Local\Temp\ccNG63cQ.s 			page 263


 12502 17c1 03       		.uleb128 0x3
 12503 17c2 91       		.byte	0x91
 12504 17c3 AC7F     		.sleb128 -84
 12505 17c5 0E       		.uleb128 0xe
 12506 17c6 01       		.uleb128 0x1
 12507 17c7 51       		.byte	0x51
 12508 17c8 03       		.uleb128 0x3
 12509 17c9 91       		.byte	0x91
 12510 17ca BC7F     		.sleb128 -68
 12511 17cc 0E       		.uleb128 0xe
 12512 17cd 01       		.uleb128 0x1
 12513 17ce 50       		.byte	0x50
 12514 17cf 01       		.uleb128 0x1
 12515 17d0 32       		.byte	0x32
 12516 17d1 00       		.byte	0
 12517 17d2 0D       		.uleb128 0xd
 12518 17d3 C8120000 		.4byte	.LVL290
 12519 17d7 0F370000 		.4byte	0x370f
 12520 17db E6170000 		.4byte	0x17e6
 12521 17df 0E       		.uleb128 0xe
 12522 17e0 01       		.uleb128 0x1
 12523 17e1 50       		.byte	0x50
 12524 17e2 02       		.uleb128 0x2
 12525 17e3 74       		.byte	0x74
 12526 17e4 00       		.sleb128 0
 12527 17e5 00       		.byte	0
 12528 17e6 0D       		.uleb128 0xd
 12529 17e7 DC120000 		.4byte	.LVL291
 12530 17eb 85370000 		.4byte	0x3785
 12531 17ef 03180000 		.4byte	0x1803
 12532 17f3 0E       		.uleb128 0xe
 12533 17f4 01       		.uleb128 0x1
 12534 17f5 51       		.byte	0x51
 12535 17f6 02       		.uleb128 0x2
 12536 17f7 74       		.byte	0x74
 12537 17f8 00       		.sleb128 0
 12538 17f9 0E       		.uleb128 0xe
 12539 17fa 01       		.uleb128 0x1
 12540 17fb 50       		.byte	0x50
 12541 17fc 05       		.uleb128 0x5
 12542 17fd 03       		.byte	0x3
 12543 17fe 00000000 		.4byte	resultado
 12544 1802 00       		.byte	0
 12545 1803 0D       		.uleb128 0xd
 12546 1804 EC120000 		.4byte	.LVL292
 12547 1808 F5360000 		.4byte	0x36f5
 12548 180c 1D180000 		.4byte	0x181d
 12549 1810 0E       		.uleb128 0xe
 12550 1811 01       		.uleb128 0x1
 12551 1812 51       		.byte	0x51
 12552 1813 02       		.uleb128 0x2
 12553 1814 91       		.byte	0x91
 12554 1815 4C       		.sleb128 -52
 12555 1816 0E       		.uleb128 0xe
 12556 1817 01       		.uleb128 0x1
 12557 1818 50       		.byte	0x50
 12558 1819 02       		.uleb128 0x2
ARM GAS  C:\Users\RECEPC~1\AppData\Local\Temp\ccNG63cQ.s 			page 264


 12559 181a 08       		.byte	0x8
 12560 181b D9       		.byte	0xd9
 12561 181c 00       		.byte	0
 12562 181d 0D       		.uleb128 0xd
 12563 181e F6120000 		.4byte	.LVL293
 12564 1822 F5360000 		.4byte	0x36f5
 12565 1826 3B180000 		.4byte	0x183b
 12566 182a 0E       		.uleb128 0xe
 12567 182b 01       		.uleb128 0x1
 12568 182c 51       		.byte	0x51
 12569 182d 05       		.uleb128 0x5
 12570 182e 03       		.byte	0x3
 12571 182f 00000000 		.4byte	resultado
 12572 1833 0E       		.uleb128 0xe
 12573 1834 01       		.uleb128 0x1
 12574 1835 50       		.byte	0x50
 12575 1836 03       		.uleb128 0x3
 12576 1837 0A       		.byte	0xa
 12577 1838 1A02     		.2byte	0x21a
 12578 183a 00       		.byte	0
 12579 183b 0D       		.uleb128 0xd
 12580 183c 02130000 		.4byte	.LVL294
 12581 1840 F5360000 		.4byte	0x36f5
 12582 1844 56180000 		.4byte	0x1856
 12583 1848 0E       		.uleb128 0xe
 12584 1849 01       		.uleb128 0x1
 12585 184a 51       		.byte	0x51
 12586 184b 02       		.uleb128 0x2
 12587 184c 91       		.byte	0x91
 12588 184d 4C       		.sleb128 -52
 12589 184e 0E       		.uleb128 0xe
 12590 184f 01       		.uleb128 0x1
 12591 1850 50       		.byte	0x50
 12592 1851 03       		.uleb128 0x3
 12593 1852 0A       		.byte	0xa
 12594 1853 4001     		.2byte	0x140
 12595 1855 00       		.byte	0
 12596 1856 0D       		.uleb128 0xd
 12597 1857 0C130000 		.4byte	.LVL295
 12598 185b F5360000 		.4byte	0x36f5
 12599 185f 74180000 		.4byte	0x1874
 12600 1863 0E       		.uleb128 0xe
 12601 1864 01       		.uleb128 0x1
 12602 1865 51       		.byte	0x51
 12603 1866 05       		.uleb128 0x5
 12604 1867 03       		.byte	0x3
 12605 1868 00000000 		.4byte	resultado
 12606 186c 0E       		.uleb128 0xe
 12607 186d 01       		.uleb128 0x1
 12608 186e 50       		.byte	0x50
 12609 186f 03       		.uleb128 0x3
 12610 1870 0A       		.byte	0xa
 12611 1871 4002     		.2byte	0x240
 12612 1873 00       		.byte	0
 12613 1874 0D       		.uleb128 0xd
 12614 1875 54130000 		.4byte	.LVL296
 12615 1879 0F370000 		.4byte	0x370f
ARM GAS  C:\Users\RECEPC~1\AppData\Local\Temp\ccNG63cQ.s 			page 265


 12616 187d 88180000 		.4byte	0x1888
 12617 1881 0E       		.uleb128 0xe
 12618 1882 01       		.uleb128 0x1
 12619 1883 50       		.byte	0x50
 12620 1884 02       		.uleb128 0x2
 12621 1885 74       		.byte	0x74
 12622 1886 00       		.sleb128 0
 12623 1887 00       		.byte	0
 12624 1888 0D       		.uleb128 0xd
 12625 1889 68130000 		.4byte	.LVL297
 12626 188d 0F370000 		.4byte	0x370f
 12627 1891 A1180000 		.4byte	0x18a1
 12628 1895 0E       		.uleb128 0xe
 12629 1896 01       		.uleb128 0x1
 12630 1897 51       		.byte	0x51
 12631 1898 01       		.uleb128 0x1
 12632 1899 3A       		.byte	0x3a
 12633 189a 0E       		.uleb128 0xe
 12634 189b 01       		.uleb128 0x1
 12635 189c 50       		.byte	0x50
 12636 189d 02       		.uleb128 0x2
 12637 189e 74       		.byte	0x74
 12638 189f 00       		.sleb128 0
 12639 18a0 00       		.byte	0
 12640 18a1 0D       		.uleb128 0xd
 12641 18a2 7C130000 		.4byte	.LVL298
 12642 18a6 0F370000 		.4byte	0x370f
 12643 18aa B5180000 		.4byte	0x18b5
 12644 18ae 0E       		.uleb128 0xe
 12645 18af 01       		.uleb128 0x1
 12646 18b0 50       		.byte	0x50
 12647 18b1 02       		.uleb128 0x2
 12648 18b2 74       		.byte	0x74
 12649 18b3 00       		.sleb128 0
 12650 18b4 00       		.byte	0
 12651 18b5 0D       		.uleb128 0xd
 12652 18b6 90130000 		.4byte	.LVL299
 12653 18ba 0F370000 		.4byte	0x370f
 12654 18be CE180000 		.4byte	0x18ce
 12655 18c2 0E       		.uleb128 0xe
 12656 18c3 01       		.uleb128 0x1
 12657 18c4 51       		.byte	0x51
 12658 18c5 01       		.uleb128 0x1
 12659 18c6 3A       		.byte	0x3a
 12660 18c7 0E       		.uleb128 0xe
 12661 18c8 01       		.uleb128 0x1
 12662 18c9 50       		.byte	0x50
 12663 18ca 02       		.uleb128 0x2
 12664 18cb 74       		.byte	0x74
 12665 18cc 00       		.sleb128 0
 12666 18cd 00       		.byte	0
 12667 18ce 0D       		.uleb128 0xd
 12668 18cf 98130000 		.4byte	.LVL300
 12669 18d3 29370000 		.4byte	0x3729
 12670 18d7 E7180000 		.4byte	0x18e7
 12671 18db 0E       		.uleb128 0xe
 12672 18dc 01       		.uleb128 0x1
ARM GAS  C:\Users\RECEPC~1\AppData\Local\Temp\ccNG63cQ.s 			page 266


 12673 18dd 51       		.byte	0x51
 12674 18de 02       		.uleb128 0x2
 12675 18df 74       		.byte	0x74
 12676 18e0 00       		.sleb128 0
 12677 18e1 0E       		.uleb128 0xe
 12678 18e2 01       		.uleb128 0x1
 12679 18e3 50       		.byte	0x50
 12680 18e4 01       		.uleb128 0x1
 12681 18e5 38       		.byte	0x38
 12682 18e6 00       		.byte	0
 12683 18e7 0D       		.uleb128 0xd
 12684 18e8 AE130000 		.4byte	.LVL301
 12685 18ec 0F370000 		.4byte	0x370f
 12686 18f0 FB180000 		.4byte	0x18fb
 12687 18f4 0E       		.uleb128 0xe
 12688 18f5 01       		.uleb128 0x1
 12689 18f6 50       		.byte	0x50
 12690 18f7 02       		.uleb128 0x2
 12691 18f8 74       		.byte	0x74
 12692 18f9 00       		.sleb128 0
 12693 18fa 00       		.byte	0
 12694 18fb 0D       		.uleb128 0xd
 12695 18fc C2130000 		.4byte	.LVL302
 12696 1900 0F370000 		.4byte	0x370f
 12697 1904 14190000 		.4byte	0x1914
 12698 1908 0E       		.uleb128 0xe
 12699 1909 01       		.uleb128 0x1
 12700 190a 51       		.byte	0x51
 12701 190b 01       		.uleb128 0x1
 12702 190c 3A       		.byte	0x3a
 12703 190d 0E       		.uleb128 0xe
 12704 190e 01       		.uleb128 0x1
 12705 190f 50       		.byte	0x50
 12706 1910 02       		.uleb128 0x2
 12707 1911 74       		.byte	0x74
 12708 1912 00       		.sleb128 0
 12709 1913 00       		.byte	0
 12710 1914 0D       		.uleb128 0xd
 12711 1915 D4130000 		.4byte	.LVL303
 12712 1919 3F370000 		.4byte	0x373f
 12713 191d 2E190000 		.4byte	0x192e
 12714 1921 0E       		.uleb128 0xe
 12715 1922 01       		.uleb128 0x1
 12716 1923 51       		.byte	0x51
 12717 1924 01       		.uleb128 0x1
 12718 1925 49       		.byte	0x49
 12719 1926 0E       		.uleb128 0xe
 12720 1927 01       		.uleb128 0x1
 12721 1928 50       		.byte	0x50
 12722 1929 03       		.uleb128 0x3
 12723 192a 0A       		.byte	0xa
 12724 192b 0001     		.2byte	0x100
 12725 192d 00       		.byte	0
 12726 192e 0D       		.uleb128 0xd
 12727 192f E0130000 		.4byte	.LVL304
 12728 1933 3F370000 		.4byte	0x373f
 12729 1937 48190000 		.4byte	0x1948
ARM GAS  C:\Users\RECEPC~1\AppData\Local\Temp\ccNG63cQ.s 			page 267


 12730 193b 0E       		.uleb128 0xe
 12731 193c 01       		.uleb128 0x1
 12732 193d 51       		.byte	0x51
 12733 193e 01       		.uleb128 0x1
 12734 193f 49       		.byte	0x49
 12735 1940 0E       		.uleb128 0xe
 12736 1941 01       		.uleb128 0x1
 12737 1942 50       		.byte	0x50
 12738 1943 03       		.uleb128 0x3
 12739 1944 0A       		.byte	0xa
 12740 1945 5901     		.2byte	0x159
 12741 1947 00       		.byte	0
 12742 1948 0D       		.uleb128 0xd
 12743 1949 E6130000 		.4byte	.LVL305
 12744 194d 59370000 		.4byte	0x3759
 12745 1951 5C190000 		.4byte	0x195c
 12746 1955 0E       		.uleb128 0xe
 12747 1956 01       		.uleb128 0x1
 12748 1957 50       		.byte	0x50
 12749 1958 02       		.uleb128 0x2
 12750 1959 74       		.byte	0x74
 12751 195a 00       		.sleb128 0
 12752 195b 00       		.byte	0
 12753 195c 0D       		.uleb128 0xd
 12754 195d 2E140000 		.4byte	.LVL306
 12755 1961 6A370000 		.4byte	0x376a
 12756 1965 7D190000 		.4byte	0x197d
 12757 1969 0E       		.uleb128 0xe
 12758 196a 01       		.uleb128 0x1
 12759 196b 52       		.byte	0x52
 12760 196c 03       		.uleb128 0x3
 12761 196d 91       		.byte	0x91
 12762 196e AC7F     		.sleb128 -84
 12763 1970 0E       		.uleb128 0xe
 12764 1971 01       		.uleb128 0x1
 12765 1972 51       		.byte	0x51
 12766 1973 03       		.uleb128 0x3
 12767 1974 91       		.byte	0x91
 12768 1975 BC7F     		.sleb128 -68
 12769 1977 0E       		.uleb128 0xe
 12770 1978 01       		.uleb128 0x1
 12771 1979 50       		.byte	0x50
 12772 197a 01       		.uleb128 0x1
 12773 197b 32       		.byte	0x32
 12774 197c 00       		.byte	0
 12775 197d 0D       		.uleb128 0xd
 12776 197e 44140000 		.4byte	.LVL307
 12777 1982 0F370000 		.4byte	0x370f
 12778 1986 91190000 		.4byte	0x1991
 12779 198a 0E       		.uleb128 0xe
 12780 198b 01       		.uleb128 0x1
 12781 198c 50       		.byte	0x50
 12782 198d 02       		.uleb128 0x2
 12783 198e 74       		.byte	0x74
 12784 198f 00       		.sleb128 0
 12785 1990 00       		.byte	0
 12786 1991 0D       		.uleb128 0xd
ARM GAS  C:\Users\RECEPC~1\AppData\Local\Temp\ccNG63cQ.s 			page 268


 12787 1992 58140000 		.4byte	.LVL308
 12788 1996 85370000 		.4byte	0x3785
 12789 199a AE190000 		.4byte	0x19ae
 12790 199e 0E       		.uleb128 0xe
 12791 199f 01       		.uleb128 0x1
 12792 19a0 51       		.byte	0x51
 12793 19a1 02       		.uleb128 0x2
 12794 19a2 74       		.byte	0x74
 12795 19a3 00       		.sleb128 0
 12796 19a4 0E       		.uleb128 0xe
 12797 19a5 01       		.uleb128 0x1
 12798 19a6 50       		.byte	0x50
 12799 19a7 05       		.uleb128 0x5
 12800 19a8 03       		.byte	0x3
 12801 19a9 00000000 		.4byte	resultado
 12802 19ad 00       		.byte	0
 12803 19ae 0D       		.uleb128 0xd
 12804 19af 6A140000 		.4byte	.LVL309
 12805 19b3 F5360000 		.4byte	0x36f5
 12806 19b7 C9190000 		.4byte	0x19c9
 12807 19bb 0E       		.uleb128 0xe
 12808 19bc 01       		.uleb128 0x1
 12809 19bd 51       		.byte	0x51
 12810 19be 02       		.uleb128 0x2
 12811 19bf 91       		.byte	0x91
 12812 19c0 4C       		.sleb128 -52
 12813 19c1 0E       		.uleb128 0xe
 12814 19c2 01       		.uleb128 0x1
 12815 19c3 50       		.byte	0x50
 12816 19c4 03       		.uleb128 0x3
 12817 19c5 0A       		.byte	0xa
 12818 19c6 0001     		.2byte	0x100
 12819 19c8 00       		.byte	0
 12820 19c9 0D       		.uleb128 0xd
 12821 19ca 74140000 		.4byte	.LVL310
 12822 19ce F5360000 		.4byte	0x36f5
 12823 19d2 E7190000 		.4byte	0x19e7
 12824 19d6 0E       		.uleb128 0xe
 12825 19d7 01       		.uleb128 0x1
 12826 19d8 51       		.byte	0x51
 12827 19d9 05       		.uleb128 0x5
 12828 19da 03       		.byte	0x3
 12829 19db 00000000 		.4byte	resultado
 12830 19df 0E       		.uleb128 0xe
 12831 19e0 01       		.uleb128 0x1
 12832 19e1 50       		.byte	0x50
 12833 19e2 03       		.uleb128 0x3
 12834 19e3 0A       		.byte	0xa
 12835 19e4 0D02     		.2byte	0x20d
 12836 19e6 00       		.byte	0
 12837 19e7 0D       		.uleb128 0xd
 12838 19e8 80140000 		.4byte	.LVL311
 12839 19ec F5360000 		.4byte	0x36f5
 12840 19f0 021A0000 		.4byte	0x1a02
 12841 19f4 0E       		.uleb128 0xe
 12842 19f5 01       		.uleb128 0x1
 12843 19f6 51       		.byte	0x51
ARM GAS  C:\Users\RECEPC~1\AppData\Local\Temp\ccNG63cQ.s 			page 269


 12844 19f7 02       		.uleb128 0x2
 12845 19f8 91       		.byte	0x91
 12846 19f9 4C       		.sleb128 -52
 12847 19fa 0E       		.uleb128 0xe
 12848 19fb 01       		.uleb128 0x1
 12849 19fc 50       		.byte	0x50
 12850 19fd 03       		.uleb128 0x3
 12851 19fe 0A       		.byte	0xa
 12852 19ff 5901     		.2byte	0x159
 12853 1a01 00       		.byte	0
 12854 1a02 0D       		.uleb128 0xd
 12855 1a03 8A140000 		.4byte	.LVL312
 12856 1a07 F5360000 		.4byte	0x36f5
 12857 1a0b 201A0000 		.4byte	0x1a20
 12858 1a0f 0E       		.uleb128 0xe
 12859 1a10 01       		.uleb128 0x1
 12860 1a11 51       		.byte	0x51
 12861 1a12 05       		.uleb128 0x5
 12862 1a13 03       		.byte	0x3
 12863 1a14 00000000 		.4byte	resultado
 12864 1a18 0E       		.uleb128 0xe
 12865 1a19 01       		.uleb128 0x1
 12866 1a1a 50       		.byte	0x50
 12867 1a1b 03       		.uleb128 0x3
 12868 1a1c 0A       		.byte	0xa
 12869 1a1d 4D02     		.2byte	0x24d
 12870 1a1f 00       		.byte	0
 12871 1a20 0D       		.uleb128 0xd
 12872 1a21 D2140000 		.4byte	.LVL313
 12873 1a25 0F370000 		.4byte	0x370f
 12874 1a29 341A0000 		.4byte	0x1a34
 12875 1a2d 0E       		.uleb128 0xe
 12876 1a2e 01       		.uleb128 0x1
 12877 1a2f 50       		.byte	0x50
 12878 1a30 02       		.uleb128 0x2
 12879 1a31 74       		.byte	0x74
 12880 1a32 00       		.sleb128 0
 12881 1a33 00       		.byte	0
 12882 1a34 0D       		.uleb128 0xd
 12883 1a35 E6140000 		.4byte	.LVL314
 12884 1a39 0F370000 		.4byte	0x370f
 12885 1a3d 4D1A0000 		.4byte	0x1a4d
 12886 1a41 0E       		.uleb128 0xe
 12887 1a42 01       		.uleb128 0x1
 12888 1a43 51       		.byte	0x51
 12889 1a44 01       		.uleb128 0x1
 12890 1a45 3A       		.byte	0x3a
 12891 1a46 0E       		.uleb128 0xe
 12892 1a47 01       		.uleb128 0x1
 12893 1a48 50       		.byte	0x50
 12894 1a49 02       		.uleb128 0x2
 12895 1a4a 74       		.byte	0x74
 12896 1a4b 00       		.sleb128 0
 12897 1a4c 00       		.byte	0
 12898 1a4d 0D       		.uleb128 0xd
 12899 1a4e FA140000 		.4byte	.LVL315
 12900 1a52 0F370000 		.4byte	0x370f
ARM GAS  C:\Users\RECEPC~1\AppData\Local\Temp\ccNG63cQ.s 			page 270


 12901 1a56 611A0000 		.4byte	0x1a61
 12902 1a5a 0E       		.uleb128 0xe
 12903 1a5b 01       		.uleb128 0x1
 12904 1a5c 50       		.byte	0x50
 12905 1a5d 02       		.uleb128 0x2
 12906 1a5e 74       		.byte	0x74
 12907 1a5f 00       		.sleb128 0
 12908 1a60 00       		.byte	0
 12909 1a61 0D       		.uleb128 0xd
 12910 1a62 0E150000 		.4byte	.LVL316
 12911 1a66 0F370000 		.4byte	0x370f
 12912 1a6a 7A1A0000 		.4byte	0x1a7a
 12913 1a6e 0E       		.uleb128 0xe
 12914 1a6f 01       		.uleb128 0x1
 12915 1a70 51       		.byte	0x51
 12916 1a71 01       		.uleb128 0x1
 12917 1a72 3A       		.byte	0x3a
 12918 1a73 0E       		.uleb128 0xe
 12919 1a74 01       		.uleb128 0x1
 12920 1a75 50       		.byte	0x50
 12921 1a76 02       		.uleb128 0x2
 12922 1a77 74       		.byte	0x74
 12923 1a78 00       		.sleb128 0
 12924 1a79 00       		.byte	0
 12925 1a7a 0D       		.uleb128 0xd
 12926 1a7b 16150000 		.4byte	.LVL317
 12927 1a7f 29370000 		.4byte	0x3729
 12928 1a83 931A0000 		.4byte	0x1a93
 12929 1a87 0E       		.uleb128 0xe
 12930 1a88 01       		.uleb128 0x1
 12931 1a89 51       		.byte	0x51
 12932 1a8a 02       		.uleb128 0x2
 12933 1a8b 74       		.byte	0x74
 12934 1a8c 00       		.sleb128 0
 12935 1a8d 0E       		.uleb128 0xe
 12936 1a8e 01       		.uleb128 0x1
 12937 1a8f 50       		.byte	0x50
 12938 1a90 01       		.uleb128 0x1
 12939 1a91 38       		.byte	0x38
 12940 1a92 00       		.byte	0
 12941 1a93 0D       		.uleb128 0xd
 12942 1a94 2C150000 		.4byte	.LVL318
 12943 1a98 0F370000 		.4byte	0x370f
 12944 1a9c A71A0000 		.4byte	0x1aa7
 12945 1aa0 0E       		.uleb128 0xe
 12946 1aa1 01       		.uleb128 0x1
 12947 1aa2 50       		.byte	0x50
 12948 1aa3 02       		.uleb128 0x2
 12949 1aa4 74       		.byte	0x74
 12950 1aa5 00       		.sleb128 0
 12951 1aa6 00       		.byte	0
 12952 1aa7 0D       		.uleb128 0xd
 12953 1aa8 40150000 		.4byte	.LVL319
 12954 1aac 0F370000 		.4byte	0x370f
 12955 1ab0 C01A0000 		.4byte	0x1ac0
 12956 1ab4 0E       		.uleb128 0xe
 12957 1ab5 01       		.uleb128 0x1
ARM GAS  C:\Users\RECEPC~1\AppData\Local\Temp\ccNG63cQ.s 			page 271


 12958 1ab6 51       		.byte	0x51
 12959 1ab7 01       		.uleb128 0x1
 12960 1ab8 3A       		.byte	0x3a
 12961 1ab9 0E       		.uleb128 0xe
 12962 1aba 01       		.uleb128 0x1
 12963 1abb 50       		.byte	0x50
 12964 1abc 02       		.uleb128 0x2
 12965 1abd 74       		.byte	0x74
 12966 1abe 00       		.sleb128 0
 12967 1abf 00       		.byte	0
 12968 1ac0 0D       		.uleb128 0xd
 12969 1ac1 52150000 		.4byte	.LVL320
 12970 1ac5 3F370000 		.4byte	0x373f
 12971 1ac9 DA1A0000 		.4byte	0x1ada
 12972 1acd 0E       		.uleb128 0xe
 12973 1ace 01       		.uleb128 0x1
 12974 1acf 51       		.byte	0x51
 12975 1ad0 01       		.uleb128 0x1
 12976 1ad1 49       		.byte	0x49
 12977 1ad2 0E       		.uleb128 0xe
 12978 1ad3 01       		.uleb128 0x1
 12979 1ad4 50       		.byte	0x50
 12980 1ad5 03       		.uleb128 0x3
 12981 1ad6 0A       		.byte	0xa
 12982 1ad7 4804     		.2byte	0x448
 12983 1ad9 00       		.byte	0
 12984 1ada 0D       		.uleb128 0xd
 12985 1adb 5E150000 		.4byte	.LVL321
 12986 1adf 3F370000 		.4byte	0x373f
 12987 1ae3 F41A0000 		.4byte	0x1af4
 12988 1ae7 0E       		.uleb128 0xe
 12989 1ae8 01       		.uleb128 0x1
 12990 1ae9 51       		.byte	0x51
 12991 1aea 01       		.uleb128 0x1
 12992 1aeb 49       		.byte	0x49
 12993 1aec 0E       		.uleb128 0xe
 12994 1aed 01       		.uleb128 0x1
 12995 1aee 50       		.byte	0x50
 12996 1aef 03       		.uleb128 0x3
 12997 1af0 0A       		.byte	0xa
 12998 1af1 1E04     		.2byte	0x41e
 12999 1af3 00       		.byte	0
 13000 1af4 0D       		.uleb128 0xd
 13001 1af5 64150000 		.4byte	.LVL322
 13002 1af9 59370000 		.4byte	0x3759
 13003 1afd 081B0000 		.4byte	0x1b08
 13004 1b01 0E       		.uleb128 0xe
 13005 1b02 01       		.uleb128 0x1
 13006 1b03 50       		.byte	0x50
 13007 1b04 02       		.uleb128 0x2
 13008 1b05 74       		.byte	0x74
 13009 1b06 00       		.sleb128 0
 13010 1b07 00       		.byte	0
 13011 1b08 0D       		.uleb128 0xd
 13012 1b09 AC150000 		.4byte	.LVL323
 13013 1b0d 6A370000 		.4byte	0x376a
 13014 1b11 291B0000 		.4byte	0x1b29
ARM GAS  C:\Users\RECEPC~1\AppData\Local\Temp\ccNG63cQ.s 			page 272


 13015 1b15 0E       		.uleb128 0xe
 13016 1b16 01       		.uleb128 0x1
 13017 1b17 52       		.byte	0x52
 13018 1b18 03       		.uleb128 0x3
 13019 1b19 91       		.byte	0x91
 13020 1b1a AC7F     		.sleb128 -84
 13021 1b1c 0E       		.uleb128 0xe
 13022 1b1d 01       		.uleb128 0x1
 13023 1b1e 51       		.byte	0x51
 13024 1b1f 03       		.uleb128 0x3
 13025 1b20 91       		.byte	0x91
 13026 1b21 BC7F     		.sleb128 -68
 13027 1b23 0E       		.uleb128 0xe
 13028 1b24 01       		.uleb128 0x1
 13029 1b25 50       		.byte	0x50
 13030 1b26 01       		.uleb128 0x1
 13031 1b27 32       		.byte	0x32
 13032 1b28 00       		.byte	0
 13033 1b29 0D       		.uleb128 0xd
 13034 1b2a EC150000 		.4byte	.LVL324
 13035 1b2e 0F370000 		.4byte	0x370f
 13036 1b32 3D1B0000 		.4byte	0x1b3d
 13037 1b36 0E       		.uleb128 0xe
 13038 1b37 01       		.uleb128 0x1
 13039 1b38 50       		.byte	0x50
 13040 1b39 02       		.uleb128 0x2
 13041 1b3a 74       		.byte	0x74
 13042 1b3b 00       		.sleb128 0
 13043 1b3c 00       		.byte	0
 13044 1b3d 0D       		.uleb128 0xd
 13045 1b3e 00160000 		.4byte	.LVL325
 13046 1b42 85370000 		.4byte	0x3785
 13047 1b46 5A1B0000 		.4byte	0x1b5a
 13048 1b4a 0E       		.uleb128 0xe
 13049 1b4b 01       		.uleb128 0x1
 13050 1b4c 51       		.byte	0x51
 13051 1b4d 02       		.uleb128 0x2
 13052 1b4e 74       		.byte	0x74
 13053 1b4f 00       		.sleb128 0
 13054 1b50 0E       		.uleb128 0xe
 13055 1b51 01       		.uleb128 0x1
 13056 1b52 50       		.byte	0x50
 13057 1b53 05       		.uleb128 0x5
 13058 1b54 03       		.byte	0x3
 13059 1b55 00000000 		.4byte	resultado
 13060 1b59 00       		.byte	0
 13061 1b5a 0D       		.uleb128 0xd
 13062 1b5b 12160000 		.4byte	.LVL326
 13063 1b5f F5360000 		.4byte	0x36f5
 13064 1b63 751B0000 		.4byte	0x1b75
 13065 1b67 0E       		.uleb128 0xe
 13066 1b68 01       		.uleb128 0x1
 13067 1b69 51       		.byte	0x51
 13068 1b6a 02       		.uleb128 0x2
 13069 1b6b 91       		.byte	0x91
 13070 1b6c 4C       		.sleb128 -52
 13071 1b6d 0E       		.uleb128 0xe
ARM GAS  C:\Users\RECEPC~1\AppData\Local\Temp\ccNG63cQ.s 			page 273


 13072 1b6e 01       		.uleb128 0x1
 13073 1b6f 50       		.byte	0x50
 13074 1b70 03       		.uleb128 0x3
 13075 1b71 0A       		.byte	0xa
 13076 1b72 4804     		.2byte	0x448
 13077 1b74 00       		.byte	0
 13078 1b75 0D       		.uleb128 0xd
 13079 1b76 1C160000 		.4byte	.LVL327
 13080 1b7a F5360000 		.4byte	0x36f5
 13081 1b7e 931B0000 		.4byte	0x1b93
 13082 1b82 0E       		.uleb128 0xe
 13083 1b83 01       		.uleb128 0x1
 13084 1b84 51       		.byte	0x51
 13085 1b85 05       		.uleb128 0x5
 13086 1b86 03       		.byte	0x3
 13087 1b87 00000000 		.4byte	resultado
 13088 1b8b 0E       		.uleb128 0xe
 13089 1b8c 01       		.uleb128 0x1
 13090 1b8d 50       		.byte	0x50
 13091 1b8e 03       		.uleb128 0x3
 13092 1b8f 0A       		.byte	0xa
 13093 1b90 0E04     		.2byte	0x40e
 13094 1b92 00       		.byte	0
 13095 1b93 0D       		.uleb128 0xd
 13096 1b94 28160000 		.4byte	.LVL328
 13097 1b98 F5360000 		.4byte	0x36f5
 13098 1b9c AE1B0000 		.4byte	0x1bae
 13099 1ba0 0E       		.uleb128 0xe
 13100 1ba1 01       		.uleb128 0x1
 13101 1ba2 51       		.byte	0x51
 13102 1ba3 02       		.uleb128 0x2
 13103 1ba4 91       		.byte	0x91
 13104 1ba5 4C       		.sleb128 -52
 13105 1ba6 0E       		.uleb128 0xe
 13106 1ba7 01       		.uleb128 0x1
 13107 1ba8 50       		.byte	0x50
 13108 1ba9 03       		.uleb128 0x3
 13109 1baa 0A       		.byte	0xa
 13110 1bab 1E04     		.2byte	0x41e
 13111 1bad 00       		.byte	0
 13112 1bae 0D       		.uleb128 0xd
 13113 1baf 32160000 		.4byte	.LVL329
 13114 1bb3 F5360000 		.4byte	0x36f5
 13115 1bb7 CC1B0000 		.4byte	0x1bcc
 13116 1bbb 0E       		.uleb128 0xe
 13117 1bbc 01       		.uleb128 0x1
 13118 1bbd 51       		.byte	0x51
 13119 1bbe 05       		.uleb128 0x5
 13120 1bbf 03       		.byte	0x3
 13121 1bc0 00000000 		.4byte	resultado
 13122 1bc4 0E       		.uleb128 0xe
 13123 1bc5 01       		.uleb128 0x1
 13124 1bc6 50       		.byte	0x50
 13125 1bc7 03       		.uleb128 0x3
 13126 1bc8 0A       		.byte	0xa
 13127 1bc9 3904     		.2byte	0x439
 13128 1bcb 00       		.byte	0
ARM GAS  C:\Users\RECEPC~1\AppData\Local\Temp\ccNG63cQ.s 			page 274


 13129 1bcc 0F       		.uleb128 0xf
 13130 1bcd 44160000 		.4byte	.LVL330
 13131 1bd1 E3360000 		.4byte	0x36e3
 13132 1bd5 0D       		.uleb128 0xd
 13133 1bd6 72170000 		.4byte	.LVL331
 13134 1bda 0F370000 		.4byte	0x370f
 13135 1bde E91B0000 		.4byte	0x1be9
 13136 1be2 0E       		.uleb128 0xe
 13137 1be3 01       		.uleb128 0x1
 13138 1be4 50       		.byte	0x50
 13139 1be5 02       		.uleb128 0x2
 13140 1be6 74       		.byte	0x74
 13141 1be7 00       		.sleb128 0
 13142 1be8 00       		.byte	0
 13143 1be9 0D       		.uleb128 0xd
 13144 1bea 86170000 		.4byte	.LVL332
 13145 1bee 0F370000 		.4byte	0x370f
 13146 1bf2 021C0000 		.4byte	0x1c02
 13147 1bf6 0E       		.uleb128 0xe
 13148 1bf7 01       		.uleb128 0x1
 13149 1bf8 51       		.byte	0x51
 13150 1bf9 01       		.uleb128 0x1
 13151 1bfa 3A       		.byte	0x3a
 13152 1bfb 0E       		.uleb128 0xe
 13153 1bfc 01       		.uleb128 0x1
 13154 1bfd 50       		.byte	0x50
 13155 1bfe 02       		.uleb128 0x2
 13156 1bff 74       		.byte	0x74
 13157 1c00 00       		.sleb128 0
 13158 1c01 00       		.byte	0
 13159 1c02 0D       		.uleb128 0xd
 13160 1c03 9C170000 		.4byte	.LVL333
 13161 1c07 0F370000 		.4byte	0x370f
 13162 1c0b 161C0000 		.4byte	0x1c16
 13163 1c0f 0E       		.uleb128 0xe
 13164 1c10 01       		.uleb128 0x1
 13165 1c11 50       		.byte	0x50
 13166 1c12 02       		.uleb128 0x2
 13167 1c13 74       		.byte	0x74
 13168 1c14 00       		.sleb128 0
 13169 1c15 00       		.byte	0
 13170 1c16 0D       		.uleb128 0xd
 13171 1c17 B0170000 		.4byte	.LVL334
 13172 1c1b 0F370000 		.4byte	0x370f
 13173 1c1f 2F1C0000 		.4byte	0x1c2f
 13174 1c23 0E       		.uleb128 0xe
 13175 1c24 01       		.uleb128 0x1
 13176 1c25 51       		.byte	0x51
 13177 1c26 01       		.uleb128 0x1
 13178 1c27 3A       		.byte	0x3a
 13179 1c28 0E       		.uleb128 0xe
 13180 1c29 01       		.uleb128 0x1
 13181 1c2a 50       		.byte	0x50
 13182 1c2b 02       		.uleb128 0x2
 13183 1c2c 74       		.byte	0x74
 13184 1c2d 00       		.sleb128 0
 13185 1c2e 00       		.byte	0
ARM GAS  C:\Users\RECEPC~1\AppData\Local\Temp\ccNG63cQ.s 			page 275


 13186 1c2f 0D       		.uleb128 0xd
 13187 1c30 B8170000 		.4byte	.LVL335
 13188 1c34 29370000 		.4byte	0x3729
 13189 1c38 481C0000 		.4byte	0x1c48
 13190 1c3c 0E       		.uleb128 0xe
 13191 1c3d 01       		.uleb128 0x1
 13192 1c3e 51       		.byte	0x51
 13193 1c3f 02       		.uleb128 0x2
 13194 1c40 74       		.byte	0x74
 13195 1c41 00       		.sleb128 0
 13196 1c42 0E       		.uleb128 0xe
 13197 1c43 01       		.uleb128 0x1
 13198 1c44 50       		.byte	0x50
 13199 1c45 01       		.uleb128 0x1
 13200 1c46 3C       		.byte	0x3c
 13201 1c47 00       		.byte	0
 13202 1c48 0D       		.uleb128 0xd
 13203 1c49 D0170000 		.4byte	.LVL336
 13204 1c4d 0F370000 		.4byte	0x370f
 13205 1c51 5C1C0000 		.4byte	0x1c5c
 13206 1c55 0E       		.uleb128 0xe
 13207 1c56 01       		.uleb128 0x1
 13208 1c57 50       		.byte	0x50
 13209 1c58 02       		.uleb128 0x2
 13210 1c59 74       		.byte	0x74
 13211 1c5a 00       		.sleb128 0
 13212 1c5b 00       		.byte	0
 13213 1c5c 0D       		.uleb128 0xd
 13214 1c5d E4170000 		.4byte	.LVL337
 13215 1c61 0F370000 		.4byte	0x370f
 13216 1c65 751C0000 		.4byte	0x1c75
 13217 1c69 0E       		.uleb128 0xe
 13218 1c6a 01       		.uleb128 0x1
 13219 1c6b 51       		.byte	0x51
 13220 1c6c 01       		.uleb128 0x1
 13221 1c6d 3A       		.byte	0x3a
 13222 1c6e 0E       		.uleb128 0xe
 13223 1c6f 01       		.uleb128 0x1
 13224 1c70 50       		.byte	0x50
 13225 1c71 02       		.uleb128 0x2
 13226 1c72 74       		.byte	0x74
 13227 1c73 00       		.sleb128 0
 13228 1c74 00       		.byte	0
 13229 1c75 0D       		.uleb128 0xd
 13230 1c76 F4170000 		.4byte	.LVL338
 13231 1c7a 3F370000 		.4byte	0x373f
 13232 1c7e 8E1C0000 		.4byte	0x1c8e
 13233 1c82 0E       		.uleb128 0xe
 13234 1c83 01       		.uleb128 0x1
 13235 1c84 51       		.byte	0x51
 13236 1c85 01       		.uleb128 0x1
 13237 1c86 49       		.byte	0x49
 13238 1c87 0E       		.uleb128 0xe
 13239 1c88 01       		.uleb128 0x1
 13240 1c89 50       		.byte	0x50
 13241 1c8a 02       		.uleb128 0x2
 13242 1c8b 08       		.byte	0x8
ARM GAS  C:\Users\RECEPC~1\AppData\Local\Temp\ccNG63cQ.s 			page 276


 13243 1c8c C0       		.byte	0xc0
 13244 1c8d 00       		.byte	0
 13245 1c8e 0D       		.uleb128 0xd
 13246 1c8f 00180000 		.4byte	.LVL339
 13247 1c93 3F370000 		.4byte	0x373f
 13248 1c97 A81C0000 		.4byte	0x1ca8
 13249 1c9b 0E       		.uleb128 0xe
 13250 1c9c 01       		.uleb128 0x1
 13251 1c9d 51       		.byte	0x51
 13252 1c9e 01       		.uleb128 0x1
 13253 1c9f 49       		.byte	0x49
 13254 1ca0 0E       		.uleb128 0xe
 13255 1ca1 01       		.uleb128 0x1
 13256 1ca2 50       		.byte	0x50
 13257 1ca3 03       		.uleb128 0x3
 13258 1ca4 0A       		.byte	0xa
 13259 1ca5 1901     		.2byte	0x119
 13260 1ca7 00       		.byte	0
 13261 1ca8 0D       		.uleb128 0xd
 13262 1ca9 06180000 		.4byte	.LVL340
 13263 1cad 59370000 		.4byte	0x3759
 13264 1cb1 BC1C0000 		.4byte	0x1cbc
 13265 1cb5 0E       		.uleb128 0xe
 13266 1cb6 01       		.uleb128 0x1
 13267 1cb7 50       		.byte	0x50
 13268 1cb8 02       		.uleb128 0x2
 13269 1cb9 74       		.byte	0x74
 13270 1cba 00       		.sleb128 0
 13271 1cbb 00       		.byte	0
 13272 1cbc 0D       		.uleb128 0xd
 13273 1cbd 46180000 		.4byte	.LVL341
 13274 1cc1 6A370000 		.4byte	0x376a
 13275 1cc5 DD1C0000 		.4byte	0x1cdd
 13276 1cc9 0E       		.uleb128 0xe
 13277 1cca 01       		.uleb128 0x1
 13278 1ccb 52       		.byte	0x52
 13279 1ccc 03       		.uleb128 0x3
 13280 1ccd 91       		.byte	0x91
 13281 1cce AC7F     		.sleb128 -84
 13282 1cd0 0E       		.uleb128 0xe
 13283 1cd1 01       		.uleb128 0x1
 13284 1cd2 51       		.byte	0x51
 13285 1cd3 03       		.uleb128 0x3
 13286 1cd4 91       		.byte	0x91
 13287 1cd5 BC7F     		.sleb128 -68
 13288 1cd7 0E       		.uleb128 0xe
 13289 1cd8 01       		.uleb128 0x1
 13290 1cd9 50       		.byte	0x50
 13291 1cda 01       		.uleb128 0x1
 13292 1cdb 32       		.byte	0x32
 13293 1cdc 00       		.byte	0
 13294 1cdd 0D       		.uleb128 0xd
 13295 1cde 5E180000 		.4byte	.LVL342
 13296 1ce2 0F370000 		.4byte	0x370f
 13297 1ce6 F11C0000 		.4byte	0x1cf1
 13298 1cea 0E       		.uleb128 0xe
 13299 1ceb 01       		.uleb128 0x1
ARM GAS  C:\Users\RECEPC~1\AppData\Local\Temp\ccNG63cQ.s 			page 277


 13300 1cec 50       		.byte	0x50
 13301 1ced 02       		.uleb128 0x2
 13302 1cee 74       		.byte	0x74
 13303 1cef 00       		.sleb128 0
 13304 1cf0 00       		.byte	0
 13305 1cf1 0D       		.uleb128 0xd
 13306 1cf2 72180000 		.4byte	.LVL343
 13307 1cf6 85370000 		.4byte	0x3785
 13308 1cfa 0E1D0000 		.4byte	0x1d0e
 13309 1cfe 0E       		.uleb128 0xe
 13310 1cff 01       		.uleb128 0x1
 13311 1d00 51       		.byte	0x51
 13312 1d01 02       		.uleb128 0x2
 13313 1d02 74       		.byte	0x74
 13314 1d03 00       		.sleb128 0
 13315 1d04 0E       		.uleb128 0xe
 13316 1d05 01       		.uleb128 0x1
 13317 1d06 50       		.byte	0x50
 13318 1d07 05       		.uleb128 0x5
 13319 1d08 03       		.byte	0x3
 13320 1d09 00000000 		.4byte	resultado
 13321 1d0d 00       		.byte	0
 13322 1d0e 0D       		.uleb128 0xd
 13323 1d0f 82180000 		.4byte	.LVL344
 13324 1d13 F5360000 		.4byte	0x36f5
 13325 1d17 281D0000 		.4byte	0x1d28
 13326 1d1b 0E       		.uleb128 0xe
 13327 1d1c 01       		.uleb128 0x1
 13328 1d1d 51       		.byte	0x51
 13329 1d1e 02       		.uleb128 0x2
 13330 1d1f 91       		.byte	0x91
 13331 1d20 4C       		.sleb128 -52
 13332 1d21 0E       		.uleb128 0xe
 13333 1d22 01       		.uleb128 0x1
 13334 1d23 50       		.byte	0x50
 13335 1d24 02       		.uleb128 0x2
 13336 1d25 08       		.byte	0x8
 13337 1d26 C0       		.byte	0xc0
 13338 1d27 00       		.byte	0
 13339 1d28 0D       		.uleb128 0xd
 13340 1d29 8C180000 		.4byte	.LVL345
 13341 1d2d F5360000 		.4byte	0x36f5
 13342 1d31 461D0000 		.4byte	0x1d46
 13343 1d35 0E       		.uleb128 0xe
 13344 1d36 01       		.uleb128 0x1
 13345 1d37 51       		.byte	0x51
 13346 1d38 05       		.uleb128 0x5
 13347 1d39 03       		.byte	0x3
 13348 1d3a 00000000 		.4byte	resultado
 13349 1d3e 0E       		.uleb128 0xe
 13350 1d3f 01       		.uleb128 0x1
 13351 1d40 50       		.byte	0x50
 13352 1d41 03       		.uleb128 0x3
 13353 1d42 0A       		.byte	0xa
 13354 1d43 0002     		.2byte	0x200
 13355 1d45 00       		.byte	0
 13356 1d46 0D       		.uleb128 0xd
ARM GAS  C:\Users\RECEPC~1\AppData\Local\Temp\ccNG63cQ.s 			page 278


 13357 1d47 C2180000 		.4byte	.LVL346
 13358 1d4b F5360000 		.4byte	0x36f5
 13359 1d4f 611D0000 		.4byte	0x1d61
 13360 1d53 0E       		.uleb128 0xe
 13361 1d54 01       		.uleb128 0x1
 13362 1d55 51       		.byte	0x51
 13363 1d56 02       		.uleb128 0x2
 13364 1d57 91       		.byte	0x91
 13365 1d58 4C       		.sleb128 -52
 13366 1d59 0E       		.uleb128 0xe
 13367 1d5a 01       		.uleb128 0x1
 13368 1d5b 50       		.byte	0x50
 13369 1d5c 03       		.uleb128 0x3
 13370 1d5d 0A       		.byte	0xa
 13371 1d5e 1901     		.2byte	0x119
 13372 1d60 00       		.byte	0
 13373 1d61 0D       		.uleb128 0xd
 13374 1d62 CC180000 		.4byte	.LVL347
 13375 1d66 F5360000 		.4byte	0x36f5
 13376 1d6a 7F1D0000 		.4byte	0x1d7f
 13377 1d6e 0E       		.uleb128 0xe
 13378 1d6f 01       		.uleb128 0x1
 13379 1d70 51       		.byte	0x51
 13380 1d71 05       		.uleb128 0x5
 13381 1d72 03       		.byte	0x3
 13382 1d73 00000000 		.4byte	resultado
 13383 1d77 0E       		.uleb128 0xe
 13384 1d78 01       		.uleb128 0x1
 13385 1d79 50       		.byte	0x50
 13386 1d7a 03       		.uleb128 0x3
 13387 1d7b 0A       		.byte	0xa
 13388 1d7c 2702     		.2byte	0x227
 13389 1d7e 00       		.byte	0
 13390 1d7f 0D       		.uleb128 0xd
 13391 1d80 16190000 		.4byte	.LVL348
 13392 1d84 0F370000 		.4byte	0x370f
 13393 1d88 931D0000 		.4byte	0x1d93
 13394 1d8c 0E       		.uleb128 0xe
 13395 1d8d 01       		.uleb128 0x1
 13396 1d8e 50       		.byte	0x50
 13397 1d8f 02       		.uleb128 0x2
 13398 1d90 74       		.byte	0x74
 13399 1d91 00       		.sleb128 0
 13400 1d92 00       		.byte	0
 13401 1d93 0D       		.uleb128 0xd
 13402 1d94 2A190000 		.4byte	.LVL349
 13403 1d98 0F370000 		.4byte	0x370f
 13404 1d9c AC1D0000 		.4byte	0x1dac
 13405 1da0 0E       		.uleb128 0xe
 13406 1da1 01       		.uleb128 0x1
 13407 1da2 51       		.byte	0x51
 13408 1da3 01       		.uleb128 0x1
 13409 1da4 3A       		.byte	0x3a
 13410 1da5 0E       		.uleb128 0xe
 13411 1da6 01       		.uleb128 0x1
 13412 1da7 50       		.byte	0x50
 13413 1da8 02       		.uleb128 0x2
ARM GAS  C:\Users\RECEPC~1\AppData\Local\Temp\ccNG63cQ.s 			page 279


 13414 1da9 74       		.byte	0x74
 13415 1daa 00       		.sleb128 0
 13416 1dab 00       		.byte	0
 13417 1dac 0D       		.uleb128 0xd
 13418 1dad 40190000 		.4byte	.LVL350
 13419 1db1 0F370000 		.4byte	0x370f
 13420 1db5 C01D0000 		.4byte	0x1dc0
 13421 1db9 0E       		.uleb128 0xe
 13422 1dba 01       		.uleb128 0x1
 13423 1dbb 50       		.byte	0x50
 13424 1dbc 02       		.uleb128 0x2
 13425 1dbd 74       		.byte	0x74
 13426 1dbe 00       		.sleb128 0
 13427 1dbf 00       		.byte	0
 13428 1dc0 0D       		.uleb128 0xd
 13429 1dc1 54190000 		.4byte	.LVL351
 13430 1dc5 0F370000 		.4byte	0x370f
 13431 1dc9 D91D0000 		.4byte	0x1dd9
 13432 1dcd 0E       		.uleb128 0xe
 13433 1dce 01       		.uleb128 0x1
 13434 1dcf 51       		.byte	0x51
 13435 1dd0 01       		.uleb128 0x1
 13436 1dd1 3A       		.byte	0x3a
 13437 1dd2 0E       		.uleb128 0xe
 13438 1dd3 01       		.uleb128 0x1
 13439 1dd4 50       		.byte	0x50
 13440 1dd5 02       		.uleb128 0x2
 13441 1dd6 74       		.byte	0x74
 13442 1dd7 00       		.sleb128 0
 13443 1dd8 00       		.byte	0
 13444 1dd9 0D       		.uleb128 0xd
 13445 1dda 5C190000 		.4byte	.LVL352
 13446 1dde 29370000 		.4byte	0x3729
 13447 1de2 F21D0000 		.4byte	0x1df2
 13448 1de6 0E       		.uleb128 0xe
 13449 1de7 01       		.uleb128 0x1
 13450 1de8 51       		.byte	0x51
 13451 1de9 02       		.uleb128 0x2
 13452 1dea 74       		.byte	0x74
 13453 1deb 00       		.sleb128 0
 13454 1dec 0E       		.uleb128 0xe
 13455 1ded 01       		.uleb128 0x1
 13456 1dee 50       		.byte	0x50
 13457 1def 01       		.uleb128 0x1
 13458 1df0 3C       		.byte	0x3c
 13459 1df1 00       		.byte	0
 13460 1df2 0D       		.uleb128 0xd
 13461 1df3 74190000 		.4byte	.LVL353
 13462 1df7 0F370000 		.4byte	0x370f
 13463 1dfb 061E0000 		.4byte	0x1e06
 13464 1dff 0E       		.uleb128 0xe
 13465 1e00 01       		.uleb128 0x1
 13466 1e01 50       		.byte	0x50
 13467 1e02 02       		.uleb128 0x2
 13468 1e03 74       		.byte	0x74
 13469 1e04 00       		.sleb128 0
 13470 1e05 00       		.byte	0
ARM GAS  C:\Users\RECEPC~1\AppData\Local\Temp\ccNG63cQ.s 			page 280


 13471 1e06 0D       		.uleb128 0xd
 13472 1e07 88190000 		.4byte	.LVL354
 13473 1e0b 0F370000 		.4byte	0x370f
 13474 1e0f 1F1E0000 		.4byte	0x1e1f
 13475 1e13 0E       		.uleb128 0xe
 13476 1e14 01       		.uleb128 0x1
 13477 1e15 51       		.byte	0x51
 13478 1e16 01       		.uleb128 0x1
 13479 1e17 3A       		.byte	0x3a
 13480 1e18 0E       		.uleb128 0xe
 13481 1e19 01       		.uleb128 0x1
 13482 1e1a 50       		.byte	0x50
 13483 1e1b 02       		.uleb128 0x2
 13484 1e1c 74       		.byte	0x74
 13485 1e1d 00       		.sleb128 0
 13486 1e1e 00       		.byte	0
 13487 1e1f 0D       		.uleb128 0xd
 13488 1e20 98190000 		.4byte	.LVL355
 13489 1e24 3F370000 		.4byte	0x373f
 13490 1e28 381E0000 		.4byte	0x1e38
 13491 1e2c 0E       		.uleb128 0xe
 13492 1e2d 01       		.uleb128 0x1
 13493 1e2e 51       		.byte	0x51
 13494 1e2f 01       		.uleb128 0x1
 13495 1e30 49       		.byte	0x49
 13496 1e31 0E       		.uleb128 0xe
 13497 1e32 01       		.uleb128 0x1
 13498 1e33 50       		.byte	0x50
 13499 1e34 02       		.uleb128 0x2
 13500 1e35 08       		.byte	0x8
 13501 1e36 D9       		.byte	0xd9
 13502 1e37 00       		.byte	0
 13503 1e38 0D       		.uleb128 0xd
 13504 1e39 A4190000 		.4byte	.LVL356
 13505 1e3d 3F370000 		.4byte	0x373f
 13506 1e41 521E0000 		.4byte	0x1e52
 13507 1e45 0E       		.uleb128 0xe
 13508 1e46 01       		.uleb128 0x1
 13509 1e47 51       		.byte	0x51
 13510 1e48 01       		.uleb128 0x1
 13511 1e49 49       		.byte	0x49
 13512 1e4a 0E       		.uleb128 0xe
 13513 1e4b 01       		.uleb128 0x1
 13514 1e4c 50       		.byte	0x50
 13515 1e4d 03       		.uleb128 0x3
 13516 1e4e 0A       		.byte	0xa
 13517 1e4f 4001     		.2byte	0x140
 13518 1e51 00       		.byte	0
 13519 1e52 0D       		.uleb128 0xd
 13520 1e53 AA190000 		.4byte	.LVL357
 13521 1e57 59370000 		.4byte	0x3759
 13522 1e5b 661E0000 		.4byte	0x1e66
 13523 1e5f 0E       		.uleb128 0xe
 13524 1e60 01       		.uleb128 0x1
 13525 1e61 50       		.byte	0x50
 13526 1e62 02       		.uleb128 0x2
 13527 1e63 74       		.byte	0x74
ARM GAS  C:\Users\RECEPC~1\AppData\Local\Temp\ccNG63cQ.s 			page 281


 13528 1e64 00       		.sleb128 0
 13529 1e65 00       		.byte	0
 13530 1e66 0D       		.uleb128 0xd
 13531 1e67 EA190000 		.4byte	.LVL358
 13532 1e6b 6A370000 		.4byte	0x376a
 13533 1e6f 871E0000 		.4byte	0x1e87
 13534 1e73 0E       		.uleb128 0xe
 13535 1e74 01       		.uleb128 0x1
 13536 1e75 52       		.byte	0x52
 13537 1e76 03       		.uleb128 0x3
 13538 1e77 91       		.byte	0x91
 13539 1e78 AC7F     		.sleb128 -84
 13540 1e7a 0E       		.uleb128 0xe
 13541 1e7b 01       		.uleb128 0x1
 13542 1e7c 51       		.byte	0x51
 13543 1e7d 03       		.uleb128 0x3
 13544 1e7e 91       		.byte	0x91
 13545 1e7f BC7F     		.sleb128 -68
 13546 1e81 0E       		.uleb128 0xe
 13547 1e82 01       		.uleb128 0x1
 13548 1e83 50       		.byte	0x50
 13549 1e84 01       		.uleb128 0x1
 13550 1e85 32       		.byte	0x32
 13551 1e86 00       		.byte	0
 13552 1e87 0D       		.uleb128 0xd
 13553 1e88 021A0000 		.4byte	.LVL359
 13554 1e8c 0F370000 		.4byte	0x370f
 13555 1e90 9B1E0000 		.4byte	0x1e9b
 13556 1e94 0E       		.uleb128 0xe
 13557 1e95 01       		.uleb128 0x1
 13558 1e96 50       		.byte	0x50
 13559 1e97 02       		.uleb128 0x2
 13560 1e98 74       		.byte	0x74
 13561 1e99 00       		.sleb128 0
 13562 1e9a 00       		.byte	0
 13563 1e9b 0D       		.uleb128 0xd
 13564 1e9c 161A0000 		.4byte	.LVL360
 13565 1ea0 85370000 		.4byte	0x3785
 13566 1ea4 B81E0000 		.4byte	0x1eb8
 13567 1ea8 0E       		.uleb128 0xe
 13568 1ea9 01       		.uleb128 0x1
 13569 1eaa 51       		.byte	0x51
 13570 1eab 02       		.uleb128 0x2
 13571 1eac 74       		.byte	0x74
 13572 1ead 00       		.sleb128 0
 13573 1eae 0E       		.uleb128 0xe
 13574 1eaf 01       		.uleb128 0x1
 13575 1eb0 50       		.byte	0x50
 13576 1eb1 05       		.uleb128 0x5
 13577 1eb2 03       		.byte	0x3
 13578 1eb3 00000000 		.4byte	resultado
 13579 1eb7 00       		.byte	0
 13580 1eb8 0D       		.uleb128 0xd
 13581 1eb9 261A0000 		.4byte	.LVL361
 13582 1ebd F5360000 		.4byte	0x36f5
 13583 1ec1 D21E0000 		.4byte	0x1ed2
 13584 1ec5 0E       		.uleb128 0xe
ARM GAS  C:\Users\RECEPC~1\AppData\Local\Temp\ccNG63cQ.s 			page 282


 13585 1ec6 01       		.uleb128 0x1
 13586 1ec7 51       		.byte	0x51
 13587 1ec8 02       		.uleb128 0x2
 13588 1ec9 91       		.byte	0x91
 13589 1eca 4C       		.sleb128 -52
 13590 1ecb 0E       		.uleb128 0xe
 13591 1ecc 01       		.uleb128 0x1
 13592 1ecd 50       		.byte	0x50
 13593 1ece 02       		.uleb128 0x2
 13594 1ecf 08       		.byte	0x8
 13595 1ed0 D9       		.byte	0xd9
 13596 1ed1 00       		.byte	0
 13597 1ed2 0D       		.uleb128 0xd
 13598 1ed3 301A0000 		.4byte	.LVL362
 13599 1ed7 F5360000 		.4byte	0x36f5
 13600 1edb F01E0000 		.4byte	0x1ef0
 13601 1edf 0E       		.uleb128 0xe
 13602 1ee0 01       		.uleb128 0x1
 13603 1ee1 51       		.byte	0x51
 13604 1ee2 05       		.uleb128 0x5
 13605 1ee3 03       		.byte	0x3
 13606 1ee4 00000000 		.4byte	resultado
 13607 1ee8 0E       		.uleb128 0xe
 13608 1ee9 01       		.uleb128 0x1
 13609 1eea 50       		.byte	0x50
 13610 1eeb 03       		.uleb128 0x3
 13611 1eec 0A       		.byte	0xa
 13612 1eed 1A02     		.2byte	0x21a
 13613 1eef 00       		.byte	0
 13614 1ef0 0D       		.uleb128 0xd
 13615 1ef1 3C1A0000 		.4byte	.LVL363
 13616 1ef5 F5360000 		.4byte	0x36f5
 13617 1ef9 0B1F0000 		.4byte	0x1f0b
 13618 1efd 0E       		.uleb128 0xe
 13619 1efe 01       		.uleb128 0x1
 13620 1eff 51       		.byte	0x51
 13621 1f00 02       		.uleb128 0x2
 13622 1f01 91       		.byte	0x91
 13623 1f02 4C       		.sleb128 -52
 13624 1f03 0E       		.uleb128 0xe
 13625 1f04 01       		.uleb128 0x1
 13626 1f05 50       		.byte	0x50
 13627 1f06 03       		.uleb128 0x3
 13628 1f07 0A       		.byte	0xa
 13629 1f08 4001     		.2byte	0x140
 13630 1f0a 00       		.byte	0
 13631 1f0b 0D       		.uleb128 0xd
 13632 1f0c 461A0000 		.4byte	.LVL364
 13633 1f10 F5360000 		.4byte	0x36f5
 13634 1f14 291F0000 		.4byte	0x1f29
 13635 1f18 0E       		.uleb128 0xe
 13636 1f19 01       		.uleb128 0x1
 13637 1f1a 51       		.byte	0x51
 13638 1f1b 05       		.uleb128 0x5
 13639 1f1c 03       		.byte	0x3
 13640 1f1d 00000000 		.4byte	resultado
 13641 1f21 0E       		.uleb128 0xe
ARM GAS  C:\Users\RECEPC~1\AppData\Local\Temp\ccNG63cQ.s 			page 283


 13642 1f22 01       		.uleb128 0x1
 13643 1f23 50       		.byte	0x50
 13644 1f24 03       		.uleb128 0x3
 13645 1f25 0A       		.byte	0xa
 13646 1f26 4002     		.2byte	0x240
 13647 1f28 00       		.byte	0
 13648 1f29 0D       		.uleb128 0xd
 13649 1f2a 901A0000 		.4byte	.LVL365
 13650 1f2e 0F370000 		.4byte	0x370f
 13651 1f32 3D1F0000 		.4byte	0x1f3d
 13652 1f36 0E       		.uleb128 0xe
 13653 1f37 01       		.uleb128 0x1
 13654 1f38 50       		.byte	0x50
 13655 1f39 02       		.uleb128 0x2
 13656 1f3a 74       		.byte	0x74
 13657 1f3b 00       		.sleb128 0
 13658 1f3c 00       		.byte	0
 13659 1f3d 0D       		.uleb128 0xd
 13660 1f3e A41A0000 		.4byte	.LVL366
 13661 1f42 0F370000 		.4byte	0x370f
 13662 1f46 561F0000 		.4byte	0x1f56
 13663 1f4a 0E       		.uleb128 0xe
 13664 1f4b 01       		.uleb128 0x1
 13665 1f4c 51       		.byte	0x51
 13666 1f4d 01       		.uleb128 0x1
 13667 1f4e 3A       		.byte	0x3a
 13668 1f4f 0E       		.uleb128 0xe
 13669 1f50 01       		.uleb128 0x1
 13670 1f51 50       		.byte	0x50
 13671 1f52 02       		.uleb128 0x2
 13672 1f53 74       		.byte	0x74
 13673 1f54 00       		.sleb128 0
 13674 1f55 00       		.byte	0
 13675 1f56 0D       		.uleb128 0xd
 13676 1f57 BA1A0000 		.4byte	.LVL367
 13677 1f5b 0F370000 		.4byte	0x370f
 13678 1f5f 6A1F0000 		.4byte	0x1f6a
 13679 1f63 0E       		.uleb128 0xe
 13680 1f64 01       		.uleb128 0x1
 13681 1f65 50       		.byte	0x50
 13682 1f66 02       		.uleb128 0x2
 13683 1f67 74       		.byte	0x74
 13684 1f68 00       		.sleb128 0
 13685 1f69 00       		.byte	0
 13686 1f6a 0D       		.uleb128 0xd
 13687 1f6b CE1A0000 		.4byte	.LVL368
 13688 1f6f 0F370000 		.4byte	0x370f
 13689 1f73 831F0000 		.4byte	0x1f83
 13690 1f77 0E       		.uleb128 0xe
 13691 1f78 01       		.uleb128 0x1
 13692 1f79 51       		.byte	0x51
 13693 1f7a 01       		.uleb128 0x1
 13694 1f7b 3A       		.byte	0x3a
 13695 1f7c 0E       		.uleb128 0xe
 13696 1f7d 01       		.uleb128 0x1
 13697 1f7e 50       		.byte	0x50
 13698 1f7f 02       		.uleb128 0x2
ARM GAS  C:\Users\RECEPC~1\AppData\Local\Temp\ccNG63cQ.s 			page 284


 13699 1f80 74       		.byte	0x74
 13700 1f81 00       		.sleb128 0
 13701 1f82 00       		.byte	0
 13702 1f83 0D       		.uleb128 0xd
 13703 1f84 D61A0000 		.4byte	.LVL369
 13704 1f88 29370000 		.4byte	0x3729
 13705 1f8c 9C1F0000 		.4byte	0x1f9c
 13706 1f90 0E       		.uleb128 0xe
 13707 1f91 01       		.uleb128 0x1
 13708 1f92 51       		.byte	0x51
 13709 1f93 02       		.uleb128 0x2
 13710 1f94 74       		.byte	0x74
 13711 1f95 00       		.sleb128 0
 13712 1f96 0E       		.uleb128 0xe
 13713 1f97 01       		.uleb128 0x1
 13714 1f98 50       		.byte	0x50
 13715 1f99 01       		.uleb128 0x1
 13716 1f9a 3C       		.byte	0x3c
 13717 1f9b 00       		.byte	0
 13718 1f9c 0D       		.uleb128 0xd
 13719 1f9d EE1A0000 		.4byte	.LVL370
 13720 1fa1 0F370000 		.4byte	0x370f
 13721 1fa5 B01F0000 		.4byte	0x1fb0
 13722 1fa9 0E       		.uleb128 0xe
 13723 1faa 01       		.uleb128 0x1
 13724 1fab 50       		.byte	0x50
 13725 1fac 02       		.uleb128 0x2
 13726 1fad 74       		.byte	0x74
 13727 1fae 00       		.sleb128 0
 13728 1faf 00       		.byte	0
 13729 1fb0 0D       		.uleb128 0xd
 13730 1fb1 021B0000 		.4byte	.LVL371
 13731 1fb5 0F370000 		.4byte	0x370f
 13732 1fb9 C91F0000 		.4byte	0x1fc9
 13733 1fbd 0E       		.uleb128 0xe
 13734 1fbe 01       		.uleb128 0x1
 13735 1fbf 51       		.byte	0x51
 13736 1fc0 01       		.uleb128 0x1
 13737 1fc1 3A       		.byte	0x3a
 13738 1fc2 0E       		.uleb128 0xe
 13739 1fc3 01       		.uleb128 0x1
 13740 1fc4 50       		.byte	0x50
 13741 1fc5 02       		.uleb128 0x2
 13742 1fc6 74       		.byte	0x74
 13743 1fc7 00       		.sleb128 0
 13744 1fc8 00       		.byte	0
 13745 1fc9 0D       		.uleb128 0xd
 13746 1fca 141B0000 		.4byte	.LVL372
 13747 1fce 3F370000 		.4byte	0x373f
 13748 1fd2 E31F0000 		.4byte	0x1fe3
 13749 1fd6 0E       		.uleb128 0xe
 13750 1fd7 01       		.uleb128 0x1
 13751 1fd8 51       		.byte	0x51
 13752 1fd9 01       		.uleb128 0x1
 13753 1fda 49       		.byte	0x49
 13754 1fdb 0E       		.uleb128 0xe
 13755 1fdc 01       		.uleb128 0x1
ARM GAS  C:\Users\RECEPC~1\AppData\Local\Temp\ccNG63cQ.s 			page 285


 13756 1fdd 50       		.byte	0x50
 13757 1fde 03       		.uleb128 0x3
 13758 1fdf 0A       		.byte	0xa
 13759 1fe0 0001     		.2byte	0x100
 13760 1fe2 00       		.byte	0
 13761 1fe3 0D       		.uleb128 0xd
 13762 1fe4 201B0000 		.4byte	.LVL373
 13763 1fe8 3F370000 		.4byte	0x373f
 13764 1fec FD1F0000 		.4byte	0x1ffd
 13765 1ff0 0E       		.uleb128 0xe
 13766 1ff1 01       		.uleb128 0x1
 13767 1ff2 51       		.byte	0x51
 13768 1ff3 01       		.uleb128 0x1
 13769 1ff4 49       		.byte	0x49
 13770 1ff5 0E       		.uleb128 0xe
 13771 1ff6 01       		.uleb128 0x1
 13772 1ff7 50       		.byte	0x50
 13773 1ff8 03       		.uleb128 0x3
 13774 1ff9 0A       		.byte	0xa
 13775 1ffa 5901     		.2byte	0x159
 13776 1ffc 00       		.byte	0
 13777 1ffd 0D       		.uleb128 0xd
 13778 1ffe 261B0000 		.4byte	.LVL374
 13779 2002 59370000 		.4byte	0x3759
 13780 2006 11200000 		.4byte	0x2011
 13781 200a 0E       		.uleb128 0xe
 13782 200b 01       		.uleb128 0x1
 13783 200c 50       		.byte	0x50
 13784 200d 02       		.uleb128 0x2
 13785 200e 74       		.byte	0x74
 13786 200f 00       		.sleb128 0
 13787 2010 00       		.byte	0
 13788 2011 0D       		.uleb128 0xd
 13789 2012 661B0000 		.4byte	.LVL375
 13790 2016 6A370000 		.4byte	0x376a
 13791 201a 32200000 		.4byte	0x2032
 13792 201e 0E       		.uleb128 0xe
 13793 201f 01       		.uleb128 0x1
 13794 2020 52       		.byte	0x52
 13795 2021 03       		.uleb128 0x3
 13796 2022 91       		.byte	0x91
 13797 2023 AC7F     		.sleb128 -84
 13798 2025 0E       		.uleb128 0xe
 13799 2026 01       		.uleb128 0x1
 13800 2027 51       		.byte	0x51
 13801 2028 03       		.uleb128 0x3
 13802 2029 91       		.byte	0x91
 13803 202a BC7F     		.sleb128 -68
 13804 202c 0E       		.uleb128 0xe
 13805 202d 01       		.uleb128 0x1
 13806 202e 50       		.byte	0x50
 13807 202f 01       		.uleb128 0x1
 13808 2030 32       		.byte	0x32
 13809 2031 00       		.byte	0
 13810 2032 0D       		.uleb128 0xd
 13811 2033 AC1B0000 		.4byte	.LVL376
 13812 2037 0F370000 		.4byte	0x370f
ARM GAS  C:\Users\RECEPC~1\AppData\Local\Temp\ccNG63cQ.s 			page 286


 13813 203b 46200000 		.4byte	0x2046
 13814 203f 0E       		.uleb128 0xe
 13815 2040 01       		.uleb128 0x1
 13816 2041 50       		.byte	0x50
 13817 2042 02       		.uleb128 0x2
 13818 2043 74       		.byte	0x74
 13819 2044 00       		.sleb128 0
 13820 2045 00       		.byte	0
 13821 2046 0D       		.uleb128 0xd
 13822 2047 C01B0000 		.4byte	.LVL377
 13823 204b 85370000 		.4byte	0x3785
 13824 204f 63200000 		.4byte	0x2063
 13825 2053 0E       		.uleb128 0xe
 13826 2054 01       		.uleb128 0x1
 13827 2055 51       		.byte	0x51
 13828 2056 02       		.uleb128 0x2
 13829 2057 74       		.byte	0x74
 13830 2058 00       		.sleb128 0
 13831 2059 0E       		.uleb128 0xe
 13832 205a 01       		.uleb128 0x1
 13833 205b 50       		.byte	0x50
 13834 205c 05       		.uleb128 0x5
 13835 205d 03       		.byte	0x3
 13836 205e 00000000 		.4byte	resultado
 13837 2062 00       		.byte	0
 13838 2063 0D       		.uleb128 0xd
 13839 2064 D21B0000 		.4byte	.LVL378
 13840 2068 F5360000 		.4byte	0x36f5
 13841 206c 7E200000 		.4byte	0x207e
 13842 2070 0E       		.uleb128 0xe
 13843 2071 01       		.uleb128 0x1
 13844 2072 51       		.byte	0x51
 13845 2073 02       		.uleb128 0x2
 13846 2074 91       		.byte	0x91
 13847 2075 4C       		.sleb128 -52
 13848 2076 0E       		.uleb128 0xe
 13849 2077 01       		.uleb128 0x1
 13850 2078 50       		.byte	0x50
 13851 2079 03       		.uleb128 0x3
 13852 207a 0A       		.byte	0xa
 13853 207b 0001     		.2byte	0x100
 13854 207d 00       		.byte	0
 13855 207e 0D       		.uleb128 0xd
 13856 207f DC1B0000 		.4byte	.LVL379
 13857 2083 F5360000 		.4byte	0x36f5
 13858 2087 9C200000 		.4byte	0x209c
 13859 208b 0E       		.uleb128 0xe
 13860 208c 01       		.uleb128 0x1
 13861 208d 51       		.byte	0x51
 13862 208e 05       		.uleb128 0x5
 13863 208f 03       		.byte	0x3
 13864 2090 00000000 		.4byte	resultado
 13865 2094 0E       		.uleb128 0xe
 13866 2095 01       		.uleb128 0x1
 13867 2096 50       		.byte	0x50
 13868 2097 03       		.uleb128 0x3
 13869 2098 0A       		.byte	0xa
ARM GAS  C:\Users\RECEPC~1\AppData\Local\Temp\ccNG63cQ.s 			page 287


 13870 2099 0D02     		.2byte	0x20d
 13871 209b 00       		.byte	0
 13872 209c 0D       		.uleb128 0xd
 13873 209d E81B0000 		.4byte	.LVL380
 13874 20a1 F5360000 		.4byte	0x36f5
 13875 20a5 B7200000 		.4byte	0x20b7
 13876 20a9 0E       		.uleb128 0xe
 13877 20aa 01       		.uleb128 0x1
 13878 20ab 51       		.byte	0x51
 13879 20ac 02       		.uleb128 0x2
 13880 20ad 91       		.byte	0x91
 13881 20ae 4C       		.sleb128 -52
 13882 20af 0E       		.uleb128 0xe
 13883 20b0 01       		.uleb128 0x1
 13884 20b1 50       		.byte	0x50
 13885 20b2 03       		.uleb128 0x3
 13886 20b3 0A       		.byte	0xa
 13887 20b4 5901     		.2byte	0x159
 13888 20b6 00       		.byte	0
 13889 20b7 0D       		.uleb128 0xd
 13890 20b8 F21B0000 		.4byte	.LVL381
 13891 20bc F5360000 		.4byte	0x36f5
 13892 20c0 D5200000 		.4byte	0x20d5
 13893 20c4 0E       		.uleb128 0xe
 13894 20c5 01       		.uleb128 0x1
 13895 20c6 51       		.byte	0x51
 13896 20c7 05       		.uleb128 0x5
 13897 20c8 03       		.byte	0x3
 13898 20c9 00000000 		.4byte	resultado
 13899 20cd 0E       		.uleb128 0xe
 13900 20ce 01       		.uleb128 0x1
 13901 20cf 50       		.byte	0x50
 13902 20d0 03       		.uleb128 0x3
 13903 20d1 0A       		.byte	0xa
 13904 20d2 4D02     		.2byte	0x24d
 13905 20d4 00       		.byte	0
 13906 20d5 0D       		.uleb128 0xd
 13907 20d6 3C1C0000 		.4byte	.LVL382
 13908 20da 0F370000 		.4byte	0x370f
 13909 20de E9200000 		.4byte	0x20e9
 13910 20e2 0E       		.uleb128 0xe
 13911 20e3 01       		.uleb128 0x1
 13912 20e4 50       		.byte	0x50
 13913 20e5 02       		.uleb128 0x2
 13914 20e6 74       		.byte	0x74
 13915 20e7 00       		.sleb128 0
 13916 20e8 00       		.byte	0
 13917 20e9 0D       		.uleb128 0xd
 13918 20ea 501C0000 		.4byte	.LVL383
 13919 20ee 0F370000 		.4byte	0x370f
 13920 20f2 02210000 		.4byte	0x2102
 13921 20f6 0E       		.uleb128 0xe
 13922 20f7 01       		.uleb128 0x1
 13923 20f8 51       		.byte	0x51
 13924 20f9 01       		.uleb128 0x1
 13925 20fa 3A       		.byte	0x3a
 13926 20fb 0E       		.uleb128 0xe
ARM GAS  C:\Users\RECEPC~1\AppData\Local\Temp\ccNG63cQ.s 			page 288


 13927 20fc 01       		.uleb128 0x1
 13928 20fd 50       		.byte	0x50
 13929 20fe 02       		.uleb128 0x2
 13930 20ff 74       		.byte	0x74
 13931 2100 00       		.sleb128 0
 13932 2101 00       		.byte	0
 13933 2102 0D       		.uleb128 0xd
 13934 2103 661C0000 		.4byte	.LVL384
 13935 2107 0F370000 		.4byte	0x370f
 13936 210b 16210000 		.4byte	0x2116
 13937 210f 0E       		.uleb128 0xe
 13938 2110 01       		.uleb128 0x1
 13939 2111 50       		.byte	0x50
 13940 2112 02       		.uleb128 0x2
 13941 2113 74       		.byte	0x74
 13942 2114 00       		.sleb128 0
 13943 2115 00       		.byte	0
 13944 2116 0D       		.uleb128 0xd
 13945 2117 7A1C0000 		.4byte	.LVL385
 13946 211b 0F370000 		.4byte	0x370f
 13947 211f 2F210000 		.4byte	0x212f
 13948 2123 0E       		.uleb128 0xe
 13949 2124 01       		.uleb128 0x1
 13950 2125 51       		.byte	0x51
 13951 2126 01       		.uleb128 0x1
 13952 2127 3A       		.byte	0x3a
 13953 2128 0E       		.uleb128 0xe
 13954 2129 01       		.uleb128 0x1
 13955 212a 50       		.byte	0x50
 13956 212b 02       		.uleb128 0x2
 13957 212c 74       		.byte	0x74
 13958 212d 00       		.sleb128 0
 13959 212e 00       		.byte	0
 13960 212f 0D       		.uleb128 0xd
 13961 2130 821C0000 		.4byte	.LVL386
 13962 2134 29370000 		.4byte	0x3729
 13963 2138 48210000 		.4byte	0x2148
 13964 213c 0E       		.uleb128 0xe
 13965 213d 01       		.uleb128 0x1
 13966 213e 51       		.byte	0x51
 13967 213f 02       		.uleb128 0x2
 13968 2140 74       		.byte	0x74
 13969 2141 00       		.sleb128 0
 13970 2142 0E       		.uleb128 0xe
 13971 2143 01       		.uleb128 0x1
 13972 2144 50       		.byte	0x50
 13973 2145 01       		.uleb128 0x1
 13974 2146 3C       		.byte	0x3c
 13975 2147 00       		.byte	0
 13976 2148 0D       		.uleb128 0xd
 13977 2149 9A1C0000 		.4byte	.LVL387
 13978 214d 0F370000 		.4byte	0x370f
 13979 2151 5C210000 		.4byte	0x215c
 13980 2155 0E       		.uleb128 0xe
 13981 2156 01       		.uleb128 0x1
 13982 2157 50       		.byte	0x50
 13983 2158 02       		.uleb128 0x2
ARM GAS  C:\Users\RECEPC~1\AppData\Local\Temp\ccNG63cQ.s 			page 289


 13984 2159 74       		.byte	0x74
 13985 215a 00       		.sleb128 0
 13986 215b 00       		.byte	0
 13987 215c 0D       		.uleb128 0xd
 13988 215d AE1C0000 		.4byte	.LVL388
 13989 2161 0F370000 		.4byte	0x370f
 13990 2165 75210000 		.4byte	0x2175
 13991 2169 0E       		.uleb128 0xe
 13992 216a 01       		.uleb128 0x1
 13993 216b 51       		.byte	0x51
 13994 216c 01       		.uleb128 0x1
 13995 216d 3A       		.byte	0x3a
 13996 216e 0E       		.uleb128 0xe
 13997 216f 01       		.uleb128 0x1
 13998 2170 50       		.byte	0x50
 13999 2171 02       		.uleb128 0x2
 14000 2172 74       		.byte	0x74
 14001 2173 00       		.sleb128 0
 14002 2174 00       		.byte	0
 14003 2175 0D       		.uleb128 0xd
 14004 2176 C01C0000 		.4byte	.LVL389
 14005 217a 3F370000 		.4byte	0x373f
 14006 217e 8F210000 		.4byte	0x218f
 14007 2182 0E       		.uleb128 0xe
 14008 2183 01       		.uleb128 0x1
 14009 2184 51       		.byte	0x51
 14010 2185 01       		.uleb128 0x1
 14011 2186 49       		.byte	0x49
 14012 2187 0E       		.uleb128 0xe
 14013 2188 01       		.uleb128 0x1
 14014 2189 50       		.byte	0x50
 14015 218a 03       		.uleb128 0x3
 14016 218b 0A       		.byte	0xa
 14017 218c 4804     		.2byte	0x448
 14018 218e 00       		.byte	0
 14019 218f 0D       		.uleb128 0xd
 14020 2190 CC1C0000 		.4byte	.LVL390
 14021 2194 3F370000 		.4byte	0x373f
 14022 2198 A9210000 		.4byte	0x21a9
 14023 219c 0E       		.uleb128 0xe
 14024 219d 01       		.uleb128 0x1
 14025 219e 51       		.byte	0x51
 14026 219f 01       		.uleb128 0x1
 14027 21a0 49       		.byte	0x49
 14028 21a1 0E       		.uleb128 0xe
 14029 21a2 01       		.uleb128 0x1
 14030 21a3 50       		.byte	0x50
 14031 21a4 03       		.uleb128 0x3
 14032 21a5 0A       		.byte	0xa
 14033 21a6 1E04     		.2byte	0x41e
 14034 21a8 00       		.byte	0
 14035 21a9 0D       		.uleb128 0xd
 14036 21aa D21C0000 		.4byte	.LVL391
 14037 21ae 59370000 		.4byte	0x3759
 14038 21b2 BD210000 		.4byte	0x21bd
 14039 21b6 0E       		.uleb128 0xe
 14040 21b7 01       		.uleb128 0x1
ARM GAS  C:\Users\RECEPC~1\AppData\Local\Temp\ccNG63cQ.s 			page 290


 14041 21b8 50       		.byte	0x50
 14042 21b9 02       		.uleb128 0x2
 14043 21ba 74       		.byte	0x74
 14044 21bb 00       		.sleb128 0
 14045 21bc 00       		.byte	0
 14046 21bd 0D       		.uleb128 0xd
 14047 21be 121D0000 		.4byte	.LVL392
 14048 21c2 6A370000 		.4byte	0x376a
 14049 21c6 DE210000 		.4byte	0x21de
 14050 21ca 0E       		.uleb128 0xe
 14051 21cb 01       		.uleb128 0x1
 14052 21cc 52       		.byte	0x52
 14053 21cd 03       		.uleb128 0x3
 14054 21ce 91       		.byte	0x91
 14055 21cf AC7F     		.sleb128 -84
 14056 21d1 0E       		.uleb128 0xe
 14057 21d2 01       		.uleb128 0x1
 14058 21d3 51       		.byte	0x51
 14059 21d4 03       		.uleb128 0x3
 14060 21d5 91       		.byte	0x91
 14061 21d6 BC7F     		.sleb128 -68
 14062 21d8 0E       		.uleb128 0xe
 14063 21d9 01       		.uleb128 0x1
 14064 21da 50       		.byte	0x50
 14065 21db 01       		.uleb128 0x1
 14066 21dc 32       		.byte	0x32
 14067 21dd 00       		.byte	0
 14068 21de 0D       		.uleb128 0xd
 14069 21df 2A1D0000 		.4byte	.LVL393
 14070 21e3 0F370000 		.4byte	0x370f
 14071 21e7 F2210000 		.4byte	0x21f2
 14072 21eb 0E       		.uleb128 0xe
 14073 21ec 01       		.uleb128 0x1
 14074 21ed 50       		.byte	0x50
 14075 21ee 02       		.uleb128 0x2
 14076 21ef 74       		.byte	0x74
 14077 21f0 00       		.sleb128 0
 14078 21f1 00       		.byte	0
 14079 21f2 0D       		.uleb128 0xd
 14080 21f3 3E1D0000 		.4byte	.LVL394
 14081 21f7 85370000 		.4byte	0x3785
 14082 21fb 0F220000 		.4byte	0x220f
 14083 21ff 0E       		.uleb128 0xe
 14084 2200 01       		.uleb128 0x1
 14085 2201 51       		.byte	0x51
 14086 2202 02       		.uleb128 0x2
 14087 2203 74       		.byte	0x74
 14088 2204 00       		.sleb128 0
 14089 2205 0E       		.uleb128 0xe
 14090 2206 01       		.uleb128 0x1
 14091 2207 50       		.byte	0x50
 14092 2208 05       		.uleb128 0x5
 14093 2209 03       		.byte	0x3
 14094 220a 00000000 		.4byte	resultado
 14095 220e 00       		.byte	0
 14096 220f 0D       		.uleb128 0xd
 14097 2210 501D0000 		.4byte	.LVL395
ARM GAS  C:\Users\RECEPC~1\AppData\Local\Temp\ccNG63cQ.s 			page 291


 14098 2214 F5360000 		.4byte	0x36f5
 14099 2218 2A220000 		.4byte	0x222a
 14100 221c 0E       		.uleb128 0xe
 14101 221d 01       		.uleb128 0x1
 14102 221e 51       		.byte	0x51
 14103 221f 02       		.uleb128 0x2
 14104 2220 91       		.byte	0x91
 14105 2221 4C       		.sleb128 -52
 14106 2222 0E       		.uleb128 0xe
 14107 2223 01       		.uleb128 0x1
 14108 2224 50       		.byte	0x50
 14109 2225 03       		.uleb128 0x3
 14110 2226 0A       		.byte	0xa
 14111 2227 4804     		.2byte	0x448
 14112 2229 00       		.byte	0
 14113 222a 0D       		.uleb128 0xd
 14114 222b 5A1D0000 		.4byte	.LVL396
 14115 222f F5360000 		.4byte	0x36f5
 14116 2233 48220000 		.4byte	0x2248
 14117 2237 0E       		.uleb128 0xe
 14118 2238 01       		.uleb128 0x1
 14119 2239 51       		.byte	0x51
 14120 223a 05       		.uleb128 0x5
 14121 223b 03       		.byte	0x3
 14122 223c 00000000 		.4byte	resultado
 14123 2240 0E       		.uleb128 0xe
 14124 2241 01       		.uleb128 0x1
 14125 2242 50       		.byte	0x50
 14126 2243 03       		.uleb128 0x3
 14127 2244 0A       		.byte	0xa
 14128 2245 0E04     		.2byte	0x40e
 14129 2247 00       		.byte	0
 14130 2248 0D       		.uleb128 0xd
 14131 2249 661D0000 		.4byte	.LVL397
 14132 224d F5360000 		.4byte	0x36f5
 14133 2251 63220000 		.4byte	0x2263
 14134 2255 0E       		.uleb128 0xe
 14135 2256 01       		.uleb128 0x1
 14136 2257 51       		.byte	0x51
 14137 2258 02       		.uleb128 0x2
 14138 2259 91       		.byte	0x91
 14139 225a 4C       		.sleb128 -52
 14140 225b 0E       		.uleb128 0xe
 14141 225c 01       		.uleb128 0x1
 14142 225d 50       		.byte	0x50
 14143 225e 03       		.uleb128 0x3
 14144 225f 0A       		.byte	0xa
 14145 2260 1E04     		.2byte	0x41e
 14146 2262 00       		.byte	0
 14147 2263 0D       		.uleb128 0xd
 14148 2264 701D0000 		.4byte	.LVL398
 14149 2268 F5360000 		.4byte	0x36f5
 14150 226c 81220000 		.4byte	0x2281
 14151 2270 0E       		.uleb128 0xe
 14152 2271 01       		.uleb128 0x1
 14153 2272 51       		.byte	0x51
 14154 2273 05       		.uleb128 0x5
ARM GAS  C:\Users\RECEPC~1\AppData\Local\Temp\ccNG63cQ.s 			page 292


 14155 2274 03       		.byte	0x3
 14156 2275 00000000 		.4byte	resultado
 14157 2279 0E       		.uleb128 0xe
 14158 227a 01       		.uleb128 0x1
 14159 227b 50       		.byte	0x50
 14160 227c 03       		.uleb128 0x3
 14161 227d 0A       		.byte	0xa
 14162 227e 3904     		.2byte	0x439
 14163 2280 00       		.byte	0
 14164 2281 0F       		.uleb128 0xf
 14165 2282 741D0000 		.4byte	.LVL399
 14166 2286 E3360000 		.4byte	0x36e3
 14167 228a 0D       		.uleb128 0xd
 14168 228b E01E0000 		.4byte	.LVL400
 14169 228f 0F370000 		.4byte	0x370f
 14170 2293 9E220000 		.4byte	0x229e
 14171 2297 0E       		.uleb128 0xe
 14172 2298 01       		.uleb128 0x1
 14173 2299 50       		.byte	0x50
 14174 229a 02       		.uleb128 0x2
 14175 229b 74       		.byte	0x74
 14176 229c 00       		.sleb128 0
 14177 229d 00       		.byte	0
 14178 229e 0D       		.uleb128 0xd
 14179 229f F41E0000 		.4byte	.LVL401
 14180 22a3 0F370000 		.4byte	0x370f
 14181 22a7 B7220000 		.4byte	0x22b7
 14182 22ab 0E       		.uleb128 0xe
 14183 22ac 01       		.uleb128 0x1
 14184 22ad 51       		.byte	0x51
 14185 22ae 01       		.uleb128 0x1
 14186 22af 3A       		.byte	0x3a
 14187 22b0 0E       		.uleb128 0xe
 14188 22b1 01       		.uleb128 0x1
 14189 22b2 50       		.byte	0x50
 14190 22b3 02       		.uleb128 0x2
 14191 22b4 74       		.byte	0x74
 14192 22b5 00       		.sleb128 0
 14193 22b6 00       		.byte	0
 14194 22b7 0D       		.uleb128 0xd
 14195 22b8 081F0000 		.4byte	.LVL402
 14196 22bc 0F370000 		.4byte	0x370f
 14197 22c0 CB220000 		.4byte	0x22cb
 14198 22c4 0E       		.uleb128 0xe
 14199 22c5 01       		.uleb128 0x1
 14200 22c6 50       		.byte	0x50
 14201 22c7 02       		.uleb128 0x2
 14202 22c8 74       		.byte	0x74
 14203 22c9 00       		.sleb128 0
 14204 22ca 00       		.byte	0
 14205 22cb 0D       		.uleb128 0xd
 14206 22cc 1C1F0000 		.4byte	.LVL403
 14207 22d0 0F370000 		.4byte	0x370f
 14208 22d4 E4220000 		.4byte	0x22e4
 14209 22d8 0E       		.uleb128 0xe
 14210 22d9 01       		.uleb128 0x1
 14211 22da 51       		.byte	0x51
ARM GAS  C:\Users\RECEPC~1\AppData\Local\Temp\ccNG63cQ.s 			page 293


 14212 22db 01       		.uleb128 0x1
 14213 22dc 3A       		.byte	0x3a
 14214 22dd 0E       		.uleb128 0xe
 14215 22de 01       		.uleb128 0x1
 14216 22df 50       		.byte	0x50
 14217 22e0 02       		.uleb128 0x2
 14218 22e1 74       		.byte	0x74
 14219 22e2 00       		.sleb128 0
 14220 22e3 00       		.byte	0
 14221 22e4 0D       		.uleb128 0xd
 14222 22e5 241F0000 		.4byte	.LVL404
 14223 22e9 29370000 		.4byte	0x3729
 14224 22ed FD220000 		.4byte	0x22fd
 14225 22f1 0E       		.uleb128 0xe
 14226 22f2 01       		.uleb128 0x1
 14227 22f3 51       		.byte	0x51
 14228 22f4 02       		.uleb128 0x2
 14229 22f5 74       		.byte	0x74
 14230 22f6 00       		.sleb128 0
 14231 22f7 0E       		.uleb128 0xe
 14232 22f8 01       		.uleb128 0x1
 14233 22f9 50       		.byte	0x50
 14234 22fa 01       		.uleb128 0x1
 14235 22fb 3C       		.byte	0x3c
 14236 22fc 00       		.byte	0
 14237 22fd 0D       		.uleb128 0xd
 14238 22fe 3A1F0000 		.4byte	.LVL405
 14239 2302 0F370000 		.4byte	0x370f
 14240 2306 11230000 		.4byte	0x2311
 14241 230a 0E       		.uleb128 0xe
 14242 230b 01       		.uleb128 0x1
 14243 230c 50       		.byte	0x50
 14244 230d 02       		.uleb128 0x2
 14245 230e 74       		.byte	0x74
 14246 230f 00       		.sleb128 0
 14247 2310 00       		.byte	0
 14248 2311 0D       		.uleb128 0xd
 14249 2312 4E1F0000 		.4byte	.LVL406
 14250 2316 0F370000 		.4byte	0x370f
 14251 231a 2A230000 		.4byte	0x232a
 14252 231e 0E       		.uleb128 0xe
 14253 231f 01       		.uleb128 0x1
 14254 2320 51       		.byte	0x51
 14255 2321 01       		.uleb128 0x1
 14256 2322 3A       		.byte	0x3a
 14257 2323 0E       		.uleb128 0xe
 14258 2324 01       		.uleb128 0x1
 14259 2325 50       		.byte	0x50
 14260 2326 02       		.uleb128 0x2
 14261 2327 74       		.byte	0x74
 14262 2328 00       		.sleb128 0
 14263 2329 00       		.byte	0
 14264 232a 0D       		.uleb128 0xd
 14265 232b 5E1F0000 		.4byte	.LVL407
 14266 232f 3F370000 		.4byte	0x373f
 14267 2333 43230000 		.4byte	0x2343
 14268 2337 0E       		.uleb128 0xe
ARM GAS  C:\Users\RECEPC~1\AppData\Local\Temp\ccNG63cQ.s 			page 294


 14269 2338 01       		.uleb128 0x1
 14270 2339 51       		.byte	0x51
 14271 233a 01       		.uleb128 0x1
 14272 233b 49       		.byte	0x49
 14273 233c 0E       		.uleb128 0xe
 14274 233d 01       		.uleb128 0x1
 14275 233e 50       		.byte	0x50
 14276 233f 02       		.uleb128 0x2
 14277 2340 08       		.byte	0x8
 14278 2341 C0       		.byte	0xc0
 14279 2342 00       		.byte	0
 14280 2343 0D       		.uleb128 0xd
 14281 2344 6A1F0000 		.4byte	.LVL408
 14282 2348 3F370000 		.4byte	0x373f
 14283 234c 5D230000 		.4byte	0x235d
 14284 2350 0E       		.uleb128 0xe
 14285 2351 01       		.uleb128 0x1
 14286 2352 51       		.byte	0x51
 14287 2353 01       		.uleb128 0x1
 14288 2354 49       		.byte	0x49
 14289 2355 0E       		.uleb128 0xe
 14290 2356 01       		.uleb128 0x1
 14291 2357 50       		.byte	0x50
 14292 2358 03       		.uleb128 0x3
 14293 2359 0A       		.byte	0xa
 14294 235a 1901     		.2byte	0x119
 14295 235c 00       		.byte	0
 14296 235d 0D       		.uleb128 0xd
 14297 235e 701F0000 		.4byte	.LVL409
 14298 2362 59370000 		.4byte	0x3759
 14299 2366 71230000 		.4byte	0x2371
 14300 236a 0E       		.uleb128 0xe
 14301 236b 01       		.uleb128 0x1
 14302 236c 50       		.byte	0x50
 14303 236d 02       		.uleb128 0x2
 14304 236e 74       		.byte	0x74
 14305 236f 00       		.sleb128 0
 14306 2370 00       		.byte	0
 14307 2371 0D       		.uleb128 0xd
 14308 2372 B81F0000 		.4byte	.LVL410
 14309 2376 6A370000 		.4byte	0x376a
 14310 237a 92230000 		.4byte	0x2392
 14311 237e 0E       		.uleb128 0xe
 14312 237f 01       		.uleb128 0x1
 14313 2380 52       		.byte	0x52
 14314 2381 03       		.uleb128 0x3
 14315 2382 91       		.byte	0x91
 14316 2383 AC7F     		.sleb128 -84
 14317 2385 0E       		.uleb128 0xe
 14318 2386 01       		.uleb128 0x1
 14319 2387 51       		.byte	0x51
 14320 2388 03       		.uleb128 0x3
 14321 2389 91       		.byte	0x91
 14322 238a BC7F     		.sleb128 -68
 14323 238c 0E       		.uleb128 0xe
 14324 238d 01       		.uleb128 0x1
 14325 238e 50       		.byte	0x50
ARM GAS  C:\Users\RECEPC~1\AppData\Local\Temp\ccNG63cQ.s 			page 295


 14326 238f 01       		.uleb128 0x1
 14327 2390 32       		.byte	0x32
 14328 2391 00       		.byte	0
 14329 2392 0D       		.uleb128 0xd
 14330 2393 CE1F0000 		.4byte	.LVL411
 14331 2397 0F370000 		.4byte	0x370f
 14332 239b A6230000 		.4byte	0x23a6
 14333 239f 0E       		.uleb128 0xe
 14334 23a0 01       		.uleb128 0x1
 14335 23a1 50       		.byte	0x50
 14336 23a2 02       		.uleb128 0x2
 14337 23a3 74       		.byte	0x74
 14338 23a4 00       		.sleb128 0
 14339 23a5 00       		.byte	0
 14340 23a6 0D       		.uleb128 0xd
 14341 23a7 E21F0000 		.4byte	.LVL412
 14342 23ab 85370000 		.4byte	0x3785
 14343 23af C3230000 		.4byte	0x23c3
 14344 23b3 0E       		.uleb128 0xe
 14345 23b4 01       		.uleb128 0x1
 14346 23b5 51       		.byte	0x51
 14347 23b6 02       		.uleb128 0x2
 14348 23b7 74       		.byte	0x74
 14349 23b8 00       		.sleb128 0
 14350 23b9 0E       		.uleb128 0xe
 14351 23ba 01       		.uleb128 0x1
 14352 23bb 50       		.byte	0x50
 14353 23bc 05       		.uleb128 0x5
 14354 23bd 03       		.byte	0x3
 14355 23be 00000000 		.4byte	resultado
 14356 23c2 00       		.byte	0
 14357 23c3 0D       		.uleb128 0xd
 14358 23c4 F21F0000 		.4byte	.LVL413
 14359 23c8 F5360000 		.4byte	0x36f5
 14360 23cc DD230000 		.4byte	0x23dd
 14361 23d0 0E       		.uleb128 0xe
 14362 23d1 01       		.uleb128 0x1
 14363 23d2 51       		.byte	0x51
 14364 23d3 02       		.uleb128 0x2
 14365 23d4 91       		.byte	0x91
 14366 23d5 4C       		.sleb128 -52
 14367 23d6 0E       		.uleb128 0xe
 14368 23d7 01       		.uleb128 0x1
 14369 23d8 50       		.byte	0x50
 14370 23d9 02       		.uleb128 0x2
 14371 23da 08       		.byte	0x8
 14372 23db C0       		.byte	0xc0
 14373 23dc 00       		.byte	0
 14374 23dd 0D       		.uleb128 0xd
 14375 23de FC1F0000 		.4byte	.LVL414
 14376 23e2 F5360000 		.4byte	0x36f5
 14377 23e6 FB230000 		.4byte	0x23fb
 14378 23ea 0E       		.uleb128 0xe
 14379 23eb 01       		.uleb128 0x1
 14380 23ec 51       		.byte	0x51
 14381 23ed 05       		.uleb128 0x5
 14382 23ee 03       		.byte	0x3
ARM GAS  C:\Users\RECEPC~1\AppData\Local\Temp\ccNG63cQ.s 			page 296


 14383 23ef 00000000 		.4byte	resultado
 14384 23f3 0E       		.uleb128 0xe
 14385 23f4 01       		.uleb128 0x1
 14386 23f5 50       		.byte	0x50
 14387 23f6 03       		.uleb128 0x3
 14388 23f7 0A       		.byte	0xa
 14389 23f8 0002     		.2byte	0x200
 14390 23fa 00       		.byte	0
 14391 23fb 0D       		.uleb128 0xd
 14392 23fc 08200000 		.4byte	.LVL415
 14393 2400 F5360000 		.4byte	0x36f5
 14394 2404 16240000 		.4byte	0x2416
 14395 2408 0E       		.uleb128 0xe
 14396 2409 01       		.uleb128 0x1
 14397 240a 51       		.byte	0x51
 14398 240b 02       		.uleb128 0x2
 14399 240c 91       		.byte	0x91
 14400 240d 4C       		.sleb128 -52
 14401 240e 0E       		.uleb128 0xe
 14402 240f 01       		.uleb128 0x1
 14403 2410 50       		.byte	0x50
 14404 2411 03       		.uleb128 0x3
 14405 2412 0A       		.byte	0xa
 14406 2413 1901     		.2byte	0x119
 14407 2415 00       		.byte	0
 14408 2416 0D       		.uleb128 0xd
 14409 2417 12200000 		.4byte	.LVL416
 14410 241b F5360000 		.4byte	0x36f5
 14411 241f 34240000 		.4byte	0x2434
 14412 2423 0E       		.uleb128 0xe
 14413 2424 01       		.uleb128 0x1
 14414 2425 51       		.byte	0x51
 14415 2426 05       		.uleb128 0x5
 14416 2427 03       		.byte	0x3
 14417 2428 00000000 		.4byte	resultado
 14418 242c 0E       		.uleb128 0xe
 14419 242d 01       		.uleb128 0x1
 14420 242e 50       		.byte	0x50
 14421 242f 03       		.uleb128 0x3
 14422 2430 0A       		.byte	0xa
 14423 2431 2702     		.2byte	0x227
 14424 2433 00       		.byte	0
 14425 2434 0D       		.uleb128 0xd
 14426 2435 5A200000 		.4byte	.LVL417
 14427 2439 0F370000 		.4byte	0x370f
 14428 243d 48240000 		.4byte	0x2448
 14429 2441 0E       		.uleb128 0xe
 14430 2442 01       		.uleb128 0x1
 14431 2443 50       		.byte	0x50
 14432 2444 02       		.uleb128 0x2
 14433 2445 74       		.byte	0x74
 14434 2446 00       		.sleb128 0
 14435 2447 00       		.byte	0
 14436 2448 0D       		.uleb128 0xd
 14437 2449 6E200000 		.4byte	.LVL418
 14438 244d 0F370000 		.4byte	0x370f
 14439 2451 61240000 		.4byte	0x2461
ARM GAS  C:\Users\RECEPC~1\AppData\Local\Temp\ccNG63cQ.s 			page 297


 14440 2455 0E       		.uleb128 0xe
 14441 2456 01       		.uleb128 0x1
 14442 2457 51       		.byte	0x51
 14443 2458 01       		.uleb128 0x1
 14444 2459 3A       		.byte	0x3a
 14445 245a 0E       		.uleb128 0xe
 14446 245b 01       		.uleb128 0x1
 14447 245c 50       		.byte	0x50
 14448 245d 02       		.uleb128 0x2
 14449 245e 74       		.byte	0x74
 14450 245f 00       		.sleb128 0
 14451 2460 00       		.byte	0
 14452 2461 0D       		.uleb128 0xd
 14453 2462 82200000 		.4byte	.LVL419
 14454 2466 0F370000 		.4byte	0x370f
 14455 246a 75240000 		.4byte	0x2475
 14456 246e 0E       		.uleb128 0xe
 14457 246f 01       		.uleb128 0x1
 14458 2470 50       		.byte	0x50
 14459 2471 02       		.uleb128 0x2
 14460 2472 74       		.byte	0x74
 14461 2473 00       		.sleb128 0
 14462 2474 00       		.byte	0
 14463 2475 0D       		.uleb128 0xd
 14464 2476 96200000 		.4byte	.LVL420
 14465 247a 0F370000 		.4byte	0x370f
 14466 247e 8E240000 		.4byte	0x248e
 14467 2482 0E       		.uleb128 0xe
 14468 2483 01       		.uleb128 0x1
 14469 2484 51       		.byte	0x51
 14470 2485 01       		.uleb128 0x1
 14471 2486 3A       		.byte	0x3a
 14472 2487 0E       		.uleb128 0xe
 14473 2488 01       		.uleb128 0x1
 14474 2489 50       		.byte	0x50
 14475 248a 02       		.uleb128 0x2
 14476 248b 74       		.byte	0x74
 14477 248c 00       		.sleb128 0
 14478 248d 00       		.byte	0
 14479 248e 0D       		.uleb128 0xd
 14480 248f 9E200000 		.4byte	.LVL421
 14481 2493 29370000 		.4byte	0x3729
 14482 2497 A7240000 		.4byte	0x24a7
 14483 249b 0E       		.uleb128 0xe
 14484 249c 01       		.uleb128 0x1
 14485 249d 51       		.byte	0x51
 14486 249e 02       		.uleb128 0x2
 14487 249f 74       		.byte	0x74
 14488 24a0 00       		.sleb128 0
 14489 24a1 0E       		.uleb128 0xe
 14490 24a2 01       		.uleb128 0x1
 14491 24a3 50       		.byte	0x50
 14492 24a4 01       		.uleb128 0x1
 14493 24a5 3C       		.byte	0x3c
 14494 24a6 00       		.byte	0
 14495 24a7 0D       		.uleb128 0xd
 14496 24a8 B4200000 		.4byte	.LVL422
ARM GAS  C:\Users\RECEPC~1\AppData\Local\Temp\ccNG63cQ.s 			page 298


 14497 24ac 0F370000 		.4byte	0x370f
 14498 24b0 BB240000 		.4byte	0x24bb
 14499 24b4 0E       		.uleb128 0xe
 14500 24b5 01       		.uleb128 0x1
 14501 24b6 50       		.byte	0x50
 14502 24b7 02       		.uleb128 0x2
 14503 24b8 74       		.byte	0x74
 14504 24b9 00       		.sleb128 0
 14505 24ba 00       		.byte	0
 14506 24bb 0D       		.uleb128 0xd
 14507 24bc C8200000 		.4byte	.LVL423
 14508 24c0 0F370000 		.4byte	0x370f
 14509 24c4 D4240000 		.4byte	0x24d4
 14510 24c8 0E       		.uleb128 0xe
 14511 24c9 01       		.uleb128 0x1
 14512 24ca 51       		.byte	0x51
 14513 24cb 01       		.uleb128 0x1
 14514 24cc 3A       		.byte	0x3a
 14515 24cd 0E       		.uleb128 0xe
 14516 24ce 01       		.uleb128 0x1
 14517 24cf 50       		.byte	0x50
 14518 24d0 02       		.uleb128 0x2
 14519 24d1 74       		.byte	0x74
 14520 24d2 00       		.sleb128 0
 14521 24d3 00       		.byte	0
 14522 24d4 0D       		.uleb128 0xd
 14523 24d5 D8200000 		.4byte	.LVL424
 14524 24d9 3F370000 		.4byte	0x373f
 14525 24dd ED240000 		.4byte	0x24ed
 14526 24e1 0E       		.uleb128 0xe
 14527 24e2 01       		.uleb128 0x1
 14528 24e3 51       		.byte	0x51
 14529 24e4 01       		.uleb128 0x1
 14530 24e5 49       		.byte	0x49
 14531 24e6 0E       		.uleb128 0xe
 14532 24e7 01       		.uleb128 0x1
 14533 24e8 50       		.byte	0x50
 14534 24e9 02       		.uleb128 0x2
 14535 24ea 08       		.byte	0x8
 14536 24eb D9       		.byte	0xd9
 14537 24ec 00       		.byte	0
 14538 24ed 0D       		.uleb128 0xd
 14539 24ee E4200000 		.4byte	.LVL425
 14540 24f2 3F370000 		.4byte	0x373f
 14541 24f6 07250000 		.4byte	0x2507
 14542 24fa 0E       		.uleb128 0xe
 14543 24fb 01       		.uleb128 0x1
 14544 24fc 51       		.byte	0x51
 14545 24fd 01       		.uleb128 0x1
 14546 24fe 49       		.byte	0x49
 14547 24ff 0E       		.uleb128 0xe
 14548 2500 01       		.uleb128 0x1
 14549 2501 50       		.byte	0x50
 14550 2502 03       		.uleb128 0x3
 14551 2503 0A       		.byte	0xa
 14552 2504 4001     		.2byte	0x140
 14553 2506 00       		.byte	0
ARM GAS  C:\Users\RECEPC~1\AppData\Local\Temp\ccNG63cQ.s 			page 299


 14554 2507 0D       		.uleb128 0xd
 14555 2508 EA200000 		.4byte	.LVL426
 14556 250c 59370000 		.4byte	0x3759
 14557 2510 1B250000 		.4byte	0x251b
 14558 2514 0E       		.uleb128 0xe
 14559 2515 01       		.uleb128 0x1
 14560 2516 50       		.byte	0x50
 14561 2517 02       		.uleb128 0x2
 14562 2518 74       		.byte	0x74
 14563 2519 00       		.sleb128 0
 14564 251a 00       		.byte	0
 14565 251b 0D       		.uleb128 0xd
 14566 251c 32210000 		.4byte	.LVL427
 14567 2520 6A370000 		.4byte	0x376a
 14568 2524 3C250000 		.4byte	0x253c
 14569 2528 0E       		.uleb128 0xe
 14570 2529 01       		.uleb128 0x1
 14571 252a 52       		.byte	0x52
 14572 252b 03       		.uleb128 0x3
 14573 252c 91       		.byte	0x91
 14574 252d AC7F     		.sleb128 -84
 14575 252f 0E       		.uleb128 0xe
 14576 2530 01       		.uleb128 0x1
 14577 2531 51       		.byte	0x51
 14578 2532 03       		.uleb128 0x3
 14579 2533 91       		.byte	0x91
 14580 2534 BC7F     		.sleb128 -68
 14581 2536 0E       		.uleb128 0xe
 14582 2537 01       		.uleb128 0x1
 14583 2538 50       		.byte	0x50
 14584 2539 01       		.uleb128 0x1
 14585 253a 32       		.byte	0x32
 14586 253b 00       		.byte	0
 14587 253c 0D       		.uleb128 0xd
 14588 253d 48210000 		.4byte	.LVL428
 14589 2541 0F370000 		.4byte	0x370f
 14590 2545 50250000 		.4byte	0x2550
 14591 2549 0E       		.uleb128 0xe
 14592 254a 01       		.uleb128 0x1
 14593 254b 50       		.byte	0x50
 14594 254c 02       		.uleb128 0x2
 14595 254d 74       		.byte	0x74
 14596 254e 00       		.sleb128 0
 14597 254f 00       		.byte	0
 14598 2550 0D       		.uleb128 0xd
 14599 2551 5C210000 		.4byte	.LVL429
 14600 2555 85370000 		.4byte	0x3785
 14601 2559 6D250000 		.4byte	0x256d
 14602 255d 0E       		.uleb128 0xe
 14603 255e 01       		.uleb128 0x1
 14604 255f 51       		.byte	0x51
 14605 2560 02       		.uleb128 0x2
 14606 2561 74       		.byte	0x74
 14607 2562 00       		.sleb128 0
 14608 2563 0E       		.uleb128 0xe
 14609 2564 01       		.uleb128 0x1
 14610 2565 50       		.byte	0x50
ARM GAS  C:\Users\RECEPC~1\AppData\Local\Temp\ccNG63cQ.s 			page 300


 14611 2566 05       		.uleb128 0x5
 14612 2567 03       		.byte	0x3
 14613 2568 00000000 		.4byte	resultado
 14614 256c 00       		.byte	0
 14615 256d 0D       		.uleb128 0xd
 14616 256e 6C210000 		.4byte	.LVL430
 14617 2572 F5360000 		.4byte	0x36f5
 14618 2576 87250000 		.4byte	0x2587
 14619 257a 0E       		.uleb128 0xe
 14620 257b 01       		.uleb128 0x1
 14621 257c 51       		.byte	0x51
 14622 257d 02       		.uleb128 0x2
 14623 257e 91       		.byte	0x91
 14624 257f 4C       		.sleb128 -52
 14625 2580 0E       		.uleb128 0xe
 14626 2581 01       		.uleb128 0x1
 14627 2582 50       		.byte	0x50
 14628 2583 02       		.uleb128 0x2
 14629 2584 08       		.byte	0x8
 14630 2585 D9       		.byte	0xd9
 14631 2586 00       		.byte	0
 14632 2587 0D       		.uleb128 0xd
 14633 2588 76210000 		.4byte	.LVL431
 14634 258c F5360000 		.4byte	0x36f5
 14635 2590 A5250000 		.4byte	0x25a5
 14636 2594 0E       		.uleb128 0xe
 14637 2595 01       		.uleb128 0x1
 14638 2596 51       		.byte	0x51
 14639 2597 05       		.uleb128 0x5
 14640 2598 03       		.byte	0x3
 14641 2599 00000000 		.4byte	resultado
 14642 259d 0E       		.uleb128 0xe
 14643 259e 01       		.uleb128 0x1
 14644 259f 50       		.byte	0x50
 14645 25a0 03       		.uleb128 0x3
 14646 25a1 0A       		.byte	0xa
 14647 25a2 1A02     		.2byte	0x21a
 14648 25a4 00       		.byte	0
 14649 25a5 0D       		.uleb128 0xd
 14650 25a6 AA210000 		.4byte	.LVL432
 14651 25aa F5360000 		.4byte	0x36f5
 14652 25ae C0250000 		.4byte	0x25c0
 14653 25b2 0E       		.uleb128 0xe
 14654 25b3 01       		.uleb128 0x1
 14655 25b4 51       		.byte	0x51
 14656 25b5 02       		.uleb128 0x2
 14657 25b6 91       		.byte	0x91
 14658 25b7 4C       		.sleb128 -52
 14659 25b8 0E       		.uleb128 0xe
 14660 25b9 01       		.uleb128 0x1
 14661 25ba 50       		.byte	0x50
 14662 25bb 03       		.uleb128 0x3
 14663 25bc 0A       		.byte	0xa
 14664 25bd 4001     		.2byte	0x140
 14665 25bf 00       		.byte	0
 14666 25c0 0D       		.uleb128 0xd
 14667 25c1 B4210000 		.4byte	.LVL433
ARM GAS  C:\Users\RECEPC~1\AppData\Local\Temp\ccNG63cQ.s 			page 301


 14668 25c5 F5360000 		.4byte	0x36f5
 14669 25c9 DE250000 		.4byte	0x25de
 14670 25cd 0E       		.uleb128 0xe
 14671 25ce 01       		.uleb128 0x1
 14672 25cf 51       		.byte	0x51
 14673 25d0 05       		.uleb128 0x5
 14674 25d1 03       		.byte	0x3
 14675 25d2 00000000 		.4byte	resultado
 14676 25d6 0E       		.uleb128 0xe
 14677 25d7 01       		.uleb128 0x1
 14678 25d8 50       		.byte	0x50
 14679 25d9 03       		.uleb128 0x3
 14680 25da 0A       		.byte	0xa
 14681 25db 4002     		.2byte	0x240
 14682 25dd 00       		.byte	0
 14683 25de 0D       		.uleb128 0xd
 14684 25df FC210000 		.4byte	.LVL434
 14685 25e3 0F370000 		.4byte	0x370f
 14686 25e7 F2250000 		.4byte	0x25f2
 14687 25eb 0E       		.uleb128 0xe
 14688 25ec 01       		.uleb128 0x1
 14689 25ed 50       		.byte	0x50
 14690 25ee 02       		.uleb128 0x2
 14691 25ef 74       		.byte	0x74
 14692 25f0 00       		.sleb128 0
 14693 25f1 00       		.byte	0
 14694 25f2 0D       		.uleb128 0xd
 14695 25f3 10220000 		.4byte	.LVL435
 14696 25f7 0F370000 		.4byte	0x370f
 14697 25fb 0B260000 		.4byte	0x260b
 14698 25ff 0E       		.uleb128 0xe
 14699 2600 01       		.uleb128 0x1
 14700 2601 51       		.byte	0x51
 14701 2602 01       		.uleb128 0x1
 14702 2603 3A       		.byte	0x3a
 14703 2604 0E       		.uleb128 0xe
 14704 2605 01       		.uleb128 0x1
 14705 2606 50       		.byte	0x50
 14706 2607 02       		.uleb128 0x2
 14707 2608 74       		.byte	0x74
 14708 2609 00       		.sleb128 0
 14709 260a 00       		.byte	0
 14710 260b 0D       		.uleb128 0xd
 14711 260c 24220000 		.4byte	.LVL436
 14712 2610 0F370000 		.4byte	0x370f
 14713 2614 1F260000 		.4byte	0x261f
 14714 2618 0E       		.uleb128 0xe
 14715 2619 01       		.uleb128 0x1
 14716 261a 50       		.byte	0x50
 14717 261b 02       		.uleb128 0x2
 14718 261c 74       		.byte	0x74
 14719 261d 00       		.sleb128 0
 14720 261e 00       		.byte	0
 14721 261f 0D       		.uleb128 0xd
 14722 2620 38220000 		.4byte	.LVL437
 14723 2624 0F370000 		.4byte	0x370f
 14724 2628 38260000 		.4byte	0x2638
ARM GAS  C:\Users\RECEPC~1\AppData\Local\Temp\ccNG63cQ.s 			page 302


 14725 262c 0E       		.uleb128 0xe
 14726 262d 01       		.uleb128 0x1
 14727 262e 51       		.byte	0x51
 14728 262f 01       		.uleb128 0x1
 14729 2630 3A       		.byte	0x3a
 14730 2631 0E       		.uleb128 0xe
 14731 2632 01       		.uleb128 0x1
 14732 2633 50       		.byte	0x50
 14733 2634 02       		.uleb128 0x2
 14734 2635 74       		.byte	0x74
 14735 2636 00       		.sleb128 0
 14736 2637 00       		.byte	0
 14737 2638 0D       		.uleb128 0xd
 14738 2639 40220000 		.4byte	.LVL438
 14739 263d 29370000 		.4byte	0x3729
 14740 2641 51260000 		.4byte	0x2651
 14741 2645 0E       		.uleb128 0xe
 14742 2646 01       		.uleb128 0x1
 14743 2647 51       		.byte	0x51
 14744 2648 02       		.uleb128 0x2
 14745 2649 74       		.byte	0x74
 14746 264a 00       		.sleb128 0
 14747 264b 0E       		.uleb128 0xe
 14748 264c 01       		.uleb128 0x1
 14749 264d 50       		.byte	0x50
 14750 264e 01       		.uleb128 0x1
 14751 264f 3C       		.byte	0x3c
 14752 2650 00       		.byte	0
 14753 2651 0D       		.uleb128 0xd
 14754 2652 56220000 		.4byte	.LVL439
 14755 2656 0F370000 		.4byte	0x370f
 14756 265a 65260000 		.4byte	0x2665
 14757 265e 0E       		.uleb128 0xe
 14758 265f 01       		.uleb128 0x1
 14759 2660 50       		.byte	0x50
 14760 2661 02       		.uleb128 0x2
 14761 2662 74       		.byte	0x74
 14762 2663 00       		.sleb128 0
 14763 2664 00       		.byte	0
 14764 2665 0D       		.uleb128 0xd
 14765 2666 6A220000 		.4byte	.LVL440
 14766 266a 0F370000 		.4byte	0x370f
 14767 266e 7E260000 		.4byte	0x267e
 14768 2672 0E       		.uleb128 0xe
 14769 2673 01       		.uleb128 0x1
 14770 2674 51       		.byte	0x51
 14771 2675 01       		.uleb128 0x1
 14772 2676 3A       		.byte	0x3a
 14773 2677 0E       		.uleb128 0xe
 14774 2678 01       		.uleb128 0x1
 14775 2679 50       		.byte	0x50
 14776 267a 02       		.uleb128 0x2
 14777 267b 74       		.byte	0x74
 14778 267c 00       		.sleb128 0
 14779 267d 00       		.byte	0
 14780 267e 0D       		.uleb128 0xd
 14781 267f 7C220000 		.4byte	.LVL441
ARM GAS  C:\Users\RECEPC~1\AppData\Local\Temp\ccNG63cQ.s 			page 303


 14782 2683 3F370000 		.4byte	0x373f
 14783 2687 98260000 		.4byte	0x2698
 14784 268b 0E       		.uleb128 0xe
 14785 268c 01       		.uleb128 0x1
 14786 268d 51       		.byte	0x51
 14787 268e 01       		.uleb128 0x1
 14788 268f 49       		.byte	0x49
 14789 2690 0E       		.uleb128 0xe
 14790 2691 01       		.uleb128 0x1
 14791 2692 50       		.byte	0x50
 14792 2693 03       		.uleb128 0x3
 14793 2694 0A       		.byte	0xa
 14794 2695 0001     		.2byte	0x100
 14795 2697 00       		.byte	0
 14796 2698 0D       		.uleb128 0xd
 14797 2699 88220000 		.4byte	.LVL442
 14798 269d 3F370000 		.4byte	0x373f
 14799 26a1 B2260000 		.4byte	0x26b2
 14800 26a5 0E       		.uleb128 0xe
 14801 26a6 01       		.uleb128 0x1
 14802 26a7 51       		.byte	0x51
 14803 26a8 01       		.uleb128 0x1
 14804 26a9 49       		.byte	0x49
 14805 26aa 0E       		.uleb128 0xe
 14806 26ab 01       		.uleb128 0x1
 14807 26ac 50       		.byte	0x50
 14808 26ad 03       		.uleb128 0x3
 14809 26ae 0A       		.byte	0xa
 14810 26af 5901     		.2byte	0x159
 14811 26b1 00       		.byte	0
 14812 26b2 0D       		.uleb128 0xd
 14813 26b3 8E220000 		.4byte	.LVL443
 14814 26b7 59370000 		.4byte	0x3759
 14815 26bb C6260000 		.4byte	0x26c6
 14816 26bf 0E       		.uleb128 0xe
 14817 26c0 01       		.uleb128 0x1
 14818 26c1 50       		.byte	0x50
 14819 26c2 02       		.uleb128 0x2
 14820 26c3 74       		.byte	0x74
 14821 26c4 00       		.sleb128 0
 14822 26c5 00       		.byte	0
 14823 26c6 0D       		.uleb128 0xd
 14824 26c7 D6220000 		.4byte	.LVL444
 14825 26cb 6A370000 		.4byte	0x376a
 14826 26cf E7260000 		.4byte	0x26e7
 14827 26d3 0E       		.uleb128 0xe
 14828 26d4 01       		.uleb128 0x1
 14829 26d5 52       		.byte	0x52
 14830 26d6 03       		.uleb128 0x3
 14831 26d7 91       		.byte	0x91
 14832 26d8 AC7F     		.sleb128 -84
 14833 26da 0E       		.uleb128 0xe
 14834 26db 01       		.uleb128 0x1
 14835 26dc 51       		.byte	0x51
 14836 26dd 03       		.uleb128 0x3
 14837 26de 91       		.byte	0x91
 14838 26df BC7F     		.sleb128 -68
ARM GAS  C:\Users\RECEPC~1\AppData\Local\Temp\ccNG63cQ.s 			page 304


 14839 26e1 0E       		.uleb128 0xe
 14840 26e2 01       		.uleb128 0x1
 14841 26e3 50       		.byte	0x50
 14842 26e4 01       		.uleb128 0x1
 14843 26e5 32       		.byte	0x32
 14844 26e6 00       		.byte	0
 14845 26e7 0D       		.uleb128 0xd
 14846 26e8 EC220000 		.4byte	.LVL445
 14847 26ec 0F370000 		.4byte	0x370f
 14848 26f0 FB260000 		.4byte	0x26fb
 14849 26f4 0E       		.uleb128 0xe
 14850 26f5 01       		.uleb128 0x1
 14851 26f6 50       		.byte	0x50
 14852 26f7 02       		.uleb128 0x2
 14853 26f8 74       		.byte	0x74
 14854 26f9 00       		.sleb128 0
 14855 26fa 00       		.byte	0
 14856 26fb 0D       		.uleb128 0xd
 14857 26fc 00230000 		.4byte	.LVL446
 14858 2700 85370000 		.4byte	0x3785
 14859 2704 18270000 		.4byte	0x2718
 14860 2708 0E       		.uleb128 0xe
 14861 2709 01       		.uleb128 0x1
 14862 270a 51       		.byte	0x51
 14863 270b 02       		.uleb128 0x2
 14864 270c 74       		.byte	0x74
 14865 270d 00       		.sleb128 0
 14866 270e 0E       		.uleb128 0xe
 14867 270f 01       		.uleb128 0x1
 14868 2710 50       		.byte	0x50
 14869 2711 05       		.uleb128 0x5
 14870 2712 03       		.byte	0x3
 14871 2713 00000000 		.4byte	resultado
 14872 2717 00       		.byte	0
 14873 2718 0D       		.uleb128 0xd
 14874 2719 12230000 		.4byte	.LVL447
 14875 271d F5360000 		.4byte	0x36f5
 14876 2721 33270000 		.4byte	0x2733
 14877 2725 0E       		.uleb128 0xe
 14878 2726 01       		.uleb128 0x1
 14879 2727 51       		.byte	0x51
 14880 2728 02       		.uleb128 0x2
 14881 2729 91       		.byte	0x91
 14882 272a 4C       		.sleb128 -52
 14883 272b 0E       		.uleb128 0xe
 14884 272c 01       		.uleb128 0x1
 14885 272d 50       		.byte	0x50
 14886 272e 03       		.uleb128 0x3
 14887 272f 0A       		.byte	0xa
 14888 2730 0001     		.2byte	0x100
 14889 2732 00       		.byte	0
 14890 2733 0D       		.uleb128 0xd
 14891 2734 1C230000 		.4byte	.LVL448
 14892 2738 F5360000 		.4byte	0x36f5
 14893 273c 51270000 		.4byte	0x2751
 14894 2740 0E       		.uleb128 0xe
 14895 2741 01       		.uleb128 0x1
ARM GAS  C:\Users\RECEPC~1\AppData\Local\Temp\ccNG63cQ.s 			page 305


 14896 2742 51       		.byte	0x51
 14897 2743 05       		.uleb128 0x5
 14898 2744 03       		.byte	0x3
 14899 2745 00000000 		.4byte	resultado
 14900 2749 0E       		.uleb128 0xe
 14901 274a 01       		.uleb128 0x1
 14902 274b 50       		.byte	0x50
 14903 274c 03       		.uleb128 0x3
 14904 274d 0A       		.byte	0xa
 14905 274e 0D02     		.2byte	0x20d
 14906 2750 00       		.byte	0
 14907 2751 0D       		.uleb128 0xd
 14908 2752 28230000 		.4byte	.LVL449
 14909 2756 F5360000 		.4byte	0x36f5
 14910 275a 6C270000 		.4byte	0x276c
 14911 275e 0E       		.uleb128 0xe
 14912 275f 01       		.uleb128 0x1
 14913 2760 51       		.byte	0x51
 14914 2761 02       		.uleb128 0x2
 14915 2762 91       		.byte	0x91
 14916 2763 4C       		.sleb128 -52
 14917 2764 0E       		.uleb128 0xe
 14918 2765 01       		.uleb128 0x1
 14919 2766 50       		.byte	0x50
 14920 2767 03       		.uleb128 0x3
 14921 2768 0A       		.byte	0xa
 14922 2769 5901     		.2byte	0x159
 14923 276b 00       		.byte	0
 14924 276c 0D       		.uleb128 0xd
 14925 276d 32230000 		.4byte	.LVL450
 14926 2771 F5360000 		.4byte	0x36f5
 14927 2775 8A270000 		.4byte	0x278a
 14928 2779 0E       		.uleb128 0xe
 14929 277a 01       		.uleb128 0x1
 14930 277b 51       		.byte	0x51
 14931 277c 05       		.uleb128 0x5
 14932 277d 03       		.byte	0x3
 14933 277e 00000000 		.4byte	resultado
 14934 2782 0E       		.uleb128 0xe
 14935 2783 01       		.uleb128 0x1
 14936 2784 50       		.byte	0x50
 14937 2785 03       		.uleb128 0x3
 14938 2786 0A       		.byte	0xa
 14939 2787 4D02     		.2byte	0x24d
 14940 2789 00       		.byte	0
 14941 278a 0D       		.uleb128 0xd
 14942 278b 7A230000 		.4byte	.LVL451
 14943 278f 0F370000 		.4byte	0x370f
 14944 2793 9E270000 		.4byte	0x279e
 14945 2797 0E       		.uleb128 0xe
 14946 2798 01       		.uleb128 0x1
 14947 2799 50       		.byte	0x50
 14948 279a 02       		.uleb128 0x2
 14949 279b 74       		.byte	0x74
 14950 279c 00       		.sleb128 0
 14951 279d 00       		.byte	0
 14952 279e 0D       		.uleb128 0xd
ARM GAS  C:\Users\RECEPC~1\AppData\Local\Temp\ccNG63cQ.s 			page 306


 14953 279f 8E230000 		.4byte	.LVL452
 14954 27a3 0F370000 		.4byte	0x370f
 14955 27a7 B7270000 		.4byte	0x27b7
 14956 27ab 0E       		.uleb128 0xe
 14957 27ac 01       		.uleb128 0x1
 14958 27ad 51       		.byte	0x51
 14959 27ae 01       		.uleb128 0x1
 14960 27af 3A       		.byte	0x3a
 14961 27b0 0E       		.uleb128 0xe
 14962 27b1 01       		.uleb128 0x1
 14963 27b2 50       		.byte	0x50
 14964 27b3 02       		.uleb128 0x2
 14965 27b4 74       		.byte	0x74
 14966 27b5 00       		.sleb128 0
 14967 27b6 00       		.byte	0
 14968 27b7 0D       		.uleb128 0xd
 14969 27b8 A2230000 		.4byte	.LVL453
 14970 27bc 0F370000 		.4byte	0x370f
 14971 27c0 CB270000 		.4byte	0x27cb
 14972 27c4 0E       		.uleb128 0xe
 14973 27c5 01       		.uleb128 0x1
 14974 27c6 50       		.byte	0x50
 14975 27c7 02       		.uleb128 0x2
 14976 27c8 74       		.byte	0x74
 14977 27c9 00       		.sleb128 0
 14978 27ca 00       		.byte	0
 14979 27cb 0D       		.uleb128 0xd
 14980 27cc B6230000 		.4byte	.LVL454
 14981 27d0 0F370000 		.4byte	0x370f
 14982 27d4 E4270000 		.4byte	0x27e4
 14983 27d8 0E       		.uleb128 0xe
 14984 27d9 01       		.uleb128 0x1
 14985 27da 51       		.byte	0x51
 14986 27db 01       		.uleb128 0x1
 14987 27dc 3A       		.byte	0x3a
 14988 27dd 0E       		.uleb128 0xe
 14989 27de 01       		.uleb128 0x1
 14990 27df 50       		.byte	0x50
 14991 27e0 02       		.uleb128 0x2
 14992 27e1 74       		.byte	0x74
 14993 27e2 00       		.sleb128 0
 14994 27e3 00       		.byte	0
 14995 27e4 0D       		.uleb128 0xd
 14996 27e5 BE230000 		.4byte	.LVL455
 14997 27e9 29370000 		.4byte	0x3729
 14998 27ed FD270000 		.4byte	0x27fd
 14999 27f1 0E       		.uleb128 0xe
 15000 27f2 01       		.uleb128 0x1
 15001 27f3 51       		.byte	0x51
 15002 27f4 02       		.uleb128 0x2
 15003 27f5 74       		.byte	0x74
 15004 27f6 00       		.sleb128 0
 15005 27f7 0E       		.uleb128 0xe
 15006 27f8 01       		.uleb128 0x1
 15007 27f9 50       		.byte	0x50
 15008 27fa 01       		.uleb128 0x1
 15009 27fb 3C       		.byte	0x3c
ARM GAS  C:\Users\RECEPC~1\AppData\Local\Temp\ccNG63cQ.s 			page 307


 15010 27fc 00       		.byte	0
 15011 27fd 0D       		.uleb128 0xd
 15012 27fe D4230000 		.4byte	.LVL456
 15013 2802 0F370000 		.4byte	0x370f
 15014 2806 11280000 		.4byte	0x2811
 15015 280a 0E       		.uleb128 0xe
 15016 280b 01       		.uleb128 0x1
 15017 280c 50       		.byte	0x50
 15018 280d 02       		.uleb128 0x2
 15019 280e 74       		.byte	0x74
 15020 280f 00       		.sleb128 0
 15021 2810 00       		.byte	0
 15022 2811 0D       		.uleb128 0xd
 15023 2812 E8230000 		.4byte	.LVL457
 15024 2816 0F370000 		.4byte	0x370f
 15025 281a 2A280000 		.4byte	0x282a
 15026 281e 0E       		.uleb128 0xe
 15027 281f 01       		.uleb128 0x1
 15028 2820 51       		.byte	0x51
 15029 2821 01       		.uleb128 0x1
 15030 2822 3A       		.byte	0x3a
 15031 2823 0E       		.uleb128 0xe
 15032 2824 01       		.uleb128 0x1
 15033 2825 50       		.byte	0x50
 15034 2826 02       		.uleb128 0x2
 15035 2827 74       		.byte	0x74
 15036 2828 00       		.sleb128 0
 15037 2829 00       		.byte	0
 15038 282a 0D       		.uleb128 0xd
 15039 282b FA230000 		.4byte	.LVL458
 15040 282f 3F370000 		.4byte	0x373f
 15041 2833 44280000 		.4byte	0x2844
 15042 2837 0E       		.uleb128 0xe
 15043 2838 01       		.uleb128 0x1
 15044 2839 51       		.byte	0x51
 15045 283a 01       		.uleb128 0x1
 15046 283b 49       		.byte	0x49
 15047 283c 0E       		.uleb128 0xe
 15048 283d 01       		.uleb128 0x1
 15049 283e 50       		.byte	0x50
 15050 283f 03       		.uleb128 0x3
 15051 2840 0A       		.byte	0xa
 15052 2841 4804     		.2byte	0x448
 15053 2843 00       		.byte	0
 15054 2844 0D       		.uleb128 0xd
 15055 2845 06240000 		.4byte	.LVL459
 15056 2849 3F370000 		.4byte	0x373f
 15057 284d 5E280000 		.4byte	0x285e
 15058 2851 0E       		.uleb128 0xe
 15059 2852 01       		.uleb128 0x1
 15060 2853 51       		.byte	0x51
 15061 2854 01       		.uleb128 0x1
 15062 2855 49       		.byte	0x49
 15063 2856 0E       		.uleb128 0xe
 15064 2857 01       		.uleb128 0x1
 15065 2858 50       		.byte	0x50
 15066 2859 03       		.uleb128 0x3
ARM GAS  C:\Users\RECEPC~1\AppData\Local\Temp\ccNG63cQ.s 			page 308


 15067 285a 0A       		.byte	0xa
 15068 285b 1E04     		.2byte	0x41e
 15069 285d 00       		.byte	0
 15070 285e 0D       		.uleb128 0xd
 15071 285f 0C240000 		.4byte	.LVL460
 15072 2863 59370000 		.4byte	0x3759
 15073 2867 72280000 		.4byte	0x2872
 15074 286b 0E       		.uleb128 0xe
 15075 286c 01       		.uleb128 0x1
 15076 286d 50       		.byte	0x50
 15077 286e 02       		.uleb128 0x2
 15078 286f 74       		.byte	0x74
 15079 2870 00       		.sleb128 0
 15080 2871 00       		.byte	0
 15081 2872 0D       		.uleb128 0xd
 15082 2873 54240000 		.4byte	.LVL461
 15083 2877 6A370000 		.4byte	0x376a
 15084 287b 93280000 		.4byte	0x2893
 15085 287f 0E       		.uleb128 0xe
 15086 2880 01       		.uleb128 0x1
 15087 2881 52       		.byte	0x52
 15088 2882 03       		.uleb128 0x3
 15089 2883 91       		.byte	0x91
 15090 2884 AC7F     		.sleb128 -84
 15091 2886 0E       		.uleb128 0xe
 15092 2887 01       		.uleb128 0x1
 15093 2888 51       		.byte	0x51
 15094 2889 03       		.uleb128 0x3
 15095 288a 91       		.byte	0x91
 15096 288b BC7F     		.sleb128 -68
 15097 288d 0E       		.uleb128 0xe
 15098 288e 01       		.uleb128 0x1
 15099 288f 50       		.byte	0x50
 15100 2890 01       		.uleb128 0x1
 15101 2891 32       		.byte	0x32
 15102 2892 00       		.byte	0
 15103 2893 0D       		.uleb128 0xd
 15104 2894 94240000 		.4byte	.LVL462
 15105 2898 0F370000 		.4byte	0x370f
 15106 289c A7280000 		.4byte	0x28a7
 15107 28a0 0E       		.uleb128 0xe
 15108 28a1 01       		.uleb128 0x1
 15109 28a2 50       		.byte	0x50
 15110 28a3 02       		.uleb128 0x2
 15111 28a4 74       		.byte	0x74
 15112 28a5 00       		.sleb128 0
 15113 28a6 00       		.byte	0
 15114 28a7 0D       		.uleb128 0xd
 15115 28a8 A8240000 		.4byte	.LVL463
 15116 28ac 85370000 		.4byte	0x3785
 15117 28b0 C4280000 		.4byte	0x28c4
 15118 28b4 0E       		.uleb128 0xe
 15119 28b5 01       		.uleb128 0x1
 15120 28b6 51       		.byte	0x51
 15121 28b7 02       		.uleb128 0x2
 15122 28b8 74       		.byte	0x74
 15123 28b9 00       		.sleb128 0
ARM GAS  C:\Users\RECEPC~1\AppData\Local\Temp\ccNG63cQ.s 			page 309


 15124 28ba 0E       		.uleb128 0xe
 15125 28bb 01       		.uleb128 0x1
 15126 28bc 50       		.byte	0x50
 15127 28bd 05       		.uleb128 0x5
 15128 28be 03       		.byte	0x3
 15129 28bf 00000000 		.4byte	resultado
 15130 28c3 00       		.byte	0
 15131 28c4 0D       		.uleb128 0xd
 15132 28c5 BA240000 		.4byte	.LVL464
 15133 28c9 F5360000 		.4byte	0x36f5
 15134 28cd DF280000 		.4byte	0x28df
 15135 28d1 0E       		.uleb128 0xe
 15136 28d2 01       		.uleb128 0x1
 15137 28d3 51       		.byte	0x51
 15138 28d4 02       		.uleb128 0x2
 15139 28d5 91       		.byte	0x91
 15140 28d6 4C       		.sleb128 -52
 15141 28d7 0E       		.uleb128 0xe
 15142 28d8 01       		.uleb128 0x1
 15143 28d9 50       		.byte	0x50
 15144 28da 03       		.uleb128 0x3
 15145 28db 0A       		.byte	0xa
 15146 28dc 4804     		.2byte	0x448
 15147 28de 00       		.byte	0
 15148 28df 0D       		.uleb128 0xd
 15149 28e0 C4240000 		.4byte	.LVL465
 15150 28e4 F5360000 		.4byte	0x36f5
 15151 28e8 FD280000 		.4byte	0x28fd
 15152 28ec 0E       		.uleb128 0xe
 15153 28ed 01       		.uleb128 0x1
 15154 28ee 51       		.byte	0x51
 15155 28ef 05       		.uleb128 0x5
 15156 28f0 03       		.byte	0x3
 15157 28f1 00000000 		.4byte	resultado
 15158 28f5 0E       		.uleb128 0xe
 15159 28f6 01       		.uleb128 0x1
 15160 28f7 50       		.byte	0x50
 15161 28f8 03       		.uleb128 0x3
 15162 28f9 0A       		.byte	0xa
 15163 28fa 0E04     		.2byte	0x40e
 15164 28fc 00       		.byte	0
 15165 28fd 0D       		.uleb128 0xd
 15166 28fe D0240000 		.4byte	.LVL466
 15167 2902 F5360000 		.4byte	0x36f5
 15168 2906 18290000 		.4byte	0x2918
 15169 290a 0E       		.uleb128 0xe
 15170 290b 01       		.uleb128 0x1
 15171 290c 51       		.byte	0x51
 15172 290d 02       		.uleb128 0x2
 15173 290e 91       		.byte	0x91
 15174 290f 4C       		.sleb128 -52
 15175 2910 0E       		.uleb128 0xe
 15176 2911 01       		.uleb128 0x1
 15177 2912 50       		.byte	0x50
 15178 2913 03       		.uleb128 0x3
 15179 2914 0A       		.byte	0xa
 15180 2915 1E04     		.2byte	0x41e
ARM GAS  C:\Users\RECEPC~1\AppData\Local\Temp\ccNG63cQ.s 			page 310


 15181 2917 00       		.byte	0
 15182 2918 0D       		.uleb128 0xd
 15183 2919 DA240000 		.4byte	.LVL467
 15184 291d F5360000 		.4byte	0x36f5
 15185 2921 36290000 		.4byte	0x2936
 15186 2925 0E       		.uleb128 0xe
 15187 2926 01       		.uleb128 0x1
 15188 2927 51       		.byte	0x51
 15189 2928 05       		.uleb128 0x5
 15190 2929 03       		.byte	0x3
 15191 292a 00000000 		.4byte	resultado
 15192 292e 0E       		.uleb128 0xe
 15193 292f 01       		.uleb128 0x1
 15194 2930 50       		.byte	0x50
 15195 2931 03       		.uleb128 0x3
 15196 2932 0A       		.byte	0xa
 15197 2933 3904     		.2byte	0x439
 15198 2935 00       		.byte	0
 15199 2936 0F       		.uleb128 0xf
 15200 2937 EC240000 		.4byte	.LVL468
 15201 293b E3360000 		.4byte	0x36e3
 15202 293f 0D       		.uleb128 0xd
 15203 2940 2A260000 		.4byte	.LVL469
 15204 2944 0F370000 		.4byte	0x370f
 15205 2948 53290000 		.4byte	0x2953
 15206 294c 0E       		.uleb128 0xe
 15207 294d 01       		.uleb128 0x1
 15208 294e 50       		.byte	0x50
 15209 294f 02       		.uleb128 0x2
 15210 2950 74       		.byte	0x74
 15211 2951 00       		.sleb128 0
 15212 2952 00       		.byte	0
 15213 2953 0D       		.uleb128 0xd
 15214 2954 3E260000 		.4byte	.LVL470
 15215 2958 0F370000 		.4byte	0x370f
 15216 295c 6C290000 		.4byte	0x296c
 15217 2960 0E       		.uleb128 0xe
 15218 2961 01       		.uleb128 0x1
 15219 2962 51       		.byte	0x51
 15220 2963 01       		.uleb128 0x1
 15221 2964 3A       		.byte	0x3a
 15222 2965 0E       		.uleb128 0xe
 15223 2966 01       		.uleb128 0x1
 15224 2967 50       		.byte	0x50
 15225 2968 02       		.uleb128 0x2
 15226 2969 74       		.byte	0x74
 15227 296a 00       		.sleb128 0
 15228 296b 00       		.byte	0
 15229 296c 0D       		.uleb128 0xd
 15230 296d 52260000 		.4byte	.LVL471
 15231 2971 0F370000 		.4byte	0x370f
 15232 2975 80290000 		.4byte	0x2980
 15233 2979 0E       		.uleb128 0xe
 15234 297a 01       		.uleb128 0x1
 15235 297b 50       		.byte	0x50
 15236 297c 02       		.uleb128 0x2
 15237 297d 74       		.byte	0x74
ARM GAS  C:\Users\RECEPC~1\AppData\Local\Temp\ccNG63cQ.s 			page 311


 15238 297e 00       		.sleb128 0
 15239 297f 00       		.byte	0
 15240 2980 0D       		.uleb128 0xd
 15241 2981 66260000 		.4byte	.LVL472
 15242 2985 0F370000 		.4byte	0x370f
 15243 2989 99290000 		.4byte	0x2999
 15244 298d 0E       		.uleb128 0xe
 15245 298e 01       		.uleb128 0x1
 15246 298f 51       		.byte	0x51
 15247 2990 01       		.uleb128 0x1
 15248 2991 3A       		.byte	0x3a
 15249 2992 0E       		.uleb128 0xe
 15250 2993 01       		.uleb128 0x1
 15251 2994 50       		.byte	0x50
 15252 2995 02       		.uleb128 0x2
 15253 2996 74       		.byte	0x74
 15254 2997 00       		.sleb128 0
 15255 2998 00       		.byte	0
 15256 2999 0D       		.uleb128 0xd
 15257 299a 6E260000 		.4byte	.LVL473
 15258 299e 29370000 		.4byte	0x3729
 15259 29a2 B2290000 		.4byte	0x29b2
 15260 29a6 0E       		.uleb128 0xe
 15261 29a7 01       		.uleb128 0x1
 15262 29a8 51       		.byte	0x51
 15263 29a9 02       		.uleb128 0x2
 15264 29aa 74       		.byte	0x74
 15265 29ab 00       		.sleb128 0
 15266 29ac 0E       		.uleb128 0xe
 15267 29ad 01       		.uleb128 0x1
 15268 29ae 50       		.byte	0x50
 15269 29af 01       		.uleb128 0x1
 15270 29b0 3C       		.byte	0x3c
 15271 29b1 00       		.byte	0
 15272 29b2 0D       		.uleb128 0xd
 15273 29b3 84260000 		.4byte	.LVL474
 15274 29b7 0F370000 		.4byte	0x370f
 15275 29bb C6290000 		.4byte	0x29c6
 15276 29bf 0E       		.uleb128 0xe
 15277 29c0 01       		.uleb128 0x1
 15278 29c1 50       		.byte	0x50
 15279 29c2 02       		.uleb128 0x2
 15280 29c3 74       		.byte	0x74
 15281 29c4 00       		.sleb128 0
 15282 29c5 00       		.byte	0
 15283 29c6 0D       		.uleb128 0xd
 15284 29c7 98260000 		.4byte	.LVL475
 15285 29cb 0F370000 		.4byte	0x370f
 15286 29cf DF290000 		.4byte	0x29df
 15287 29d3 0E       		.uleb128 0xe
 15288 29d4 01       		.uleb128 0x1
 15289 29d5 51       		.byte	0x51
 15290 29d6 01       		.uleb128 0x1
 15291 29d7 3A       		.byte	0x3a
 15292 29d8 0E       		.uleb128 0xe
 15293 29d9 01       		.uleb128 0x1
 15294 29da 50       		.byte	0x50
ARM GAS  C:\Users\RECEPC~1\AppData\Local\Temp\ccNG63cQ.s 			page 312


 15295 29db 02       		.uleb128 0x2
 15296 29dc 74       		.byte	0x74
 15297 29dd 00       		.sleb128 0
 15298 29de 00       		.byte	0
 15299 29df 0D       		.uleb128 0xd
 15300 29e0 A8260000 		.4byte	.LVL476
 15301 29e4 3F370000 		.4byte	0x373f
 15302 29e8 F8290000 		.4byte	0x29f8
 15303 29ec 0E       		.uleb128 0xe
 15304 29ed 01       		.uleb128 0x1
 15305 29ee 51       		.byte	0x51
 15306 29ef 01       		.uleb128 0x1
 15307 29f0 49       		.byte	0x49
 15308 29f1 0E       		.uleb128 0xe
 15309 29f2 01       		.uleb128 0x1
 15310 29f3 50       		.byte	0x50
 15311 29f4 02       		.uleb128 0x2
 15312 29f5 08       		.byte	0x8
 15313 29f6 C0       		.byte	0xc0
 15314 29f7 00       		.byte	0
 15315 29f8 0D       		.uleb128 0xd
 15316 29f9 B4260000 		.4byte	.LVL477
 15317 29fd 3F370000 		.4byte	0x373f
 15318 2a01 122A0000 		.4byte	0x2a12
 15319 2a05 0E       		.uleb128 0xe
 15320 2a06 01       		.uleb128 0x1
 15321 2a07 51       		.byte	0x51
 15322 2a08 01       		.uleb128 0x1
 15323 2a09 49       		.byte	0x49
 15324 2a0a 0E       		.uleb128 0xe
 15325 2a0b 01       		.uleb128 0x1
 15326 2a0c 50       		.byte	0x50
 15327 2a0d 03       		.uleb128 0x3
 15328 2a0e 0A       		.byte	0xa
 15329 2a0f 1901     		.2byte	0x119
 15330 2a11 00       		.byte	0
 15331 2a12 0D       		.uleb128 0xd
 15332 2a13 BA260000 		.4byte	.LVL478
 15333 2a17 59370000 		.4byte	0x3759
 15334 2a1b 262A0000 		.4byte	0x2a26
 15335 2a1f 0E       		.uleb128 0xe
 15336 2a20 01       		.uleb128 0x1
 15337 2a21 50       		.byte	0x50
 15338 2a22 02       		.uleb128 0x2
 15339 2a23 74       		.byte	0x74
 15340 2a24 00       		.sleb128 0
 15341 2a25 00       		.byte	0
 15342 2a26 0D       		.uleb128 0xd
 15343 2a27 02270000 		.4byte	.LVL479
 15344 2a2b 6A370000 		.4byte	0x376a
 15345 2a2f 472A0000 		.4byte	0x2a47
 15346 2a33 0E       		.uleb128 0xe
 15347 2a34 01       		.uleb128 0x1
 15348 2a35 52       		.byte	0x52
 15349 2a36 03       		.uleb128 0x3
 15350 2a37 91       		.byte	0x91
 15351 2a38 AC7F     		.sleb128 -84
ARM GAS  C:\Users\RECEPC~1\AppData\Local\Temp\ccNG63cQ.s 			page 313


 15352 2a3a 0E       		.uleb128 0xe
 15353 2a3b 01       		.uleb128 0x1
 15354 2a3c 51       		.byte	0x51
 15355 2a3d 03       		.uleb128 0x3
 15356 2a3e 91       		.byte	0x91
 15357 2a3f BC7F     		.sleb128 -68
 15358 2a41 0E       		.uleb128 0xe
 15359 2a42 01       		.uleb128 0x1
 15360 2a43 50       		.byte	0x50
 15361 2a44 01       		.uleb128 0x1
 15362 2a45 32       		.byte	0x32
 15363 2a46 00       		.byte	0
 15364 2a47 0D       		.uleb128 0xd
 15365 2a48 18270000 		.4byte	.LVL480
 15366 2a4c 0F370000 		.4byte	0x370f
 15367 2a50 5B2A0000 		.4byte	0x2a5b
 15368 2a54 0E       		.uleb128 0xe
 15369 2a55 01       		.uleb128 0x1
 15370 2a56 50       		.byte	0x50
 15371 2a57 02       		.uleb128 0x2
 15372 2a58 74       		.byte	0x74
 15373 2a59 00       		.sleb128 0
 15374 2a5a 00       		.byte	0
 15375 2a5b 0D       		.uleb128 0xd
 15376 2a5c 2C270000 		.4byte	.LVL481
 15377 2a60 85370000 		.4byte	0x3785
 15378 2a64 782A0000 		.4byte	0x2a78
 15379 2a68 0E       		.uleb128 0xe
 15380 2a69 01       		.uleb128 0x1
 15381 2a6a 51       		.byte	0x51
 15382 2a6b 02       		.uleb128 0x2
 15383 2a6c 74       		.byte	0x74
 15384 2a6d 00       		.sleb128 0
 15385 2a6e 0E       		.uleb128 0xe
 15386 2a6f 01       		.uleb128 0x1
 15387 2a70 50       		.byte	0x50
 15388 2a71 05       		.uleb128 0x5
 15389 2a72 03       		.byte	0x3
 15390 2a73 00000000 		.4byte	resultado
 15391 2a77 00       		.byte	0
 15392 2a78 0D       		.uleb128 0xd
 15393 2a79 3C270000 		.4byte	.LVL482
 15394 2a7d F5360000 		.4byte	0x36f5
 15395 2a81 922A0000 		.4byte	0x2a92
 15396 2a85 0E       		.uleb128 0xe
 15397 2a86 01       		.uleb128 0x1
 15398 2a87 51       		.byte	0x51
 15399 2a88 02       		.uleb128 0x2
 15400 2a89 91       		.byte	0x91
 15401 2a8a 4C       		.sleb128 -52
 15402 2a8b 0E       		.uleb128 0xe
 15403 2a8c 01       		.uleb128 0x1
 15404 2a8d 50       		.byte	0x50
 15405 2a8e 02       		.uleb128 0x2
 15406 2a8f 08       		.byte	0x8
 15407 2a90 C0       		.byte	0xc0
 15408 2a91 00       		.byte	0
ARM GAS  C:\Users\RECEPC~1\AppData\Local\Temp\ccNG63cQ.s 			page 314


 15409 2a92 0D       		.uleb128 0xd
 15410 2a93 46270000 		.4byte	.LVL483
 15411 2a97 F5360000 		.4byte	0x36f5
 15412 2a9b B02A0000 		.4byte	0x2ab0
 15413 2a9f 0E       		.uleb128 0xe
 15414 2aa0 01       		.uleb128 0x1
 15415 2aa1 51       		.byte	0x51
 15416 2aa2 05       		.uleb128 0x5
 15417 2aa3 03       		.byte	0x3
 15418 2aa4 00000000 		.4byte	resultado
 15419 2aa8 0E       		.uleb128 0xe
 15420 2aa9 01       		.uleb128 0x1
 15421 2aaa 50       		.byte	0x50
 15422 2aab 03       		.uleb128 0x3
 15423 2aac 0A       		.byte	0xa
 15424 2aad 0002     		.2byte	0x200
 15425 2aaf 00       		.byte	0
 15426 2ab0 0D       		.uleb128 0xd
 15427 2ab1 7E270000 		.4byte	.LVL484
 15428 2ab5 F5360000 		.4byte	0x36f5
 15429 2ab9 CB2A0000 		.4byte	0x2acb
 15430 2abd 0E       		.uleb128 0xe
 15431 2abe 01       		.uleb128 0x1
 15432 2abf 51       		.byte	0x51
 15433 2ac0 02       		.uleb128 0x2
 15434 2ac1 91       		.byte	0x91
 15435 2ac2 4C       		.sleb128 -52
 15436 2ac3 0E       		.uleb128 0xe
 15437 2ac4 01       		.uleb128 0x1
 15438 2ac5 50       		.byte	0x50
 15439 2ac6 03       		.uleb128 0x3
 15440 2ac7 0A       		.byte	0xa
 15441 2ac8 1901     		.2byte	0x119
 15442 2aca 00       		.byte	0
 15443 2acb 0D       		.uleb128 0xd
 15444 2acc 88270000 		.4byte	.LVL485
 15445 2ad0 F5360000 		.4byte	0x36f5
 15446 2ad4 E92A0000 		.4byte	0x2ae9
 15447 2ad8 0E       		.uleb128 0xe
 15448 2ad9 01       		.uleb128 0x1
 15449 2ada 51       		.byte	0x51
 15450 2adb 05       		.uleb128 0x5
 15451 2adc 03       		.byte	0x3
 15452 2add 00000000 		.4byte	resultado
 15453 2ae1 0E       		.uleb128 0xe
 15454 2ae2 01       		.uleb128 0x1
 15455 2ae3 50       		.byte	0x50
 15456 2ae4 03       		.uleb128 0x3
 15457 2ae5 0A       		.byte	0xa
 15458 2ae6 2702     		.2byte	0x227
 15459 2ae8 00       		.byte	0
 15460 2ae9 0D       		.uleb128 0xd
 15461 2aea D0270000 		.4byte	.LVL486
 15462 2aee 0F370000 		.4byte	0x370f
 15463 2af2 FD2A0000 		.4byte	0x2afd
 15464 2af6 0E       		.uleb128 0xe
 15465 2af7 01       		.uleb128 0x1
ARM GAS  C:\Users\RECEPC~1\AppData\Local\Temp\ccNG63cQ.s 			page 315


 15466 2af8 50       		.byte	0x50
 15467 2af9 02       		.uleb128 0x2
 15468 2afa 74       		.byte	0x74
 15469 2afb 00       		.sleb128 0
 15470 2afc 00       		.byte	0
 15471 2afd 0D       		.uleb128 0xd
 15472 2afe E4270000 		.4byte	.LVL487
 15473 2b02 0F370000 		.4byte	0x370f
 15474 2b06 162B0000 		.4byte	0x2b16
 15475 2b0a 0E       		.uleb128 0xe
 15476 2b0b 01       		.uleb128 0x1
 15477 2b0c 51       		.byte	0x51
 15478 2b0d 01       		.uleb128 0x1
 15479 2b0e 3A       		.byte	0x3a
 15480 2b0f 0E       		.uleb128 0xe
 15481 2b10 01       		.uleb128 0x1
 15482 2b11 50       		.byte	0x50
 15483 2b12 02       		.uleb128 0x2
 15484 2b13 74       		.byte	0x74
 15485 2b14 00       		.sleb128 0
 15486 2b15 00       		.byte	0
 15487 2b16 0D       		.uleb128 0xd
 15488 2b17 F8270000 		.4byte	.LVL488
 15489 2b1b 0F370000 		.4byte	0x370f
 15490 2b1f 2A2B0000 		.4byte	0x2b2a
 15491 2b23 0E       		.uleb128 0xe
 15492 2b24 01       		.uleb128 0x1
 15493 2b25 50       		.byte	0x50
 15494 2b26 02       		.uleb128 0x2
 15495 2b27 74       		.byte	0x74
 15496 2b28 00       		.sleb128 0
 15497 2b29 00       		.byte	0
 15498 2b2a 0D       		.uleb128 0xd
 15499 2b2b 0C280000 		.4byte	.LVL489
 15500 2b2f 0F370000 		.4byte	0x370f
 15501 2b33 432B0000 		.4byte	0x2b43
 15502 2b37 0E       		.uleb128 0xe
 15503 2b38 01       		.uleb128 0x1
 15504 2b39 51       		.byte	0x51
 15505 2b3a 01       		.uleb128 0x1
 15506 2b3b 3A       		.byte	0x3a
 15507 2b3c 0E       		.uleb128 0xe
 15508 2b3d 01       		.uleb128 0x1
 15509 2b3e 50       		.byte	0x50
 15510 2b3f 02       		.uleb128 0x2
 15511 2b40 74       		.byte	0x74
 15512 2b41 00       		.sleb128 0
 15513 2b42 00       		.byte	0
 15514 2b43 0D       		.uleb128 0xd
 15515 2b44 14280000 		.4byte	.LVL490
 15516 2b48 29370000 		.4byte	0x3729
 15517 2b4c 5C2B0000 		.4byte	0x2b5c
 15518 2b50 0E       		.uleb128 0xe
 15519 2b51 01       		.uleb128 0x1
 15520 2b52 51       		.byte	0x51
 15521 2b53 02       		.uleb128 0x2
 15522 2b54 74       		.byte	0x74
ARM GAS  C:\Users\RECEPC~1\AppData\Local\Temp\ccNG63cQ.s 			page 316


 15523 2b55 00       		.sleb128 0
 15524 2b56 0E       		.uleb128 0xe
 15525 2b57 01       		.uleb128 0x1
 15526 2b58 50       		.byte	0x50
 15527 2b59 01       		.uleb128 0x1
 15528 2b5a 3C       		.byte	0x3c
 15529 2b5b 00       		.byte	0
 15530 2b5c 0D       		.uleb128 0xd
 15531 2b5d 2A280000 		.4byte	.LVL491
 15532 2b61 0F370000 		.4byte	0x370f
 15533 2b65 702B0000 		.4byte	0x2b70
 15534 2b69 0E       		.uleb128 0xe
 15535 2b6a 01       		.uleb128 0x1
 15536 2b6b 50       		.byte	0x50
 15537 2b6c 02       		.uleb128 0x2
 15538 2b6d 74       		.byte	0x74
 15539 2b6e 00       		.sleb128 0
 15540 2b6f 00       		.byte	0
 15541 2b70 0D       		.uleb128 0xd
 15542 2b71 3E280000 		.4byte	.LVL492
 15543 2b75 0F370000 		.4byte	0x370f
 15544 2b79 892B0000 		.4byte	0x2b89
 15545 2b7d 0E       		.uleb128 0xe
 15546 2b7e 01       		.uleb128 0x1
 15547 2b7f 51       		.byte	0x51
 15548 2b80 01       		.uleb128 0x1
 15549 2b81 3A       		.byte	0x3a
 15550 2b82 0E       		.uleb128 0xe
 15551 2b83 01       		.uleb128 0x1
 15552 2b84 50       		.byte	0x50
 15553 2b85 02       		.uleb128 0x2
 15554 2b86 74       		.byte	0x74
 15555 2b87 00       		.sleb128 0
 15556 2b88 00       		.byte	0
 15557 2b89 0D       		.uleb128 0xd
 15558 2b8a 4E280000 		.4byte	.LVL493
 15559 2b8e 3F370000 		.4byte	0x373f
 15560 2b92 A22B0000 		.4byte	0x2ba2
 15561 2b96 0E       		.uleb128 0xe
 15562 2b97 01       		.uleb128 0x1
 15563 2b98 51       		.byte	0x51
 15564 2b99 01       		.uleb128 0x1
 15565 2b9a 49       		.byte	0x49
 15566 2b9b 0E       		.uleb128 0xe
 15567 2b9c 01       		.uleb128 0x1
 15568 2b9d 50       		.byte	0x50
 15569 2b9e 02       		.uleb128 0x2
 15570 2b9f 08       		.byte	0x8
 15571 2ba0 D9       		.byte	0xd9
 15572 2ba1 00       		.byte	0
 15573 2ba2 0D       		.uleb128 0xd
 15574 2ba3 5A280000 		.4byte	.LVL494
 15575 2ba7 3F370000 		.4byte	0x373f
 15576 2bab BC2B0000 		.4byte	0x2bbc
 15577 2baf 0E       		.uleb128 0xe
 15578 2bb0 01       		.uleb128 0x1
 15579 2bb1 51       		.byte	0x51
ARM GAS  C:\Users\RECEPC~1\AppData\Local\Temp\ccNG63cQ.s 			page 317


 15580 2bb2 01       		.uleb128 0x1
 15581 2bb3 49       		.byte	0x49
 15582 2bb4 0E       		.uleb128 0xe
 15583 2bb5 01       		.uleb128 0x1
 15584 2bb6 50       		.byte	0x50
 15585 2bb7 03       		.uleb128 0x3
 15586 2bb8 0A       		.byte	0xa
 15587 2bb9 4001     		.2byte	0x140
 15588 2bbb 00       		.byte	0
 15589 2bbc 0D       		.uleb128 0xd
 15590 2bbd 60280000 		.4byte	.LVL495
 15591 2bc1 59370000 		.4byte	0x3759
 15592 2bc5 D02B0000 		.4byte	0x2bd0
 15593 2bc9 0E       		.uleb128 0xe
 15594 2bca 01       		.uleb128 0x1
 15595 2bcb 50       		.byte	0x50
 15596 2bcc 02       		.uleb128 0x2
 15597 2bcd 74       		.byte	0x74
 15598 2bce 00       		.sleb128 0
 15599 2bcf 00       		.byte	0
 15600 2bd0 0D       		.uleb128 0xd
 15601 2bd1 A8280000 		.4byte	.LVL496
 15602 2bd5 6A370000 		.4byte	0x376a
 15603 2bd9 F12B0000 		.4byte	0x2bf1
 15604 2bdd 0E       		.uleb128 0xe
 15605 2bde 01       		.uleb128 0x1
 15606 2bdf 52       		.byte	0x52
 15607 2be0 03       		.uleb128 0x3
 15608 2be1 91       		.byte	0x91
 15609 2be2 AC7F     		.sleb128 -84
 15610 2be4 0E       		.uleb128 0xe
 15611 2be5 01       		.uleb128 0x1
 15612 2be6 51       		.byte	0x51
 15613 2be7 03       		.uleb128 0x3
 15614 2be8 91       		.byte	0x91
 15615 2be9 BC7F     		.sleb128 -68
 15616 2beb 0E       		.uleb128 0xe
 15617 2bec 01       		.uleb128 0x1
 15618 2bed 50       		.byte	0x50
 15619 2bee 01       		.uleb128 0x1
 15620 2bef 32       		.byte	0x32
 15621 2bf0 00       		.byte	0
 15622 2bf1 0D       		.uleb128 0xd
 15623 2bf2 BE280000 		.4byte	.LVL497
 15624 2bf6 0F370000 		.4byte	0x370f
 15625 2bfa 052C0000 		.4byte	0x2c05
 15626 2bfe 0E       		.uleb128 0xe
 15627 2bff 01       		.uleb128 0x1
 15628 2c00 50       		.byte	0x50
 15629 2c01 02       		.uleb128 0x2
 15630 2c02 74       		.byte	0x74
 15631 2c03 00       		.sleb128 0
 15632 2c04 00       		.byte	0
 15633 2c05 0D       		.uleb128 0xd
 15634 2c06 D2280000 		.4byte	.LVL498
 15635 2c0a 85370000 		.4byte	0x3785
 15636 2c0e 222C0000 		.4byte	0x2c22
ARM GAS  C:\Users\RECEPC~1\AppData\Local\Temp\ccNG63cQ.s 			page 318


 15637 2c12 0E       		.uleb128 0xe
 15638 2c13 01       		.uleb128 0x1
 15639 2c14 51       		.byte	0x51
 15640 2c15 02       		.uleb128 0x2
 15641 2c16 74       		.byte	0x74
 15642 2c17 00       		.sleb128 0
 15643 2c18 0E       		.uleb128 0xe
 15644 2c19 01       		.uleb128 0x1
 15645 2c1a 50       		.byte	0x50
 15646 2c1b 05       		.uleb128 0x5
 15647 2c1c 03       		.byte	0x3
 15648 2c1d 00000000 		.4byte	resultado
 15649 2c21 00       		.byte	0
 15650 2c22 0D       		.uleb128 0xd
 15651 2c23 E2280000 		.4byte	.LVL499
 15652 2c27 F5360000 		.4byte	0x36f5
 15653 2c2b 3C2C0000 		.4byte	0x2c3c
 15654 2c2f 0E       		.uleb128 0xe
 15655 2c30 01       		.uleb128 0x1
 15656 2c31 51       		.byte	0x51
 15657 2c32 02       		.uleb128 0x2
 15658 2c33 91       		.byte	0x91
 15659 2c34 4C       		.sleb128 -52
 15660 2c35 0E       		.uleb128 0xe
 15661 2c36 01       		.uleb128 0x1
 15662 2c37 50       		.byte	0x50
 15663 2c38 02       		.uleb128 0x2
 15664 2c39 08       		.byte	0x8
 15665 2c3a D9       		.byte	0xd9
 15666 2c3b 00       		.byte	0
 15667 2c3c 0D       		.uleb128 0xd
 15668 2c3d EC280000 		.4byte	.LVL500
 15669 2c41 F5360000 		.4byte	0x36f5
 15670 2c45 5A2C0000 		.4byte	0x2c5a
 15671 2c49 0E       		.uleb128 0xe
 15672 2c4a 01       		.uleb128 0x1
 15673 2c4b 51       		.byte	0x51
 15674 2c4c 05       		.uleb128 0x5
 15675 2c4d 03       		.byte	0x3
 15676 2c4e 00000000 		.4byte	resultado
 15677 2c52 0E       		.uleb128 0xe
 15678 2c53 01       		.uleb128 0x1
 15679 2c54 50       		.byte	0x50
 15680 2c55 03       		.uleb128 0x3
 15681 2c56 0A       		.byte	0xa
 15682 2c57 1A02     		.2byte	0x21a
 15683 2c59 00       		.byte	0
 15684 2c5a 0D       		.uleb128 0xd
 15685 2c5b F8280000 		.4byte	.LVL501
 15686 2c5f F5360000 		.4byte	0x36f5
 15687 2c63 752C0000 		.4byte	0x2c75
 15688 2c67 0E       		.uleb128 0xe
 15689 2c68 01       		.uleb128 0x1
 15690 2c69 51       		.byte	0x51
 15691 2c6a 02       		.uleb128 0x2
 15692 2c6b 91       		.byte	0x91
 15693 2c6c 4C       		.sleb128 -52
ARM GAS  C:\Users\RECEPC~1\AppData\Local\Temp\ccNG63cQ.s 			page 319


 15694 2c6d 0E       		.uleb128 0xe
 15695 2c6e 01       		.uleb128 0x1
 15696 2c6f 50       		.byte	0x50
 15697 2c70 03       		.uleb128 0x3
 15698 2c71 0A       		.byte	0xa
 15699 2c72 4001     		.2byte	0x140
 15700 2c74 00       		.byte	0
 15701 2c75 0D       		.uleb128 0xd
 15702 2c76 02290000 		.4byte	.LVL502
 15703 2c7a F5360000 		.4byte	0x36f5
 15704 2c7e 932C0000 		.4byte	0x2c93
 15705 2c82 0E       		.uleb128 0xe
 15706 2c83 01       		.uleb128 0x1
 15707 2c84 51       		.byte	0x51
 15708 2c85 05       		.uleb128 0x5
 15709 2c86 03       		.byte	0x3
 15710 2c87 00000000 		.4byte	resultado
 15711 2c8b 0E       		.uleb128 0xe
 15712 2c8c 01       		.uleb128 0x1
 15713 2c8d 50       		.byte	0x50
 15714 2c8e 03       		.uleb128 0x3
 15715 2c8f 0A       		.byte	0xa
 15716 2c90 4002     		.2byte	0x240
 15717 2c92 00       		.byte	0
 15718 2c93 0D       		.uleb128 0xd
 15719 2c94 4A290000 		.4byte	.LVL503
 15720 2c98 0F370000 		.4byte	0x370f
 15721 2c9c A72C0000 		.4byte	0x2ca7
 15722 2ca0 0E       		.uleb128 0xe
 15723 2ca1 01       		.uleb128 0x1
 15724 2ca2 50       		.byte	0x50
 15725 2ca3 02       		.uleb128 0x2
 15726 2ca4 74       		.byte	0x74
 15727 2ca5 00       		.sleb128 0
 15728 2ca6 00       		.byte	0
 15729 2ca7 0D       		.uleb128 0xd
 15730 2ca8 5E290000 		.4byte	.LVL504
 15731 2cac 0F370000 		.4byte	0x370f
 15732 2cb0 C02C0000 		.4byte	0x2cc0
 15733 2cb4 0E       		.uleb128 0xe
 15734 2cb5 01       		.uleb128 0x1
 15735 2cb6 51       		.byte	0x51
 15736 2cb7 01       		.uleb128 0x1
 15737 2cb8 3A       		.byte	0x3a
 15738 2cb9 0E       		.uleb128 0xe
 15739 2cba 01       		.uleb128 0x1
 15740 2cbb 50       		.byte	0x50
 15741 2cbc 02       		.uleb128 0x2
 15742 2cbd 74       		.byte	0x74
 15743 2cbe 00       		.sleb128 0
 15744 2cbf 00       		.byte	0
 15745 2cc0 0D       		.uleb128 0xd
 15746 2cc1 72290000 		.4byte	.LVL505
 15747 2cc5 0F370000 		.4byte	0x370f
 15748 2cc9 D42C0000 		.4byte	0x2cd4
 15749 2ccd 0E       		.uleb128 0xe
 15750 2cce 01       		.uleb128 0x1
ARM GAS  C:\Users\RECEPC~1\AppData\Local\Temp\ccNG63cQ.s 			page 320


 15751 2ccf 50       		.byte	0x50
 15752 2cd0 02       		.uleb128 0x2
 15753 2cd1 74       		.byte	0x74
 15754 2cd2 00       		.sleb128 0
 15755 2cd3 00       		.byte	0
 15756 2cd4 0D       		.uleb128 0xd
 15757 2cd5 86290000 		.4byte	.LVL506
 15758 2cd9 0F370000 		.4byte	0x370f
 15759 2cdd ED2C0000 		.4byte	0x2ced
 15760 2ce1 0E       		.uleb128 0xe
 15761 2ce2 01       		.uleb128 0x1
 15762 2ce3 51       		.byte	0x51
 15763 2ce4 01       		.uleb128 0x1
 15764 2ce5 3A       		.byte	0x3a
 15765 2ce6 0E       		.uleb128 0xe
 15766 2ce7 01       		.uleb128 0x1
 15767 2ce8 50       		.byte	0x50
 15768 2ce9 02       		.uleb128 0x2
 15769 2cea 74       		.byte	0x74
 15770 2ceb 00       		.sleb128 0
 15771 2cec 00       		.byte	0
 15772 2ced 0D       		.uleb128 0xd
 15773 2cee 8E290000 		.4byte	.LVL507
 15774 2cf2 29370000 		.4byte	0x3729
 15775 2cf6 062D0000 		.4byte	0x2d06
 15776 2cfa 0E       		.uleb128 0xe
 15777 2cfb 01       		.uleb128 0x1
 15778 2cfc 51       		.byte	0x51
 15779 2cfd 02       		.uleb128 0x2
 15780 2cfe 74       		.byte	0x74
 15781 2cff 00       		.sleb128 0
 15782 2d00 0E       		.uleb128 0xe
 15783 2d01 01       		.uleb128 0x1
 15784 2d02 50       		.byte	0x50
 15785 2d03 01       		.uleb128 0x1
 15786 2d04 3C       		.byte	0x3c
 15787 2d05 00       		.byte	0
 15788 2d06 0D       		.uleb128 0xd
 15789 2d07 A4290000 		.4byte	.LVL508
 15790 2d0b 0F370000 		.4byte	0x370f
 15791 2d0f 1A2D0000 		.4byte	0x2d1a
 15792 2d13 0E       		.uleb128 0xe
 15793 2d14 01       		.uleb128 0x1
 15794 2d15 50       		.byte	0x50
 15795 2d16 02       		.uleb128 0x2
 15796 2d17 74       		.byte	0x74
 15797 2d18 00       		.sleb128 0
 15798 2d19 00       		.byte	0
 15799 2d1a 0D       		.uleb128 0xd
 15800 2d1b B8290000 		.4byte	.LVL509
 15801 2d1f 0F370000 		.4byte	0x370f
 15802 2d23 332D0000 		.4byte	0x2d33
 15803 2d27 0E       		.uleb128 0xe
 15804 2d28 01       		.uleb128 0x1
 15805 2d29 51       		.byte	0x51
 15806 2d2a 01       		.uleb128 0x1
 15807 2d2b 3A       		.byte	0x3a
ARM GAS  C:\Users\RECEPC~1\AppData\Local\Temp\ccNG63cQ.s 			page 321


 15808 2d2c 0E       		.uleb128 0xe
 15809 2d2d 01       		.uleb128 0x1
 15810 2d2e 50       		.byte	0x50
 15811 2d2f 02       		.uleb128 0x2
 15812 2d30 74       		.byte	0x74
 15813 2d31 00       		.sleb128 0
 15814 2d32 00       		.byte	0
 15815 2d33 0D       		.uleb128 0xd
 15816 2d34 CA290000 		.4byte	.LVL510
 15817 2d38 3F370000 		.4byte	0x373f
 15818 2d3c 4D2D0000 		.4byte	0x2d4d
 15819 2d40 0E       		.uleb128 0xe
 15820 2d41 01       		.uleb128 0x1
 15821 2d42 51       		.byte	0x51
 15822 2d43 01       		.uleb128 0x1
 15823 2d44 49       		.byte	0x49
 15824 2d45 0E       		.uleb128 0xe
 15825 2d46 01       		.uleb128 0x1
 15826 2d47 50       		.byte	0x50
 15827 2d48 03       		.uleb128 0x3
 15828 2d49 0A       		.byte	0xa
 15829 2d4a 0001     		.2byte	0x100
 15830 2d4c 00       		.byte	0
 15831 2d4d 0D       		.uleb128 0xd
 15832 2d4e D6290000 		.4byte	.LVL511
 15833 2d52 3F370000 		.4byte	0x373f
 15834 2d56 672D0000 		.4byte	0x2d67
 15835 2d5a 0E       		.uleb128 0xe
 15836 2d5b 01       		.uleb128 0x1
 15837 2d5c 51       		.byte	0x51
 15838 2d5d 01       		.uleb128 0x1
 15839 2d5e 49       		.byte	0x49
 15840 2d5f 0E       		.uleb128 0xe
 15841 2d60 01       		.uleb128 0x1
 15842 2d61 50       		.byte	0x50
 15843 2d62 03       		.uleb128 0x3
 15844 2d63 0A       		.byte	0xa
 15845 2d64 5901     		.2byte	0x159
 15846 2d66 00       		.byte	0
 15847 2d67 0D       		.uleb128 0xd
 15848 2d68 DC290000 		.4byte	.LVL512
 15849 2d6c 59370000 		.4byte	0x3759
 15850 2d70 7B2D0000 		.4byte	0x2d7b
 15851 2d74 0E       		.uleb128 0xe
 15852 2d75 01       		.uleb128 0x1
 15853 2d76 50       		.byte	0x50
 15854 2d77 02       		.uleb128 0x2
 15855 2d78 74       		.byte	0x74
 15856 2d79 00       		.sleb128 0
 15857 2d7a 00       		.byte	0
 15858 2d7b 0D       		.uleb128 0xd
 15859 2d7c 242A0000 		.4byte	.LVL513
 15860 2d80 6A370000 		.4byte	0x376a
 15861 2d84 9C2D0000 		.4byte	0x2d9c
 15862 2d88 0E       		.uleb128 0xe
 15863 2d89 01       		.uleb128 0x1
 15864 2d8a 52       		.byte	0x52
ARM GAS  C:\Users\RECEPC~1\AppData\Local\Temp\ccNG63cQ.s 			page 322


 15865 2d8b 03       		.uleb128 0x3
 15866 2d8c 91       		.byte	0x91
 15867 2d8d AC7F     		.sleb128 -84
 15868 2d8f 0E       		.uleb128 0xe
 15869 2d90 01       		.uleb128 0x1
 15870 2d91 51       		.byte	0x51
 15871 2d92 03       		.uleb128 0x3
 15872 2d93 91       		.byte	0x91
 15873 2d94 BC7F     		.sleb128 -68
 15874 2d96 0E       		.uleb128 0xe
 15875 2d97 01       		.uleb128 0x1
 15876 2d98 50       		.byte	0x50
 15877 2d99 01       		.uleb128 0x1
 15878 2d9a 32       		.byte	0x32
 15879 2d9b 00       		.byte	0
 15880 2d9c 0D       		.uleb128 0xd
 15881 2d9d 642A0000 		.4byte	.LVL514
 15882 2da1 0F370000 		.4byte	0x370f
 15883 2da5 B02D0000 		.4byte	0x2db0
 15884 2da9 0E       		.uleb128 0xe
 15885 2daa 01       		.uleb128 0x1
 15886 2dab 50       		.byte	0x50
 15887 2dac 02       		.uleb128 0x2
 15888 2dad 74       		.byte	0x74
 15889 2dae 00       		.sleb128 0
 15890 2daf 00       		.byte	0
 15891 2db0 0D       		.uleb128 0xd
 15892 2db1 782A0000 		.4byte	.LVL515
 15893 2db5 85370000 		.4byte	0x3785
 15894 2db9 CD2D0000 		.4byte	0x2dcd
 15895 2dbd 0E       		.uleb128 0xe
 15896 2dbe 01       		.uleb128 0x1
 15897 2dbf 51       		.byte	0x51
 15898 2dc0 02       		.uleb128 0x2
 15899 2dc1 74       		.byte	0x74
 15900 2dc2 00       		.sleb128 0
 15901 2dc3 0E       		.uleb128 0xe
 15902 2dc4 01       		.uleb128 0x1
 15903 2dc5 50       		.byte	0x50
 15904 2dc6 05       		.uleb128 0x5
 15905 2dc7 03       		.byte	0x3
 15906 2dc8 00000000 		.4byte	resultado
 15907 2dcc 00       		.byte	0
 15908 2dcd 0D       		.uleb128 0xd
 15909 2dce 8A2A0000 		.4byte	.LVL516
 15910 2dd2 F5360000 		.4byte	0x36f5
 15911 2dd6 E82D0000 		.4byte	0x2de8
 15912 2dda 0E       		.uleb128 0xe
 15913 2ddb 01       		.uleb128 0x1
 15914 2ddc 51       		.byte	0x51
 15915 2ddd 02       		.uleb128 0x2
 15916 2dde 91       		.byte	0x91
 15917 2ddf 4C       		.sleb128 -52
 15918 2de0 0E       		.uleb128 0xe
 15919 2de1 01       		.uleb128 0x1
 15920 2de2 50       		.byte	0x50
 15921 2de3 03       		.uleb128 0x3
ARM GAS  C:\Users\RECEPC~1\AppData\Local\Temp\ccNG63cQ.s 			page 323


 15922 2de4 0A       		.byte	0xa
 15923 2de5 0001     		.2byte	0x100
 15924 2de7 00       		.byte	0
 15925 2de8 0D       		.uleb128 0xd
 15926 2de9 942A0000 		.4byte	.LVL517
 15927 2ded F5360000 		.4byte	0x36f5
 15928 2df1 062E0000 		.4byte	0x2e06
 15929 2df5 0E       		.uleb128 0xe
 15930 2df6 01       		.uleb128 0x1
 15931 2df7 51       		.byte	0x51
 15932 2df8 05       		.uleb128 0x5
 15933 2df9 03       		.byte	0x3
 15934 2dfa 00000000 		.4byte	resultado
 15935 2dfe 0E       		.uleb128 0xe
 15936 2dff 01       		.uleb128 0x1
 15937 2e00 50       		.byte	0x50
 15938 2e01 03       		.uleb128 0x3
 15939 2e02 0A       		.byte	0xa
 15940 2e03 0D02     		.2byte	0x20d
 15941 2e05 00       		.byte	0
 15942 2e06 0D       		.uleb128 0xd
 15943 2e07 A02A0000 		.4byte	.LVL518
 15944 2e0b F5360000 		.4byte	0x36f5
 15945 2e0f 212E0000 		.4byte	0x2e21
 15946 2e13 0E       		.uleb128 0xe
 15947 2e14 01       		.uleb128 0x1
 15948 2e15 51       		.byte	0x51
 15949 2e16 02       		.uleb128 0x2
 15950 2e17 91       		.byte	0x91
 15951 2e18 4C       		.sleb128 -52
 15952 2e19 0E       		.uleb128 0xe
 15953 2e1a 01       		.uleb128 0x1
 15954 2e1b 50       		.byte	0x50
 15955 2e1c 03       		.uleb128 0x3
 15956 2e1d 0A       		.byte	0xa
 15957 2e1e 5901     		.2byte	0x159
 15958 2e20 00       		.byte	0
 15959 2e21 0D       		.uleb128 0xd
 15960 2e22 AA2A0000 		.4byte	.LVL519
 15961 2e26 F5360000 		.4byte	0x36f5
 15962 2e2a 3F2E0000 		.4byte	0x2e3f
 15963 2e2e 0E       		.uleb128 0xe
 15964 2e2f 01       		.uleb128 0x1
 15965 2e30 51       		.byte	0x51
 15966 2e31 05       		.uleb128 0x5
 15967 2e32 03       		.byte	0x3
 15968 2e33 00000000 		.4byte	resultado
 15969 2e37 0E       		.uleb128 0xe
 15970 2e38 01       		.uleb128 0x1
 15971 2e39 50       		.byte	0x50
 15972 2e3a 03       		.uleb128 0x3
 15973 2e3b 0A       		.byte	0xa
 15974 2e3c 4D02     		.2byte	0x24d
 15975 2e3e 00       		.byte	0
 15976 2e3f 0D       		.uleb128 0xd
 15977 2e40 F22A0000 		.4byte	.LVL520
 15978 2e44 0F370000 		.4byte	0x370f
ARM GAS  C:\Users\RECEPC~1\AppData\Local\Temp\ccNG63cQ.s 			page 324


 15979 2e48 532E0000 		.4byte	0x2e53
 15980 2e4c 0E       		.uleb128 0xe
 15981 2e4d 01       		.uleb128 0x1
 15982 2e4e 50       		.byte	0x50
 15983 2e4f 02       		.uleb128 0x2
 15984 2e50 74       		.byte	0x74
 15985 2e51 00       		.sleb128 0
 15986 2e52 00       		.byte	0
 15987 2e53 0D       		.uleb128 0xd
 15988 2e54 062B0000 		.4byte	.LVL521
 15989 2e58 0F370000 		.4byte	0x370f
 15990 2e5c 6C2E0000 		.4byte	0x2e6c
 15991 2e60 0E       		.uleb128 0xe
 15992 2e61 01       		.uleb128 0x1
 15993 2e62 51       		.byte	0x51
 15994 2e63 01       		.uleb128 0x1
 15995 2e64 3A       		.byte	0x3a
 15996 2e65 0E       		.uleb128 0xe
 15997 2e66 01       		.uleb128 0x1
 15998 2e67 50       		.byte	0x50
 15999 2e68 02       		.uleb128 0x2
 16000 2e69 74       		.byte	0x74
 16001 2e6a 00       		.sleb128 0
 16002 2e6b 00       		.byte	0
 16003 2e6c 0D       		.uleb128 0xd
 16004 2e6d 1A2B0000 		.4byte	.LVL522
 16005 2e71 0F370000 		.4byte	0x370f
 16006 2e75 802E0000 		.4byte	0x2e80
 16007 2e79 0E       		.uleb128 0xe
 16008 2e7a 01       		.uleb128 0x1
 16009 2e7b 50       		.byte	0x50
 16010 2e7c 02       		.uleb128 0x2
 16011 2e7d 74       		.byte	0x74
 16012 2e7e 00       		.sleb128 0
 16013 2e7f 00       		.byte	0
 16014 2e80 0D       		.uleb128 0xd
 16015 2e81 2E2B0000 		.4byte	.LVL523
 16016 2e85 0F370000 		.4byte	0x370f
 16017 2e89 992E0000 		.4byte	0x2e99
 16018 2e8d 0E       		.uleb128 0xe
 16019 2e8e 01       		.uleb128 0x1
 16020 2e8f 51       		.byte	0x51
 16021 2e90 01       		.uleb128 0x1
 16022 2e91 3A       		.byte	0x3a
 16023 2e92 0E       		.uleb128 0xe
 16024 2e93 01       		.uleb128 0x1
 16025 2e94 50       		.byte	0x50
 16026 2e95 02       		.uleb128 0x2
 16027 2e96 74       		.byte	0x74
 16028 2e97 00       		.sleb128 0
 16029 2e98 00       		.byte	0
 16030 2e99 0D       		.uleb128 0xd
 16031 2e9a 362B0000 		.4byte	.LVL524
 16032 2e9e 29370000 		.4byte	0x3729
 16033 2ea2 B22E0000 		.4byte	0x2eb2
 16034 2ea6 0E       		.uleb128 0xe
 16035 2ea7 01       		.uleb128 0x1
ARM GAS  C:\Users\RECEPC~1\AppData\Local\Temp\ccNG63cQ.s 			page 325


 16036 2ea8 51       		.byte	0x51
 16037 2ea9 02       		.uleb128 0x2
 16038 2eaa 74       		.byte	0x74
 16039 2eab 00       		.sleb128 0
 16040 2eac 0E       		.uleb128 0xe
 16041 2ead 01       		.uleb128 0x1
 16042 2eae 50       		.byte	0x50
 16043 2eaf 01       		.uleb128 0x1
 16044 2eb0 3C       		.byte	0x3c
 16045 2eb1 00       		.byte	0
 16046 2eb2 0D       		.uleb128 0xd
 16047 2eb3 4C2B0000 		.4byte	.LVL525
 16048 2eb7 0F370000 		.4byte	0x370f
 16049 2ebb C62E0000 		.4byte	0x2ec6
 16050 2ebf 0E       		.uleb128 0xe
 16051 2ec0 01       		.uleb128 0x1
 16052 2ec1 50       		.byte	0x50
 16053 2ec2 02       		.uleb128 0x2
 16054 2ec3 74       		.byte	0x74
 16055 2ec4 00       		.sleb128 0
 16056 2ec5 00       		.byte	0
 16057 2ec6 0D       		.uleb128 0xd
 16058 2ec7 602B0000 		.4byte	.LVL526
 16059 2ecb 0F370000 		.4byte	0x370f
 16060 2ecf DF2E0000 		.4byte	0x2edf
 16061 2ed3 0E       		.uleb128 0xe
 16062 2ed4 01       		.uleb128 0x1
 16063 2ed5 51       		.byte	0x51
 16064 2ed6 01       		.uleb128 0x1
 16065 2ed7 3A       		.byte	0x3a
 16066 2ed8 0E       		.uleb128 0xe
 16067 2ed9 01       		.uleb128 0x1
 16068 2eda 50       		.byte	0x50
 16069 2edb 02       		.uleb128 0x2
 16070 2edc 74       		.byte	0x74
 16071 2edd 00       		.sleb128 0
 16072 2ede 00       		.byte	0
 16073 2edf 0D       		.uleb128 0xd
 16074 2ee0 722B0000 		.4byte	.LVL527
 16075 2ee4 3F370000 		.4byte	0x373f
 16076 2ee8 F92E0000 		.4byte	0x2ef9
 16077 2eec 0E       		.uleb128 0xe
 16078 2eed 01       		.uleb128 0x1
 16079 2eee 51       		.byte	0x51
 16080 2eef 01       		.uleb128 0x1
 16081 2ef0 49       		.byte	0x49
 16082 2ef1 0E       		.uleb128 0xe
 16083 2ef2 01       		.uleb128 0x1
 16084 2ef3 50       		.byte	0x50
 16085 2ef4 03       		.uleb128 0x3
 16086 2ef5 0A       		.byte	0xa
 16087 2ef6 4804     		.2byte	0x448
 16088 2ef8 00       		.byte	0
 16089 2ef9 0D       		.uleb128 0xd
 16090 2efa 7E2B0000 		.4byte	.LVL528
 16091 2efe 3F370000 		.4byte	0x373f
 16092 2f02 132F0000 		.4byte	0x2f13
ARM GAS  C:\Users\RECEPC~1\AppData\Local\Temp\ccNG63cQ.s 			page 326


 16093 2f06 0E       		.uleb128 0xe
 16094 2f07 01       		.uleb128 0x1
 16095 2f08 51       		.byte	0x51
 16096 2f09 01       		.uleb128 0x1
 16097 2f0a 49       		.byte	0x49
 16098 2f0b 0E       		.uleb128 0xe
 16099 2f0c 01       		.uleb128 0x1
 16100 2f0d 50       		.byte	0x50
 16101 2f0e 03       		.uleb128 0x3
 16102 2f0f 0A       		.byte	0xa
 16103 2f10 1E04     		.2byte	0x41e
 16104 2f12 00       		.byte	0
 16105 2f13 0D       		.uleb128 0xd
 16106 2f14 842B0000 		.4byte	.LVL529
 16107 2f18 59370000 		.4byte	0x3759
 16108 2f1c 272F0000 		.4byte	0x2f27
 16109 2f20 0E       		.uleb128 0xe
 16110 2f21 01       		.uleb128 0x1
 16111 2f22 50       		.byte	0x50
 16112 2f23 02       		.uleb128 0x2
 16113 2f24 74       		.byte	0x74
 16114 2f25 00       		.sleb128 0
 16115 2f26 00       		.byte	0
 16116 2f27 0D       		.uleb128 0xd
 16117 2f28 CC2B0000 		.4byte	.LVL530
 16118 2f2c 6A370000 		.4byte	0x376a
 16119 2f30 482F0000 		.4byte	0x2f48
 16120 2f34 0E       		.uleb128 0xe
 16121 2f35 01       		.uleb128 0x1
 16122 2f36 52       		.byte	0x52
 16123 2f37 03       		.uleb128 0x3
 16124 2f38 91       		.byte	0x91
 16125 2f39 AC7F     		.sleb128 -84
 16126 2f3b 0E       		.uleb128 0xe
 16127 2f3c 01       		.uleb128 0x1
 16128 2f3d 51       		.byte	0x51
 16129 2f3e 03       		.uleb128 0x3
 16130 2f3f 91       		.byte	0x91
 16131 2f40 BC7F     		.sleb128 -68
 16132 2f42 0E       		.uleb128 0xe
 16133 2f43 01       		.uleb128 0x1
 16134 2f44 50       		.byte	0x50
 16135 2f45 01       		.uleb128 0x1
 16136 2f46 32       		.byte	0x32
 16137 2f47 00       		.byte	0
 16138 2f48 0D       		.uleb128 0xd
 16139 2f49 E22B0000 		.4byte	.LVL531
 16140 2f4d 0F370000 		.4byte	0x370f
 16141 2f51 5C2F0000 		.4byte	0x2f5c
 16142 2f55 0E       		.uleb128 0xe
 16143 2f56 01       		.uleb128 0x1
 16144 2f57 50       		.byte	0x50
 16145 2f58 02       		.uleb128 0x2
 16146 2f59 74       		.byte	0x74
 16147 2f5a 00       		.sleb128 0
 16148 2f5b 00       		.byte	0
 16149 2f5c 0D       		.uleb128 0xd
ARM GAS  C:\Users\RECEPC~1\AppData\Local\Temp\ccNG63cQ.s 			page 327


 16150 2f5d F62B0000 		.4byte	.LVL532
 16151 2f61 85370000 		.4byte	0x3785
 16152 2f65 792F0000 		.4byte	0x2f79
 16153 2f69 0E       		.uleb128 0xe
 16154 2f6a 01       		.uleb128 0x1
 16155 2f6b 51       		.byte	0x51
 16156 2f6c 02       		.uleb128 0x2
 16157 2f6d 74       		.byte	0x74
 16158 2f6e 00       		.sleb128 0
 16159 2f6f 0E       		.uleb128 0xe
 16160 2f70 01       		.uleb128 0x1
 16161 2f71 50       		.byte	0x50
 16162 2f72 05       		.uleb128 0x5
 16163 2f73 03       		.byte	0x3
 16164 2f74 00000000 		.4byte	resultado
 16165 2f78 00       		.byte	0
 16166 2f79 0D       		.uleb128 0xd
 16167 2f7a 082C0000 		.4byte	.LVL533
 16168 2f7e F5360000 		.4byte	0x36f5
 16169 2f82 942F0000 		.4byte	0x2f94
 16170 2f86 0E       		.uleb128 0xe
 16171 2f87 01       		.uleb128 0x1
 16172 2f88 51       		.byte	0x51
 16173 2f89 02       		.uleb128 0x2
 16174 2f8a 91       		.byte	0x91
 16175 2f8b 4C       		.sleb128 -52
 16176 2f8c 0E       		.uleb128 0xe
 16177 2f8d 01       		.uleb128 0x1
 16178 2f8e 50       		.byte	0x50
 16179 2f8f 03       		.uleb128 0x3
 16180 2f90 0A       		.byte	0xa
 16181 2f91 4804     		.2byte	0x448
 16182 2f93 00       		.byte	0
 16183 2f94 0D       		.uleb128 0xd
 16184 2f95 122C0000 		.4byte	.LVL534
 16185 2f99 F5360000 		.4byte	0x36f5
 16186 2f9d B22F0000 		.4byte	0x2fb2
 16187 2fa1 0E       		.uleb128 0xe
 16188 2fa2 01       		.uleb128 0x1
 16189 2fa3 51       		.byte	0x51
 16190 2fa4 05       		.uleb128 0x5
 16191 2fa5 03       		.byte	0x3
 16192 2fa6 00000000 		.4byte	resultado
 16193 2faa 0E       		.uleb128 0xe
 16194 2fab 01       		.uleb128 0x1
 16195 2fac 50       		.byte	0x50
 16196 2fad 03       		.uleb128 0x3
 16197 2fae 0A       		.byte	0xa
 16198 2faf 0E04     		.2byte	0x40e
 16199 2fb1 00       		.byte	0
 16200 2fb2 0D       		.uleb128 0xd
 16201 2fb3 1E2C0000 		.4byte	.LVL535
 16202 2fb7 F5360000 		.4byte	0x36f5
 16203 2fbb CD2F0000 		.4byte	0x2fcd
 16204 2fbf 0E       		.uleb128 0xe
 16205 2fc0 01       		.uleb128 0x1
 16206 2fc1 51       		.byte	0x51
ARM GAS  C:\Users\RECEPC~1\AppData\Local\Temp\ccNG63cQ.s 			page 328


 16207 2fc2 02       		.uleb128 0x2
 16208 2fc3 91       		.byte	0x91
 16209 2fc4 4C       		.sleb128 -52
 16210 2fc5 0E       		.uleb128 0xe
 16211 2fc6 01       		.uleb128 0x1
 16212 2fc7 50       		.byte	0x50
 16213 2fc8 03       		.uleb128 0x3
 16214 2fc9 0A       		.byte	0xa
 16215 2fca 1E04     		.2byte	0x41e
 16216 2fcc 00       		.byte	0
 16217 2fcd 0D       		.uleb128 0xd
 16218 2fce 282C0000 		.4byte	.LVL536
 16219 2fd2 F5360000 		.4byte	0x36f5
 16220 2fd6 EB2F0000 		.4byte	0x2feb
 16221 2fda 0E       		.uleb128 0xe
 16222 2fdb 01       		.uleb128 0x1
 16223 2fdc 51       		.byte	0x51
 16224 2fdd 05       		.uleb128 0x5
 16225 2fde 03       		.byte	0x3
 16226 2fdf 00000000 		.4byte	resultado
 16227 2fe3 0E       		.uleb128 0xe
 16228 2fe4 01       		.uleb128 0x1
 16229 2fe5 50       		.byte	0x50
 16230 2fe6 03       		.uleb128 0x3
 16231 2fe7 0A       		.byte	0xa
 16232 2fe8 3904     		.2byte	0x439
 16233 2fea 00       		.byte	0
 16234 2feb 0F       		.uleb128 0xf
 16235 2fec 3A2C0000 		.4byte	.LVL537
 16236 2ff0 E3360000 		.4byte	0x36e3
 16237 2ff4 15       		.uleb128 0x15
 16238 2ff5 562C0000 		.4byte	.LVL538
 16239 2ff9 0F370000 		.4byte	0x370f
 16240 2ffd 0E       		.uleb128 0xe
 16241 2ffe 01       		.uleb128 0x1
 16242 2fff 50       		.byte	0x50
 16243 3000 02       		.uleb128 0x2
 16244 3001 74       		.byte	0x74
 16245 3002 00       		.sleb128 0
 16246 3003 00       		.byte	0
 16247 3004 00       		.byte	0
 16248 3005 08       		.uleb128 0x8
 16249 3006 81000000 		.4byte	0x81
 16250 300a 15300000 		.4byte	0x3015
 16251 300e 09       		.uleb128 0x9
 16252 300f B7000000 		.4byte	0xb7
 16253 3013 18       		.byte	0x18
 16254 3014 00       		.byte	0
 16255 3015 08       		.uleb128 0x8
 16256 3016 81000000 		.4byte	0x81
 16257 301a 25300000 		.4byte	0x3025
 16258 301e 09       		.uleb128 0x9
 16259 301f B7000000 		.4byte	0xb7
 16260 3023 0D       		.byte	0xd
 16261 3024 00       		.byte	0
 16262 3025 16       		.uleb128 0x16
 16263 3026 CD040000 		.4byte	.LASF61
ARM GAS  C:\Users\RECEPC~1\AppData\Local\Temp\ccNG63cQ.s 			page 329


 16264 302a 01       		.byte	0x1
 16265 302b EB05     		.2byte	0x5eb
 16266 302d 81000000 		.4byte	0x81
 16267 3031 00000000 		.4byte	.LFB70
 16268 3035 B4040000 		.4byte	.LFE70-.LFB70
 16269 3039 01       		.uleb128 0x1
 16270 303a 9C       		.byte	0x9c
 16271 303b 61310000 		.4byte	0x3161
 16272 303f 17       		.uleb128 0x17
 16273 3040 64697200 		.ascii	"dir\000"
 16274 3044 01       		.byte	0x1
 16275 3045 EB05     		.2byte	0x5eb
 16276 3047 81000000 		.4byte	0x81
 16277 304b 25040000 		.4byte	.LLST13
 16278 304f 1A       		.uleb128 0x1a
 16279 3050 DD050000 		.4byte	.LASF62
 16280 3054 01       		.byte	0x1
 16281 3055 EB05     		.2byte	0x5eb
 16282 3057 81000000 		.4byte	0x81
 16283 305b 46040000 		.4byte	.LLST14
 16284 305f 1A       		.uleb128 0x1a
 16285 3060 4C050000 		.4byte	.LASF21
 16286 3064 01       		.byte	0x1
 16287 3065 EB05     		.2byte	0x5eb
 16288 3067 61310000 		.4byte	0x3161
 16289 306b 99040000 		.4byte	.LLST15
 16290 306f 1A       		.uleb128 0x1a
 16291 3070 2D010000 		.4byte	.LASF20
 16292 3074 01       		.byte	0x1
 16293 3075 EB05     		.2byte	0x5eb
 16294 3077 81000000 		.4byte	0x81
 16295 307b 05050000 		.4byte	.LLST16
 16296 307f 18       		.uleb128 0x18
 16297 3080 4A000000 		.4byte	.LASF28
 16298 3084 01       		.byte	0x1
 16299 3085 EC05     		.2byte	0x5ec
 16300 3087 67310000 		.4byte	0x3167
 16301 308b 02       		.uleb128 0x2
 16302 308c 91       		.byte	0x91
 16303 308d 4C       		.sleb128 -52
 16304 308e 1B       		.uleb128 0x1b
 16305 308f 59030000 		.4byte	.LASF18
 16306 3093 01       		.byte	0x1
 16307 3094 EC05     		.2byte	0x5ec
 16308 3096 81000000 		.4byte	0x81
 16309 309a 58050000 		.4byte	.LLST17
 16310 309e 1B       		.uleb128 0x1b
 16311 309f 95040000 		.4byte	.LASF63
 16312 30a3 01       		.byte	0x1
 16313 30a4 EC05     		.2byte	0x5ec
 16314 30a6 81000000 		.4byte	0x81
 16315 30aa E0050000 		.4byte	.LLST18
 16316 30ae 19       		.uleb128 0x19
 16317 30af 6900     		.ascii	"i\000"
 16318 30b1 01       		.byte	0x1
 16319 30b2 EC05     		.2byte	0x5ec
 16320 30b4 81000000 		.4byte	0x81
ARM GAS  C:\Users\RECEPC~1\AppData\Local\Temp\ccNG63cQ.s 			page 330


 16321 30b8 0A060000 		.4byte	.LLST19
 16322 30bc 19       		.uleb128 0x19
 16323 30bd 6A00     		.ascii	"j\000"
 16324 30bf 01       		.byte	0x1
 16325 30c0 EC05     		.2byte	0x5ec
 16326 30c2 81000000 		.4byte	0x81
 16327 30c6 46090000 		.4byte	.LLST20
 16328 30ca 1B       		.uleb128 0x1b
 16329 30cb AA000000 		.4byte	.LASF64
 16330 30cf 01       		.byte	0x1
 16331 30d0 EC05     		.2byte	0x5ec
 16332 30d2 81000000 		.4byte	0x81
 16333 30d6 110A0000 		.4byte	.LLST21
 16334 30da 0D       		.uleb128 0xd
 16335 30db 52040000 		.4byte	.LVL654
 16336 30df B6360000 		.4byte	0x36b6
 16337 30e3 F1300000 		.4byte	0x30f1
 16338 30e7 0E       		.uleb128 0xe
 16339 30e8 01       		.uleb128 0x1
 16340 30e9 50       		.byte	0x50
 16341 30ea 05       		.uleb128 0x5
 16342 30eb 77       		.byte	0x77
 16343 30ec 00       		.sleb128 0
 16344 30ed 08       		.byte	0x8
 16345 30ee 20       		.byte	0x20
 16346 30ef 21       		.byte	0x21
 16347 30f0 00       		.byte	0
 16348 30f1 0D       		.uleb128 0xd
 16349 30f2 58040000 		.4byte	.LVL655
 16350 30f6 C7360000 		.4byte	0x36c7
 16351 30fa 05310000 		.4byte	0x3105
 16352 30fe 0E       		.uleb128 0xe
 16353 30ff 01       		.uleb128 0x1
 16354 3100 50       		.byte	0x50
 16355 3101 02       		.uleb128 0x2
 16356 3102 08       		.byte	0x8
 16357 3103 32       		.byte	0x32
 16358 3104 00       		.byte	0
 16359 3105 0F       		.uleb128 0xf
 16360 3106 5C040000 		.4byte	.LVL656
 16361 310a D8360000 		.4byte	0x36d8
 16362 310e 0F       		.uleb128 0xf
 16363 310f 62040000 		.4byte	.LVL657
 16364 3113 EA360000 		.4byte	0x36ea
 16365 3117 0F       		.uleb128 0xf
 16366 3118 6E040000 		.4byte	.LVL658
 16367 311c E3360000 		.4byte	0x36e3
 16368 3120 0D       		.uleb128 0xd
 16369 3121 7E040000 		.4byte	.LVL660
 16370 3125 B6360000 		.4byte	0x36b6
 16371 3129 3C310000 		.4byte	0x313c
 16372 312d 0E       		.uleb128 0xe
 16373 312e 01       		.uleb128 0x1
 16374 312f 50       		.byte	0x50
 16375 3130 0A       		.uleb128 0xa
 16376 3131 91       		.byte	0x91
 16377 3132 00       		.sleb128 0
ARM GAS  C:\Users\RECEPC~1\AppData\Local\Temp\ccNG63cQ.s 			page 331


 16378 3133 74       		.byte	0x74
 16379 3134 00       		.sleb128 0
 16380 3135 22       		.byte	0x22
 16381 3136 08       		.byte	0x8
 16382 3137 34       		.byte	0x34
 16383 3138 1C       		.byte	0x1c
 16384 3139 94       		.byte	0x94
 16385 313a 01       		.byte	0x1
 16386 313b 00       		.byte	0
 16387 313c 0D       		.uleb128 0xd
 16388 313d 8C040000 		.4byte	.LVL663
 16389 3141 C7360000 		.4byte	0x36c7
 16390 3145 50310000 		.4byte	0x3150
 16391 3149 0E       		.uleb128 0xe
 16392 314a 01       		.uleb128 0x1
 16393 314b 50       		.byte	0x50
 16394 314c 02       		.uleb128 0x2
 16395 314d 08       		.byte	0x8
 16396 314e 32       		.byte	0x32
 16397 314f 00       		.byte	0
 16398 3150 15       		.uleb128 0x15
 16399 3151 92040000 		.4byte	.LVL664
 16400 3155 AB030000 		.4byte	0x3ab
 16401 3159 0E       		.uleb128 0xe
 16402 315a 01       		.uleb128 0x1
 16403 315b 50       		.byte	0x50
 16404 315c 02       		.uleb128 0x2
 16405 315d 77       		.byte	0x77
 16406 315e 00       		.sleb128 0
 16407 315f 00       		.byte	0
 16408 3160 00       		.byte	0
 16409 3161 1C       		.uleb128 0x1c
 16410 3162 04       		.byte	0x4
 16411 3163 81000000 		.4byte	0x81
 16412 3167 08       		.uleb128 0x8
 16413 3168 81000000 		.4byte	0x81
 16414 316c 77310000 		.4byte	0x3177
 16415 3170 09       		.uleb128 0x9
 16416 3171 B7000000 		.4byte	0xb7
 16417 3175 11       		.byte	0x11
 16418 3176 00       		.byte	0
 16419 3177 16       		.uleb128 0x16
 16420 3178 2F030000 		.4byte	.LASF65
 16421 317c 01       		.byte	0x1
 16422 317d 9F06     		.2byte	0x69f
 16423 317f 81000000 		.4byte	0x81
 16424 3183 00000000 		.4byte	.LFB71
 16425 3187 B4020000 		.4byte	.LFE71-.LFB71
 16426 318b 01       		.uleb128 0x1
 16427 318c 9C       		.byte	0x9c
 16428 318d 34320000 		.4byte	0x3234
 16429 3191 17       		.uleb128 0x17
 16430 3192 64697200 		.ascii	"dir\000"
 16431 3196 01       		.byte	0x1
 16432 3197 9F06     		.2byte	0x69f
 16433 3199 81000000 		.4byte	0x81
 16434 319d D20A0000 		.4byte	.LLST22
ARM GAS  C:\Users\RECEPC~1\AppData\Local\Temp\ccNG63cQ.s 			page 332


 16435 31a1 18       		.uleb128 0x18
 16436 31a2 4A000000 		.4byte	.LASF28
 16437 31a6 01       		.byte	0x1
 16438 31a7 A006     		.2byte	0x6a0
 16439 31a9 E8020000 		.4byte	0x2e8
 16440 31ad 02       		.uleb128 0x2
 16441 31ae 91       		.byte	0x91
 16442 31af 58       		.sleb128 -40
 16443 31b0 1B       		.uleb128 0x1b
 16444 31b1 59030000 		.4byte	.LASF18
 16445 31b5 01       		.byte	0x1
 16446 31b6 A006     		.2byte	0x6a0
 16447 31b8 81000000 		.4byte	0x81
 16448 31bc 0C0B0000 		.4byte	.LLST23
 16449 31c0 0D       		.uleb128 0xd
 16450 31c1 36020000 		.4byte	.LVL678
 16451 31c5 B6360000 		.4byte	0x36b6
 16452 31c9 D7310000 		.4byte	0x31d7
 16453 31cd 0E       		.uleb128 0xe
 16454 31ce 01       		.uleb128 0x1
 16455 31cf 50       		.byte	0x50
 16456 31d0 05       		.uleb128 0x5
 16457 31d1 74       		.byte	0x74
 16458 31d2 00       		.sleb128 0
 16459 31d3 08       		.byte	0x8
 16460 31d4 20       		.byte	0x20
 16461 31d5 21       		.byte	0x21
 16462 31d6 00       		.byte	0
 16463 31d7 0D       		.uleb128 0xd
 16464 31d8 3C020000 		.4byte	.LVL679
 16465 31dc C7360000 		.4byte	0x36c7
 16466 31e0 EB310000 		.4byte	0x31eb
 16467 31e4 0E       		.uleb128 0xe
 16468 31e5 01       		.uleb128 0x1
 16469 31e6 50       		.byte	0x50
 16470 31e7 02       		.uleb128 0x2
 16471 31e8 08       		.byte	0x8
 16472 31e9 64       		.byte	0x64
 16473 31ea 00       		.byte	0
 16474 31eb 0F       		.uleb128 0xf
 16475 31ec 40020000 		.4byte	.LVL680
 16476 31f0 D8360000 		.4byte	0x36d8
 16477 31f4 0F       		.uleb128 0xf
 16478 31f5 46020000 		.4byte	.LVL681
 16479 31f9 EA360000 		.4byte	0x36ea
 16480 31fd 0F       		.uleb128 0xf
 16481 31fe 52020000 		.4byte	.LVL682
 16482 3202 E3360000 		.4byte	0x36e3
 16483 3206 0F       		.uleb128 0xf
 16484 3207 68020000 		.4byte	.LVL683
 16485 320b B6360000 		.4byte	0x36b6
 16486 320f 0D       		.uleb128 0xd
 16487 3210 7A020000 		.4byte	.LVL684
 16488 3214 C7360000 		.4byte	0x36c7
 16489 3218 23320000 		.4byte	0x3223
 16490 321c 0E       		.uleb128 0xe
 16491 321d 01       		.uleb128 0x1
ARM GAS  C:\Users\RECEPC~1\AppData\Local\Temp\ccNG63cQ.s 			page 333


 16492 321e 50       		.byte	0x50
 16493 321f 02       		.uleb128 0x2
 16494 3220 08       		.byte	0x8
 16495 3221 32       		.byte	0x32
 16496 3222 00       		.byte	0
 16497 3223 15       		.uleb128 0x15
 16498 3224 80020000 		.4byte	.LVL685
 16499 3228 AB030000 		.4byte	0x3ab
 16500 322c 0E       		.uleb128 0xe
 16501 322d 01       		.uleb128 0x1
 16502 322e 50       		.byte	0x50
 16503 322f 02       		.uleb128 0x2
 16504 3230 74       		.byte	0x74
 16505 3231 00       		.sleb128 0
 16506 3232 00       		.byte	0
 16507 3233 00       		.byte	0
 16508 3234 08       		.uleb128 0x8
 16509 3235 81000000 		.4byte	0x81
 16510 3239 44320000 		.4byte	0x3244
 16511 323d 09       		.uleb128 0x9
 16512 323e B7000000 		.4byte	0xb7
 16513 3242 FF       		.byte	0xff
 16514 3243 00       		.byte	0
 16515 3244 1D       		.uleb128 0x1d
 16516 3245 CC010000 		.4byte	.LASF66
 16517 3249 06       		.byte	0x6
 16518 324a 5201     		.2byte	0x152
 16519 324c 50320000 		.4byte	0x3250
 16520 3250 1E       		.uleb128 0x1e
 16521 3251 34320000 		.4byte	0x3234
 16522 3255 1D       		.uleb128 0x1d
 16523 3256 65040000 		.4byte	.LASF67
 16524 325a 07       		.byte	0x7
 16525 325b 2A06     		.2byte	0x62a
 16526 325d 61320000 		.4byte	0x3261
 16527 3261 1E       		.uleb128 0x1e
 16528 3262 76000000 		.4byte	0x76
 16529 3266 1F       		.uleb128 0x1f
 16530 3267 2F040000 		.4byte	.LASF68
 16531 326b 05       		.byte	0x5
 16532 326c 2F       		.byte	0x2f
 16533 326d 81000000 		.4byte	0x81
 16534 3271 05       		.uleb128 0x5
 16535 3272 03       		.byte	0x3
 16536 3273 00000000 		.4byte	flujo_LCD
 16537 3277 1F       		.uleb128 0x1f
 16538 3278 09000000 		.4byte	.LASF69
 16539 327c 05       		.byte	0x5
 16540 327d 2F       		.byte	0x2f
 16541 327e 81000000 		.4byte	0x81
 16542 3282 05       		.uleb128 0x5
 16543 3283 03       		.byte	0x3
 16544 3284 00000000 		.4byte	flujo_LCD2
 16545 3288 1F       		.uleb128 0x1f
 16546 3289 52050000 		.4byte	.LASF70
 16547 328d 05       		.byte	0x5
 16548 328e 5D       		.byte	0x5d
ARM GAS  C:\Users\RECEPC~1\AppData\Local\Temp\ccNG63cQ.s 			page 334


 16549 328f 81000000 		.4byte	0x81
 16550 3293 05       		.uleb128 0x5
 16551 3294 03       		.byte	0x3
 16552 3295 00000000 		.4byte	count_protector
 16553 3299 1F       		.uleb128 0x1f
 16554 329a 1C000000 		.4byte	.LASF71
 16555 329e 05       		.byte	0x5
 16556 329f 5D       		.byte	0x5d
 16557 32a0 81000000 		.4byte	0x81
 16558 32a4 05       		.uleb128 0x5
 16559 32a5 03       		.byte	0x3
 16560 32a6 00000000 		.4byte	count_protector2
 16561 32aa 1F       		.uleb128 0x1f
 16562 32ab 32000000 		.4byte	.LASF72
 16563 32af 05       		.byte	0x5
 16564 32b0 5E       		.byte	0x5e
 16565 32b1 81000000 		.4byte	0x81
 16566 32b5 05       		.uleb128 0x5
 16567 32b6 03       		.byte	0x3
 16568 32b7 00000000 		.4byte	ok_LCD1
 16569 32bb 1F       		.uleb128 0x1f
 16570 32bc 3A000000 		.4byte	.LASF73
 16571 32c0 05       		.byte	0x5
 16572 32c1 5E       		.byte	0x5e
 16573 32c2 81000000 		.4byte	0x81
 16574 32c6 05       		.uleb128 0x5
 16575 32c7 03       		.byte	0x3
 16576 32c8 00000000 		.4byte	ok_LCD2
 16577 32cc 1F       		.uleb128 0x1f
 16578 32cd C7040000 		.4byte	.LASF74
 16579 32d1 05       		.byte	0x5
 16580 32d2 5F       		.byte	0x5f
 16581 32d3 81000000 		.4byte	0x81
 16582 32d7 05       		.uleb128 0x5
 16583 32d8 03       		.byte	0x3
 16584 32d9 00000000 		.4byte	cont1
 16585 32dd 1F       		.uleb128 0x1f
 16586 32de CC000000 		.4byte	.LASF75
 16587 32e2 05       		.byte	0x5
 16588 32e3 5F       		.byte	0x5f
 16589 32e4 81000000 		.4byte	0x81
 16590 32e8 05       		.uleb128 0x5
 16591 32e9 03       		.byte	0x3
 16592 32ea 00000000 		.4byte	teclas1
 16593 32ee 1F       		.uleb128 0x1f
 16594 32ef D4000000 		.4byte	.LASF76
 16595 32f3 05       		.byte	0x5
 16596 32f4 5F       		.byte	0x5f
 16597 32f5 81000000 		.4byte	0x81
 16598 32f9 05       		.uleb128 0x5
 16599 32fa 03       		.byte	0x3
 16600 32fb 00000000 		.4byte	teclas2
 16601 32ff 1F       		.uleb128 0x1f
 16602 3300 87040000 		.4byte	.LASF77
 16603 3304 05       		.byte	0x5
 16604 3305 5F       		.byte	0x5f
 16605 3306 81000000 		.4byte	0x81
ARM GAS  C:\Users\RECEPC~1\AppData\Local\Temp\ccNG63cQ.s 			page 335


 16606 330a 05       		.uleb128 0x5
 16607 330b 03       		.byte	0x3
 16608 330c 00000000 		.4byte	comas1
 16609 3310 1F       		.uleb128 0x1f
 16610 3311 8E040000 		.4byte	.LASF78
 16611 3315 05       		.byte	0x5
 16612 3316 5F       		.byte	0x5f
 16613 3317 81000000 		.4byte	0x81
 16614 331b 05       		.uleb128 0x5
 16615 331c 03       		.byte	0x3
 16616 331d 00000000 		.4byte	comas2
 16617 3321 1F       		.uleb128 0x1f
 16618 3322 6C000000 		.4byte	.LASF79
 16619 3326 05       		.byte	0x5
 16620 3327 60       		.byte	0x60
 16621 3328 81000000 		.4byte	0x81
 16622 332c 05       		.uleb128 0x5
 16623 332d 03       		.byte	0x3
 16624 332e 00000000 		.4byte	version
 16625 3332 1F       		.uleb128 0x1f
 16626 3333 42000000 		.4byte	.LASF80
 16627 3337 05       		.byte	0x5
 16628 3338 61       		.byte	0x61
 16629 3339 81000000 		.4byte	0x81
 16630 333d 05       		.uleb128 0x5
 16631 333e 03       		.byte	0x3
 16632 333f 00000000 		.4byte	versurt
 16633 3343 1F       		.uleb128 0x1f
 16634 3344 B7040000 		.4byte	.LASF81
 16635 3348 05       		.byte	0x5
 16636 3349 62       		.byte	0x62
 16637 334a 81000000 		.4byte	0x81
 16638 334e 05       		.uleb128 0x5
 16639 334f 03       		.byte	0x3
 16640 3350 00000000 		.4byte	extra
 16641 3354 1F       		.uleb128 0x1f
 16642 3355 9B000000 		.4byte	.LASF82
 16643 3359 05       		.byte	0x5
 16644 335a 62       		.byte	0x62
 16645 335b 81000000 		.4byte	0x81
 16646 335f 05       		.uleb128 0x5
 16647 3360 03       		.byte	0x3
 16648 3361 00000000 		.4byte	diesel
 16649 3365 1F       		.uleb128 0x1f
 16650 3366 EF010000 		.4byte	.LASF83
 16651 336a 05       		.byte	0x5
 16652 336b 62       		.byte	0x62
 16653 336c 81000000 		.4byte	0x81
 16654 3370 05       		.uleb128 0x5
 16655 3371 03       		.byte	0x3
 16656 3372 00000000 		.4byte	corriente
 16657 3376 1F       		.uleb128 0x1f
 16658 3377 BF050000 		.4byte	.LASF84
 16659 337b 05       		.byte	0x5
 16660 337c 62       		.byte	0x62
 16661 337d 81000000 		.4byte	0x81
 16662 3381 05       		.uleb128 0x5
ARM GAS  C:\Users\RECEPC~1\AppData\Local\Temp\ccNG63cQ.s 			page 336


 16663 3382 03       		.byte	0x3
 16664 3383 00000000 		.4byte	kero
 16665 3387 1F       		.uleb128 0x1f
 16666 3388 21020000 		.4byte	.LASF85
 16667 338c 05       		.byte	0x5
 16668 338d 62       		.byte	0x62
 16669 338e 81000000 		.4byte	0x81
 16670 3392 05       		.uleb128 0x5
 16671 3393 03       		.byte	0x3
 16672 3394 00000000 		.4byte	extra2
 16673 3398 1F       		.uleb128 0x1f
 16674 3399 74000000 		.4byte	.LASF86
 16675 339d 05       		.byte	0x5
 16676 339e 62       		.byte	0x62
 16677 339f 81000000 		.4byte	0x81
 16678 33a3 05       		.uleb128 0x5
 16679 33a4 03       		.byte	0x3
 16680 33a5 00000000 		.4byte	corriente2
 16681 33a9 1F       		.uleb128 0x1f
 16682 33aa BF000000 		.4byte	.LASF87
 16683 33ae 05       		.byte	0x5
 16684 33af 62       		.byte	0x62
 16685 33b0 81000000 		.4byte	0x81
 16686 33b4 05       		.uleb128 0x5
 16687 33b5 03       		.byte	0x3
 16688 33b6 00000000 		.4byte	diesel2
 16689 33ba 1F       		.uleb128 0x1f
 16690 33bb C0020000 		.4byte	.LASF88
 16691 33bf 05       		.byte	0x5
 16692 33c0 62       		.byte	0x62
 16693 33c1 81000000 		.4byte	0x81
 16694 33c5 05       		.uleb128 0x5
 16695 33c6 03       		.byte	0x3
 16696 33c7 00000000 		.4byte	kero2
 16697 33cb 08       		.uleb128 0x8
 16698 33cc 81000000 		.4byte	0x81
 16699 33d0 DB330000 		.4byte	0x33db
 16700 33d4 09       		.uleb128 0x9
 16701 33d5 B7000000 		.4byte	0xb7
 16702 33d9 3F       		.byte	0x3f
 16703 33da 00       		.byte	0
 16704 33db 1F       		.uleb128 0x1f
 16705 33dc 4F010000 		.4byte	.LASF89
 16706 33e0 05       		.byte	0x5
 16707 33e1 63       		.byte	0x63
 16708 33e2 CB330000 		.4byte	0x33cb
 16709 33e6 05       		.uleb128 0x5
 16710 33e7 03       		.byte	0x3
 16711 33e8 00000000 		.4byte	buffer_i2c
 16712 33ec 1F       		.uleb128 0x1f
 16713 33ed 34010000 		.4byte	.LASF90
 16714 33f1 05       		.byte	0x5
 16715 33f2 64       		.byte	0x64
 16716 33f3 15300000 		.4byte	0x3015
 16717 33f7 05       		.uleb128 0x5
 16718 33f8 03       		.byte	0x3
 16719 33f9 00000000 		.4byte	resultado
ARM GAS  C:\Users\RECEPC~1\AppData\Local\Temp\ccNG63cQ.s 			page 337


 16720 33fd 1F       		.uleb128 0x1f
 16721 33fe 87010000 		.4byte	.LASF91
 16722 3402 05       		.byte	0x5
 16723 3403 65       		.byte	0x65
 16724 3404 81000000 		.4byte	0x81
 16725 3408 05       		.uleb128 0x5
 16726 3409 03       		.byte	0x3
 16727 340a 00000000 		.4byte	teclado
 16728 340e 1F       		.uleb128 0x1f
 16729 340f 92000000 		.4byte	.LASF92
 16730 3413 05       		.byte	0x5
 16731 3414 65       		.byte	0x65
 16732 3415 81000000 		.4byte	0x81
 16733 3419 05       		.uleb128 0x5
 16734 341a 03       		.byte	0x3
 16735 341b 00000000 		.4byte	teclado2
 16736 341f 1F       		.uleb128 0x1f
 16737 3420 17040000 		.4byte	.LASF93
 16738 3424 05       		.byte	0x5
 16739 3425 66       		.byte	0x66
 16740 3426 81000000 		.4byte	0x81
 16741 342a 05       		.uleb128 0x5
 16742 342b 03       		.byte	0x3
 16743 342c 00000000 		.4byte	ppux10
 16744 3430 1F       		.uleb128 0x1f
 16745 3431 FB040000 		.4byte	.LASF94
 16746 3435 05       		.byte	0x5
 16747 3436 67       		.byte	0x67
 16748 3437 F8020000 		.4byte	0x2f8
 16749 343b 05       		.uleb128 0x5
 16750 343c 03       		.byte	0x3
 16751 343d 00000000 		.4byte	bandera
 16752 3441 1F       		.uleb128 0x1f
 16753 3442 C4050000 		.4byte	.LASF95
 16754 3446 05       		.byte	0x5
 16755 3447 68       		.byte	0x68
 16756 3448 F8020000 		.4byte	0x2f8
 16757 344c 05       		.uleb128 0x5
 16758 344d 03       		.byte	0x3
 16759 344e 00000000 		.4byte	tipo_imp
 16760 3452 1F       		.uleb128 0x1f
 16761 3453 8F050000 		.4byte	.LASF96
 16762 3457 05       		.byte	0x5
 16763 3458 69       		.byte	0x69
 16764 3459 81000000 		.4byte	0x81
 16765 345d 05       		.uleb128 0x5
 16766 345e 03       		.byte	0x3
 16767 345f 00000000 		.4byte	decimalV
 16768 3463 1F       		.uleb128 0x1f
 16769 3464 0E010000 		.4byte	.LASF97
 16770 3468 05       		.byte	0x5
 16771 3469 6A       		.byte	0x6a
 16772 346a 81000000 		.4byte	0x81
 16773 346e 05       		.uleb128 0x5
 16774 346f 03       		.byte	0x3
 16775 3470 00000000 		.4byte	decimalD
 16776 3474 08       		.uleb128 0x8
ARM GAS  C:\Users\RECEPC~1\AppData\Local\Temp\ccNG63cQ.s 			page 338


 16777 3475 81000000 		.4byte	0x81
 16778 3479 84340000 		.4byte	0x3484
 16779 347d 09       		.uleb128 0x9
 16780 347e B7000000 		.4byte	0xb7
 16781 3482 05       		.byte	0x5
 16782 3483 00       		.byte	0
 16783 3484 1F       		.uleb128 0x1f
 16784 3485 68020000 		.4byte	.LASF98
 16785 3489 05       		.byte	0x5
 16786 348a 6B       		.byte	0x6b
 16787 348b 74340000 		.4byte	0x3474
 16788 348f 05       		.uleb128 0x5
 16789 3490 03       		.byte	0x3
 16790 3491 00000000 		.4byte	fecha_corte
 16791 3495 1F       		.uleb128 0x1f
 16792 3496 39040000 		.4byte	.LASF99
 16793 349a 05       		.byte	0x5
 16794 349b 6C       		.byte	0x6c
 16795 349c 81000000 		.4byte	0x81
 16796 34a0 05       		.uleb128 0x5
 16797 34a1 03       		.byte	0x3
 16798 34a2 00000000 		.4byte	pos_ibutton
 16799 34a6 1F       		.uleb128 0x1f
 16800 34a7 25040000 		.4byte	.LASF100
 16801 34ab 05       		.byte	0x5
 16802 34ac 6D       		.byte	0x6d
 16803 34ad 81000000 		.4byte	0x81
 16804 34b1 05       		.uleb128 0x5
 16805 34b2 03       		.byte	0x3
 16806 34b3 00000000 		.4byte	crc_total
 16807 34b7 1F       		.uleb128 0x1f
 16808 34b8 95020000 		.4byte	.LASF101
 16809 34bc 05       		.byte	0x5
 16810 34bd 6E       		.byte	0x6e
 16811 34be F8020000 		.4byte	0x2f8
 16812 34c2 05       		.uleb128 0x5
 16813 34c3 03       		.byte	0x3
 16814 34c4 00000000 		.4byte	print1
 16815 34c8 1F       		.uleb128 0x1f
 16816 34c9 9C020000 		.4byte	.LASF102
 16817 34cd 05       		.byte	0x5
 16818 34ce 6E       		.byte	0x6e
 16819 34cf F8020000 		.4byte	0x2f8
 16820 34d3 05       		.uleb128 0x5
 16821 34d4 03       		.byte	0x3
 16822 34d5 00000000 		.4byte	print2
 16823 34d9 1F       		.uleb128 0x1f
 16824 34da 58040000 		.4byte	.LASF103
 16825 34de 05       		.byte	0x5
 16826 34df 6F       		.byte	0x6f
 16827 34e0 F8020000 		.4byte	0x2f8
 16828 34e4 05       		.uleb128 0x5
 16829 34e5 03       		.byte	0x3
 16830 34e6 00000000 		.4byte	copia_recibo
 16831 34ea 1F       		.uleb128 0x1f
 16832 34eb 65030000 		.4byte	.LASF104
 16833 34ef 05       		.byte	0x5
ARM GAS  C:\Users\RECEPC~1\AppData\Local\Temp\ccNG63cQ.s 			page 339


 16834 34f0 70       		.byte	0x70
 16835 34f1 8C000000 		.4byte	0x8c
 16836 34f5 05       		.uleb128 0x5
 16837 34f6 03       		.byte	0x3
 16838 34f7 00000000 		.4byte	id_corte
 16839 34fb 1F       		.uleb128 0x1f
 16840 34fc 28020000 		.4byte	.LASF105
 16841 3500 05       		.byte	0x5
 16842 3501 71       		.byte	0x71
 16843 3502 74340000 		.4byte	0x3474
 16844 3506 05       		.uleb128 0x5
 16845 3507 03       		.byte	0x3
 16846 3508 00000000 		.4byte	id_venta
 16847 350c 1F       		.uleb128 0x1f
 16848 350d F9010000 		.4byte	.LASF106
 16849 3511 05       		.byte	0x5
 16850 3512 72       		.byte	0x72
 16851 3513 1D350000 		.4byte	0x351d
 16852 3517 05       		.uleb128 0x5
 16853 3518 03       		.byte	0x3
 16854 3519 00000000 		.4byte	no_venta
 16855 351d 1E       		.uleb128 0x1e
 16856 351e 68000000 		.4byte	0x68
 16857 3522 1F       		.uleb128 0x1f
 16858 3523 7C030000 		.4byte	.LASF107
 16859 3527 05       		.byte	0x5
 16860 3528 8F       		.byte	0x8f
 16861 3529 BE000000 		.4byte	0xbe
 16862 352d 05       		.uleb128 0x5
 16863 352e 03       		.byte	0x3
 16864 352f 00000000 		.4byte	Buffer_LCD1
 16865 3533 1F       		.uleb128 0x1f
 16866 3534 C6020000 		.4byte	.LASF108
 16867 3538 05       		.byte	0x5
 16868 3539 90       		.byte	0x90
 16869 353a BE000000 		.4byte	0xbe
 16870 353e 05       		.uleb128 0x5
 16871 353f 03       		.byte	0x3
 16872 3540 00000000 		.4byte	Buffer_LCD2
 16873 3544 1F       		.uleb128 0x1f
 16874 3545 AE040000 		.4byte	.LASF109
 16875 3549 05       		.byte	0x5
 16876 354a 93       		.byte	0x93
 16877 354b 81000000 		.4byte	0x81
 16878 354f 05       		.uleb128 0x5
 16879 3550 03       		.byte	0x3
 16880 3551 00000000 		.4byte	estado_0
 16881 3555 20       		.uleb128 0x20
 16882 3556 7800     		.ascii	"x\000"
 16883 3558 05       		.byte	0x5
 16884 3559 B6       		.byte	0xb6
 16885 355a 97000000 		.4byte	0x97
 16886 355e 05       		.uleb128 0x5
 16887 355f 03       		.byte	0x3
 16888 3560 00000000 		.4byte	x
 16889 3564 20       		.uleb128 0x20
 16890 3565 7900     		.ascii	"y\000"
ARM GAS  C:\Users\RECEPC~1\AppData\Local\Temp\ccNG63cQ.s 			page 340


 16891 3567 05       		.byte	0x5
 16892 3568 B6       		.byte	0xb6
 16893 3569 97000000 		.4byte	0x97
 16894 356d 05       		.uleb128 0x5
 16895 356e 03       		.byte	0x3
 16896 356f 00000000 		.4byte	y
 16897 3573 20       		.uleb128 0x20
 16898 3574 7A00     		.ascii	"z\000"
 16899 3576 05       		.byte	0x5
 16900 3577 B6       		.byte	0xb6
 16901 3578 97000000 		.4byte	0x97
 16902 357c 05       		.uleb128 0x5
 16903 357d 03       		.byte	0x3
 16904 357e 00000000 		.4byte	z
 16905 3582 20       		.uleb128 0x20
 16906 3583 7700     		.ascii	"w\000"
 16907 3585 05       		.byte	0x5
 16908 3586 B6       		.byte	0xb6
 16909 3587 97000000 		.4byte	0x97
 16910 358b 05       		.uleb128 0x5
 16911 358c 03       		.byte	0x3
 16912 358d 00000000 		.4byte	w
 16913 3591 08       		.uleb128 0x8
 16914 3592 81000000 		.4byte	0x81
 16915 3596 A7350000 		.4byte	0x35a7
 16916 359a 09       		.uleb128 0x9
 16917 359b B7000000 		.4byte	0xb7
 16918 359f 01       		.byte	0x1
 16919 35a0 09       		.uleb128 0x9
 16920 35a1 B7000000 		.4byte	0xb7
 16921 35a5 C7       		.byte	0xc7
 16922 35a6 00       		.byte	0
 16923 35a7 1F       		.uleb128 0x1f
 16924 35a8 8E020000 		.4byte	.LASF110
 16925 35ac 05       		.byte	0x5
 16926 35ad B7       		.byte	0xb7
 16927 35ae 91350000 		.4byte	0x3591
 16928 35b2 05       		.uleb128 0x5
 16929 35b3 03       		.byte	0x3
 16930 35b4 00000000 		.4byte	modulo
 16931 35b8 1F       		.uleb128 0x1f
 16932 35b9 9A040000 		.4byte	.LASF111
 16933 35bd 05       		.byte	0x5
 16934 35be B8       		.byte	0xb8
 16935 35bf 81000000 		.4byte	0x81
 16936 35c3 05       		.uleb128 0x5
 16937 35c4 03       		.byte	0x3
 16938 35c5 00000000 		.4byte	producto1
 16939 35c9 1F       		.uleb128 0x1f
 16940 35ca A4040000 		.4byte	.LASF112
 16941 35ce 05       		.byte	0x5
 16942 35cf B8       		.byte	0xb8
 16943 35d0 81000000 		.4byte	0x81
 16944 35d4 05       		.uleb128 0x5
 16945 35d5 03       		.byte	0x3
 16946 35d6 00000000 		.4byte	producto2
 16947 35da 1F       		.uleb128 0x1f
ARM GAS  C:\Users\RECEPC~1\AppData\Local\Temp\ccNG63cQ.s 			page 341


 16948 35db E0020000 		.4byte	.LASF43
 16949 35df 05       		.byte	0x5
 16950 35e0 B8       		.byte	0xb8
 16951 35e1 81000000 		.4byte	0x81
 16952 35e5 05       		.uleb128 0x5
 16953 35e6 03       		.byte	0x3
 16954 35e7 00000000 		.4byte	producto
 16955 35eb 1F       		.uleb128 0x1f
 16956 35ec 2D000000 		.4byte	.LASF113
 16957 35f0 05       		.byte	0x5
 16958 35f1 B9       		.byte	0xb9
 16959 35f2 E2010000 		.4byte	0x1e2
 16960 35f6 05       		.uleb128 0x5
 16961 35f7 03       		.byte	0x3
 16962 35f8 00000000 		.4byte	lado
 16963 35fc 1F       		.uleb128 0x1f
 16964 35fd D6050000 		.4byte	.LASF114
 16965 3601 05       		.byte	0x5
 16966 3602 BA       		.byte	0xba
 16967 3603 03020000 		.4byte	0x203
 16968 3607 05       		.uleb128 0x5
 16969 3608 03       		.byte	0x3
 16970 3609 00000000 		.4byte	rventa
 16971 360d 1F       		.uleb128 0x1f
 16972 360e 06010000 		.4byte	.LASF115
 16973 3612 05       		.byte	0x5
 16974 3613 BB       		.byte	0xbb
 16975 3614 03020000 		.4byte	0x203
 16976 3618 05       		.uleb128 0x5
 16977 3619 03       		.byte	0x3
 16978 361a 00000000 		.4byte	rventa2
 16979 361e 08       		.uleb128 0x8
 16980 361f 81000000 		.4byte	0x81
 16981 3623 2E360000 		.4byte	0x362e
 16982 3627 09       		.uleb128 0x9
 16983 3628 B7000000 		.4byte	0xb7
 16984 362c 10       		.byte	0x10
 16985 362d 00       		.byte	0
 16986 362e 1F       		.uleb128 0x1f
 16987 362f B0010000 		.4byte	.LASF116
 16988 3633 01       		.byte	0x1
 16989 3634 2F       		.byte	0x2f
 16990 3635 1E360000 		.4byte	0x361e
 16991 3639 05       		.uleb128 0x5
 16992 363a 03       		.byte	0x3
 16993 363b 00000000 		.4byte	msn_tc
 16994 363f 1F       		.uleb128 0x1f
 16995 3640 BE010000 		.4byte	.LASF117
 16996 3644 01       		.byte	0x1
 16997 3645 30       		.byte	0x30
 16998 3646 28030000 		.4byte	0x328
 16999 364a 05       		.uleb128 0x5
 17000 364b 03       		.byte	0x3
 17001 364c 00000000 		.4byte	msn_te
 17002 3650 1F       		.uleb128 0x1f
 17003 3651 B7010000 		.4byte	.LASF118
 17004 3655 01       		.byte	0x1
ARM GAS  C:\Users\RECEPC~1\AppData\Local\Temp\ccNG63cQ.s 			page 342


 17005 3656 31       		.byte	0x31
 17006 3657 15300000 		.4byte	0x3015
 17007 365b 05       		.uleb128 0x5
 17008 365c 03       		.byte	0x3
 17009 365d 00000000 		.4byte	msn_td
 17010 3661 1F       		.uleb128 0x1f
 17011 3662 C5010000 		.4byte	.LASF119
 17012 3666 01       		.byte	0x1
 17013 3667 32       		.byte	0x32
 17014 3668 85010000 		.4byte	0x185
 17015 366c 05       		.uleb128 0x5
 17016 366d 03       		.byte	0x3
 17017 366e 00000000 		.4byte	msn_tk
 17018 3672 1F       		.uleb128 0x1f
 17019 3673 3A020000 		.4byte	.LASF120
 17020 3677 01       		.byte	0x1
 17021 3678 33       		.byte	0x33
 17022 3679 E8020000 		.4byte	0x2e8
 17023 367d 05       		.uleb128 0x5
 17024 367e 03       		.byte	0x3
 17025 367f 00000000 		.4byte	msn_lecact
 17026 3683 1F       		.uleb128 0x1f
 17027 3684 44010000 		.4byte	.LASF121
 17028 3688 01       		.byte	0x1
 17029 3689 34       		.byte	0x34
 17030 368a 1E360000 		.4byte	0x361e
 17031 368e 05       		.uleb128 0x5
 17032 368f 03       		.byte	0x3
 17033 3690 00000000 		.4byte	msn_lecaan
 17034 3694 1F       		.uleb128 0x1f
 17035 3695 A4010000 		.4byte	.LASF122
 17036 3699 01       		.byte	0x1
 17037 369a 35       		.byte	0x35
 17038 369b 67310000 		.4byte	0x3167
 17039 369f 05       		.uleb128 0x5
 17040 36a0 03       		.byte	0x3
 17041 36a1 00000000 		.4byte	msn_tventas
 17042 36a5 1F       		.uleb128 0x1f
 17043 36a6 5E000000 		.4byte	.LASF123
 17044 36aa 01       		.byte	0x1
 17045 36ab 36       		.byte	0x36
 17046 36ac E8020000 		.4byte	0x2e8
 17047 36b0 05       		.uleb128 0x5
 17048 36b1 03       		.byte	0x3
 17049 36b2 00000000 		.4byte	msn_totalcero
 17050 36b6 21       		.uleb128 0x21
 17051 36b7 7E050000 		.4byte	.LASF124
 17052 36bb 06       		.byte	0x6
 17053 36bc 9F       		.byte	0x9f
 17054 36bd C7360000 		.4byte	0x36c7
 17055 36c1 22       		.uleb128 0x22
 17056 36c2 81000000 		.4byte	0x81
 17057 36c6 00       		.byte	0
 17058 36c7 21       		.uleb128 0x21
 17059 36c8 7F020000 		.4byte	.LASF125
 17060 36cc 08       		.byte	0x8
 17061 36cd 77       		.byte	0x77
ARM GAS  C:\Users\RECEPC~1\AppData\Local\Temp\ccNG63cQ.s 			page 343


 17062 36ce D8360000 		.4byte	0x36d8
 17063 36d2 22       		.uleb128 0x22
 17064 36d3 97000000 		.4byte	0x97
 17065 36d7 00       		.byte	0
 17066 36d8 23       		.uleb128 0x23
 17067 36d9 DC000000 		.4byte	.LASF126
 17068 36dd 06       		.byte	0x6
 17069 36de 8A       		.byte	0x8a
 17070 36df 8C000000 		.4byte	0x8c
 17071 36e3 24       		.uleb128 0x24
 17072 36e4 A9020000 		.4byte	.LASF137
 17073 36e8 06       		.byte	0x6
 17074 36e9 8C       		.byte	0x8c
 17075 36ea 23       		.uleb128 0x23
 17076 36eb 45030000 		.4byte	.LASF127
 17077 36ef 06       		.byte	0x6
 17078 36f0 86       		.byte	0x86
 17079 36f1 81000000 		.4byte	0x81
 17080 36f5 25       		.uleb128 0x25
 17081 36f6 B2000000 		.4byte	.LASF128
 17082 36fa 09       		.byte	0x9
 17083 36fb 25       		.byte	0x25
 17084 36fc 81000000 		.4byte	0x81
 17085 3700 0F370000 		.4byte	0x370f
 17086 3704 22       		.uleb128 0x22
 17087 3705 8C000000 		.4byte	0x8c
 17088 3709 22       		.uleb128 0x22
 17089 370a 61310000 		.4byte	0x3161
 17090 370e 00       		.byte	0
 17091 370f 25       		.uleb128 0x25
 17092 3710 21010000 		.4byte	.LASF129
 17093 3714 09       		.byte	0x9
 17094 3715 27       		.byte	0x27
 17095 3716 81000000 		.4byte	0x81
 17096 371a 29370000 		.4byte	0x3729
 17097 371e 22       		.uleb128 0x22
 17098 371f 81000000 		.4byte	0x81
 17099 3723 22       		.uleb128 0x22
 17100 3724 81000000 		.4byte	0x81
 17101 3728 00       		.byte	0
 17102 3729 21       		.uleb128 0x21
 17103 372a 98050000 		.4byte	.LASF130
 17104 372e 0A       		.byte	0xa
 17105 372f 29       		.byte	0x29
 17106 3730 3F370000 		.4byte	0x373f
 17107 3734 22       		.uleb128 0x22
 17108 3735 81000000 		.4byte	0x81
 17109 3739 22       		.uleb128 0x22
 17110 373a 81000000 		.4byte	0x81
 17111 373e 00       		.byte	0
 17112 373f 25       		.uleb128 0x25
 17113 3740 8F030000 		.4byte	.LASF131
 17114 3744 09       		.byte	0x9
 17115 3745 26       		.byte	0x26
 17116 3746 81000000 		.4byte	0x81
 17117 374a 59370000 		.4byte	0x3759
 17118 374e 22       		.uleb128 0x22
ARM GAS  C:\Users\RECEPC~1\AppData\Local\Temp\ccNG63cQ.s 			page 344


 17119 374f 8C000000 		.4byte	0x8c
 17120 3753 22       		.uleb128 0x22
 17121 3754 81000000 		.4byte	0x81
 17122 3758 00       		.byte	0
 17123 3759 21       		.uleb128 0x21
 17124 375a 45020000 		.4byte	.LASF132
 17125 375e 0A       		.byte	0xa
 17126 375f 26       		.byte	0x26
 17127 3760 6A370000 		.4byte	0x376a
 17128 3764 22       		.uleb128 0x22
 17129 3765 81000000 		.4byte	0x81
 17130 3769 00       		.byte	0
 17131 376a 21       		.uleb128 0x21
 17132 376b 5A010000 		.4byte	.LASF133
 17133 376f 0A       		.byte	0xa
 17134 3770 28       		.byte	0x28
 17135 3771 85370000 		.4byte	0x3785
 17136 3775 22       		.uleb128 0x22
 17137 3776 81000000 		.4byte	0x81
 17138 377a 22       		.uleb128 0x22
 17139 377b 61310000 		.4byte	0x3161
 17140 377f 22       		.uleb128 0x22
 17141 3780 61310000 		.4byte	0x3161
 17142 3784 00       		.byte	0
 17143 3785 26       		.uleb128 0x26
 17144 3786 03050000 		.4byte	.LASF138
 17145 378a 0A       		.byte	0xa
 17146 378b 2A       		.byte	0x2a
 17147 378c 22       		.uleb128 0x22
 17148 378d 61310000 		.4byte	0x3161
 17149 3791 22       		.uleb128 0x22
 17150 3792 81000000 		.4byte	0x81
 17151 3796 00       		.byte	0
 17152 3797 00       		.byte	0
 17153              		.section	.debug_abbrev,"",%progbits
 17154              	.Ldebug_abbrev0:
 17155 0000 01       		.uleb128 0x1
 17156 0001 11       		.uleb128 0x11
 17157 0002 01       		.byte	0x1
 17158 0003 25       		.uleb128 0x25
 17159 0004 0E       		.uleb128 0xe
 17160 0005 13       		.uleb128 0x13
 17161 0006 0B       		.uleb128 0xb
 17162 0007 03       		.uleb128 0x3
 17163 0008 0E       		.uleb128 0xe
 17164 0009 1B       		.uleb128 0x1b
 17165 000a 0E       		.uleb128 0xe
 17166 000b 55       		.uleb128 0x55
 17167 000c 17       		.uleb128 0x17
 17168 000d 11       		.uleb128 0x11
 17169 000e 01       		.uleb128 0x1
 17170 000f 10       		.uleb128 0x10
 17171 0010 17       		.uleb128 0x17
 17172 0011 00       		.byte	0
 17173 0012 00       		.byte	0
 17174 0013 02       		.uleb128 0x2
 17175 0014 24       		.uleb128 0x24
ARM GAS  C:\Users\RECEPC~1\AppData\Local\Temp\ccNG63cQ.s 			page 345


 17176 0015 00       		.byte	0
 17177 0016 0B       		.uleb128 0xb
 17178 0017 0B       		.uleb128 0xb
 17179 0018 3E       		.uleb128 0x3e
 17180 0019 0B       		.uleb128 0xb
 17181 001a 03       		.uleb128 0x3
 17182 001b 0E       		.uleb128 0xe
 17183 001c 00       		.byte	0
 17184 001d 00       		.byte	0
 17185 001e 03       		.uleb128 0x3
 17186 001f 16       		.uleb128 0x16
 17187 0020 00       		.byte	0
 17188 0021 03       		.uleb128 0x3
 17189 0022 0E       		.uleb128 0xe
 17190 0023 3A       		.uleb128 0x3a
 17191 0024 0B       		.uleb128 0xb
 17192 0025 3B       		.uleb128 0x3b
 17193 0026 0B       		.uleb128 0xb
 17194 0027 49       		.uleb128 0x49
 17195 0028 13       		.uleb128 0x13
 17196 0029 00       		.byte	0
 17197 002a 00       		.byte	0
 17198 002b 04       		.uleb128 0x4
 17199 002c 24       		.uleb128 0x24
 17200 002d 00       		.byte	0
 17201 002e 0B       		.uleb128 0xb
 17202 002f 0B       		.uleb128 0xb
 17203 0030 3E       		.uleb128 0x3e
 17204 0031 0B       		.uleb128 0xb
 17205 0032 03       		.uleb128 0x3
 17206 0033 08       		.uleb128 0x8
 17207 0034 00       		.byte	0
 17208 0035 00       		.byte	0
 17209 0036 05       		.uleb128 0x5
 17210 0037 13       		.uleb128 0x13
 17211 0038 01       		.byte	0x1
 17212 0039 03       		.uleb128 0x3
 17213 003a 0E       		.uleb128 0xe
 17214 003b 0B       		.uleb128 0xb
 17215 003c 0B       		.uleb128 0xb
 17216 003d 3A       		.uleb128 0x3a
 17217 003e 0B       		.uleb128 0xb
 17218 003f 3B       		.uleb128 0x3b
 17219 0040 0B       		.uleb128 0xb
 17220 0041 01       		.uleb128 0x1
 17221 0042 13       		.uleb128 0x13
 17222 0043 00       		.byte	0
 17223 0044 00       		.byte	0
 17224 0045 06       		.uleb128 0x6
 17225 0046 0D       		.uleb128 0xd
 17226 0047 00       		.byte	0
 17227 0048 03       		.uleb128 0x3
 17228 0049 0E       		.uleb128 0xe
 17229 004a 3A       		.uleb128 0x3a
 17230 004b 0B       		.uleb128 0xb
 17231 004c 3B       		.uleb128 0x3b
 17232 004d 0B       		.uleb128 0xb
ARM GAS  C:\Users\RECEPC~1\AppData\Local\Temp\ccNG63cQ.s 			page 346


 17233 004e 49       		.uleb128 0x49
 17234 004f 13       		.uleb128 0x13
 17235 0050 38       		.uleb128 0x38
 17236 0051 0B       		.uleb128 0xb
 17237 0052 00       		.byte	0
 17238 0053 00       		.byte	0
 17239 0054 07       		.uleb128 0x7
 17240 0055 0D       		.uleb128 0xd
 17241 0056 00       		.byte	0
 17242 0057 03       		.uleb128 0x3
 17243 0058 08       		.uleb128 0x8
 17244 0059 3A       		.uleb128 0x3a
 17245 005a 0B       		.uleb128 0xb
 17246 005b 3B       		.uleb128 0x3b
 17247 005c 0B       		.uleb128 0xb
 17248 005d 49       		.uleb128 0x49
 17249 005e 13       		.uleb128 0x13
 17250 005f 38       		.uleb128 0x38
 17251 0060 0B       		.uleb128 0xb
 17252 0061 00       		.byte	0
 17253 0062 00       		.byte	0
 17254 0063 08       		.uleb128 0x8
 17255 0064 01       		.uleb128 0x1
 17256 0065 01       		.byte	0x1
 17257 0066 49       		.uleb128 0x49
 17258 0067 13       		.uleb128 0x13
 17259 0068 01       		.uleb128 0x1
 17260 0069 13       		.uleb128 0x13
 17261 006a 00       		.byte	0
 17262 006b 00       		.byte	0
 17263 006c 09       		.uleb128 0x9
 17264 006d 21       		.uleb128 0x21
 17265 006e 00       		.byte	0
 17266 006f 49       		.uleb128 0x49
 17267 0070 13       		.uleb128 0x13
 17268 0071 2F       		.uleb128 0x2f
 17269 0072 0B       		.uleb128 0xb
 17270 0073 00       		.byte	0
 17271 0074 00       		.byte	0
 17272 0075 0A       		.uleb128 0xa
 17273 0076 13       		.uleb128 0x13
 17274 0077 01       		.byte	0x1
 17275 0078 03       		.uleb128 0x3
 17276 0079 08       		.uleb128 0x8
 17277 007a 0B       		.uleb128 0xb
 17278 007b 0B       		.uleb128 0xb
 17279 007c 3A       		.uleb128 0x3a
 17280 007d 0B       		.uleb128 0xb
 17281 007e 3B       		.uleb128 0x3b
 17282 007f 0B       		.uleb128 0xb
 17283 0080 01       		.uleb128 0x1
 17284 0081 13       		.uleb128 0x13
 17285 0082 00       		.byte	0
 17286 0083 00       		.byte	0
 17287 0084 0B       		.uleb128 0xb
 17288 0085 2E       		.uleb128 0x2e
 17289 0086 01       		.byte	0x1
ARM GAS  C:\Users\RECEPC~1\AppData\Local\Temp\ccNG63cQ.s 			page 347


 17290 0087 3F       		.uleb128 0x3f
 17291 0088 19       		.uleb128 0x19
 17292 0089 03       		.uleb128 0x3
 17293 008a 0E       		.uleb128 0xe
 17294 008b 3A       		.uleb128 0x3a
 17295 008c 0B       		.uleb128 0xb
 17296 008d 3B       		.uleb128 0x3b
 17297 008e 0B       		.uleb128 0xb
 17298 008f 27       		.uleb128 0x27
 17299 0090 19       		.uleb128 0x19
 17300 0091 49       		.uleb128 0x49
 17301 0092 13       		.uleb128 0x13
 17302 0093 11       		.uleb128 0x11
 17303 0094 01       		.uleb128 0x1
 17304 0095 12       		.uleb128 0x12
 17305 0096 06       		.uleb128 0x6
 17306 0097 40       		.uleb128 0x40
 17307 0098 18       		.uleb128 0x18
 17308 0099 9742     		.uleb128 0x2117
 17309 009b 19       		.uleb128 0x19
 17310 009c 01       		.uleb128 0x1
 17311 009d 13       		.uleb128 0x13
 17312 009e 00       		.byte	0
 17313 009f 00       		.byte	0
 17314 00a0 0C       		.uleb128 0xc
 17315 00a1 34       		.uleb128 0x34
 17316 00a2 00       		.byte	0
 17317 00a3 03       		.uleb128 0x3
 17318 00a4 08       		.uleb128 0x8
 17319 00a5 3A       		.uleb128 0x3a
 17320 00a6 0B       		.uleb128 0xb
 17321 00a7 3B       		.uleb128 0x3b
 17322 00a8 0B       		.uleb128 0xb
 17323 00a9 49       		.uleb128 0x49
 17324 00aa 13       		.uleb128 0x13
 17325 00ab 02       		.uleb128 0x2
 17326 00ac 17       		.uleb128 0x17
 17327 00ad 00       		.byte	0
 17328 00ae 00       		.byte	0
 17329 00af 0D       		.uleb128 0xd
 17330 00b0 898201   		.uleb128 0x4109
 17331 00b3 01       		.byte	0x1
 17332 00b4 11       		.uleb128 0x11
 17333 00b5 01       		.uleb128 0x1
 17334 00b6 31       		.uleb128 0x31
 17335 00b7 13       		.uleb128 0x13
 17336 00b8 01       		.uleb128 0x1
 17337 00b9 13       		.uleb128 0x13
 17338 00ba 00       		.byte	0
 17339 00bb 00       		.byte	0
 17340 00bc 0E       		.uleb128 0xe
 17341 00bd 8A8201   		.uleb128 0x410a
 17342 00c0 00       		.byte	0
 17343 00c1 02       		.uleb128 0x2
 17344 00c2 18       		.uleb128 0x18
 17345 00c3 9142     		.uleb128 0x2111
 17346 00c5 18       		.uleb128 0x18
ARM GAS  C:\Users\RECEPC~1\AppData\Local\Temp\ccNG63cQ.s 			page 348


 17347 00c6 00       		.byte	0
 17348 00c7 00       		.byte	0
 17349 00c8 0F       		.uleb128 0xf
 17350 00c9 898201   		.uleb128 0x4109
 17351 00cc 00       		.byte	0
 17352 00cd 11       		.uleb128 0x11
 17353 00ce 01       		.uleb128 0x1
 17354 00cf 31       		.uleb128 0x31
 17355 00d0 13       		.uleb128 0x13
 17356 00d1 00       		.byte	0
 17357 00d2 00       		.byte	0
 17358 00d3 10       		.uleb128 0x10
 17359 00d4 05       		.uleb128 0x5
 17360 00d5 00       		.byte	0
 17361 00d6 03       		.uleb128 0x3
 17362 00d7 08       		.uleb128 0x8
 17363 00d8 3A       		.uleb128 0x3a
 17364 00d9 0B       		.uleb128 0xb
 17365 00da 3B       		.uleb128 0x3b
 17366 00db 0B       		.uleb128 0xb
 17367 00dc 49       		.uleb128 0x49
 17368 00dd 13       		.uleb128 0x13
 17369 00de 02       		.uleb128 0x2
 17370 00df 17       		.uleb128 0x17
 17371 00e0 00       		.byte	0
 17372 00e1 00       		.byte	0
 17373 00e2 11       		.uleb128 0x11
 17374 00e3 34       		.uleb128 0x34
 17375 00e4 00       		.byte	0
 17376 00e5 03       		.uleb128 0x3
 17377 00e6 0E       		.uleb128 0xe
 17378 00e7 3A       		.uleb128 0x3a
 17379 00e8 0B       		.uleb128 0xb
 17380 00e9 3B       		.uleb128 0x3b
 17381 00ea 0B       		.uleb128 0xb
 17382 00eb 49       		.uleb128 0x49
 17383 00ec 13       		.uleb128 0x13
 17384 00ed 02       		.uleb128 0x2
 17385 00ee 17       		.uleb128 0x17
 17386 00ef 00       		.byte	0
 17387 00f0 00       		.byte	0
 17388 00f1 12       		.uleb128 0x12
 17389 00f2 2E       		.uleb128 0x2e
 17390 00f3 01       		.byte	0x1
 17391 00f4 3F       		.uleb128 0x3f
 17392 00f5 19       		.uleb128 0x19
 17393 00f6 03       		.uleb128 0x3
 17394 00f7 0E       		.uleb128 0xe
 17395 00f8 3A       		.uleb128 0x3a
 17396 00f9 0B       		.uleb128 0xb
 17397 00fa 3B       		.uleb128 0x3b
 17398 00fb 0B       		.uleb128 0xb
 17399 00fc 27       		.uleb128 0x27
 17400 00fd 19       		.uleb128 0x19
 17401 00fe 11       		.uleb128 0x11
 17402 00ff 01       		.uleb128 0x1
 17403 0100 12       		.uleb128 0x12
ARM GAS  C:\Users\RECEPC~1\AppData\Local\Temp\ccNG63cQ.s 			page 349


 17404 0101 06       		.uleb128 0x6
 17405 0102 40       		.uleb128 0x40
 17406 0103 18       		.uleb128 0x18
 17407 0104 9742     		.uleb128 0x2117
 17408 0106 19       		.uleb128 0x19
 17409 0107 01       		.uleb128 0x1
 17410 0108 13       		.uleb128 0x13
 17411 0109 00       		.byte	0
 17412 010a 00       		.byte	0
 17413 010b 13       		.uleb128 0x13
 17414 010c 34       		.uleb128 0x34
 17415 010d 00       		.byte	0
 17416 010e 03       		.uleb128 0x3
 17417 010f 0E       		.uleb128 0xe
 17418 0110 3A       		.uleb128 0x3a
 17419 0111 0B       		.uleb128 0xb
 17420 0112 3B       		.uleb128 0x3b
 17421 0113 0B       		.uleb128 0xb
 17422 0114 49       		.uleb128 0x49
 17423 0115 13       		.uleb128 0x13
 17424 0116 00       		.byte	0
 17425 0117 00       		.byte	0
 17426 0118 14       		.uleb128 0x14
 17427 0119 34       		.uleb128 0x34
 17428 011a 00       		.byte	0
 17429 011b 03       		.uleb128 0x3
 17430 011c 0E       		.uleb128 0xe
 17431 011d 3A       		.uleb128 0x3a
 17432 011e 0B       		.uleb128 0xb
 17433 011f 3B       		.uleb128 0x3b
 17434 0120 0B       		.uleb128 0xb
 17435 0121 49       		.uleb128 0x49
 17436 0122 13       		.uleb128 0x13
 17437 0123 02       		.uleb128 0x2
 17438 0124 18       		.uleb128 0x18
 17439 0125 00       		.byte	0
 17440 0126 00       		.byte	0
 17441 0127 15       		.uleb128 0x15
 17442 0128 898201   		.uleb128 0x4109
 17443 012b 01       		.byte	0x1
 17444 012c 11       		.uleb128 0x11
 17445 012d 01       		.uleb128 0x1
 17446 012e 31       		.uleb128 0x31
 17447 012f 13       		.uleb128 0x13
 17448 0130 00       		.byte	0
 17449 0131 00       		.byte	0
 17450 0132 16       		.uleb128 0x16
 17451 0133 2E       		.uleb128 0x2e
 17452 0134 01       		.byte	0x1
 17453 0135 3F       		.uleb128 0x3f
 17454 0136 19       		.uleb128 0x19
 17455 0137 03       		.uleb128 0x3
 17456 0138 0E       		.uleb128 0xe
 17457 0139 3A       		.uleb128 0x3a
 17458 013a 0B       		.uleb128 0xb
 17459 013b 3B       		.uleb128 0x3b
 17460 013c 05       		.uleb128 0x5
ARM GAS  C:\Users\RECEPC~1\AppData\Local\Temp\ccNG63cQ.s 			page 350


 17461 013d 27       		.uleb128 0x27
 17462 013e 19       		.uleb128 0x19
 17463 013f 49       		.uleb128 0x49
 17464 0140 13       		.uleb128 0x13
 17465 0141 11       		.uleb128 0x11
 17466 0142 01       		.uleb128 0x1
 17467 0143 12       		.uleb128 0x12
 17468 0144 06       		.uleb128 0x6
 17469 0145 40       		.uleb128 0x40
 17470 0146 18       		.uleb128 0x18
 17471 0147 9742     		.uleb128 0x2117
 17472 0149 19       		.uleb128 0x19
 17473 014a 01       		.uleb128 0x1
 17474 014b 13       		.uleb128 0x13
 17475 014c 00       		.byte	0
 17476 014d 00       		.byte	0
 17477 014e 17       		.uleb128 0x17
 17478 014f 05       		.uleb128 0x5
 17479 0150 00       		.byte	0
 17480 0151 03       		.uleb128 0x3
 17481 0152 08       		.uleb128 0x8
 17482 0153 3A       		.uleb128 0x3a
 17483 0154 0B       		.uleb128 0xb
 17484 0155 3B       		.uleb128 0x3b
 17485 0156 05       		.uleb128 0x5
 17486 0157 49       		.uleb128 0x49
 17487 0158 13       		.uleb128 0x13
 17488 0159 02       		.uleb128 0x2
 17489 015a 17       		.uleb128 0x17
 17490 015b 00       		.byte	0
 17491 015c 00       		.byte	0
 17492 015d 18       		.uleb128 0x18
 17493 015e 34       		.uleb128 0x34
 17494 015f 00       		.byte	0
 17495 0160 03       		.uleb128 0x3
 17496 0161 0E       		.uleb128 0xe
 17497 0162 3A       		.uleb128 0x3a
 17498 0163 0B       		.uleb128 0xb
 17499 0164 3B       		.uleb128 0x3b
 17500 0165 05       		.uleb128 0x5
 17501 0166 49       		.uleb128 0x49
 17502 0167 13       		.uleb128 0x13
 17503 0168 02       		.uleb128 0x2
 17504 0169 18       		.uleb128 0x18
 17505 016a 00       		.byte	0
 17506 016b 00       		.byte	0
 17507 016c 19       		.uleb128 0x19
 17508 016d 34       		.uleb128 0x34
 17509 016e 00       		.byte	0
 17510 016f 03       		.uleb128 0x3
 17511 0170 08       		.uleb128 0x8
 17512 0171 3A       		.uleb128 0x3a
 17513 0172 0B       		.uleb128 0xb
 17514 0173 3B       		.uleb128 0x3b
 17515 0174 05       		.uleb128 0x5
 17516 0175 49       		.uleb128 0x49
 17517 0176 13       		.uleb128 0x13
ARM GAS  C:\Users\RECEPC~1\AppData\Local\Temp\ccNG63cQ.s 			page 351


 17518 0177 02       		.uleb128 0x2
 17519 0178 17       		.uleb128 0x17
 17520 0179 00       		.byte	0
 17521 017a 00       		.byte	0
 17522 017b 1A       		.uleb128 0x1a
 17523 017c 05       		.uleb128 0x5
 17524 017d 00       		.byte	0
 17525 017e 03       		.uleb128 0x3
 17526 017f 0E       		.uleb128 0xe
 17527 0180 3A       		.uleb128 0x3a
 17528 0181 0B       		.uleb128 0xb
 17529 0182 3B       		.uleb128 0x3b
 17530 0183 05       		.uleb128 0x5
 17531 0184 49       		.uleb128 0x49
 17532 0185 13       		.uleb128 0x13
 17533 0186 02       		.uleb128 0x2
 17534 0187 17       		.uleb128 0x17
 17535 0188 00       		.byte	0
 17536 0189 00       		.byte	0
 17537 018a 1B       		.uleb128 0x1b
 17538 018b 34       		.uleb128 0x34
 17539 018c 00       		.byte	0
 17540 018d 03       		.uleb128 0x3
 17541 018e 0E       		.uleb128 0xe
 17542 018f 3A       		.uleb128 0x3a
 17543 0190 0B       		.uleb128 0xb
 17544 0191 3B       		.uleb128 0x3b
 17545 0192 05       		.uleb128 0x5
 17546 0193 49       		.uleb128 0x49
 17547 0194 13       		.uleb128 0x13
 17548 0195 02       		.uleb128 0x2
 17549 0196 17       		.uleb128 0x17
 17550 0197 00       		.byte	0
 17551 0198 00       		.byte	0
 17552 0199 1C       		.uleb128 0x1c
 17553 019a 0F       		.uleb128 0xf
 17554 019b 00       		.byte	0
 17555 019c 0B       		.uleb128 0xb
 17556 019d 0B       		.uleb128 0xb
 17557 019e 49       		.uleb128 0x49
 17558 019f 13       		.uleb128 0x13
 17559 01a0 00       		.byte	0
 17560 01a1 00       		.byte	0
 17561 01a2 1D       		.uleb128 0x1d
 17562 01a3 34       		.uleb128 0x34
 17563 01a4 00       		.byte	0
 17564 01a5 03       		.uleb128 0x3
 17565 01a6 0E       		.uleb128 0xe
 17566 01a7 3A       		.uleb128 0x3a
 17567 01a8 0B       		.uleb128 0xb
 17568 01a9 3B       		.uleb128 0x3b
 17569 01aa 05       		.uleb128 0x5
 17570 01ab 49       		.uleb128 0x49
 17571 01ac 13       		.uleb128 0x13
 17572 01ad 3F       		.uleb128 0x3f
 17573 01ae 19       		.uleb128 0x19
 17574 01af 3C       		.uleb128 0x3c
ARM GAS  C:\Users\RECEPC~1\AppData\Local\Temp\ccNG63cQ.s 			page 352


 17575 01b0 19       		.uleb128 0x19
 17576 01b1 00       		.byte	0
 17577 01b2 00       		.byte	0
 17578 01b3 1E       		.uleb128 0x1e
 17579 01b4 35       		.uleb128 0x35
 17580 01b5 00       		.byte	0
 17581 01b6 49       		.uleb128 0x49
 17582 01b7 13       		.uleb128 0x13
 17583 01b8 00       		.byte	0
 17584 01b9 00       		.byte	0
 17585 01ba 1F       		.uleb128 0x1f
 17586 01bb 34       		.uleb128 0x34
 17587 01bc 00       		.byte	0
 17588 01bd 03       		.uleb128 0x3
 17589 01be 0E       		.uleb128 0xe
 17590 01bf 3A       		.uleb128 0x3a
 17591 01c0 0B       		.uleb128 0xb
 17592 01c1 3B       		.uleb128 0x3b
 17593 01c2 0B       		.uleb128 0xb
 17594 01c3 49       		.uleb128 0x49
 17595 01c4 13       		.uleb128 0x13
 17596 01c5 3F       		.uleb128 0x3f
 17597 01c6 19       		.uleb128 0x19
 17598 01c7 02       		.uleb128 0x2
 17599 01c8 18       		.uleb128 0x18
 17600 01c9 00       		.byte	0
 17601 01ca 00       		.byte	0
 17602 01cb 20       		.uleb128 0x20
 17603 01cc 34       		.uleb128 0x34
 17604 01cd 00       		.byte	0
 17605 01ce 03       		.uleb128 0x3
 17606 01cf 08       		.uleb128 0x8
 17607 01d0 3A       		.uleb128 0x3a
 17608 01d1 0B       		.uleb128 0xb
 17609 01d2 3B       		.uleb128 0x3b
 17610 01d3 0B       		.uleb128 0xb
 17611 01d4 49       		.uleb128 0x49
 17612 01d5 13       		.uleb128 0x13
 17613 01d6 3F       		.uleb128 0x3f
 17614 01d7 19       		.uleb128 0x19
 17615 01d8 02       		.uleb128 0x2
 17616 01d9 18       		.uleb128 0x18
 17617 01da 00       		.byte	0
 17618 01db 00       		.byte	0
 17619 01dc 21       		.uleb128 0x21
 17620 01dd 2E       		.uleb128 0x2e
 17621 01de 01       		.byte	0x1
 17622 01df 3F       		.uleb128 0x3f
 17623 01e0 19       		.uleb128 0x19
 17624 01e1 03       		.uleb128 0x3
 17625 01e2 0E       		.uleb128 0xe
 17626 01e3 3A       		.uleb128 0x3a
 17627 01e4 0B       		.uleb128 0xb
 17628 01e5 3B       		.uleb128 0x3b
 17629 01e6 0B       		.uleb128 0xb
 17630 01e7 27       		.uleb128 0x27
 17631 01e8 19       		.uleb128 0x19
ARM GAS  C:\Users\RECEPC~1\AppData\Local\Temp\ccNG63cQ.s 			page 353


 17632 01e9 3C       		.uleb128 0x3c
 17633 01ea 19       		.uleb128 0x19
 17634 01eb 01       		.uleb128 0x1
 17635 01ec 13       		.uleb128 0x13
 17636 01ed 00       		.byte	0
 17637 01ee 00       		.byte	0
 17638 01ef 22       		.uleb128 0x22
 17639 01f0 05       		.uleb128 0x5
 17640 01f1 00       		.byte	0
 17641 01f2 49       		.uleb128 0x49
 17642 01f3 13       		.uleb128 0x13
 17643 01f4 00       		.byte	0
 17644 01f5 00       		.byte	0
 17645 01f6 23       		.uleb128 0x23
 17646 01f7 2E       		.uleb128 0x2e
 17647 01f8 00       		.byte	0
 17648 01f9 3F       		.uleb128 0x3f
 17649 01fa 19       		.uleb128 0x19
 17650 01fb 03       		.uleb128 0x3
 17651 01fc 0E       		.uleb128 0xe
 17652 01fd 3A       		.uleb128 0x3a
 17653 01fe 0B       		.uleb128 0xb
 17654 01ff 3B       		.uleb128 0x3b
 17655 0200 0B       		.uleb128 0xb
 17656 0201 27       		.uleb128 0x27
 17657 0202 19       		.uleb128 0x19
 17658 0203 49       		.uleb128 0x49
 17659 0204 13       		.uleb128 0x13
 17660 0205 3C       		.uleb128 0x3c
 17661 0206 19       		.uleb128 0x19
 17662 0207 00       		.byte	0
 17663 0208 00       		.byte	0
 17664 0209 24       		.uleb128 0x24
 17665 020a 2E       		.uleb128 0x2e
 17666 020b 00       		.byte	0
 17667 020c 3F       		.uleb128 0x3f
 17668 020d 19       		.uleb128 0x19
 17669 020e 03       		.uleb128 0x3
 17670 020f 0E       		.uleb128 0xe
 17671 0210 3A       		.uleb128 0x3a
 17672 0211 0B       		.uleb128 0xb
 17673 0212 3B       		.uleb128 0x3b
 17674 0213 0B       		.uleb128 0xb
 17675 0214 27       		.uleb128 0x27
 17676 0215 19       		.uleb128 0x19
 17677 0216 3C       		.uleb128 0x3c
 17678 0217 19       		.uleb128 0x19
 17679 0218 00       		.byte	0
 17680 0219 00       		.byte	0
 17681 021a 25       		.uleb128 0x25
 17682 021b 2E       		.uleb128 0x2e
 17683 021c 01       		.byte	0x1
 17684 021d 3F       		.uleb128 0x3f
 17685 021e 19       		.uleb128 0x19
 17686 021f 03       		.uleb128 0x3
 17687 0220 0E       		.uleb128 0xe
 17688 0221 3A       		.uleb128 0x3a
ARM GAS  C:\Users\RECEPC~1\AppData\Local\Temp\ccNG63cQ.s 			page 354


 17689 0222 0B       		.uleb128 0xb
 17690 0223 3B       		.uleb128 0x3b
 17691 0224 0B       		.uleb128 0xb
 17692 0225 27       		.uleb128 0x27
 17693 0226 19       		.uleb128 0x19
 17694 0227 49       		.uleb128 0x49
 17695 0228 13       		.uleb128 0x13
 17696 0229 3C       		.uleb128 0x3c
 17697 022a 19       		.uleb128 0x19
 17698 022b 01       		.uleb128 0x1
 17699 022c 13       		.uleb128 0x13
 17700 022d 00       		.byte	0
 17701 022e 00       		.byte	0
 17702 022f 26       		.uleb128 0x26
 17703 0230 2E       		.uleb128 0x2e
 17704 0231 01       		.byte	0x1
 17705 0232 3F       		.uleb128 0x3f
 17706 0233 19       		.uleb128 0x19
 17707 0234 03       		.uleb128 0x3
 17708 0235 0E       		.uleb128 0xe
 17709 0236 3A       		.uleb128 0x3a
 17710 0237 0B       		.uleb128 0xb
 17711 0238 3B       		.uleb128 0x3b
 17712 0239 0B       		.uleb128 0xb
 17713 023a 27       		.uleb128 0x27
 17714 023b 19       		.uleb128 0x19
 17715 023c 3C       		.uleb128 0x3c
 17716 023d 19       		.uleb128 0x19
 17717 023e 00       		.byte	0
 17718 023f 00       		.byte	0
 17719 0240 00       		.byte	0
 17720              		.section	.debug_loc,"",%progbits
 17721              	.Ldebug_loc0:
 17722              	.LLST0:
 17723 0000 0A000000 		.4byte	.LVL0
 17724 0004 12000000 		.4byte	.LVL1
 17725 0008 0200     		.2byte	0x2
 17726 000a 30       		.byte	0x30
 17727 000b 9F       		.byte	0x9f
 17728 000c 12000000 		.4byte	.LVL1
 17729 0010 44000000 		.4byte	.LVL8
 17730 0014 0100     		.2byte	0x1
 17731 0016 54       		.byte	0x54
 17732 0017 44000000 		.4byte	.LVL8
 17733 001b 46000000 		.4byte	.LVL9
 17734 001f 0300     		.2byte	0x3
 17735 0021 74       		.byte	0x74
 17736 0022 7F       		.sleb128 -1
 17737 0023 9F       		.byte	0x9f
 17738 0024 46000000 		.4byte	.LVL9
 17739 0028 76000000 		.4byte	.LVL13
 17740 002c 0100     		.2byte	0x1
 17741 002e 54       		.byte	0x54
 17742 002f 00000000 		.4byte	0
 17743 0033 00000000 		.4byte	0
 17744              	.LLST1:
 17745 0037 00000000 		.4byte	.LVL14
ARM GAS  C:\Users\RECEPC~1\AppData\Local\Temp\ccNG63cQ.s 			page 355


 17746 003b 05000000 		.4byte	.LVL15-1
 17747 003f 0100     		.2byte	0x1
 17748 0041 50       		.byte	0x50
 17749 0042 05000000 		.4byte	.LVL15-1
 17750 0046 26000000 		.4byte	.LFE64
 17751 004a 0400     		.2byte	0x4
 17752 004c F3       		.byte	0xf3
 17753 004d 01       		.uleb128 0x1
 17754 004e 50       		.byte	0x50
 17755 004f 9F       		.byte	0x9f
 17756 0050 00000000 		.4byte	0
 17757 0054 00000000 		.4byte	0
 17758              	.LLST2:
 17759 0058 1A000000 		.4byte	.LVL19
 17760 005c 22000000 		.4byte	.LVL21
 17761 0060 0100     		.2byte	0x1
 17762 0062 54       		.byte	0x54
 17763 0063 00000000 		.4byte	0
 17764 0067 00000000 		.4byte	0
 17765              	.LLST3:
 17766 006b 00000000 		.4byte	.LVL22
 17767 006f 05000000 		.4byte	.LVL23-1
 17768 0073 0100     		.2byte	0x1
 17769 0075 50       		.byte	0x50
 17770 0076 05000000 		.4byte	.LVL23-1
 17771 007a 1C000000 		.4byte	.LFE65
 17772 007e 0400     		.2byte	0x4
 17773 0080 F3       		.byte	0xf3
 17774 0081 01       		.uleb128 0x1
 17775 0082 50       		.byte	0x50
 17776 0083 9F       		.byte	0x9f
 17777 0084 00000000 		.4byte	0
 17778 0088 00000000 		.4byte	0
 17779              	.LLST4:
 17780 008c 00000000 		.4byte	.LVL28
 17781 0090 0C000000 		.4byte	.LVL29
 17782 0094 0100     		.2byte	0x1
 17783 0096 50       		.byte	0x50
 17784 0097 0C000000 		.4byte	.LVL29
 17785 009b E8000000 		.4byte	.LFE66
 17786 009f 0400     		.2byte	0x4
 17787 00a1 F3       		.byte	0xf3
 17788 00a2 01       		.uleb128 0x1
 17789 00a3 50       		.byte	0x50
 17790 00a4 9F       		.byte	0x9f
 17791 00a5 00000000 		.4byte	0
 17792 00a9 00000000 		.4byte	0
 17793              	.LLST5:
 17794 00ad 40000000 		.4byte	.LVL34
 17795 00b1 44000000 		.4byte	.LVL35
 17796 00b5 0200     		.2byte	0x2
 17797 00b7 30       		.byte	0x30
 17798 00b8 9F       		.byte	0x9f
 17799 00b9 44000000 		.4byte	.LVL35
 17800 00bd 52000000 		.4byte	.LVL37
 17801 00c1 0100     		.2byte	0x1
 17802 00c3 54       		.byte	0x54
ARM GAS  C:\Users\RECEPC~1\AppData\Local\Temp\ccNG63cQ.s 			page 356


 17803 00c4 52000000 		.4byte	.LVL37
 17804 00c8 54000000 		.4byte	.LVL38
 17805 00cc 0300     		.2byte	0x3
 17806 00ce 74       		.byte	0x74
 17807 00cf 7F       		.sleb128 -1
 17808 00d0 9F       		.byte	0x9f
 17809 00d1 54000000 		.4byte	.LVL38
 17810 00d5 78000000 		.4byte	.LVL42
 17811 00d9 0100     		.2byte	0x1
 17812 00db 54       		.byte	0x54
 17813 00dc 78000000 		.4byte	.LVL42
 17814 00e0 7A000000 		.4byte	.LVL43
 17815 00e4 0300     		.2byte	0x3
 17816 00e6 74       		.byte	0x74
 17817 00e7 7F       		.sleb128 -1
 17818 00e8 9F       		.byte	0x9f
 17819 00e9 7A000000 		.4byte	.LVL43
 17820 00ed C2000000 		.4byte	.LVL46
 17821 00f1 0100     		.2byte	0x1
 17822 00f3 54       		.byte	0x54
 17823 00f4 CA000000 		.4byte	.LVL47
 17824 00f8 DC000000 		.4byte	.LVL48
 17825 00fc 0100     		.2byte	0x1
 17826 00fe 54       		.byte	0x54
 17827 00ff 00000000 		.4byte	0
 17828 0103 00000000 		.4byte	0
 17829              	.LLST6:
 17830 0107 00000000 		.4byte	.LVL49
 17831 010b 06000000 		.4byte	.LVL50
 17832 010f 0100     		.2byte	0x1
 17833 0111 50       		.byte	0x50
 17834 0112 06000000 		.4byte	.LVL50
 17835 0116 12000000 		.4byte	.LFE67
 17836 011a 0400     		.2byte	0x4
 17837 011c F3       		.byte	0xf3
 17838 011d 01       		.uleb128 0x1
 17839 011e 50       		.byte	0x50
 17840 011f 9F       		.byte	0x9f
 17841 0120 00000000 		.4byte	0
 17842 0124 00000000 		.4byte	0
 17843              	.LLST7:
 17844 0128 00000000 		.4byte	.LVL53
 17845 012c 0A000000 		.4byte	.LVL55
 17846 0130 0100     		.2byte	0x1
 17847 0132 50       		.byte	0x50
 17848 0133 0A000000 		.4byte	.LVL55
 17849 0137 E8010000 		.4byte	.LFE68
 17850 013b 0400     		.2byte	0x4
 17851 013d F3       		.byte	0xf3
 17852 013e 01       		.uleb128 0x1
 17853 013f 50       		.byte	0x50
 17854 0140 9F       		.byte	0x9f
 17855 0141 00000000 		.4byte	0
 17856 0145 00000000 		.4byte	0
 17857              	.LLST8:
 17858 0149 06000000 		.4byte	.LVL54
 17859 014d 22000000 		.4byte	.LVL59
ARM GAS  C:\Users\RECEPC~1\AppData\Local\Temp\ccNG63cQ.s 			page 357


 17860 0151 0200     		.2byte	0x2
 17861 0153 30       		.byte	0x30
 17862 0154 9F       		.byte	0x9f
 17863 0155 22000000 		.4byte	.LVL59
 17864 0159 30000000 		.4byte	.LVL61
 17865 015d 0100     		.2byte	0x1
 17866 015f 54       		.byte	0x54
 17867 0160 30000000 		.4byte	.LVL61
 17868 0164 32000000 		.4byte	.LVL62
 17869 0168 0300     		.2byte	0x3
 17870 016a 74       		.byte	0x74
 17871 016b 7F       		.sleb128 -1
 17872 016c 9F       		.byte	0x9f
 17873 016d 32000000 		.4byte	.LVL62
 17874 0171 34000000 		.4byte	.LVL63
 17875 0175 0100     		.2byte	0x1
 17876 0177 54       		.byte	0x54
 17877 0178 34000000 		.4byte	.LVL63
 17878 017c 36000000 		.4byte	.LVL64
 17879 0180 0200     		.2byte	0x2
 17880 0182 30       		.byte	0x30
 17881 0183 9F       		.byte	0x9f
 17882 0184 36000000 		.4byte	.LVL64
 17883 0188 7E000000 		.4byte	.LVL71
 17884 018c 0100     		.2byte	0x1
 17885 018e 54       		.byte	0x54
 17886 018f 7E000000 		.4byte	.LVL71
 17887 0193 80000000 		.4byte	.LVL72
 17888 0197 0100     		.2byte	0x1
 17889 0199 53       		.byte	0x53
 17890 019a 80000000 		.4byte	.LVL72
 17891 019e 82000000 		.4byte	.LVL73
 17892 01a2 0300     		.2byte	0x3
 17893 01a4 73       		.byte	0x73
 17894 01a5 7F       		.sleb128 -1
 17895 01a6 9F       		.byte	0x9f
 17896 01a7 82000000 		.4byte	.LVL73
 17897 01ab 84000000 		.4byte	.LVL74
 17898 01af 0100     		.2byte	0x1
 17899 01b1 53       		.byte	0x53
 17900 01b2 84000000 		.4byte	.LVL74
 17901 01b6 86000000 		.4byte	.LVL75
 17902 01ba 0100     		.2byte	0x1
 17903 01bc 54       		.byte	0x54
 17904 01bd 86000000 		.4byte	.LVL75
 17905 01c1 98000000 		.4byte	.LVL76
 17906 01c5 0100     		.2byte	0x1
 17907 01c7 53       		.byte	0x53
 17908 01c8 98000000 		.4byte	.LVL76
 17909 01cc 9A000000 		.4byte	.LVL77
 17910 01d0 0300     		.2byte	0x3
 17911 01d2 73       		.byte	0x73
 17912 01d3 7F       		.sleb128 -1
 17913 01d4 9F       		.byte	0x9f
 17914 01d5 9A000000 		.4byte	.LVL77
 17915 01d9 B2000000 		.4byte	.LVL78
 17916 01dd 0100     		.2byte	0x1
ARM GAS  C:\Users\RECEPC~1\AppData\Local\Temp\ccNG63cQ.s 			page 358


 17917 01df 53       		.byte	0x53
 17918 01e0 B2000000 		.4byte	.LVL78
 17919 01e4 B4000000 		.4byte	.LVL79
 17920 01e8 0300     		.2byte	0x3
 17921 01ea 73       		.byte	0x73
 17922 01eb 7F       		.sleb128 -1
 17923 01ec 9F       		.byte	0x9f
 17924 01ed B4000000 		.4byte	.LVL79
 17925 01f1 C6000000 		.4byte	.LVL80
 17926 01f5 0100     		.2byte	0x1
 17927 01f7 53       		.byte	0x53
 17928 01f8 C6000000 		.4byte	.LVL80
 17929 01fc C8000000 		.4byte	.LVL81
 17930 0200 0300     		.2byte	0x3
 17931 0202 73       		.byte	0x73
 17932 0203 7F       		.sleb128 -1
 17933 0204 9F       		.byte	0x9f
 17934 0205 C8000000 		.4byte	.LVL81
 17935 0209 DA000000 		.4byte	.LVL83
 17936 020d 0100     		.2byte	0x1
 17937 020f 53       		.byte	0x53
 17938 0210 DA000000 		.4byte	.LVL83
 17939 0214 DC000000 		.4byte	.LVL84
 17940 0218 0300     		.2byte	0x3
 17941 021a 73       		.byte	0x73
 17942 021b 7F       		.sleb128 -1
 17943 021c 9F       		.byte	0x9f
 17944 021d DC000000 		.4byte	.LVL84
 17945 0221 FA000000 		.4byte	.LVL88
 17946 0225 0100     		.2byte	0x1
 17947 0227 53       		.byte	0x53
 17948 0228 FA000000 		.4byte	.LVL88
 17949 022c FC000000 		.4byte	.LVL89
 17950 0230 0300     		.2byte	0x3
 17951 0232 73       		.byte	0x73
 17952 0233 7F       		.sleb128 -1
 17953 0234 9F       		.byte	0x9f
 17954 0235 FC000000 		.4byte	.LVL89
 17955 0239 0E010000 		.4byte	.LVL91
 17956 023d 0100     		.2byte	0x1
 17957 023f 53       		.byte	0x53
 17958 0240 0E010000 		.4byte	.LVL91
 17959 0244 10010000 		.4byte	.LVL92
 17960 0248 0300     		.2byte	0x3
 17961 024a 73       		.byte	0x73
 17962 024b 7F       		.sleb128 -1
 17963 024c 9F       		.byte	0x9f
 17964 024d 10010000 		.4byte	.LVL92
 17965 0251 2E010000 		.4byte	.LVL96
 17966 0255 0100     		.2byte	0x1
 17967 0257 53       		.byte	0x53
 17968 0258 2E010000 		.4byte	.LVL96
 17969 025c 30010000 		.4byte	.LVL97
 17970 0260 0300     		.2byte	0x3
 17971 0262 73       		.byte	0x73
 17972 0263 7F       		.sleb128 -1
 17973 0264 9F       		.byte	0x9f
ARM GAS  C:\Users\RECEPC~1\AppData\Local\Temp\ccNG63cQ.s 			page 359


 17974 0265 30010000 		.4byte	.LVL97
 17975 0269 42010000 		.4byte	.LVL99
 17976 026d 0100     		.2byte	0x1
 17977 026f 53       		.byte	0x53
 17978 0270 42010000 		.4byte	.LVL99
 17979 0274 44010000 		.4byte	.LVL100
 17980 0278 0300     		.2byte	0x3
 17981 027a 73       		.byte	0x73
 17982 027b 7F       		.sleb128 -1
 17983 027c 9F       		.byte	0x9f
 17984 027d 44010000 		.4byte	.LVL100
 17985 0281 62010000 		.4byte	.LVL104
 17986 0285 0100     		.2byte	0x1
 17987 0287 53       		.byte	0x53
 17988 0288 62010000 		.4byte	.LVL104
 17989 028c 64010000 		.4byte	.LVL105
 17990 0290 0300     		.2byte	0x3
 17991 0292 73       		.byte	0x73
 17992 0293 7E       		.sleb128 -2
 17993 0294 9F       		.byte	0x9f
 17994 0295 64010000 		.4byte	.LVL105
 17995 0299 76010000 		.4byte	.LVL106
 17996 029d 0100     		.2byte	0x1
 17997 029f 53       		.byte	0x53
 17998 02a0 C8010000 		.4byte	.LVL116
 17999 02a4 D0010000 		.4byte	.LVL117
 18000 02a8 0100     		.2byte	0x1
 18001 02aa 54       		.byte	0x54
 18002 02ab D0010000 		.4byte	.LVL117
 18003 02af D6010000 		.4byte	.LVL118
 18004 02b3 0100     		.2byte	0x1
 18005 02b5 53       		.byte	0x53
 18006 02b6 00000000 		.4byte	0
 18007 02ba 00000000 		.4byte	0
 18008              	.LLST9:
 18009 02be 44000000 		.4byte	.LVL67
 18010 02c2 50000000 		.4byte	.LVL68
 18011 02c6 0200     		.2byte	0x2
 18012 02c8 40       		.byte	0x40
 18013 02c9 9F       		.byte	0x9f
 18014 02ca 50000000 		.4byte	.LVL68
 18015 02ce 58000000 		.4byte	.LVL69
 18016 02d2 0100     		.2byte	0x1
 18017 02d4 55       		.byte	0x55
 18018 02d5 58000000 		.4byte	.LVL69
 18019 02d9 76000000 		.4byte	.LVL70
 18020 02dd 0100     		.2byte	0x1
 18021 02df 52       		.byte	0x52
 18022 02e0 76000000 		.4byte	.LVL70
 18023 02e4 7E000000 		.4byte	.LVL71
 18024 02e8 0300     		.2byte	0x3
 18025 02ea 72       		.byte	0x72
 18026 02eb 01       		.sleb128 1
 18027 02ec 9F       		.byte	0x9f
 18028 02ed 84000000 		.4byte	.LVL74
 18029 02f1 86000000 		.4byte	.LVL75
 18030 02f5 0300     		.2byte	0x3
ARM GAS  C:\Users\RECEPC~1\AppData\Local\Temp\ccNG63cQ.s 			page 360


 18031 02f7 72       		.byte	0x72
 18032 02f8 01       		.sleb128 1
 18033 02f9 9F       		.byte	0x9f
 18034 02fa C8010000 		.4byte	.LVL116
 18035 02fe D0010000 		.4byte	.LVL117
 18036 0302 0100     		.2byte	0x1
 18037 0304 52       		.byte	0x52
 18038 0305 00000000 		.4byte	0
 18039 0309 00000000 		.4byte	0
 18040              	.LLST10:
 18041 030d C8000000 		.4byte	.LVL81
 18042 0311 CE000000 		.4byte	.LVL82
 18043 0315 0200     		.2byte	0x2
 18044 0317 31       		.byte	0x31
 18045 0318 9F       		.byte	0x9f
 18046 0319 CE000000 		.4byte	.LVL82
 18047 031d DE000000 		.4byte	.LVL85
 18048 0321 0100     		.2byte	0x1
 18049 0323 51       		.byte	0x51
 18050 0324 DE000000 		.4byte	.LVL85
 18051 0328 E0000000 		.4byte	.LVL86
 18052 032c 0300     		.2byte	0x3
 18053 032e 71       		.byte	0x71
 18054 032f 7F       		.sleb128 -1
 18055 0330 9F       		.byte	0x9f
 18056 0331 E0000000 		.4byte	.LVL86
 18057 0335 F2000000 		.4byte	.LVL87
 18058 0339 0100     		.2byte	0x1
 18059 033b 51       		.byte	0x51
 18060 033c F2000000 		.4byte	.LVL87
 18061 0340 FC000000 		.4byte	.LVL89
 18062 0344 0300     		.2byte	0x3
 18063 0346 71       		.byte	0x71
 18064 0347 01       		.sleb128 1
 18065 0348 9F       		.byte	0x9f
 18066 0349 FC000000 		.4byte	.LVL89
 18067 034d 02010000 		.4byte	.LVL90
 18068 0351 0200     		.2byte	0x2
 18069 0353 31       		.byte	0x31
 18070 0354 9F       		.byte	0x9f
 18071 0355 02010000 		.4byte	.LVL90
 18072 0359 12010000 		.4byte	.LVL93
 18073 035d 0100     		.2byte	0x1
 18074 035f 51       		.byte	0x51
 18075 0360 12010000 		.4byte	.LVL93
 18076 0364 14010000 		.4byte	.LVL94
 18077 0368 0300     		.2byte	0x3
 18078 036a 71       		.byte	0x71
 18079 036b 7F       		.sleb128 -1
 18080 036c 9F       		.byte	0x9f
 18081 036d 14010000 		.4byte	.LVL94
 18082 0371 26010000 		.4byte	.LVL95
 18083 0375 0100     		.2byte	0x1
 18084 0377 51       		.byte	0x51
 18085 0378 26010000 		.4byte	.LVL95
 18086 037c 30010000 		.4byte	.LVL97
 18087 0380 0300     		.2byte	0x3
ARM GAS  C:\Users\RECEPC~1\AppData\Local\Temp\ccNG63cQ.s 			page 361


 18088 0382 71       		.byte	0x71
 18089 0383 01       		.sleb128 1
 18090 0384 9F       		.byte	0x9f
 18091 0385 30010000 		.4byte	.LVL97
 18092 0389 36010000 		.4byte	.LVL98
 18093 038d 0200     		.2byte	0x2
 18094 038f 31       		.byte	0x31
 18095 0390 9F       		.byte	0x9f
 18096 0391 36010000 		.4byte	.LVL98
 18097 0395 46010000 		.4byte	.LVL101
 18098 0399 0100     		.2byte	0x1
 18099 039b 51       		.byte	0x51
 18100 039c 46010000 		.4byte	.LVL101
 18101 03a0 48010000 		.4byte	.LVL102
 18102 03a4 0300     		.2byte	0x3
 18103 03a6 71       		.byte	0x71
 18104 03a7 7F       		.sleb128 -1
 18105 03a8 9F       		.byte	0x9f
 18106 03a9 48010000 		.4byte	.LVL102
 18107 03ad 5A010000 		.4byte	.LVL103
 18108 03b1 0100     		.2byte	0x1
 18109 03b3 51       		.byte	0x51
 18110 03b4 5A010000 		.4byte	.LVL103
 18111 03b8 84010000 		.4byte	.LVL107
 18112 03bc 0300     		.2byte	0x3
 18113 03be 71       		.byte	0x71
 18114 03bf 01       		.sleb128 1
 18115 03c0 9F       		.byte	0x9f
 18116 03c1 A2010000 		.4byte	.LVL111
 18117 03c5 AA010000 		.4byte	.LVL112
 18118 03c9 0300     		.2byte	0x3
 18119 03cb 71       		.byte	0x71
 18120 03cc 01       		.sleb128 1
 18121 03cd 9F       		.byte	0x9f
 18122 03ce D0010000 		.4byte	.LVL117
 18123 03d2 D6010000 		.4byte	.LVL118
 18124 03d6 0300     		.2byte	0x3
 18125 03d8 71       		.byte	0x71
 18126 03d9 01       		.sleb128 1
 18127 03da 9F       		.byte	0x9f
 18128 03db 00000000 		.4byte	0
 18129 03df 00000000 		.4byte	0
 18130              	.LLST11:
 18131 03e3 00000000 		.4byte	.LVL119
 18132 03e7 0E000000 		.4byte	.LVL120
 18133 03eb 0100     		.2byte	0x1
 18134 03ed 50       		.byte	0x50
 18135 03ee 0E000000 		.4byte	.LVL120
 18136 03f2 F02C0000 		.4byte	.LFE69
 18137 03f6 0400     		.2byte	0x4
 18138 03f8 F3       		.byte	0xf3
 18139 03f9 01       		.uleb128 0x1
 18140 03fa 50       		.byte	0x50
 18141 03fb 9F       		.byte	0x9f
 18142 03fc 00000000 		.4byte	0
 18143 0400 00000000 		.4byte	0
 18144              	.LLST12:
ARM GAS  C:\Users\RECEPC~1\AppData\Local\Temp\ccNG63cQ.s 			page 362


 18145 0404 00000000 		.4byte	.LVL119
 18146 0408 11000000 		.4byte	.LVL121-1
 18147 040c 0100     		.2byte	0x1
 18148 040e 51       		.byte	0x51
 18149 040f 11000000 		.4byte	.LVL121-1
 18150 0413 F02C0000 		.4byte	.LFE69
 18151 0417 0400     		.2byte	0x4
 18152 0419 F3       		.byte	0xf3
 18153 041a 01       		.uleb128 0x1
 18154 041b 51       		.byte	0x51
 18155 041c 9F       		.byte	0x9f
 18156 041d 00000000 		.4byte	0
 18157 0421 00000000 		.4byte	0
 18158              	.LLST13:
 18159 0425 00000000 		.4byte	.LVL539
 18160 0429 0A000000 		.4byte	.LVL540
 18161 042d 0100     		.2byte	0x1
 18162 042f 50       		.byte	0x50
 18163 0430 0A000000 		.4byte	.LVL540
 18164 0434 B4040000 		.4byte	.LFE70
 18165 0438 0400     		.2byte	0x4
 18166 043a F3       		.byte	0xf3
 18167 043b 01       		.uleb128 0x1
 18168 043c 50       		.byte	0x50
 18169 043d 9F       		.byte	0x9f
 18170 043e 00000000 		.4byte	0
 18171 0442 00000000 		.4byte	0
 18172              	.LLST14:
 18173 0446 00000000 		.4byte	.LVL539
 18174 044a AA030000 		.4byte	.LVL631
 18175 044e 0100     		.2byte	0x1
 18176 0450 51       		.byte	0x51
 18177 0451 AA030000 		.4byte	.LVL631
 18178 0455 46040000 		.4byte	.LVL652
 18179 0459 0400     		.2byte	0x4
 18180 045b F3       		.byte	0xf3
 18181 045c 01       		.uleb128 0x1
 18182 045d 51       		.byte	0x51
 18183 045e 9F       		.byte	0x9f
 18184 045f 46040000 		.4byte	.LVL652
 18185 0463 4A040000 		.4byte	.LVL653
 18186 0467 0100     		.2byte	0x1
 18187 0469 51       		.byte	0x51
 18188 046a 4A040000 		.4byte	.LVL653
 18189 046e 98040000 		.4byte	.LVL665
 18190 0472 0400     		.2byte	0x4
 18191 0474 F3       		.byte	0xf3
 18192 0475 01       		.uleb128 0x1
 18193 0476 51       		.byte	0x51
 18194 0477 9F       		.byte	0x9f
 18195 0478 98040000 		.4byte	.LVL665
 18196 047c 9C040000 		.4byte	.LVL667
 18197 0480 0100     		.2byte	0x1
 18198 0482 51       		.byte	0x51
 18199 0483 9C040000 		.4byte	.LVL667
 18200 0487 B4040000 		.4byte	.LFE70
 18201 048b 0400     		.2byte	0x4
ARM GAS  C:\Users\RECEPC~1\AppData\Local\Temp\ccNG63cQ.s 			page 363


 18202 048d F3       		.byte	0xf3
 18203 048e 01       		.uleb128 0x1
 18204 048f 51       		.byte	0x51
 18205 0490 9F       		.byte	0x9f
 18206 0491 00000000 		.4byte	0
 18207 0495 00000000 		.4byte	0
 18208              	.LLST15:
 18209 0499 00000000 		.4byte	.LVL539
 18210 049d E8030000 		.4byte	.LVL640
 18211 04a1 0100     		.2byte	0x1
 18212 04a3 52       		.byte	0x52
 18213 04a4 E8030000 		.4byte	.LVL640
 18214 04a8 F6030000 		.4byte	.LVL643
 18215 04ac 0400     		.2byte	0x4
 18216 04ae F3       		.byte	0xf3
 18217 04af 01       		.uleb128 0x1
 18218 04b0 52       		.byte	0x52
 18219 04b1 9F       		.byte	0x9f
 18220 04b2 F6030000 		.4byte	.LVL643
 18221 04b6 F8030000 		.4byte	.LVL644
 18222 04ba 0100     		.2byte	0x1
 18223 04bc 52       		.byte	0x52
 18224 04bd F8030000 		.4byte	.LVL644
 18225 04c1 46040000 		.4byte	.LVL652
 18226 04c5 0400     		.2byte	0x4
 18227 04c7 F3       		.byte	0xf3
 18228 04c8 01       		.uleb128 0x1
 18229 04c9 52       		.byte	0x52
 18230 04ca 9F       		.byte	0x9f
 18231 04cb 46040000 		.4byte	.LVL652
 18232 04cf 4A040000 		.4byte	.LVL653
 18233 04d3 0100     		.2byte	0x1
 18234 04d5 52       		.byte	0x52
 18235 04d6 4A040000 		.4byte	.LVL653
 18236 04da 98040000 		.4byte	.LVL665
 18237 04de 0400     		.2byte	0x4
 18238 04e0 F3       		.byte	0xf3
 18239 04e1 01       		.uleb128 0x1
 18240 04e2 52       		.byte	0x52
 18241 04e3 9F       		.byte	0x9f
 18242 04e4 98040000 		.4byte	.LVL665
 18243 04e8 9C040000 		.4byte	.LVL667
 18244 04ec 0100     		.2byte	0x1
 18245 04ee 52       		.byte	0x52
 18246 04ef 9C040000 		.4byte	.LVL667
 18247 04f3 B4040000 		.4byte	.LFE70
 18248 04f7 0400     		.2byte	0x4
 18249 04f9 F3       		.byte	0xf3
 18250 04fa 01       		.uleb128 0x1
 18251 04fb 52       		.byte	0x52
 18252 04fc 9F       		.byte	0x9f
 18253 04fd 00000000 		.4byte	0
 18254 0501 00000000 		.4byte	0
 18255              	.LLST16:
 18256 0505 00000000 		.4byte	.LVL539
 18257 0509 8C030000 		.4byte	.LVL629
 18258 050d 0100     		.2byte	0x1
ARM GAS  C:\Users\RECEPC~1\AppData\Local\Temp\ccNG63cQ.s 			page 364


 18259 050f 53       		.byte	0x53
 18260 0510 8C030000 		.4byte	.LVL629
 18261 0514 46040000 		.4byte	.LVL652
 18262 0518 0400     		.2byte	0x4
 18263 051a F3       		.byte	0xf3
 18264 051b 01       		.uleb128 0x1
 18265 051c 53       		.byte	0x53
 18266 051d 9F       		.byte	0x9f
 18267 051e 46040000 		.4byte	.LVL652
 18268 0522 4A040000 		.4byte	.LVL653
 18269 0526 0100     		.2byte	0x1
 18270 0528 53       		.byte	0x53
 18271 0529 4A040000 		.4byte	.LVL653
 18272 052d 98040000 		.4byte	.LVL665
 18273 0531 0400     		.2byte	0x4
 18274 0533 F3       		.byte	0xf3
 18275 0534 01       		.uleb128 0x1
 18276 0535 53       		.byte	0x53
 18277 0536 9F       		.byte	0x9f
 18278 0537 98040000 		.4byte	.LVL665
 18279 053b 9A040000 		.4byte	.LVL666
 18280 053f 0100     		.2byte	0x1
 18281 0541 53       		.byte	0x53
 18282 0542 9A040000 		.4byte	.LVL666
 18283 0546 B4040000 		.4byte	.LFE70
 18284 054a 0400     		.2byte	0x4
 18285 054c F3       		.byte	0xf3
 18286 054d 01       		.uleb128 0x1
 18287 054e 53       		.byte	0x53
 18288 054f 9F       		.byte	0x9f
 18289 0550 00000000 		.4byte	0
 18290 0554 00000000 		.4byte	0
 18291              	.LLST17:
 18292 0558 72010000 		.4byte	.LVL576
 18293 055c BC010000 		.4byte	.LVL582
 18294 0560 0200     		.2byte	0x2
 18295 0562 3D       		.byte	0x3d
 18296 0563 9F       		.byte	0x9f
 18297 0564 BC010000 		.4byte	.LVL582
 18298 0568 C2010000 		.4byte	.LVL583
 18299 056c 0200     		.2byte	0x2
 18300 056e 3C       		.byte	0x3c
 18301 056f 9F       		.byte	0x9f
 18302 0570 C2010000 		.4byte	.LVL583
 18303 0574 C6010000 		.4byte	.LVL584
 18304 0578 0200     		.2byte	0x2
 18305 057a 3D       		.byte	0x3d
 18306 057b 9F       		.byte	0x9f
 18307 057c C6010000 		.4byte	.LVL584
 18308 0580 F6010000 		.4byte	.LVL588
 18309 0584 0100     		.2byte	0x1
 18310 0586 58       		.byte	0x58
 18311 0587 96020000 		.4byte	.LVL606
 18312 058b 9A020000 		.4byte	.LVL607
 18313 058f 0200     		.2byte	0x2
 18314 0591 3E       		.byte	0x3e
 18315 0592 9F       		.byte	0x9f
ARM GAS  C:\Users\RECEPC~1\AppData\Local\Temp\ccNG63cQ.s 			page 365


 18316 0593 9A020000 		.4byte	.LVL607
 18317 0597 CC020000 		.4byte	.LVL610
 18318 059b 0100     		.2byte	0x1
 18319 059d 58       		.byte	0x58
 18320 059e 86030000 		.4byte	.LVL628
 18321 05a2 40040000 		.4byte	.LVL651
 18322 05a6 0200     		.2byte	0x2
 18323 05a8 3F       		.byte	0x3f
 18324 05a9 9F       		.byte	0x9f
 18325 05aa 40040000 		.4byte	.LVL651
 18326 05ae 46040000 		.4byte	.LVL652
 18327 05b2 0200     		.2byte	0x2
 18328 05b4 41       		.byte	0x41
 18329 05b5 9F       		.byte	0x9f
 18330 05b6 46040000 		.4byte	.LVL652
 18331 05ba 4A040000 		.4byte	.LVL653
 18332 05be 0200     		.2byte	0x2
 18333 05c0 3F       		.byte	0x3f
 18334 05c1 9F       		.byte	0x9f
 18335 05c2 4A040000 		.4byte	.LVL653
 18336 05c6 98040000 		.4byte	.LVL665
 18337 05ca 0100     		.2byte	0x1
 18338 05cc 58       		.byte	0x58
 18339 05cd 9C040000 		.4byte	.LVL667
 18340 05d1 A6040000 		.4byte	.LVL669
 18341 05d5 0100     		.2byte	0x1
 18342 05d7 58       		.byte	0x58
 18343 05d8 00000000 		.4byte	0
 18344 05dc 00000000 		.4byte	0
 18345              	.LLST18:
 18346 05e0 16000000 		.4byte	.LVL541
 18347 05e4 36000000 		.4byte	.LVL542
 18348 05e8 0200     		.2byte	0x2
 18349 05ea 34       		.byte	0x34
 18350 05eb 9F       		.byte	0x9f
 18351 05ec 36000000 		.4byte	.LVL542
 18352 05f0 AE020000 		.4byte	.LVL608
 18353 05f4 0100     		.2byte	0x1
 18354 05f6 5C       		.byte	0x5c
 18355 05f7 98040000 		.4byte	.LVL665
 18356 05fb 9C040000 		.4byte	.LVL667
 18357 05ff 0100     		.2byte	0x1
 18358 0601 5C       		.byte	0x5c
 18359 0602 00000000 		.4byte	0
 18360 0606 00000000 		.4byte	0
 18361              	.LLST19:
 18362 060a 5A000000 		.4byte	.LVL545
 18363 060e 60000000 		.4byte	.LVL546
 18364 0612 0200     		.2byte	0x2
 18365 0614 31       		.byte	0x31
 18366 0615 9F       		.byte	0x9f
 18367 0616 60000000 		.4byte	.LVL546
 18368 061a 7E000000 		.4byte	.LVL553
 18369 061e 0100     		.2byte	0x1
 18370 0620 54       		.byte	0x54
 18371 0621 7E000000 		.4byte	.LVL553
 18372 0625 80000000 		.4byte	.LVL554
ARM GAS  C:\Users\RECEPC~1\AppData\Local\Temp\ccNG63cQ.s 			page 366


 18373 0629 0300     		.2byte	0x3
 18374 062b 74       		.byte	0x74
 18375 062c 7F       		.sleb128 -1
 18376 062d 9F       		.byte	0x9f
 18377 062e 80000000 		.4byte	.LVL554
 18378 0632 C6000000 		.4byte	.LVL558
 18379 0636 0100     		.2byte	0x1
 18380 0638 54       		.byte	0x54
 18381 0639 C6000000 		.4byte	.LVL558
 18382 063d D2000000 		.4byte	.LVL559
 18383 0641 0200     		.2byte	0x2
 18384 0643 35       		.byte	0x35
 18385 0644 9F       		.byte	0x9f
 18386 0645 D2000000 		.4byte	.LVL559
 18387 0649 DC000000 		.4byte	.LVL560
 18388 064d 0100     		.2byte	0x1
 18389 064f 54       		.byte	0x54
 18390 0650 DC000000 		.4byte	.LVL560
 18391 0654 DE000000 		.4byte	.LVL561
 18392 0658 0100     		.2byte	0x1
 18393 065a 56       		.byte	0x56
 18394 065b DE000000 		.4byte	.LVL561
 18395 065f EE000000 		.4byte	.LVL562
 18396 0663 0100     		.2byte	0x1
 18397 0665 54       		.byte	0x54
 18398 0666 EE000000 		.4byte	.LVL562
 18399 066a 18010000 		.4byte	.LVL565
 18400 066e 0100     		.2byte	0x1
 18401 0670 56       		.byte	0x56
 18402 0671 18010000 		.4byte	.LVL565
 18403 0675 22010000 		.4byte	.LVL566
 18404 0679 0100     		.2byte	0x1
 18405 067b 54       		.byte	0x54
 18406 067c 22010000 		.4byte	.LVL566
 18407 0680 24010000 		.4byte	.LVL567
 18408 0684 0300     		.2byte	0x3
 18409 0686 74       		.byte	0x74
 18410 0687 7F       		.sleb128 -1
 18411 0688 9F       		.byte	0x9f
 18412 0689 24010000 		.4byte	.LVL567
 18413 068d 26010000 		.4byte	.LVL568
 18414 0691 0100     		.2byte	0x1
 18415 0693 54       		.byte	0x54
 18416 0694 26010000 		.4byte	.LVL568
 18417 0698 2A010000 		.4byte	.LVL569
 18418 069c 0100     		.2byte	0x1
 18419 069e 56       		.byte	0x56
 18420 069f 2A010000 		.4byte	.LVL569
 18421 06a3 30010000 		.4byte	.LVL570
 18422 06a7 0100     		.2byte	0x1
 18423 06a9 54       		.byte	0x54
 18424 06aa 3A010000 		.4byte	.LVL571
 18425 06ae 3C010000 		.4byte	.LVL572
 18426 06b2 0200     		.2byte	0x2
 18427 06b4 30       		.byte	0x30
 18428 06b5 9F       		.byte	0x9f
 18429 06b6 3C010000 		.4byte	.LVL572
ARM GAS  C:\Users\RECEPC~1\AppData\Local\Temp\ccNG63cQ.s 			page 367


 18430 06ba 54010000 		.4byte	.LVL573
 18431 06be 0100     		.2byte	0x1
 18432 06c0 54       		.byte	0x54
 18433 06c1 54010000 		.4byte	.LVL573
 18434 06c5 56010000 		.4byte	.LVL574
 18435 06c9 0300     		.2byte	0x3
 18436 06cb 74       		.byte	0x74
 18437 06cc 7F       		.sleb128 -1
 18438 06cd 9F       		.byte	0x9f
 18439 06ce 56010000 		.4byte	.LVL574
 18440 06d2 5E010000 		.4byte	.LVL575
 18441 06d6 0100     		.2byte	0x1
 18442 06d8 54       		.byte	0x54
 18443 06d9 84010000 		.4byte	.LVL577
 18444 06dd 86010000 		.4byte	.LVL578
 18445 06e1 0200     		.2byte	0x2
 18446 06e3 30       		.byte	0x30
 18447 06e4 9F       		.byte	0x9f
 18448 06e5 86010000 		.4byte	.LVL578
 18449 06e9 9E010000 		.4byte	.LVL579
 18450 06ed 0100     		.2byte	0x1
 18451 06ef 54       		.byte	0x54
 18452 06f0 9E010000 		.4byte	.LVL579
 18453 06f4 A0010000 		.4byte	.LVL580
 18454 06f8 0300     		.2byte	0x3
 18455 06fa 74       		.byte	0x74
 18456 06fb 7F       		.sleb128 -1
 18457 06fc 9F       		.byte	0x9f
 18458 06fd A0010000 		.4byte	.LVL580
 18459 0701 A8010000 		.4byte	.LVL581
 18460 0705 0100     		.2byte	0x1
 18461 0707 54       		.byte	0x54
 18462 0708 EC010000 		.4byte	.LVL587
 18463 070c F8010000 		.4byte	.LVL589
 18464 0710 0200     		.2byte	0x2
 18465 0712 37       		.byte	0x37
 18466 0713 9F       		.byte	0x9f
 18467 0714 F8010000 		.4byte	.LVL589
 18468 0718 02020000 		.4byte	.LVL590
 18469 071c 0100     		.2byte	0x1
 18470 071e 50       		.byte	0x50
 18471 071f 02020000 		.4byte	.LVL590
 18472 0723 04020000 		.4byte	.LVL591
 18473 0727 0300     		.2byte	0x3
 18474 0729 70       		.byte	0x70
 18475 072a 7F       		.sleb128 -1
 18476 072b 9F       		.byte	0x9f
 18477 072c 04020000 		.4byte	.LVL591
 18478 0730 14020000 		.4byte	.LVL592
 18479 0734 0100     		.2byte	0x1
 18480 0736 50       		.byte	0x50
 18481 0737 14020000 		.4byte	.LVL592
 18482 073b 3E020000 		.4byte	.LVL595
 18483 073f 0100     		.2byte	0x1
 18484 0741 54       		.byte	0x54
 18485 0742 3E020000 		.4byte	.LVL595
 18486 0746 48020000 		.4byte	.LVL596
ARM GAS  C:\Users\RECEPC~1\AppData\Local\Temp\ccNG63cQ.s 			page 368


 18487 074a 0100     		.2byte	0x1
 18488 074c 50       		.byte	0x50
 18489 074d 48020000 		.4byte	.LVL596
 18490 0751 4A020000 		.4byte	.LVL597
 18491 0755 0300     		.2byte	0x3
 18492 0757 70       		.byte	0x70
 18493 0758 7F       		.sleb128 -1
 18494 0759 9F       		.byte	0x9f
 18495 075a 4A020000 		.4byte	.LVL597
 18496 075e 4C020000 		.4byte	.LVL598
 18497 0762 0100     		.2byte	0x1
 18498 0764 50       		.byte	0x50
 18499 0765 4C020000 		.4byte	.LVL598
 18500 0769 4E020000 		.4byte	.LVL599
 18501 076d 0100     		.2byte	0x1
 18502 076f 54       		.byte	0x54
 18503 0770 4E020000 		.4byte	.LVL599
 18504 0774 54020000 		.4byte	.LVL600
 18505 0778 0100     		.2byte	0x1
 18506 077a 50       		.byte	0x50
 18507 077b 5E020000 		.4byte	.LVL601
 18508 077f 60020000 		.4byte	.LVL602
 18509 0783 0200     		.2byte	0x2
 18510 0785 30       		.byte	0x30
 18511 0786 9F       		.byte	0x9f
 18512 0787 60020000 		.4byte	.LVL602
 18513 078b 78020000 		.4byte	.LVL603
 18514 078f 0100     		.2byte	0x1
 18515 0791 50       		.byte	0x50
 18516 0792 78020000 		.4byte	.LVL603
 18517 0796 7A020000 		.4byte	.LVL604
 18518 079a 0300     		.2byte	0x3
 18519 079c 70       		.byte	0x70
 18520 079d 7F       		.sleb128 -1
 18521 079e 9F       		.byte	0x9f
 18522 079f 7A020000 		.4byte	.LVL604
 18523 07a3 82020000 		.4byte	.LVL605
 18524 07a7 0100     		.2byte	0x1
 18525 07a9 50       		.byte	0x50
 18526 07aa C6020000 		.4byte	.LVL609
 18527 07ae D4020000 		.4byte	.LVL611
 18528 07b2 0200     		.2byte	0x2
 18529 07b4 35       		.byte	0x35
 18530 07b5 9F       		.byte	0x9f
 18531 07b6 D4020000 		.4byte	.LVL611
 18532 07ba D6020000 		.4byte	.LVL612
 18533 07be 0100     		.2byte	0x1
 18534 07c0 50       		.byte	0x50
 18535 07c1 D6020000 		.4byte	.LVL612
 18536 07c5 DE020000 		.4byte	.LVL613
 18537 07c9 0100     		.2byte	0x1
 18538 07cb 54       		.byte	0x54
 18539 07cc DE020000 		.4byte	.LVL613
 18540 07d0 E0020000 		.4byte	.LVL614
 18541 07d4 0300     		.2byte	0x3
 18542 07d6 74       		.byte	0x74
 18543 07d7 7F       		.sleb128 -1
ARM GAS  C:\Users\RECEPC~1\AppData\Local\Temp\ccNG63cQ.s 			page 369


 18544 07d8 9F       		.byte	0x9f
 18545 07d9 E0020000 		.4byte	.LVL614
 18546 07dd F6020000 		.4byte	.LVL615
 18547 07e1 0100     		.2byte	0x1
 18548 07e3 54       		.byte	0x54
 18549 07e4 F6020000 		.4byte	.LVL615
 18550 07e8 20030000 		.4byte	.LVL618
 18551 07ec 0100     		.2byte	0x1
 18552 07ee 50       		.byte	0x50
 18553 07ef 20030000 		.4byte	.LVL618
 18554 07f3 2A030000 		.4byte	.LVL619
 18555 07f7 0100     		.2byte	0x1
 18556 07f9 54       		.byte	0x54
 18557 07fa 2A030000 		.4byte	.LVL619
 18558 07fe 2C030000 		.4byte	.LVL620
 18559 0802 0300     		.2byte	0x3
 18560 0804 74       		.byte	0x74
 18561 0805 7F       		.sleb128 -1
 18562 0806 9F       		.byte	0x9f
 18563 0807 2C030000 		.4byte	.LVL620
 18564 080b 2E030000 		.4byte	.LVL621
 18565 080f 0100     		.2byte	0x1
 18566 0811 54       		.byte	0x54
 18567 0812 2E030000 		.4byte	.LVL621
 18568 0816 32030000 		.4byte	.LVL622
 18569 081a 0100     		.2byte	0x1
 18570 081c 50       		.byte	0x50
 18571 081d 32030000 		.4byte	.LVL622
 18572 0821 42030000 		.4byte	.LVL623
 18573 0825 0100     		.2byte	0x1
 18574 0827 54       		.byte	0x54
 18575 0828 42030000 		.4byte	.LVL623
 18576 082c 50030000 		.4byte	.LVL624
 18577 0830 0200     		.2byte	0x2
 18578 0832 30       		.byte	0x30
 18579 0833 9F       		.byte	0x9f
 18580 0834 50030000 		.4byte	.LVL624
 18581 0838 68030000 		.4byte	.LVL625
 18582 083c 0100     		.2byte	0x1
 18583 083e 50       		.byte	0x50
 18584 083f 68030000 		.4byte	.LVL625
 18585 0843 6A030000 		.4byte	.LVL626
 18586 0847 0300     		.2byte	0x3
 18587 0849 70       		.byte	0x70
 18588 084a 7F       		.sleb128 -1
 18589 084b 9F       		.byte	0x9f
 18590 084c 6A030000 		.4byte	.LVL626
 18591 0850 72030000 		.4byte	.LVL627
 18592 0854 0100     		.2byte	0x1
 18593 0856 50       		.byte	0x50
 18594 0857 A0030000 		.4byte	.LVL630
 18595 085b AA030000 		.4byte	.LVL631
 18596 085f 0200     		.2byte	0x2
 18597 0861 37       		.byte	0x37
 18598 0862 9F       		.byte	0x9f
 18599 0863 AA030000 		.4byte	.LVL631
 18600 0867 AC030000 		.4byte	.LVL632
ARM GAS  C:\Users\RECEPC~1\AppData\Local\Temp\ccNG63cQ.s 			page 370


 18601 086b 0100     		.2byte	0x1
 18602 086d 51       		.byte	0x51
 18603 086e AC030000 		.4byte	.LVL632
 18604 0872 B4030000 		.4byte	.LVL633
 18605 0876 0100     		.2byte	0x1
 18606 0878 53       		.byte	0x53
 18607 0879 B4030000 		.4byte	.LVL633
 18608 087d B6030000 		.4byte	.LVL634
 18609 0881 0300     		.2byte	0x3
 18610 0883 73       		.byte	0x73
 18611 0884 7F       		.sleb128 -1
 18612 0885 9F       		.byte	0x9f
 18613 0886 B6030000 		.4byte	.LVL634
 18614 088a C4030000 		.4byte	.LVL635
 18615 088e 0100     		.2byte	0x1
 18616 0890 53       		.byte	0x53
 18617 0891 C4030000 		.4byte	.LVL635
 18618 0895 E8030000 		.4byte	.LVL640
 18619 0899 0100     		.2byte	0x1
 18620 089b 51       		.byte	0x51
 18621 089c E8030000 		.4byte	.LVL640
 18622 08a0 F2030000 		.4byte	.LVL641
 18623 08a4 0100     		.2byte	0x1
 18624 08a6 53       		.byte	0x53
 18625 08a7 F2030000 		.4byte	.LVL641
 18626 08ab F4030000 		.4byte	.LVL642
 18627 08af 0300     		.2byte	0x3
 18628 08b1 73       		.byte	0x73
 18629 08b2 7F       		.sleb128 -1
 18630 08b3 9F       		.byte	0x9f
 18631 08b4 F4030000 		.4byte	.LVL642
 18632 08b8 F6030000 		.4byte	.LVL643
 18633 08bc 0100     		.2byte	0x1
 18634 08be 53       		.byte	0x53
 18635 08bf F6030000 		.4byte	.LVL643
 18636 08c3 F8030000 		.4byte	.LVL644
 18637 08c7 0100     		.2byte	0x1
 18638 08c9 51       		.byte	0x51
 18639 08ca F8030000 		.4byte	.LVL644
 18640 08ce FE030000 		.4byte	.LVL645
 18641 08d2 0100     		.2byte	0x1
 18642 08d4 53       		.byte	0x53
 18643 08d5 08040000 		.4byte	.LVL646
 18644 08d9 0A040000 		.4byte	.LVL647
 18645 08dd 0200     		.2byte	0x2
 18646 08df 30       		.byte	0x30
 18647 08e0 9F       		.byte	0x9f
 18648 08e1 0A040000 		.4byte	.LVL647
 18649 08e5 22040000 		.4byte	.LVL648
 18650 08e9 0100     		.2byte	0x1
 18651 08eb 53       		.byte	0x53
 18652 08ec 22040000 		.4byte	.LVL648
 18653 08f0 24040000 		.4byte	.LVL649
 18654 08f4 0300     		.2byte	0x3
 18655 08f6 73       		.byte	0x73
 18656 08f7 7F       		.sleb128 -1
 18657 08f8 9F       		.byte	0x9f
ARM GAS  C:\Users\RECEPC~1\AppData\Local\Temp\ccNG63cQ.s 			page 371


 18658 08f9 24040000 		.4byte	.LVL649
 18659 08fd 2C040000 		.4byte	.LVL650
 18660 0901 0100     		.2byte	0x1
 18661 0903 53       		.byte	0x53
 18662 0904 6E040000 		.4byte	.LVL658
 18663 0908 72040000 		.4byte	.LVL659
 18664 090c 0200     		.2byte	0x2
 18665 090e 30       		.byte	0x30
 18666 090f 9F       		.byte	0x9f
 18667 0910 72040000 		.4byte	.LVL659
 18668 0914 80040000 		.4byte	.LVL661
 18669 0918 0100     		.2byte	0x1
 18670 091a 54       		.byte	0x54
 18671 091b 80040000 		.4byte	.LVL661
 18672 091f 82040000 		.4byte	.LVL662
 18673 0923 0300     		.2byte	0x3
 18674 0925 74       		.byte	0x74
 18675 0926 7F       		.sleb128 -1
 18676 0927 9F       		.byte	0x9f
 18677 0928 82040000 		.4byte	.LVL662
 18678 092c 9C040000 		.4byte	.LVL667
 18679 0930 0100     		.2byte	0x1
 18680 0932 54       		.byte	0x54
 18681 0933 A4040000 		.4byte	.LVL668
 18682 0937 A6040000 		.4byte	.LVL669
 18683 093b 0100     		.2byte	0x1
 18684 093d 54       		.byte	0x54
 18685 093e 00000000 		.4byte	0
 18686 0942 00000000 		.4byte	0
 18687              	.LLST20:
 18688 0946 EE000000 		.4byte	.LVL562
 18689 094a 0A010000 		.4byte	.LVL563
 18690 094e 0100     		.2byte	0x1
 18691 0950 54       		.byte	0x54
 18692 0951 0A010000 		.4byte	.LVL563
 18693 0955 0C010000 		.4byte	.LVL564
 18694 0959 0300     		.2byte	0x3
 18695 095b 74       		.byte	0x74
 18696 095c 7F       		.sleb128 -1
 18697 095d 9F       		.byte	0x9f
 18698 095e 0C010000 		.4byte	.LVL564
 18699 0962 18010000 		.4byte	.LVL565
 18700 0966 0100     		.2byte	0x1
 18701 0968 54       		.byte	0x54
 18702 0969 26010000 		.4byte	.LVL568
 18703 096d 2A010000 		.4byte	.LVL569
 18704 0971 0100     		.2byte	0x1
 18705 0973 54       		.byte	0x54
 18706 0974 14020000 		.4byte	.LVL592
 18707 0978 30020000 		.4byte	.LVL593
 18708 097c 0100     		.2byte	0x1
 18709 097e 50       		.byte	0x50
 18710 097f 30020000 		.4byte	.LVL593
 18711 0983 32020000 		.4byte	.LVL594
 18712 0987 0300     		.2byte	0x3
 18713 0989 70       		.byte	0x70
 18714 098a 7F       		.sleb128 -1
ARM GAS  C:\Users\RECEPC~1\AppData\Local\Temp\ccNG63cQ.s 			page 372


 18715 098b 9F       		.byte	0x9f
 18716 098c 32020000 		.4byte	.LVL594
 18717 0990 3E020000 		.4byte	.LVL595
 18718 0994 0100     		.2byte	0x1
 18719 0996 50       		.byte	0x50
 18720 0997 4C020000 		.4byte	.LVL598
 18721 099b 4E020000 		.4byte	.LVL599
 18722 099f 0100     		.2byte	0x1
 18723 09a1 50       		.byte	0x50
 18724 09a2 F6020000 		.4byte	.LVL615
 18725 09a6 12030000 		.4byte	.LVL616
 18726 09aa 0100     		.2byte	0x1
 18727 09ac 54       		.byte	0x54
 18728 09ad 12030000 		.4byte	.LVL616
 18729 09b1 14030000 		.4byte	.LVL617
 18730 09b5 0300     		.2byte	0x3
 18731 09b7 74       		.byte	0x74
 18732 09b8 7F       		.sleb128 -1
 18733 09b9 9F       		.byte	0x9f
 18734 09ba 14030000 		.4byte	.LVL617
 18735 09be 20030000 		.4byte	.LVL618
 18736 09c2 0100     		.2byte	0x1
 18737 09c4 54       		.byte	0x54
 18738 09c5 2E030000 		.4byte	.LVL621
 18739 09c9 32030000 		.4byte	.LVL622
 18740 09cd 0100     		.2byte	0x1
 18741 09cf 54       		.byte	0x54
 18742 09d0 C4030000 		.4byte	.LVL635
 18743 09d4 DC030000 		.4byte	.LVL636
 18744 09d8 0100     		.2byte	0x1
 18745 09da 53       		.byte	0x53
 18746 09db DC030000 		.4byte	.LVL636
 18747 09df DE030000 		.4byte	.LVL637
 18748 09e3 0300     		.2byte	0x3
 18749 09e5 73       		.byte	0x73
 18750 09e6 7F       		.sleb128 -1
 18751 09e7 9F       		.byte	0x9f
 18752 09e8 DE030000 		.4byte	.LVL637
 18753 09ec E0030000 		.4byte	.LVL638
 18754 09f0 0100     		.2byte	0x1
 18755 09f2 53       		.byte	0x53
 18756 09f3 E2030000 		.4byte	.LVL639
 18757 09f7 E8030000 		.4byte	.LVL640
 18758 09fb 0100     		.2byte	0x1
 18759 09fd 53       		.byte	0x53
 18760 09fe F6030000 		.4byte	.LVL643
 18761 0a02 F8030000 		.4byte	.LVL644
 18762 0a06 0100     		.2byte	0x1
 18763 0a08 53       		.byte	0x53
 18764 0a09 00000000 		.4byte	0
 18765 0a0d 00000000 		.4byte	0
 18766              	.LLST21:
 18767 0a11 16000000 		.4byte	.LVL541
 18768 0a15 60000000 		.4byte	.LVL546
 18769 0a19 0200     		.2byte	0x2
 18770 0a1b 30       		.byte	0x30
 18771 0a1c 9F       		.byte	0x9f
ARM GAS  C:\Users\RECEPC~1\AppData\Local\Temp\ccNG63cQ.s 			page 373


 18772 0a1d 60000000 		.4byte	.LVL546
 18773 0a21 64000000 		.4byte	.LVL547
 18774 0a25 0100     		.2byte	0x1
 18775 0a27 55       		.byte	0x55
 18776 0a28 64000000 		.4byte	.LVL547
 18777 0a2c 66000000 		.4byte	.LVL548
 18778 0a30 0300     		.2byte	0x3
 18779 0a32 75       		.byte	0x75
 18780 0a33 7F       		.sleb128 -1
 18781 0a34 9F       		.byte	0x9f
 18782 0a35 66000000 		.4byte	.LVL548
 18783 0a39 74000000 		.4byte	.LVL550
 18784 0a3d 0100     		.2byte	0x1
 18785 0a3f 55       		.byte	0x55
 18786 0a40 74000000 		.4byte	.LVL550
 18787 0a44 76000000 		.4byte	.LVL551
 18788 0a48 0300     		.2byte	0x3
 18789 0a4a 75       		.byte	0x75
 18790 0a4b 7F       		.sleb128 -1
 18791 0a4c 9F       		.byte	0x9f
 18792 0a4d 76000000 		.4byte	.LVL551
 18793 0a51 8A000000 		.4byte	.LVL555
 18794 0a55 0100     		.2byte	0x1
 18795 0a57 55       		.byte	0x55
 18796 0a58 8A000000 		.4byte	.LVL555
 18797 0a5c 8C000000 		.4byte	.LVL556
 18798 0a60 0300     		.2byte	0x3
 18799 0a62 75       		.byte	0x75
 18800 0a63 01       		.sleb128 1
 18801 0a64 9F       		.byte	0x9f
 18802 0a65 8C000000 		.4byte	.LVL556
 18803 0a69 D4010000 		.4byte	.LVL585
 18804 0a6d 0100     		.2byte	0x1
 18805 0a6f 55       		.byte	0x55
 18806 0a70 D4010000 		.4byte	.LVL585
 18807 0a74 D6010000 		.4byte	.LVL586
 18808 0a78 0300     		.2byte	0x3
 18809 0a7a 75       		.byte	0x75
 18810 0a7b 01       		.sleb128 1
 18811 0a7c 9F       		.byte	0x9f
 18812 0a7d D6010000 		.4byte	.LVL586
 18813 0a81 F6020000 		.4byte	.LVL615
 18814 0a85 0100     		.2byte	0x1
 18815 0a87 55       		.byte	0x55
 18816 0a88 F6020000 		.4byte	.LVL615
 18817 0a8c C4030000 		.4byte	.LVL635
 18818 0a90 0100     		.2byte	0x1
 18819 0a92 56       		.byte	0x56
 18820 0a93 C4030000 		.4byte	.LVL635
 18821 0a97 E0030000 		.4byte	.LVL638
 18822 0a9b 0100     		.2byte	0x1
 18823 0a9d 5C       		.byte	0x5c
 18824 0a9e E0030000 		.4byte	.LVL638
 18825 0aa2 E2030000 		.4byte	.LVL639
 18826 0aa6 0100     		.2byte	0x1
 18827 0aa8 56       		.byte	0x56
 18828 0aa9 E2030000 		.4byte	.LVL639
ARM GAS  C:\Users\RECEPC~1\AppData\Local\Temp\ccNG63cQ.s 			page 374


 18829 0aad 46040000 		.4byte	.LVL652
 18830 0ab1 0100     		.2byte	0x1
 18831 0ab3 5C       		.byte	0x5c
 18832 0ab4 46040000 		.4byte	.LVL652
 18833 0ab8 4A040000 		.4byte	.LVL653
 18834 0abc 0100     		.2byte	0x1
 18835 0abe 56       		.byte	0x56
 18836 0abf 98040000 		.4byte	.LVL665
 18837 0ac3 9C040000 		.4byte	.LVL667
 18838 0ac7 0100     		.2byte	0x1
 18839 0ac9 55       		.byte	0x55
 18840 0aca 00000000 		.4byte	0
 18841 0ace 00000000 		.4byte	0
 18842              	.LLST22:
 18843 0ad2 00000000 		.4byte	.LVL670
 18844 0ad6 94000000 		.4byte	.LVL671
 18845 0ada 0100     		.2byte	0x1
 18846 0adc 50       		.byte	0x50
 18847 0add 94000000 		.4byte	.LVL671
 18848 0ae1 BA000000 		.4byte	.LVL672
 18849 0ae5 0400     		.2byte	0x4
 18850 0ae7 F3       		.byte	0xf3
 18851 0ae8 01       		.uleb128 0x1
 18852 0ae9 50       		.byte	0x50
 18853 0aea 9F       		.byte	0x9f
 18854 0aeb BA000000 		.4byte	.LVL672
 18855 0aef D2000000 		.4byte	.LVL673
 18856 0af3 0100     		.2byte	0x1
 18857 0af5 50       		.byte	0x50
 18858 0af6 D2000000 		.4byte	.LVL673
 18859 0afa B4020000 		.4byte	.LFE71
 18860 0afe 0400     		.2byte	0x4
 18861 0b00 F3       		.byte	0xf3
 18862 0b01 01       		.uleb128 0x1
 18863 0b02 50       		.byte	0x50
 18864 0b03 9F       		.byte	0x9f
 18865 0b04 00000000 		.4byte	0
 18866 0b08 00000000 		.4byte	0
 18867              	.LLST23:
 18868 0b0c 5A010000 		.4byte	.LVL674
 18869 0b10 28020000 		.4byte	.LVL675
 18870 0b14 0200     		.2byte	0x2
 18871 0b16 3C       		.byte	0x3c
 18872 0b17 9F       		.byte	0x9f
 18873 0b18 28020000 		.4byte	.LVL675
 18874 0b1c 2C020000 		.4byte	.LVL676
 18875 0b20 0200     		.2byte	0x2
 18876 0b22 3E       		.byte	0x3e
 18877 0b23 9F       		.byte	0x9f
 18878 0b24 2C020000 		.4byte	.LVL676
 18879 0b28 2E020000 		.4byte	.LVL677
 18880 0b2c 0200     		.2byte	0x2
 18881 0b2e 3C       		.byte	0x3c
 18882 0b2f 9F       		.byte	0x9f
 18883 0b30 2E020000 		.4byte	.LVL677
 18884 0b34 96020000 		.4byte	.LVL686
 18885 0b38 0100     		.2byte	0x1
ARM GAS  C:\Users\RECEPC~1\AppData\Local\Temp\ccNG63cQ.s 			page 375


 18886 0b3a 56       		.byte	0x56
 18887 0b3b 00000000 		.4byte	0
 18888 0b3f 00000000 		.4byte	0
 18889              		.section	.debug_aranges,"",%progbits
 18890 0000 5C000000 		.4byte	0x5c
 18891 0004 0200     		.2byte	0x2
 18892 0006 00000000 		.4byte	.Ldebug_info0
 18893 000a 04       		.byte	0x4
 18894 000b 00       		.byte	0
 18895 000c 0000     		.2byte	0
 18896 000e 0000     		.2byte	0
 18897 0010 00000000 		.4byte	.LFB63
 18898 0014 7C000000 		.4byte	.LFE63-.LFB63
 18899 0018 00000000 		.4byte	.LFB64
 18900 001c 26000000 		.4byte	.LFE64-.LFB64
 18901 0020 00000000 		.4byte	.LFB65
 18902 0024 1C000000 		.4byte	.LFE65-.LFB65
 18903 0028 00000000 		.4byte	.LFB66
 18904 002c E8000000 		.4byte	.LFE66-.LFB66
 18905 0030 00000000 		.4byte	.LFB67
 18906 0034 12000000 		.4byte	.LFE67-.LFB67
 18907 0038 00000000 		.4byte	.LFB68
 18908 003c E8010000 		.4byte	.LFE68-.LFB68
 18909 0040 00000000 		.4byte	.LFB69
 18910 0044 F02C0000 		.4byte	.LFE69-.LFB69
 18911 0048 00000000 		.4byte	.LFB70
 18912 004c B4040000 		.4byte	.LFE70-.LFB70
 18913 0050 00000000 		.4byte	.LFB71
 18914 0054 B4020000 		.4byte	.LFE71-.LFB71
 18915 0058 00000000 		.4byte	0
 18916 005c 00000000 		.4byte	0
 18917              		.section	.debug_ranges,"",%progbits
 18918              	.Ldebug_ranges0:
 18919 0000 00000000 		.4byte	.LFB63
 18920 0004 7C000000 		.4byte	.LFE63
 18921 0008 00000000 		.4byte	.LFB64
 18922 000c 26000000 		.4byte	.LFE64
 18923 0010 00000000 		.4byte	.LFB65
 18924 0014 1C000000 		.4byte	.LFE65
 18925 0018 00000000 		.4byte	.LFB66
 18926 001c E8000000 		.4byte	.LFE66
 18927 0020 00000000 		.4byte	.LFB67
 18928 0024 12000000 		.4byte	.LFE67
 18929 0028 00000000 		.4byte	.LFB68
 18930 002c E8010000 		.4byte	.LFE68
 18931 0030 00000000 		.4byte	.LFB69
 18932 0034 F02C0000 		.4byte	.LFE69
 18933 0038 00000000 		.4byte	.LFB70
 18934 003c B4040000 		.4byte	.LFE70
 18935 0040 00000000 		.4byte	.LFB71
 18936 0044 B4020000 		.4byte	.LFE71
 18937 0048 00000000 		.4byte	0
 18938 004c 00000000 		.4byte	0
 18939              		.section	.debug_line,"",%progbits
 18940              	.Ldebug_line0:
 18941 0000 C7150000 		.section	.debug_str,"MS",%progbits,1
 18941      02009101 
ARM GAS  C:\Users\RECEPC~1\AppData\Local\Temp\ccNG63cQ.s 			page 376


 18941      00000201 
 18941      FB0E0D00 
 18941      01010101 
 18942              	.LASF26:
 18943 0000 70617373 		.ascii	"password\000"
 18943      776F7264 
 18943      00
 18944              	.LASF69:
 18945 0009 666C756A 		.ascii	"flujo_LCD2\000"
 18945      6F5F4C43 
 18945      443200
 18946              	.LASF31:
 18947 0014 66756E63 		.ascii	"funcion\000"
 18947      696F6E00 
 18948              	.LASF71:
 18949 001c 636F756E 		.ascii	"count_protector2\000"
 18949      745F7072 
 18949      6F746563 
 18949      746F7232 
 18949      00
 18950              	.LASF113:
 18951 002d 6C61646F 		.ascii	"lado\000"
 18951      00
 18952              	.LASF72:
 18953 0032 6F6B5F4C 		.ascii	"ok_LCD1\000"
 18953      43443100 
 18954              	.LASF73:
 18955 003a 6F6B5F4C 		.ascii	"ok_LCD2\000"
 18955      43443200 
 18956              	.LASF80:
 18957 0042 76657273 		.ascii	"versurt\000"
 18957      75727400 
 18958              	.LASF28:
 18959 004a 62756666 		.ascii	"buffer\000"
 18959      657200
 18960              	.LASF8:
 18961 0051 756E7369 		.ascii	"unsigned int\000"
 18961      676E6564 
 18961      20696E74 
 18961      00
 18962              	.LASF123:
 18963 005e 6D736E5F 		.ascii	"msn_totalcero\000"
 18963      746F7461 
 18963      6C636572 
 18963      6F00
 18964              	.LASF79:
 18965 006c 76657273 		.ascii	"version\000"
 18965      696F6E00 
 18966              	.LASF86:
 18967 0074 636F7272 		.ascii	"corriente2\000"
 18967      69656E74 
 18967      653200
 18968              	.LASF9:
 18969 007f 5F5F696E 		.ascii	"__int32_t\000"
 18969      7433325F 
 18969      7400
 18970              	.LASF24:
ARM GAS  C:\Users\RECEPC~1\AppData\Local\Temp\ccNG63cQ.s 			page 377


 18971 0089 706F7376 		.ascii	"posventa\000"
 18971      656E7461 
 18971      00
 18972              	.LASF92:
 18973 0092 7465636C 		.ascii	"teclado2\000"
 18973      61646F32 
 18973      00
 18974              	.LASF82:
 18975 009b 64696573 		.ascii	"diesel\000"
 18975      656C00
 18976              	.LASF19:
 18977 00a2 636F6D61 		.ascii	"comando\000"
 18977      6E646F00 
 18978              	.LASF64:
 18979 00aa 64656369 		.ascii	"decimal\000"
 18979      6D616C00 
 18980              	.LASF128:
 18981 00b2 77726974 		.ascii	"write_eeprom\000"
 18981      655F6565 
 18981      70726F6D 
 18981      00
 18982              	.LASF87:
 18983 00bf 64696573 		.ascii	"diesel2\000"
 18983      656C3200 
 18984              	.LASF41:
 18985 00c7 686F7261 		.ascii	"hora\000"
 18985      00
 18986              	.LASF75:
 18987 00cc 7465636C 		.ascii	"teclas1\000"
 18987      61733100 
 18988              	.LASF76:
 18989 00d4 7465636C 		.ascii	"teclas2\000"
 18989      61733200 
 18990              	.LASF126:
 18991 00dc 53757274 		.ascii	"Surtidor_GetRxBufferSize\000"
 18991      69646F72 
 18991      5F476574 
 18991      52784275 
 18991      66666572 
 18992              	.LASF47:
 18993 00f5 7464696E 		.ascii	"tdinero\000"
 18993      65726F00 
 18994              	.LASF42:
 18995 00fd 706F7369 		.ascii	"posicion\000"
 18995      63696F6E 
 18995      00
 18996              	.LASF115:
 18997 0106 7276656E 		.ascii	"rventa2\000"
 18997      74613200 
 18998              	.LASF97:
 18999 010e 64656369 		.ascii	"decimalD\000"
 18999      6D616C44 
 18999      00
 19000              	.LASF37:
 19001 0117 64697265 		.ascii	"direccion\000"
 19001      6363696F 
 19001      6E00
ARM GAS  C:\Users\RECEPC~1\AppData\Local\Temp\ccNG63cQ.s 			page 378


 19002              	.LASF129:
 19003 0121 77726974 		.ascii	"write_psoc1\000"
 19003      655F7073 
 19003      6F633100 
 19004              	.LASF20:
 19005 012d 70726573 		.ascii	"preset\000"
 19005      657400
 19006              	.LASF90:
 19007 0134 72657375 		.ascii	"resultado\000"
 19007      6C746164 
 19007      6F00
 19008              	.LASF14:
 19009 013e 666C6F61 		.ascii	"float\000"
 19009      7400
 19010              	.LASF121:
 19011 0144 6D736E5F 		.ascii	"msn_lecaan\000"
 19011      6C656361 
 19011      616E00
 19012              	.LASF89:
 19013 014f 62756666 		.ascii	"buffer_i2c\000"
 19013      65725F69 
 19013      326300
 19014              	.LASF133:
 19015 015a 6F706572 		.ascii	"operacion\000"
 19015      6163696F 
 19015      6E00
 19016              	.LASF38:
 19017 0164 6C656D61 		.ascii	"lema1\000"
 19017      3100
 19018              	.LASF39:
 19019 016a 6C656D61 		.ascii	"lema2\000"
 19019      3200
 19020              	.LASF7:
 19021 0170 6C6F6E67 		.ascii	"long long unsigned int\000"
 19021      206C6F6E 
 19021      6720756E 
 19021      7369676E 
 19021      65642069 
 19022              	.LASF91:
 19023 0187 7465636C 		.ascii	"teclado\000"
 19023      61646F00 
 19024              	.LASF22:
 19025 018f 6375656E 		.ascii	"cuenta\000"
 19025      746100
 19026              	.LASF135:
 19027 0196 2E5C5072 		.ascii	".\\Protocolo.c\000"
 19027      6F746F63 
 19027      6F6C6F2E 
 19027      6300
 19028              	.LASF122:
 19029 01a4 6D736E5F 		.ascii	"msn_tventas\000"
 19029      7476656E 
 19029      74617300 
 19030              	.LASF116:
 19031 01b0 6D736E5F 		.ascii	"msn_tc\000"
 19031      746300
 19032              	.LASF118:
ARM GAS  C:\Users\RECEPC~1\AppData\Local\Temp\ccNG63cQ.s 			page 379


 19033 01b7 6D736E5F 		.ascii	"msn_td\000"
 19033      746400
 19034              	.LASF117:
 19035 01be 6D736E5F 		.ascii	"msn_te\000"
 19035      746500
 19036              	.LASF119:
 19037 01c5 6D736E5F 		.ascii	"msn_tk\000"
 19037      746B00
 19038              	.LASF66:
 19039 01cc 53757274 		.ascii	"Surtidor_rxBuffer\000"
 19039      69646F72 
 19039      5F727842 
 19039      75666665 
 19039      7200
 19040              	.LASF23:
 19041 01de 706C6163 		.ascii	"placa\000"
 19041      6100
 19042              	.LASF60:
 19043 01e4 73757374 		.ascii	"sustraendo\000"
 19043      7261656E 
 19043      646F00
 19044              	.LASF83:
 19045 01ef 636F7272 		.ascii	"corriente\000"
 19045      69656E74 
 19045      6500
 19046              	.LASF106:
 19047 01f9 6E6F5F76 		.ascii	"no_venta\000"
 19047      656E7461 
 19047      00
 19048              	.LASF48:
 19049 0202 7665725F 		.ascii	"ver_pos\000"
 19049      706F7300 
 19050              	.LASF45:
 19051 020a 766F6C75 		.ascii	"volumen\000"
 19051      6D656E00 
 19052              	.LASF55:
 19053 0212 76656E74 		.ascii	"venta\000"
 19053      6100
 19054              	.LASF36:
 19055 0218 74656C65 		.ascii	"telefono\000"
 19055      666F6E6F 
 19055      00
 19056              	.LASF85:
 19057 0221 65787472 		.ascii	"extra2\000"
 19057      613200
 19058              	.LASF105:
 19059 0228 69645F76 		.ascii	"id_venta\000"
 19059      656E7461 
 19059      00
 19060              	.LASF46:
 19061 0231 74766F6C 		.ascii	"tvolumen\000"
 19061      756D656E 
 19061      00
 19062              	.LASF120:
 19063 023a 6D736E5F 		.ascii	"msn_lecact\000"
 19063      6C656361 
 19063      637400
ARM GAS  C:\Users\RECEPC~1\AppData\Local\Temp\ccNG63cQ.s 			page 380


 19064              	.LASF132:
 19065 0245 7072696E 		.ascii	"print_totales\000"
 19065      745F746F 
 19065      74616C65 
 19065      7300
 19066              	.LASF54:
 19067 0253 64657465 		.ascii	"detener\000"
 19067      6E657200 
 19068              	.LASF52:
 19069 025b 636F6D61 		.ascii	"comand_exten\000"
 19069      6E645F65 
 19069      7874656E 
 19069      00
 19070              	.LASF98:
 19071 0268 66656368 		.ascii	"fecha_corte\000"
 19071      615F636F 
 19071      72746500 
 19072              	.LASF16:
 19073 0274 63686172 		.ascii	"char\000"
 19073      00
 19074              	.LASF58:
 19075 0279 636F7274 		.ascii	"corte\000"
 19075      6500
 19076              	.LASF125:
 19077 027f 43794465 		.ascii	"CyDelay\000"
 19077      6C617900 
 19078              	.LASF12:
 19079 0287 75696E74 		.ascii	"uint16\000"
 19079      313600
 19080              	.LASF110:
 19081 028e 6D6F6475 		.ascii	"modulo\000"
 19081      6C6F00
 19082              	.LASF101:
 19083 0295 7072696E 		.ascii	"print1\000"
 19083      743100
 19084              	.LASF102:
 19085 029c 7072696E 		.ascii	"print2\000"
 19085      743200
 19086              	.LASF27:
 19087 02a3 7475726E 		.ascii	"turno\000"
 19087      6F00
 19088              	.LASF137:
 19089 02a9 53757274 		.ascii	"Surtidor_ClearRxBuffer\000"
 19089      69646F72 
 19089      5F436C65 
 19089      61725278 
 19089      42756666 
 19090              	.LASF88:
 19091 02c0 6B65726F 		.ascii	"kero2\000"
 19091      3200
 19092              	.LASF108:
 19093 02c6 42756666 		.ascii	"Buffer_LCD2\000"
 19093      65725F4C 
 19093      43443200 
 19094              	.LASF6:
 19095 02d2 6C6F6E67 		.ascii	"long long int\000"
 19095      206C6F6E 
ARM GAS  C:\Users\RECEPC~1\AppData\Local\Temp\ccNG63cQ.s 			page 381


 19095      6720696E 
 19095      7400
 19096              	.LASF43:
 19097 02e0 70726F64 		.ascii	"producto\000"
 19097      7563746F 
 19097      00
 19098              	.LASF35:
 19099 02e9 636F6E66 		.ascii	"configppu\000"
 19099      69677070 
 19099      7500
 19100              	.LASF136:
 19101 02f3 433A5C55 		.ascii	"C:\\Users\\Recepcion\\Documents\\NMUX\\Unificada\\U"
 19101      73657273 
 19101      5C526563 
 19101      65706369 
 19101      6F6E5C44 
 19102 0320 6E696669 		.ascii	"nificada.cydsn\000"
 19102      63616461 
 19102      2E637964 
 19102      736E00
 19103              	.LASF65:
 19104 032f 63616D62 		.ascii	"cambiar_precio\000"
 19104      6961725F 
 19104      70726563 
 19104      696F00
 19105              	.LASF25:
 19106 033e 63656475 		.ascii	"cedula\000"
 19106      6C6100
 19107              	.LASF127:
 19108 0345 53757274 		.ascii	"Surtidor_ReadRxData\000"
 19108      69646F72 
 19108      5F526561 
 19108      64527844 
 19108      61746100 
 19109              	.LASF18:
 19110 0359 73697A65 		.ascii	"size\000"
 19110      00
 19111              	.LASF13:
 19112 035e 75696E74 		.ascii	"uint32\000"
 19112      333200
 19113              	.LASF104:
 19114 0365 69645F63 		.ascii	"id_corte\000"
 19114      6F727465 
 19114      00
 19115              	.LASF33:
 19116 036e 72656369 		.ascii	"recibo\000"
 19116      626F00
 19117              	.LASF44:
 19118 0375 64696E65 		.ascii	"dinero\000"
 19118      726F00
 19119              	.LASF107:
 19120 037c 42756666 		.ascii	"Buffer_LCD1\000"
 19120      65725F4C 
 19120      43443100 
 19121              	.LASF29:
 19122 0388 65737461 		.ascii	"estado\000"
 19122      646F00
ARM GAS  C:\Users\RECEPC~1\AppData\Local\Temp\ccNG63cQ.s 			page 382


 19123              	.LASF131:
 19124 038f 6C656572 		.ascii	"leer_eeprom\000"
 19124      5F656570 
 19124      726F6D00 
 19125              	.LASF134:
 19126 039b 474E5520 		.ascii	"GNU C 4.8.4 20140526 (release) [ARM/embedded-4_8-br"
 19126      4320342E 
 19126      382E3420 
 19126      32303134 
 19126      30353236 
 19127 03ce 616E6368 		.ascii	"anch revision 211358] -mcpu=cortex-m3 -mthumb -g -O"
 19127      20726576 
 19127      6973696F 
 19127      6E203231 
 19127      31333538 
 19128 0401 67202D66 		.ascii	"g -ffunction-sections\000"
 19128      66756E63 
 19128      74696F6E 
 19128      2D736563 
 19128      74696F6E 
 19129              	.LASF93:
 19130 0417 70707578 		.ascii	"ppux10\000"
 19130      313000
 19131              	.LASF34:
 19132 041e 6E6F6D62 		.ascii	"nombre\000"
 19132      726500
 19133              	.LASF100:
 19134 0425 6372635F 		.ascii	"crc_total\000"
 19134      746F7461 
 19134      6C00
 19135              	.LASF68:
 19136 042f 666C756A 		.ascii	"flujo_LCD\000"
 19136      6F5F4C43 
 19136      4400
 19137              	.LASF99:
 19138 0439 706F735F 		.ascii	"pos_ibutton\000"
 19138      69627574 
 19138      746F6E00 
 19139              	.LASF2:
 19140 0445 73686F72 		.ascii	"short int\000"
 19140      7420696E 
 19140      7400
 19141              	.LASF4:
 19142 044f 6C6F6E67 		.ascii	"long int\000"
 19142      20696E74 
 19142      00
 19143              	.LASF103:
 19144 0458 636F7069 		.ascii	"copia_recibo\000"
 19144      615F7265 
 19144      6369626F 
 19144      00
 19145              	.LASF67:
 19146 0465 49544D5F 		.ascii	"ITM_RxBuffer\000"
 19146      52784275 
 19146      66666572 
 19146      00
 19147              	.LASF57:
ARM GAS  C:\Users\RECEPC~1\AppData\Local\Temp\ccNG63cQ.s 			page 383


 19148 0472 6765745F 		.ascii	"get_totales\000"
 19148      746F7461 
 19148      6C657300 
 19149              	.LASF32:
 19150 047e 73757274 		.ascii	"surtidor\000"
 19150      69646F72 
 19150      00
 19151              	.LASF77:
 19152 0487 636F6D61 		.ascii	"comas1\000"
 19152      733100
 19153              	.LASF78:
 19154 048e 636F6D61 		.ascii	"comas2\000"
 19154      733200
 19155              	.LASF63:
 19156 0495 74656D70 		.ascii	"temp\000"
 19156      00
 19157              	.LASF111:
 19158 049a 70726F64 		.ascii	"producto1\000"
 19158      7563746F 
 19158      3100
 19159              	.LASF112:
 19160 04a4 70726F64 		.ascii	"producto2\000"
 19160      7563746F 
 19160      3200
 19161              	.LASF109:
 19162 04ae 65737461 		.ascii	"estado_0\000"
 19162      646F5F30 
 19162      00
 19163              	.LASF81:
 19164 04b7 65787472 		.ascii	"extra\000"
 19164      6100
 19165              	.LASF50:
 19166 04bd 65737461 		.ascii	"estado_ex\000"
 19166      646F5F65 
 19166      7800
 19167              	.LASF74:
 19168 04c7 636F6E74 		.ascii	"cont1\000"
 19168      3100
 19169              	.LASF61:
 19170 04cd 70726F67 		.ascii	"programar\000"
 19170      72616D61 
 19170      7200
 19171              	.LASF17:
 19172 04d7 73697A65 		.ascii	"sizetype\000"
 19172      74797065 
 19172      00
 19173              	.LASF5:
 19174 04e0 6C6F6E67 		.ascii	"long unsigned int\000"
 19174      20756E73 
 19174      69676E65 
 19174      6420696E 
 19174      7400
 19175              	.LASF56:
 19176 04f2 72785F76 		.ascii	"rx_venta\000"
 19176      656E7461 
 19176      00
 19177              	.LASF94:
ARM GAS  C:\Users\RECEPC~1\AppData\Local\Temp\ccNG63cQ.s 			page 384


 19178 04fb 62616E64 		.ascii	"bandera\000"
 19178      65726100 
 19179              	.LASF138:
 19180 0503 7072696E 		.ascii	"print_valor\000"
 19180      745F7661 
 19180      6C6F7200 
 19181              	.LASF10:
 19182 050f 696E7433 		.ascii	"int32_t\000"
 19182      325F7400 
 19183              	.LASF1:
 19184 0517 756E7369 		.ascii	"unsigned char\000"
 19184      676E6564 
 19184      20636861 
 19184      7200
 19185              	.LASF49:
 19186 0525 6765745F 		.ascii	"get_estado\000"
 19186      65737461 
 19186      646F00
 19187              	.LASF40:
 19188 0530 66656368 		.ascii	"fecha\000"
 19188      6100
 19189              	.LASF53:
 19190 0536 7665725F 		.ascii	"ver_error\000"
 19190      6572726F 
 19190      7200
 19191              	.LASF0:
 19192 0540 7369676E 		.ascii	"signed char\000"
 19192      65642063 
 19192      68617200 
 19193              	.LASF21:
 19194 054c 76616C6F 		.ascii	"valor\000"
 19194      7200
 19195              	.LASF70:
 19196 0552 636F756E 		.ascii	"count_protector\000"
 19196      745F7072 
 19196      6F746563 
 19196      746F7200 
 19197              	.LASF3:
 19198 0562 73686F72 		.ascii	"short unsigned int\000"
 19198      7420756E 
 19198      7369676E 
 19198      65642069 
 19198      6E7400
 19199              	.LASF59:
 19200 0575 6D696E75 		.ascii	"minuendo\000"
 19200      656E646F 
 19200      00
 19201              	.LASF124:
 19202 057e 53757274 		.ascii	"Surtidor_PutChar\000"
 19202      69646F72 
 19202      5F507574 
 19202      43686172 
 19202      00
 19203              	.LASF96:
 19204 058f 64656369 		.ascii	"decimalV\000"
 19204      6D616C56 
 19204      00
ARM GAS  C:\Users\RECEPC~1\AppData\Local\Temp\ccNG63cQ.s 			page 385


 19205              	.LASF130:
 19206 0598 7072696E 		.ascii	"print_totalesac\000"
 19206      745F746F 
 19206      74616C65 
 19206      73616300 
 19207              	.LASF11:
 19208 05a8 75696E74 		.ascii	"uint8\000"
 19208      3800
 19209              	.LASF15:
 19210 05ae 646F7562 		.ascii	"double\000"
 19210      6C6500
 19211              	.LASF51:
 19212 05b5 72785F65 		.ascii	"rx_extend\000"
 19212      7874656E 
 19212      6400
 19213              	.LASF84:
 19214 05bf 6B65726F 		.ascii	"kero\000"
 19214      00
 19215              	.LASF95:
 19216 05c4 7469706F 		.ascii	"tipo_imp\000"
 19216      5F696D70 
 19216      00
 19217              	.LASF30:
 19218 05cd 6D616E67 		.ascii	"manguera\000"
 19218      75657261 
 19218      00
 19219              	.LASF114:
 19220 05d6 7276656E 		.ascii	"rventa\000"
 19220      746100
 19221              	.LASF62:
 19222 05dd 67726164 		.ascii	"grado\000"
 19222      6F00
 19223              		.ident	"GCC: (GNU Tools for ARM Embedded Processors) 4.8.4 20140526 (release) [ARM/embedded-4_8-br
