ARM GAS  C:\Users\RECEPC~1\AppData\Local\Temp\ccNG63cQ.s 			page 1


   1              		.syntax unified
   2              		.cpu cortex-m3
   3              		.fpu softvfp
   4              		.eabi_attribute 20, 1
   5              		.eabi_attribute 21, 1
   6              		.eabi_attribute 23, 3
   7              		.eabi_attribute 24, 1
   8              		.eabi_attribute 25, 1
   9              		.eabi_attribute 26, 1
  10              		.eabi_attribute 30, 1
  11              		.eabi_attribute 34, 1
  12              		.eabi_attribute 18, 4
  13              		.thumb
  14              		.file	"Protocolo.c"
  15              		.text
  16              	.Ltext0:
  17              		.cfi_sections	.debug_frame
  18              		.section	.text.ver_pos,"ax",%progbits
  19              		.align	2
  20              		.global	ver_pos
  21              		.thumb
  22              		.thumb_func
  23              		.type	ver_pos, %function
  24              	ver_pos:
  25              	.LFB63:
  26              		.file 1 ".\\Protocolo.c"
   1:.\Protocolo.c **** /*
   2:.\Protocolo.c **** ***************************************************************************************************
   3:.\Protocolo.c **** *                                           GRP550/700 CODE
   4:.\Protocolo.c **** *
   5:.\Protocolo.c **** *                             (c) Copyright 2013; Sistemas Insepet LTDA
   6:.\Protocolo.c **** *
   7:.\Protocolo.c **** *               All rights reserved.  Protected by international copyright laws.
   8:.\Protocolo.c **** *               Knowledge of the source code may NOT be used to develop a similar product.
   9:.\Protocolo.c **** *               Please help us continue to provide the Embedded community with the finest
  10:.\Protocolo.c **** *               software available.  Your honesty is greatly appreciated.
  11:.\Protocolo.c **** ***************************************************************************************************
  12:.\Protocolo.c **** */
  13:.\Protocolo.c **** 
  14:.\Protocolo.c **** /*
  15:.\Protocolo.c **** ***************************************************************************************************
  16:.\Protocolo.c **** *
  17:.\Protocolo.c **** *                                             GRP550/700 CODE
  18:.\Protocolo.c **** *
  19:.\Protocolo.c **** *                                             CYPRESS PSoC5LP
  20:.\Protocolo.c **** *                                                with the
  21:.\Protocolo.c **** *                                            CY8C5969AXI-LP035
  22:.\Protocolo.c **** *
  23:.\Protocolo.c **** * Filename      : Protocolo.c
  24:.\Protocolo.c **** * Version       : V1.00
  25:.\Protocolo.c **** * Programmer(s) : 
  26:.\Protocolo.c ****                   
  27:.\Protocolo.c **** ***************************************************************************************************
  28:.\Protocolo.c **** */
  29:.\Protocolo.c **** 
  30:.\Protocolo.c **** 
  31:.\Protocolo.c **** /*
ARM GAS  C:\Users\RECEPC~1\AppData\Local\Temp\ccNG63cQ.s 			page 2


  32:.\Protocolo.c **** ***************************************************************************************************
  33:.\Protocolo.c **** *                                             INCLUDE FILES
  34:.\Protocolo.c **** ***************************************************************************************************
  35:.\Protocolo.c **** */
  36:.\Protocolo.c **** #include <device.h>
  37:.\Protocolo.c **** #include "VariablesG.h"
  38:.\Protocolo.c **** #include "i2c.h"
  39:.\Protocolo.c **** #include "Print.h"
  40:.\Protocolo.c **** 
  41:.\Protocolo.c **** /*
  42:.\Protocolo.c **** ***************************************************************************************************
  43:.\Protocolo.c **** *                                            	MENSAJES
  44:.\Protocolo.c **** ***************************************************************************************************
  45:.\Protocolo.c **** */
  46:.\Protocolo.c **** 
  47:.\Protocolo.c **** uint8 msn_tc[17]="DIESEL P TOTAL";
  48:.\Protocolo.c **** uint8 msn_te[13]="DIESEL TOTAL";
  49:.\Protocolo.c **** uint8 msn_td[14]="SANS P TOTAL";
  50:.\Protocolo.c **** uint8 msn_tk[10]="KERO TOTAL";
  51:.\Protocolo.c **** uint8 msn_lecact[15]="Current Value: ";
  52:.\Protocolo.c **** uint8 msn_lecaan[17]="Previous Value:  ";
  53:.\Protocolo.c **** uint8 msn_tventas[18]="Total Amount: H   ";
  54:.\Protocolo.c **** uint8 msn_totalcero[15]="NO TOMO TOTALES";
  55:.\Protocolo.c **** 
  56:.\Protocolo.c **** 
  57:.\Protocolo.c **** 
  58:.\Protocolo.c **** 
  59:.\Protocolo.c **** 
  60:.\Protocolo.c **** 
  61:.\Protocolo.c **** /*
  62:.\Protocolo.c **** ***************************************************************************************************
  63:.\Protocolo.c **** *                                         ver_pos( void )
  64:.\Protocolo.c **** *
  65:.\Protocolo.c **** * Description : 
  66:.\Protocolo.c **** *               
  67:.\Protocolo.c **** *
  68:.\Protocolo.c **** * Argument(s) : none
  69:.\Protocolo.c **** *
  70:.\Protocolo.c **** * Return(s)   : none
  71:.\Protocolo.c **** *
  72:.\Protocolo.c **** * Caller(s)   : 
  73:.\Protocolo.c **** *
  74:.\Protocolo.c **** * Note(s)     : none.
  75:.\Protocolo.c **** ***************************************************************************************************
  76:.\Protocolo.c **** */
  77:.\Protocolo.c **** uint8 ver_pos (void){
  27              		.loc 1 77 0
  28              		.cfi_startproc
  29              		@ args = 0, pretend = 0, frame = 0
  30              		@ frame_needed = 0, uses_anonymous_args = 0
  31 0000 70B5     		push	{r4, r5, r6, lr}
  32              		.cfi_def_cfa_offset 16
  33              		.cfi_offset 4, -16
  34              		.cfi_offset 5, -12
  35              		.cfi_offset 6, -8
  36              		.cfi_offset 14, -4
  78:.\Protocolo.c **** uint8 x;
ARM GAS  C:\Users\RECEPC~1\AppData\Local\Temp\ccNG63cQ.s 			page 3


  79:.\Protocolo.c **** lado.a.dir=0xff;
  37              		.loc 1 79 0
  38 0002 1D4B     		ldr	r3, .L11
  39 0004 FF22     		movs	r2, #255
  40 0006 1A70     		strb	r2, [r3]
  80:.\Protocolo.c **** lado.b.dir=0xff;
  41              		.loc 1 80 0
  42 0008 1A71     		strb	r2, [r3, #4]
  43              	.LVL0:
  81:.\Protocolo.c ****     for(x=0;x<=15;x++){
  44              		.loc 1 81 0
  45 000a 0024     		movs	r4, #0
  82:.\Protocolo.c ****         Surtidor_PutChar(x);
  83:.\Protocolo.c ****         CyDelay(100);
  46              		.loc 1 83 0
  47 000c 6426     		movs	r6, #100
  84:.\Protocolo.c ****         if((Surtidor_GetRxBufferSize()>=1)&&(lado.a.dir==0xff)){
  48              		.loc 1 84 0
  49 000e 1D46     		mov	r5, r3
  81:.\Protocolo.c ****     for(x=0;x<=15;x++){
  50              		.loc 1 81 0
  51 0010 19E0     		b	.L2
  52              	.LVL1:
  53              	.L5:
  82:.\Protocolo.c ****         Surtidor_PutChar(x);
  54              		.loc 1 82 0
  55 0012 2046     		mov	r0, r4
  56 0014 FFF7FEFF 		bl	Surtidor_PutChar
  57              	.LVL2:
  83:.\Protocolo.c ****         CyDelay(100);
  58              		.loc 1 83 0
  59 0018 3046     		mov	r0, r6
  60 001a FFF7FEFF 		bl	CyDelay
  61              	.LVL3:
  62              		.loc 1 84 0
  63 001e FFF7FEFF 		bl	Surtidor_GetRxBufferSize
  64              	.LVL4:
  65 0022 28B1     		cbz	r0, .L3
  66              		.loc 1 84 0 is_stmt 0 discriminator 1
  67 0024 2B78     		ldrb	r3, [r5]	@ zero_extendqisi2
  68 0026 FF2B     		cmp	r3, #255
  69 0028 02D1     		bne	.L3
  85:.\Protocolo.c ****            lado.a.dir=x;	
  70              		.loc 1 85 0 is_stmt 1
  71 002a 2C70     		strb	r4, [r5]
  86:.\Protocolo.c ****            Surtidor_ClearRxBuffer();
  72              		.loc 1 86 0
  73 002c FFF7FEFF 		bl	Surtidor_ClearRxBuffer
  74              	.LVL5:
  75              	.L3:
  87:.\Protocolo.c ****         }
  88:.\Protocolo.c ****         if((Surtidor_GetRxBufferSize()>=1)&&(x!=lado.a.dir)){
  76              		.loc 1 88 0
  77 0030 FFF7FEFF 		bl	Surtidor_GetRxBufferSize
  78              	.LVL6:
  79 0034 28B1     		cbz	r0, .L4
  80              		.loc 1 88 0 is_stmt 0 discriminator 1
ARM GAS  C:\Users\RECEPC~1\AppData\Local\Temp\ccNG63cQ.s 			page 4


  81 0036 2B78     		ldrb	r3, [r5]	@ zero_extendqisi2
  82 0038 A342     		cmp	r3, r4
  83 003a 02D0     		beq	.L4
  89:.\Protocolo.c ****            lado.b.dir=x;
  84              		.loc 1 89 0 is_stmt 1
  85 003c 2C71     		strb	r4, [r5, #4]
  90:.\Protocolo.c ****            Surtidor_ClearRxBuffer();
  86              		.loc 1 90 0
  87 003e FFF7FEFF 		bl	Surtidor_ClearRxBuffer
  88              	.LVL7:
  89              	.L4:
  81:.\Protocolo.c ****     for(x=0;x<=15;x++){
  90              		.loc 1 81 0
  91 0042 0134     		adds	r4, r4, #1
  92              	.LVL8:
  93 0044 E4B2     		uxtb	r4, r4
  94              	.LVL9:
  95              	.L2:
  81:.\Protocolo.c ****     for(x=0;x<=15;x++){
  96              		.loc 1 81 0 is_stmt 0 discriminator 1
  97 0046 0F2C     		cmp	r4, #15
  98 0048 E3D9     		bls	.L5
  91:.\Protocolo.c ****         }
  92:.\Protocolo.c ****     }
  93:.\Protocolo.c ****     if((lado.a.dir!=0xff)&&(lado.b.dir!=0xff)){
  99              		.loc 1 93 0 is_stmt 1
 100 004a 0B4B     		ldr	r3, .L11
 101 004c 1B78     		ldrb	r3, [r3]	@ zero_extendqisi2
 102 004e FF2B     		cmp	r3, #255
 103 0050 03D0     		beq	.L6
 104              		.loc 1 93 0 is_stmt 0 discriminator 1
 105 0052 094A     		ldr	r2, .L11
 106 0054 1279     		ldrb	r2, [r2, #4]	@ zero_extendqisi2
 107 0056 FF2A     		cmp	r2, #255
 108 0058 07D1     		bne	.L8
 109              	.L6:
  94:.\Protocolo.c ****         return 2;
  95:.\Protocolo.c ****     }
  96:.\Protocolo.c ****     else{
  97:.\Protocolo.c ****         if((lado.a.dir!=0xff)||(lado.b.dir!=0xff)){
 110              		.loc 1 97 0 is_stmt 1
 111 005a FF2B     		cmp	r3, #255
 112 005c 07D1     		bne	.L9
 113              		.loc 1 97 0 is_stmt 0 discriminator 1
 114 005e 064B     		ldr	r3, .L11
 115 0060 1B79     		ldrb	r3, [r3, #4]	@ zero_extendqisi2
 116 0062 FF2B     		cmp	r3, #255
 117 0064 05D0     		beq	.L10
  98:.\Protocolo.c ****             return 1;
 118              		.loc 1 98 0 is_stmt 1
 119 0066 0120     		movs	r0, #1
 120 0068 70BD     		pop	{r4, r5, r6, pc}
 121              	.LVL10:
 122              	.L8:
  94:.\Protocolo.c ****         return 2;
 123              		.loc 1 94 0
 124 006a 0220     		movs	r0, #2
ARM GAS  C:\Users\RECEPC~1\AppData\Local\Temp\ccNG63cQ.s 			page 5


 125 006c 70BD     		pop	{r4, r5, r6, pc}
 126              	.LVL11:
 127              	.L9:
 128              		.loc 1 98 0
 129 006e 0120     		movs	r0, #1
 130 0070 70BD     		pop	{r4, r5, r6, pc}
 131              	.LVL12:
 132              	.L10:
  99:.\Protocolo.c ****         }
 100:.\Protocolo.c ****         else{
 101:.\Protocolo.c ****             return 0;
 133              		.loc 1 101 0
 134 0072 0020     		movs	r0, #0
 102:.\Protocolo.c ****         }
 103:.\Protocolo.c ****     }
 104:.\Protocolo.c **** }
 135              		.loc 1 104 0
 136 0074 70BD     		pop	{r4, r5, r6, pc}
 137              	.LVL13:
 138              	.L12:
 139 0076 00BF     		.align	2
 140              	.L11:
 141 0078 00000000 		.word	lado
 142              		.cfi_endproc
 143              	.LFE63:
 144              		.size	ver_pos, .-ver_pos
 145              		.section	.text.get_estado,"ax",%progbits
 146              		.align	2
 147              		.global	get_estado
 148              		.thumb
 149              		.thumb_func
 150              		.type	get_estado, %function
 151              	get_estado:
 152              	.LFB64:
 105:.\Protocolo.c **** 
 106:.\Protocolo.c **** /*
 107:.\Protocolo.c **** ***************************************************************************************************
 108:.\Protocolo.c **** *                                         ver_estado( void )
 109:.\Protocolo.c **** *
 110:.\Protocolo.c **** * Description : 
 111:.\Protocolo.c **** *               
 112:.\Protocolo.c **** *
 113:.\Protocolo.c **** * Argument(s) : none
 114:.\Protocolo.c **** *
 115:.\Protocolo.c **** * Return(s)   : none
 116:.\Protocolo.c **** *
 117:.\Protocolo.c **** * Caller(s)   : 
 118:.\Protocolo.c **** *
 119:.\Protocolo.c **** * Note(s)     : none.
 120:.\Protocolo.c **** ***************************************************************************************************
 121:.\Protocolo.c **** */
 122:.\Protocolo.c **** 
 123:.\Protocolo.c **** uint8 get_estado(uint8 dir){
 153              		.loc 1 123 0
 154              		.cfi_startproc
 155              		@ args = 0, pretend = 0, frame = 0
 156              		@ frame_needed = 0, uses_anonymous_args = 0
ARM GAS  C:\Users\RECEPC~1\AppData\Local\Temp\ccNG63cQ.s 			page 6


 157              	.LVL14:
 158 0000 10B5     		push	{r4, lr}
 159              		.cfi_def_cfa_offset 8
 160              		.cfi_offset 4, -8
 161              		.cfi_offset 14, -4
 124:.\Protocolo.c ****     uint8 estado;
 125:.\Protocolo.c ****     Surtidor_PutChar(dir);
 162              		.loc 1 125 0
 163 0002 FFF7FEFF 		bl	Surtidor_PutChar
 164              	.LVL15:
 126:.\Protocolo.c ****     CyDelay(50);
 165              		.loc 1 126 0
 166 0006 3220     		movs	r0, #50
 167 0008 FFF7FEFF 		bl	CyDelay
 168              	.LVL16:
 127:.\Protocolo.c ****     if(Surtidor_GetRxBufferSize()>=1){
 169              		.loc 1 127 0
 170 000c FFF7FEFF 		bl	Surtidor_GetRxBufferSize
 171              	.LVL17:
 172 0010 38B1     		cbz	r0, .L15
 128:.\Protocolo.c ****        estado=(Surtidor_ReadRxData()&0xF0)>>4;
 173              		.loc 1 128 0
 174 0012 FFF7FEFF 		bl	Surtidor_ReadRxData
 175              	.LVL18:
 176 0016 C0F30714 		ubfx	r4, r0, #4, #8
 177              	.LVL19:
 129:.\Protocolo.c ****        Surtidor_ClearRxBuffer();
 178              		.loc 1 129 0
 179 001a FFF7FEFF 		bl	Surtidor_ClearRxBuffer
 180              	.LVL20:
 130:.\Protocolo.c ****        return estado;
 181              		.loc 1 130 0
 182 001e 2046     		mov	r0, r4
 183 0020 10BD     		pop	{r4, pc}
 184              	.LVL21:
 185              	.L15:
 131:.\Protocolo.c ****     }
 132:.\Protocolo.c ****     else{
 133:.\Protocolo.c ****         return 0;
 186              		.loc 1 133 0
 187 0022 0020     		movs	r0, #0
 134:.\Protocolo.c ****     }
 135:.\Protocolo.c **** }
 188              		.loc 1 135 0
 189 0024 10BD     		pop	{r4, pc}
 190              		.cfi_endproc
 191              	.LFE64:
 192              		.size	get_estado, .-get_estado
 193 0026 00BF     		.section	.text.ver_error,"ax",%progbits
 194              		.align	2
 195              		.global	ver_error
 196              		.thumb
 197              		.thumb_func
 198              		.type	ver_error, %function
 199              	ver_error:
 200              	.LFB65:
 136:.\Protocolo.c **** 
ARM GAS  C:\Users\RECEPC~1\AppData\Local\Temp\ccNG63cQ.s 			page 7


 137:.\Protocolo.c **** /*
 138:.\Protocolo.c **** ***************************************************************************************************
 139:.\Protocolo.c **** *                                         void ver_error(uint8 val)
 140:.\Protocolo.c **** *
 141:.\Protocolo.c **** * Description : 
 142:.\Protocolo.c **** *               
 143:.\Protocolo.c **** *
 144:.\Protocolo.c **** * Argument(s) : none
 145:.\Protocolo.c **** *
 146:.\Protocolo.c **** * Return(s)   : none
 147:.\Protocolo.c **** *
 148:.\Protocolo.c **** * Caller(s)   : 
 149:.\Protocolo.c **** *
 150:.\Protocolo.c **** * Note(s)     : none.
 151:.\Protocolo.c **** ***************************************************************************************************
 152:.\Protocolo.c **** */
 153:.\Protocolo.c **** void ver_error(uint8 val){
 201              		.loc 1 153 0
 202              		.cfi_startproc
 203              		@ args = 0, pretend = 0, frame = 0
 204              		@ frame_needed = 0, uses_anonymous_args = 0
 205              	.LVL22:
 206 0000 08B5     		push	{r3, lr}
 207              		.cfi_def_cfa_offset 8
 208              		.cfi_offset 3, -8
 209              		.cfi_offset 14, -4
 154:.\Protocolo.c ****     uint8 estado;
 155:.\Protocolo.c ****     Surtidor_PutChar(val);
 210              		.loc 1 155 0
 211 0002 FFF7FEFF 		bl	Surtidor_PutChar
 212              	.LVL23:
 156:.\Protocolo.c ****     CyDelay(200);
 213              		.loc 1 156 0
 214 0006 C820     		movs	r0, #200
 215 0008 FFF7FEFF 		bl	CyDelay
 216              	.LVL24:
 157:.\Protocolo.c ****     if(Surtidor_GetRxBufferSize()>=1){
 217              		.loc 1 157 0
 218 000c FFF7FEFF 		bl	Surtidor_GetRxBufferSize
 219              	.LVL25:
 220 0010 18B1     		cbz	r0, .L16
 158:.\Protocolo.c ****        estado=(Surtidor_ReadRxData()&0xF0)>>4;
 221              		.loc 1 158 0
 222 0012 FFF7FEFF 		bl	Surtidor_ReadRxData
 223              	.LVL26:
 159:.\Protocolo.c ****        Surtidor_ClearRxBuffer();
 224              		.loc 1 159 0
 225 0016 FFF7FEFF 		bl	Surtidor_ClearRxBuffer
 226              	.LVL27:
 227              	.L16:
 228 001a 08BD     		pop	{r3, pc}
 229              		.cfi_endproc
 230              	.LFE65:
 231              		.size	ver_error, .-ver_error
 232              		.section	.text.estado_ex,"ax",%progbits
 233              		.align	2
 234              		.global	estado_ex
ARM GAS  C:\Users\RECEPC~1\AppData\Local\Temp\ccNG63cQ.s 			page 8


 235              		.thumb
 236              		.thumb_func
 237              		.type	estado_ex, %function
 238              	estado_ex:
 239              	.LFB66:
 160:.\Protocolo.c ****        if(estado==0){
 161:.\Protocolo.c **** 
 162:.\Protocolo.c ****        }
 163:.\Protocolo.c ****     }    
 164:.\Protocolo.c **** }
 165:.\Protocolo.c **** 
 166:.\Protocolo.c **** /*
 167:.\Protocolo.c **** ***************************************************************************************************
 168:.\Protocolo.c **** *                                         estado_ex(uint8 val)
 169:.\Protocolo.c **** *
 170:.\Protocolo.c **** * Description : 
 171:.\Protocolo.c **** *               
 172:.\Protocolo.c **** *
 173:.\Protocolo.c **** * Argument(s) : none
 174:.\Protocolo.c **** *
 175:.\Protocolo.c **** * Return(s)   : none
 176:.\Protocolo.c **** *
 177:.\Protocolo.c **** * Caller(s)   : 
 178:.\Protocolo.c **** *
 179:.\Protocolo.c **** * Note(s)     : none.
 180:.\Protocolo.c **** ***************************************************************************************************
 181:.\Protocolo.c **** */
 182:.\Protocolo.c **** uint8 estado_ex(uint8 val){
 240              		.loc 1 182 0
 241              		.cfi_startproc
 242              		@ args = 0, pretend = 0, frame = 32
 243              		@ frame_needed = 0, uses_anonymous_args = 0
 244              	.LVL28:
 245 0000 10B5     		push	{r4, lr}
 246              		.cfi_def_cfa_offset 8
 247              		.cfi_offset 4, -8
 248              		.cfi_offset 14, -4
 249 0002 88B0     		sub	sp, sp, #32
 250              		.cfi_def_cfa_offset 40
 251 0004 0446     		mov	r4, r0
 183:.\Protocolo.c ****     uint8 rx_extend[19],x,comand_exten[9]={0xFF,0xE9,0xFE,0xE0,0xE1,0xE0,0xFB,0xEE,0xF0};
 252              		.loc 1 183 0
 253 0006 364A     		ldr	r2, .L36
 254 0008 6B46     		mov	r3, sp
 255 000a 1068     		ldr	r0, [r2]	@ unaligned
 256              	.LVL29:
 257 000c 5168     		ldr	r1, [r2, #4]	@ unaligned
 258 000e 03C3     		stmia	r3!, {r0, r1}
 259 0010 127A     		ldrb	r2, [r2, #8]	@ zero_extendqisi2
 260 0012 1A70     		strb	r2, [r3]
 184:.\Protocolo.c ****     Surtidor_PutChar(0x20|val);
 261              		.loc 1 184 0
 262 0014 44F02000 		orr	r0, r4, #32
 263 0018 FFF7FEFF 		bl	Surtidor_PutChar
 264              	.LVL30:
 185:.\Protocolo.c ****     producto=0xff;
 265              		.loc 1 185 0
ARM GAS  C:\Users\RECEPC~1\AppData\Local\Temp\ccNG63cQ.s 			page 9


 266 001c FF22     		movs	r2, #255
 267 001e 314B     		ldr	r3, .L36+4
 268 0020 1A70     		strb	r2, [r3]
 186:.\Protocolo.c ****     CyDelay(100);
 269              		.loc 1 186 0
 270 0022 6420     		movs	r0, #100
 271 0024 FFF7FEFF 		bl	CyDelay
 272              	.LVL31:
 187:.\Protocolo.c ****     if(Surtidor_GetRxBufferSize()>=1){
 273              		.loc 1 187 0
 274 0028 FFF7FEFF 		bl	Surtidor_GetRxBufferSize
 275              	.LVL32:
 276 002c 0028     		cmp	r0, #0
 277 002e 48D0     		beq	.L27
 188:.\Protocolo.c ****         if(Surtidor_ReadRxData()==(0xD0|val)){
 278              		.loc 1 188 0
 279 0030 FFF7FEFF 		bl	Surtidor_ReadRxData
 280              	.LVL33:
 281 0034 44F0D004 		orr	r4, r4, #208
 282 0038 A042     		cmp	r0, r4
 283 003a 44D1     		bne	.L28
 189:.\Protocolo.c ****             Surtidor_ClearRxBuffer();
 284              		.loc 1 189 0
 285 003c FFF7FEFF 		bl	Surtidor_ClearRxBuffer
 286              	.LVL34:
 190:.\Protocolo.c ****             for(x=0;x<=8;x++){
 287              		.loc 1 190 0
 288 0040 0024     		movs	r4, #0
 289 0042 07E0     		b	.L20
 290              	.LVL35:
 291              	.L21:
 191:.\Protocolo.c ****                Surtidor_PutChar(comand_exten[x]); 
 292              		.loc 1 191 0 discriminator 2
 293 0044 08AB     		add	r3, sp, #32
 294 0046 2344     		add	r3, r3, r4
 295 0048 13F8200C 		ldrb	r0, [r3, #-32]	@ zero_extendqisi2
 296 004c FFF7FEFF 		bl	Surtidor_PutChar
 297              	.LVL36:
 190:.\Protocolo.c ****             for(x=0;x<=8;x++){
 298              		.loc 1 190 0 discriminator 2
 299 0050 0134     		adds	r4, r4, #1
 300              	.LVL37:
 301 0052 E4B2     		uxtb	r4, r4
 302              	.LVL38:
 303              	.L20:
 190:.\Protocolo.c ****             for(x=0;x<=8;x++){
 304              		.loc 1 190 0 is_stmt 0 discriminator 1
 305 0054 082C     		cmp	r4, #8
 306 0056 F5D9     		bls	.L21
 192:.\Protocolo.c ****             }
 193:.\Protocolo.c ****             CyDelay(200);
 307              		.loc 1 193 0 is_stmt 1
 308 0058 C820     		movs	r0, #200
 309 005a FFF7FEFF 		bl	CyDelay
 310              	.LVL39:
 194:.\Protocolo.c ****             if(Surtidor_GetRxBufferSize()>=19){
 311              		.loc 1 194 0
ARM GAS  C:\Users\RECEPC~1\AppData\Local\Temp\ccNG63cQ.s 			page 10


 312 005e FFF7FEFF 		bl	Surtidor_GetRxBufferSize
 313              	.LVL40:
 314 0062 1228     		cmp	r0, #18
 315 0064 0AD8     		bhi	.L29
 195:.\Protocolo.c ****                 for(x=0;x<=18;x++){
 196:.\Protocolo.c ****                    rx_extend[x]=Surtidor_ReadRxData(); 
 197:.\Protocolo.c ****                 }
 198:.\Protocolo.c ****                 Surtidor_ClearRxBuffer();
 199:.\Protocolo.c ****                 if((rx_extend[0]==0xBA)&&(rx_extend[17]==0x8D)&&(rx_extend[18]==0x8A)&&(rx_extend[1
 200:.\Protocolo.c ****                     switch(rx_extend[14]){
 201:.\Protocolo.c ****                         case 0xB1:
 202:.\Protocolo.c ****                             return 1;
 203:.\Protocolo.c ****                             break;
 204:.\Protocolo.c ****                         case 0xB2:
 205:.\Protocolo.c ****                             return 2;
 206:.\Protocolo.c ****                             break;
 207:.\Protocolo.c ****                         case 0xB3:
 208:.\Protocolo.c ****                             return 3;
 209:.\Protocolo.c ****                             break;
 210:.\Protocolo.c ****                         default:
 211:.\Protocolo.c ****                             return 0;
 212:.\Protocolo.c ****                     }
 213:.\Protocolo.c ****                 }
 214:.\Protocolo.c ****                 else{
 215:.\Protocolo.c ****                     return 0;
 216:.\Protocolo.c ****                 }
 217:.\Protocolo.c ****             }
 218:.\Protocolo.c ****             else{
 219:.\Protocolo.c ****                 return 0;
 316              		.loc 1 219 0
 317 0066 0020     		movs	r0, #0
 318 0068 38E0     		b	.L19
 319              	.L23:
 196:.\Protocolo.c ****                    rx_extend[x]=Surtidor_ReadRxData(); 
 320              		.loc 1 196 0 discriminator 2
 321 006a FFF7FEFF 		bl	Surtidor_ReadRxData
 322              	.LVL41:
 323 006e 08AB     		add	r3, sp, #32
 324 0070 2344     		add	r3, r3, r4
 325 0072 03F8140C 		strb	r0, [r3, #-20]
 195:.\Protocolo.c ****                 for(x=0;x<=18;x++){
 326              		.loc 1 195 0 discriminator 2
 327 0076 0134     		adds	r4, r4, #1
 328              	.LVL42:
 329 0078 E4B2     		uxtb	r4, r4
 330              	.LVL43:
 331 007a 00E0     		b	.L22
 332              	.L29:
 333 007c 0024     		movs	r4, #0
 334              	.LVL44:
 335              	.L22:
 195:.\Protocolo.c ****                 for(x=0;x<=18;x++){
 336              		.loc 1 195 0 is_stmt 0 discriminator 1
 337 007e 122C     		cmp	r4, #18
 338 0080 F3D9     		bls	.L23
 198:.\Protocolo.c ****                 Surtidor_ClearRxBuffer();
 339              		.loc 1 198 0 is_stmt 1
ARM GAS  C:\Users\RECEPC~1\AppData\Local\Temp\ccNG63cQ.s 			page 11


 340 0082 FFF7FEFF 		bl	Surtidor_ClearRxBuffer
 341              	.LVL45:
 199:.\Protocolo.c ****                 if((rx_extend[0]==0xBA)&&(rx_extend[17]==0x8D)&&(rx_extend[18]==0x8A)&&(rx_extend[1
 342              		.loc 1 199 0
 343 0086 9DF80C30 		ldrb	r3, [sp, #12]	@ zero_extendqisi2
 344 008a BA2B     		cmp	r3, #186
 345 008c 1DD1     		bne	.L30
 199:.\Protocolo.c ****                 if((rx_extend[0]==0xBA)&&(rx_extend[17]==0x8D)&&(rx_extend[18]==0x8A)&&(rx_extend[1
 346              		.loc 1 199 0 is_stmt 0 discriminator 1
 347 008e 9DF81D30 		ldrb	r3, [sp, #29]	@ zero_extendqisi2
 348 0092 8D2B     		cmp	r3, #141
 349 0094 1BD1     		bne	.L31
 350 0096 9DF81E30 		ldrb	r3, [sp, #30]	@ zero_extendqisi2
 351 009a 8A2B     		cmp	r3, #138
 352 009c 19D1     		bne	.L32
 353 009e 9DF81830 		ldrb	r3, [sp, #24]	@ zero_extendqisi2
 354 00a2 B12B     		cmp	r3, #177
 355 00a4 17D1     		bne	.L33
 200:.\Protocolo.c ****                     switch(rx_extend[14]){
 356              		.loc 1 200 0 is_stmt 1
 357 00a6 9DF81A30 		ldrb	r3, [sp, #26]	@ zero_extendqisi2
 358 00aa B22B     		cmp	r3, #178
 359 00ac 15D0     		beq	.L34
 360 00ae B32B     		cmp	r3, #179
 361 00b0 03D0     		beq	.L25
 362 00b2 B12B     		cmp	r3, #177
 363 00b4 03D1     		bne	.L35
 202:.\Protocolo.c ****                             return 1;
 364              		.loc 1 202 0
 365 00b6 0120     		movs	r0, #1
 366 00b8 10E0     		b	.L19
 367              	.L25:
 208:.\Protocolo.c ****                             return 3;
 368              		.loc 1 208 0
 369 00ba 0320     		movs	r0, #3
 370 00bc 0EE0     		b	.L19
 371              	.L35:
 211:.\Protocolo.c ****                             return 0;
 372              		.loc 1 211 0
 373 00be 0020     		movs	r0, #0
 374 00c0 0CE0     		b	.L19
 375              	.LVL46:
 376              	.L27:
 220:.\Protocolo.c ****             }
 221:.\Protocolo.c ****         }
 222:.\Protocolo.c ****         else{
 223:.\Protocolo.c ****             return 0;
 224:.\Protocolo.c ****         }
 225:.\Protocolo.c ****     }
 226:.\Protocolo.c ****     else{
 227:.\Protocolo.c ****         return 0;
 377              		.loc 1 227 0
 378 00c2 0020     		movs	r0, #0
 379 00c4 0AE0     		b	.L19
 380              	.L28:
 223:.\Protocolo.c ****             return 0;
 381              		.loc 1 223 0
ARM GAS  C:\Users\RECEPC~1\AppData\Local\Temp\ccNG63cQ.s 			page 12


 382 00c6 0020     		movs	r0, #0
 383 00c8 08E0     		b	.L19
 384              	.LVL47:
 385              	.L30:
 215:.\Protocolo.c ****                     return 0;
 386              		.loc 1 215 0
 387 00ca 0020     		movs	r0, #0
 388 00cc 06E0     		b	.L19
 389              	.L31:
 390 00ce 0020     		movs	r0, #0
 391 00d0 04E0     		b	.L19
 392              	.L32:
 393 00d2 0020     		movs	r0, #0
 394 00d4 02E0     		b	.L19
 395              	.L33:
 396 00d6 0020     		movs	r0, #0
 397 00d8 00E0     		b	.L19
 398              	.L34:
 205:.\Protocolo.c ****                             return 2;
 399              		.loc 1 205 0
 400 00da 0220     		movs	r0, #2
 401              	.LVL48:
 402              	.L19:
 228:.\Protocolo.c ****     }
 229:.\Protocolo.c **** }
 403              		.loc 1 229 0 discriminator 1
 404 00dc 08B0     		add	sp, sp, #32
 405              		@ sp needed
 406 00de 10BD     		pop	{r4, pc}
 407              	.L37:
 408              		.align	2
 409              	.L36:
 410 00e0 00000000 		.word	.LANCHOR0
 411 00e4 00000000 		.word	producto
 412              		.cfi_endproc
 413              	.LFE66:
 414              		.size	estado_ex, .-estado_ex
 415              		.section	.text.detener,"ax",%progbits
 416              		.align	2
 417              		.global	detener
 418              		.thumb
 419              		.thumb_func
 420              		.type	detener, %function
 421              	detener:
 422              	.LFB67:
 230:.\Protocolo.c **** 
 231:.\Protocolo.c **** /*
 232:.\Protocolo.c **** ***************************************************************************************************
 233:.\Protocolo.c **** *                                         void detener(uint8 val)
 234:.\Protocolo.c **** *
 235:.\Protocolo.c **** * Description : 
 236:.\Protocolo.c **** *               
 237:.\Protocolo.c **** *
 238:.\Protocolo.c **** * Argument(s) : none
 239:.\Protocolo.c **** *
 240:.\Protocolo.c **** * Return(s)   : none
 241:.\Protocolo.c **** *
ARM GAS  C:\Users\RECEPC~1\AppData\Local\Temp\ccNG63cQ.s 			page 13


 242:.\Protocolo.c **** * Caller(s)   : 
 243:.\Protocolo.c **** *
 244:.\Protocolo.c **** * Note(s)     : none.
 245:.\Protocolo.c **** ***************************************************************************************************
 246:.\Protocolo.c **** */
 247:.\Protocolo.c **** void detener(uint8 val){
 423              		.loc 1 247 0
 424              		.cfi_startproc
 425              		@ args = 0, pretend = 0, frame = 0
 426              		@ frame_needed = 0, uses_anonymous_args = 0
 427              	.LVL49:
 428 0000 08B5     		push	{r3, lr}
 429              		.cfi_def_cfa_offset 8
 430              		.cfi_offset 3, -8
 431              		.cfi_offset 14, -4
 248:.\Protocolo.c ****     Surtidor_PutChar(0x30|val);
 432              		.loc 1 248 0
 433 0002 40F03000 		orr	r0, r0, #48
 434              	.LVL50:
 435 0006 FFF7FEFF 		bl	Surtidor_PutChar
 436              	.LVL51:
 249:.\Protocolo.c ****     CyDelay(200);
 437              		.loc 1 249 0
 438 000a C820     		movs	r0, #200
 439 000c FFF7FEFF 		bl	CyDelay
 440              	.LVL52:
 441 0010 08BD     		pop	{r3, pc}
 442              		.cfi_endproc
 443              	.LFE67:
 444              		.size	detener, .-detener
 445 0012 00BF     		.section	.text.venta,"ax",%progbits
 446              		.align	2
 447              		.global	venta
 448              		.thumb
 449              		.thumb_func
 450              		.type	venta, %function
 451              	venta:
 452              	.LFB68:
 250:.\Protocolo.c **** }
 251:.\Protocolo.c **** 
 252:.\Protocolo.c **** /*
 253:.\Protocolo.c **** ***************************************************************************************************
 254:.\Protocolo.c **** *                                         void venta(uint8 val)
 255:.\Protocolo.c **** *
 256:.\Protocolo.c **** * Description : 
 257:.\Protocolo.c **** *               
 258:.\Protocolo.c **** *
 259:.\Protocolo.c **** * Argument(s) : none
 260:.\Protocolo.c **** *
 261:.\Protocolo.c **** * Return(s)   : none
 262:.\Protocolo.c **** *
 263:.\Protocolo.c **** * Caller(s)   : 
 264:.\Protocolo.c **** *
 265:.\Protocolo.c **** * Note(s)     : none.
 266:.\Protocolo.c **** ***************************************************************************************************
 267:.\Protocolo.c **** */
 268:.\Protocolo.c **** uint8 venta(uint8 val){
ARM GAS  C:\Users\RECEPC~1\AppData\Local\Temp\ccNG63cQ.s 			page 14


 453              		.loc 1 268 0
 454              		.cfi_startproc
 455              		@ args = 0, pretend = 0, frame = 40
 456              		@ frame_needed = 0, uses_anonymous_args = 0
 457              	.LVL53:
 458 0000 30B5     		push	{r4, r5, lr}
 459              		.cfi_def_cfa_offset 12
 460              		.cfi_offset 4, -12
 461              		.cfi_offset 5, -8
 462              		.cfi_offset 14, -4
 463 0002 8BB0     		sub	sp, sp, #44
 464              		.cfi_def_cfa_offset 56
 465 0004 0546     		mov	r5, r0
 466              	.LVL54:
 269:.\Protocolo.c ****     uint8 rx_venta[39],x=0,pos,y; 
 270:.\Protocolo.c ****     Surtidor_PutChar(0x40|val);
 467              		.loc 1 270 0
 468 0006 40F04000 		orr	r0, r0, #64
 469              	.LVL55:
 470 000a FFF7FEFF 		bl	Surtidor_PutChar
 471              	.LVL56:
 271:.\Protocolo.c ****     CyDelay(300);
 472              		.loc 1 271 0
 473 000e 4FF49670 		mov	r0, #300
 474 0012 FFF7FEFF 		bl	CyDelay
 475              	.LVL57:
 272:.\Protocolo.c ****     if(Surtidor_GetRxBufferSize()<=39){
 476              		.loc 1 272 0
 477 0016 FFF7FEFF 		bl	Surtidor_GetRxBufferSize
 478              	.LVL58:
 479 001a 2728     		cmp	r0, #39
 480 001c 0AD9     		bls	.L56
 273:.\Protocolo.c ****         while(Surtidor_GetRxBufferSize()>0){
 274:.\Protocolo.c ****             rx_venta[x]=Surtidor_ReadRxData();  
 275:.\Protocolo.c ****             x++;
 276:.\Protocolo.c ****         }
 277:.\Protocolo.c ****         Surtidor_ClearRxBuffer();
 278:.\Protocolo.c ****         if(val==0){
 279:.\Protocolo.c ****             pos=0x10;
 280:.\Protocolo.c ****             rventa.posicion=pos;
 281:.\Protocolo.c ****         }
 282:.\Protocolo.c ****         else{
 283:.\Protocolo.c ****             pos=val;
 284:.\Protocolo.c ****             rventa.posicion=pos;
 285:.\Protocolo.c ****         }
 286:.\Protocolo.c ****         if((rx_venta[0]==0xFF)&&(rx_venta[2]==0xF8)&&((rx_venta[4]&0x0F)==(pos-1))){
 287:.\Protocolo.c ****             x=0;
 288:.\Protocolo.c ****             while((rx_venta[x]!=0xF6)||(x>=39)){
 289:.\Protocolo.c ****                 x++;
 290:.\Protocolo.c ****             }
 291:.\Protocolo.c ****             x++;
 292:.\Protocolo.c ****             rventa.producto=(rx_venta[x]&0x0F)+1;
 293:.\Protocolo.c ****             while((rx_venta[x]!=0xF7)||(x>=39)){
 294:.\Protocolo.c ****                 x++;
 295:.\Protocolo.c ****             }
 296:.\Protocolo.c ****             x++;
 297:.\Protocolo.c ****             y=1;
ARM GAS  C:\Users\RECEPC~1\AppData\Local\Temp\ccNG63cQ.s 			page 15


 298:.\Protocolo.c ****             while((rx_venta[x]!=0xF9)||(x>=39)){    
 299:.\Protocolo.c ****                 rventa.ppu[y]=(rx_venta[x]&0x0F);
 300:.\Protocolo.c ****                 x++;
 301:.\Protocolo.c ****                 y++;
 302:.\Protocolo.c ****             }
 303:.\Protocolo.c **** 			rventa.ppu[0]=y-1;
 304:.\Protocolo.c ****             x++;
 305:.\Protocolo.c ****             y=1;
 306:.\Protocolo.c ****             while((rx_venta[x]!=0xFA)||(x>=39)){
 307:.\Protocolo.c ****                 rventa.volumen[y]=(rx_venta[x]&0x0F);
 308:.\Protocolo.c ****                 x++;
 309:.\Protocolo.c ****                 y++;    
 310:.\Protocolo.c ****             }
 311:.\Protocolo.c **** 			rventa.volumen[0]=y-1;
 312:.\Protocolo.c ****             x++;
 313:.\Protocolo.c ****             y=1;
 314:.\Protocolo.c ****             while((rx_venta[x]!=0xFB)||(x>=39)){
 315:.\Protocolo.c ****                 rventa.dinero[y]=(rx_venta[x]&0x0F);
 316:.\Protocolo.c ****                 x++;
 317:.\Protocolo.c ****                 y++;    
 318:.\Protocolo.c ****             }
 319:.\Protocolo.c **** 			rventa.dinero[0]=y-1;
 320:.\Protocolo.c ****             x+=2;
 321:.\Protocolo.c ****             if((rx_venta[x]==0xF0)&&(x<=38)){								
 322:.\Protocolo.c **** 				if(val==lado.a.dir){
 323:.\Protocolo.c **** 					write_eeprom(457,rventa.dinero);
 324:.\Protocolo.c **** 					write_eeprom(466,rventa.volumen);
 325:.\Protocolo.c **** 					write_eeprom(475,rventa.ppu);
 326:.\Protocolo.c **** 				}				
 327:.\Protocolo.c **** 				else{
 328:.\Protocolo.c **** 					write_eeprom(482,rventa.dinero);
 329:.\Protocolo.c **** 					write_eeprom(500,rventa.ppu);
 330:.\Protocolo.c **** 					write_eeprom(491,rventa.volumen);				
 331:.\Protocolo.c **** 				}
 332:.\Protocolo.c ****                 return 1;
 333:.\Protocolo.c ****             }
 334:.\Protocolo.c ****             else{
 335:.\Protocolo.c ****                 return 0;
 336:.\Protocolo.c ****             }
 337:.\Protocolo.c ****         }
 338:.\Protocolo.c ****         else{
 339:.\Protocolo.c ****             return 0;
 340:.\Protocolo.c ****         }
 341:.\Protocolo.c ****     }
 342:.\Protocolo.c ****     else{
 343:.\Protocolo.c ****         return 0;
 481              		.loc 1 343 0
 482 001e 0020     		movs	r0, #0
 483 0020 D9E0     		b	.L41
 484              	.LVL59:
 485              	.L42:
 274:.\Protocolo.c ****             rx_venta[x]=Surtidor_ReadRxData();  
 486              		.loc 1 274 0
 487 0022 FFF7FEFF 		bl	Surtidor_ReadRxData
 488              	.LVL60:
 489 0026 0AAB     		add	r3, sp, #40
 490 0028 2344     		add	r3, r3, r4
ARM GAS  C:\Users\RECEPC~1\AppData\Local\Temp\ccNG63cQ.s 			page 16


 491 002a 03F8280C 		strb	r0, [r3, #-40]
 275:.\Protocolo.c ****             x++;
 492              		.loc 1 275 0
 493 002e 0134     		adds	r4, r4, #1
 494              	.LVL61:
 495 0030 E4B2     		uxtb	r4, r4
 496              	.LVL62:
 497 0032 00E0     		b	.L40
 498              	.LVL63:
 499              	.L56:
 500 0034 0024     		movs	r4, #0
 501              	.LVL64:
 502              	.L40:
 273:.\Protocolo.c ****         while(Surtidor_GetRxBufferSize()>0){
 503              		.loc 1 273 0 discriminator 1
 504 0036 FFF7FEFF 		bl	Surtidor_GetRxBufferSize
 505              	.LVL65:
 506 003a 0028     		cmp	r0, #0
 507 003c F1D1     		bne	.L42
 277:.\Protocolo.c ****         Surtidor_ClearRxBuffer();
 508              		.loc 1 277 0
 509 003e FFF7FEFF 		bl	Surtidor_ClearRxBuffer
 510              	.LVL66:
 278:.\Protocolo.c ****         if(val==0){
 511              		.loc 1 278 0
 512 0042 2DB9     		cbnz	r5, .L43
 513              	.LVL67:
 280:.\Protocolo.c ****             rventa.posicion=pos;
 514              		.loc 1 280 0
 515 0044 1023     		movs	r3, #16
 516 0046 654A     		ldr	r2, .L62
 517 0048 82F8A230 		strb	r3, [r2, #162]
 279:.\Protocolo.c ****             pos=0x10;
 518              		.loc 1 279 0
 519 004c 1A46     		mov	r2, r3
 520 004e 03E0     		b	.L44
 521              	.LVL68:
 522              	.L43:
 284:.\Protocolo.c ****             rventa.posicion=pos;
 523              		.loc 1 284 0
 524 0050 624B     		ldr	r3, .L62
 525 0052 83F8A250 		strb	r5, [r3, #162]
 283:.\Protocolo.c ****             pos=val;
 526              		.loc 1 283 0
 527 0056 2A46     		mov	r2, r5
 528              	.LVL69:
 529              	.L44:
 286:.\Protocolo.c ****         if((rx_venta[0]==0xFF)&&(rx_venta[2]==0xF8)&&((rx_venta[4]&0x0F)==(pos-1))){
 530              		.loc 1 286 0
 531 0058 9DF80030 		ldrb	r3, [sp]	@ zero_extendqisi2
 532 005c FF2B     		cmp	r3, #255
 533 005e 40F0B380 		bne	.L57
 286:.\Protocolo.c ****         if((rx_venta[0]==0xFF)&&(rx_venta[2]==0xF8)&&((rx_venta[4]&0x0F)==(pos-1))){
 534              		.loc 1 286 0 is_stmt 0 discriminator 1
 535 0062 9DF80230 		ldrb	r3, [sp, #2]	@ zero_extendqisi2
 536 0066 F82B     		cmp	r3, #248
 537 0068 40F0B080 		bne	.L58
ARM GAS  C:\Users\RECEPC~1\AppData\Local\Temp\ccNG63cQ.s 			page 17


 538 006c 9DF80430 		ldrb	r3, [sp, #4]	@ zero_extendqisi2
 539 0070 03F00F03 		and	r3, r3, #15
 540 0074 013A     		subs	r2, r2, #1
 541              	.LVL70:
 542 0076 9342     		cmp	r3, r2
 543 0078 04D0     		beq	.L59
 339:.\Protocolo.c ****             return 0;
 544              		.loc 1 339 0 is_stmt 1
 545 007a 0020     		movs	r0, #0
 546 007c ABE0     		b	.L41
 547              	.LVL71:
 548              	.L46:
 289:.\Protocolo.c ****                 x++;
 549              		.loc 1 289 0
 550 007e 0133     		adds	r3, r3, #1
 551              	.LVL72:
 552 0080 DBB2     		uxtb	r3, r3
 553              	.LVL73:
 554 0082 00E0     		b	.L45
 555              	.LVL74:
 556              	.L59:
 557 0084 0023     		movs	r3, #0
 558              	.LVL75:
 559              	.L45:
 288:.\Protocolo.c ****             while((rx_venta[x]!=0xF6)||(x>=39)){
 560              		.loc 1 288 0 discriminator 1
 561 0086 0AAA     		add	r2, sp, #40
 562 0088 1A44     		add	r2, r2, r3
 563 008a 12F8282C 		ldrb	r2, [r2, #-40]	@ zero_extendqisi2
 564 008e F62A     		cmp	r2, #246
 565 0090 F5D1     		bne	.L46
 288:.\Protocolo.c ****             while((rx_venta[x]!=0xF6)||(x>=39)){
 566              		.loc 1 288 0 is_stmt 0 discriminator 2
 567 0092 262B     		cmp	r3, #38
 568 0094 F3D8     		bhi	.L46
 291:.\Protocolo.c ****             x++;
 569              		.loc 1 291 0 is_stmt 1
 570 0096 0133     		adds	r3, r3, #1
 571              	.LVL76:
 572 0098 DBB2     		uxtb	r3, r3
 573              	.LVL77:
 292:.\Protocolo.c ****             rventa.producto=(rx_venta[x]&0x0F)+1;
 574              		.loc 1 292 0
 575 009a 0AAA     		add	r2, sp, #40
 576 009c 1A44     		add	r2, r2, r3
 577 009e 12F8281C 		ldrb	r1, [r2, #-40]	@ zero_extendqisi2
 578 00a2 01F00F01 		and	r1, r1, #15
 579 00a6 0131     		adds	r1, r1, #1
 580 00a8 4C4A     		ldr	r2, .L62
 581 00aa 82F8A310 		strb	r1, [r2, #163]
 293:.\Protocolo.c ****             while((rx_venta[x]!=0xF7)||(x>=39)){
 582              		.loc 1 293 0
 583 00ae 01E0     		b	.L47
 584              	.L48:
 294:.\Protocolo.c ****                 x++;
 585              		.loc 1 294 0
 586 00b0 0133     		adds	r3, r3, #1
ARM GAS  C:\Users\RECEPC~1\AppData\Local\Temp\ccNG63cQ.s 			page 18


 587              	.LVL78:
 588 00b2 DBB2     		uxtb	r3, r3
 589              	.LVL79:
 590              	.L47:
 293:.\Protocolo.c ****             while((rx_venta[x]!=0xF7)||(x>=39)){
 591              		.loc 1 293 0 discriminator 1
 592 00b4 0AAA     		add	r2, sp, #40
 593 00b6 1A44     		add	r2, r2, r3
 594 00b8 12F8282C 		ldrb	r2, [r2, #-40]	@ zero_extendqisi2
 595 00bc F72A     		cmp	r2, #247
 596 00be F7D1     		bne	.L48
 293:.\Protocolo.c ****             while((rx_venta[x]!=0xF7)||(x>=39)){
 597              		.loc 1 293 0 is_stmt 0 discriminator 2
 598 00c0 262B     		cmp	r3, #38
 599 00c2 F5D8     		bhi	.L48
 296:.\Protocolo.c ****             x++;
 600              		.loc 1 296 0 is_stmt 1
 601 00c4 0133     		adds	r3, r3, #1
 602              	.LVL80:
 603 00c6 DBB2     		uxtb	r3, r3
 604              	.LVL81:
 297:.\Protocolo.c ****             y=1;
 605              		.loc 1 297 0
 606 00c8 0121     		movs	r1, #1
 299:.\Protocolo.c ****                 rventa.ppu[y]=(rx_venta[x]&0x0F);
 607              		.loc 1 299 0
 608 00ca 444C     		ldr	r4, .L62
 298:.\Protocolo.c ****             while((rx_venta[x]!=0xF9)||(x>=39)){    
 609              		.loc 1 298 0
 610 00cc 08E0     		b	.L49
 611              	.LVL82:
 612              	.L50:
 299:.\Protocolo.c ****                 rventa.ppu[y]=(rx_venta[x]&0x0F);
 613              		.loc 1 299 0
 614 00ce 6018     		adds	r0, r4, r1
 615 00d0 02F00F02 		and	r2, r2, #15
 616 00d4 80F8A420 		strb	r2, [r0, #164]
 300:.\Protocolo.c ****                 x++;
 617              		.loc 1 300 0
 618 00d8 0133     		adds	r3, r3, #1
 619              	.LVL83:
 620 00da DBB2     		uxtb	r3, r3
 621              	.LVL84:
 301:.\Protocolo.c ****                 y++;
 622              		.loc 1 301 0
 623 00dc 0131     		adds	r1, r1, #1
 624              	.LVL85:
 625 00de C9B2     		uxtb	r1, r1
 626              	.LVL86:
 627              	.L49:
 298:.\Protocolo.c ****             while((rx_venta[x]!=0xF9)||(x>=39)){    
 628              		.loc 1 298 0 discriminator 1
 629 00e0 0AAA     		add	r2, sp, #40
 630 00e2 1A44     		add	r2, r2, r3
 631 00e4 12F8282C 		ldrb	r2, [r2, #-40]	@ zero_extendqisi2
 632 00e8 F92A     		cmp	r2, #249
 633 00ea F0D1     		bne	.L50
ARM GAS  C:\Users\RECEPC~1\AppData\Local\Temp\ccNG63cQ.s 			page 19


 298:.\Protocolo.c ****             while((rx_venta[x]!=0xF9)||(x>=39)){    
 634              		.loc 1 298 0 is_stmt 0 discriminator 2
 635 00ec 262B     		cmp	r3, #38
 636 00ee EED8     		bhi	.L50
 303:.\Protocolo.c **** 			rventa.ppu[0]=y-1;
 637              		.loc 1 303 0 is_stmt 1
 638 00f0 0139     		subs	r1, r1, #1
 639              	.LVL87:
 640 00f2 3A4A     		ldr	r2, .L62
 641 00f4 82F8A410 		strb	r1, [r2, #164]
 304:.\Protocolo.c ****             x++;
 642              		.loc 1 304 0
 643 00f8 0133     		adds	r3, r3, #1
 644              	.LVL88:
 645 00fa DBB2     		uxtb	r3, r3
 646              	.LVL89:
 305:.\Protocolo.c ****             y=1;
 647              		.loc 1 305 0
 648 00fc 0121     		movs	r1, #1
 307:.\Protocolo.c ****                 rventa.volumen[y]=(rx_venta[x]&0x0F);
 649              		.loc 1 307 0
 650 00fe 1446     		mov	r4, r2
 306:.\Protocolo.c ****             while((rx_venta[x]!=0xFA)||(x>=39)){
 651              		.loc 1 306 0
 652 0100 08E0     		b	.L51
 653              	.LVL90:
 654              	.L52:
 307:.\Protocolo.c ****                 rventa.volumen[y]=(rx_venta[x]&0x0F);
 655              		.loc 1 307 0
 656 0102 6018     		adds	r0, r4, r1
 657 0104 02F00F02 		and	r2, r2, #15
 658 0108 80F8B420 		strb	r2, [r0, #180]
 308:.\Protocolo.c ****                 x++;
 659              		.loc 1 308 0
 660 010c 0133     		adds	r3, r3, #1
 661              	.LVL91:
 662 010e DBB2     		uxtb	r3, r3
 663              	.LVL92:
 309:.\Protocolo.c ****                 y++;    
 664              		.loc 1 309 0
 665 0110 0131     		adds	r1, r1, #1
 666              	.LVL93:
 667 0112 C9B2     		uxtb	r1, r1
 668              	.LVL94:
 669              	.L51:
 306:.\Protocolo.c ****             while((rx_venta[x]!=0xFA)||(x>=39)){
 670              		.loc 1 306 0 discriminator 1
 671 0114 0AAA     		add	r2, sp, #40
 672 0116 1A44     		add	r2, r2, r3
 673 0118 12F8282C 		ldrb	r2, [r2, #-40]	@ zero_extendqisi2
 674 011c FA2A     		cmp	r2, #250
 675 011e F0D1     		bne	.L52
 306:.\Protocolo.c ****             while((rx_venta[x]!=0xFA)||(x>=39)){
 676              		.loc 1 306 0 is_stmt 0 discriminator 2
 677 0120 262B     		cmp	r3, #38
 678 0122 EED8     		bhi	.L52
 311:.\Protocolo.c **** 			rventa.volumen[0]=y-1;
ARM GAS  C:\Users\RECEPC~1\AppData\Local\Temp\ccNG63cQ.s 			page 20


 679              		.loc 1 311 0 is_stmt 1
 680 0124 0139     		subs	r1, r1, #1
 681              	.LVL95:
 682 0126 2D4A     		ldr	r2, .L62
 683 0128 82F8B410 		strb	r1, [r2, #180]
 312:.\Protocolo.c ****             x++;
 684              		.loc 1 312 0
 685 012c 0133     		adds	r3, r3, #1
 686              	.LVL96:
 687 012e DBB2     		uxtb	r3, r3
 688              	.LVL97:
 313:.\Protocolo.c ****             y=1;
 689              		.loc 1 313 0
 690 0130 0121     		movs	r1, #1
 315:.\Protocolo.c ****                 rventa.dinero[y]=(rx_venta[x]&0x0F);
 691              		.loc 1 315 0
 692 0132 1446     		mov	r4, r2
 314:.\Protocolo.c ****             while((rx_venta[x]!=0xFB)||(x>=39)){
 693              		.loc 1 314 0
 694 0134 08E0     		b	.L53
 695              	.LVL98:
 696              	.L54:
 315:.\Protocolo.c ****                 rventa.dinero[y]=(rx_venta[x]&0x0F);
 697              		.loc 1 315 0
 698 0136 6018     		adds	r0, r4, r1
 699 0138 02F00F02 		and	r2, r2, #15
 700 013c 80F8AB20 		strb	r2, [r0, #171]
 316:.\Protocolo.c ****                 x++;
 701              		.loc 1 316 0
 702 0140 0133     		adds	r3, r3, #1
 703              	.LVL99:
 704 0142 DBB2     		uxtb	r3, r3
 705              	.LVL100:
 317:.\Protocolo.c ****                 y++;    
 706              		.loc 1 317 0
 707 0144 0131     		adds	r1, r1, #1
 708              	.LVL101:
 709 0146 C9B2     		uxtb	r1, r1
 710              	.LVL102:
 711              	.L53:
 314:.\Protocolo.c ****             while((rx_venta[x]!=0xFB)||(x>=39)){
 712              		.loc 1 314 0 discriminator 1
 713 0148 0AAA     		add	r2, sp, #40
 714 014a 1A44     		add	r2, r2, r3
 715 014c 12F8282C 		ldrb	r2, [r2, #-40]	@ zero_extendqisi2
 716 0150 FB2A     		cmp	r2, #251
 717 0152 F0D1     		bne	.L54
 314:.\Protocolo.c ****             while((rx_venta[x]!=0xFB)||(x>=39)){
 718              		.loc 1 314 0 is_stmt 0 discriminator 2
 719 0154 262B     		cmp	r3, #38
 720 0156 EED8     		bhi	.L54
 319:.\Protocolo.c **** 			rventa.dinero[0]=y-1;
 721              		.loc 1 319 0 is_stmt 1
 722 0158 0139     		subs	r1, r1, #1
 723              	.LVL103:
 724 015a 204A     		ldr	r2, .L62
 725 015c 82F8AB10 		strb	r1, [r2, #171]
ARM GAS  C:\Users\RECEPC~1\AppData\Local\Temp\ccNG63cQ.s 			page 21


 320:.\Protocolo.c ****             x+=2;
 726              		.loc 1 320 0
 727 0160 0233     		adds	r3, r3, #2
 728              	.LVL104:
 729 0162 DBB2     		uxtb	r3, r3
 730              	.LVL105:
 321:.\Protocolo.c ****             if((rx_venta[x]==0xF0)&&(x<=38)){								
 731              		.loc 1 321 0
 732 0164 0AAA     		add	r2, sp, #40
 733 0166 1A44     		add	r2, r2, r3
 734 0168 12F8282C 		ldrb	r2, [r2, #-40]	@ zero_extendqisi2
 735 016c F02A     		cmp	r2, #240
 736 016e 2FD1     		bne	.L60
 321:.\Protocolo.c ****             if((rx_venta[x]==0xF0)&&(x<=38)){								
 737              		.loc 1 321 0 is_stmt 0 discriminator 1
 738 0170 262B     		cmp	r3, #38
 739 0172 2FD8     		bhi	.L61
 322:.\Protocolo.c **** 				if(val==lado.a.dir){
 740              		.loc 1 322 0 is_stmt 1
 741 0174 1A4B     		ldr	r3, .L62+4
 742              	.LVL106:
 743 0176 1B78     		ldrb	r3, [r3]	@ zero_extendqisi2
 744 0178 AB42     		cmp	r3, r5
 745 017a 12D1     		bne	.L55
 323:.\Protocolo.c **** 					write_eeprom(457,rventa.dinero);
 746              		.loc 1 323 0
 747 017c 194C     		ldr	r4, .L62+8
 748 017e 40F2C910 		movw	r0, #457
 749 0182 2146     		mov	r1, r4
 750              	.LVL107:
 751 0184 FFF7FEFF 		bl	write_eeprom
 752              	.LVL108:
 324:.\Protocolo.c **** 					write_eeprom(466,rventa.volumen);
 753              		.loc 1 324 0
 754 0188 4FF4E970 		mov	r0, #466
 755 018c 04F10901 		add	r1, r4, #9
 756 0190 FFF7FEFF 		bl	write_eeprom
 757              	.LVL109:
 325:.\Protocolo.c **** 					write_eeprom(475,rventa.ppu);
 758              		.loc 1 325 0
 759 0194 40F2DB10 		movw	r0, #475
 760 0198 E11F     		subs	r1, r4, #7
 761 019a FFF7FEFF 		bl	write_eeprom
 762              	.LVL110:
 332:.\Protocolo.c ****                 return 1;
 763              		.loc 1 332 0
 764 019e 0120     		movs	r0, #1
 765 01a0 19E0     		b	.L41
 766              	.LVL111:
 767              	.L55:
 328:.\Protocolo.c **** 					write_eeprom(482,rventa.dinero);
 768              		.loc 1 328 0
 769 01a2 104C     		ldr	r4, .L62+8
 770 01a4 4FF4F170 		mov	r0, #482
 771 01a8 2146     		mov	r1, r4
 772              	.LVL112:
 773 01aa FFF7FEFF 		bl	write_eeprom
ARM GAS  C:\Users\RECEPC~1\AppData\Local\Temp\ccNG63cQ.s 			page 22


 774              	.LVL113:
 329:.\Protocolo.c **** 					write_eeprom(500,rventa.ppu);
 775              		.loc 1 329 0
 776 01ae 4FF4FA70 		mov	r0, #500
 777 01b2 E11F     		subs	r1, r4, #7
 778 01b4 FFF7FEFF 		bl	write_eeprom
 779              	.LVL114:
 330:.\Protocolo.c **** 					write_eeprom(491,rventa.volumen);				
 780              		.loc 1 330 0
 781 01b8 40F2EB10 		movw	r0, #491
 782 01bc 04F10901 		add	r1, r4, #9
 783 01c0 FFF7FEFF 		bl	write_eeprom
 784              	.LVL115:
 332:.\Protocolo.c ****                 return 1;
 785              		.loc 1 332 0
 786 01c4 0120     		movs	r0, #1
 787 01c6 06E0     		b	.L41
 788              	.LVL116:
 789              	.L57:
 339:.\Protocolo.c ****             return 0;
 790              		.loc 1 339 0
 791 01c8 0020     		movs	r0, #0
 792 01ca 04E0     		b	.L41
 793              	.L58:
 794 01cc 0020     		movs	r0, #0
 795 01ce 02E0     		b	.L41
 796              	.LVL117:
 797              	.L60:
 335:.\Protocolo.c ****                 return 0;
 798              		.loc 1 335 0
 799 01d0 0020     		movs	r0, #0
 800 01d2 00E0     		b	.L41
 801              	.L61:
 802 01d4 0020     		movs	r0, #0
 803              	.LVL118:
 804              	.L41:
 344:.\Protocolo.c ****     }
 345:.\Protocolo.c **** }
 805              		.loc 1 345 0
 806 01d6 0BB0     		add	sp, sp, #44
 807              		@ sp needed
 808 01d8 30BD     		pop	{r4, r5, pc}
 809              	.L63:
 810 01da 00BF     		.align	2
 811              	.L62:
 812 01dc 00000000 		.word	rventa
 813 01e0 00000000 		.word	lado
 814 01e4 AB000000 		.word	rventa+171
 815              		.cfi_endproc
 816              	.LFE68:
 817              		.size	venta, .-venta
 818              		.section	.text.get_totales,"ax",%progbits
 819              		.align	2
 820              		.global	get_totales
 821              		.thumb
 822              		.thumb_func
 823              		.type	get_totales, %function
ARM GAS  C:\Users\RECEPC~1\AppData\Local\Temp\ccNG63cQ.s 			page 23


 824              	get_totales:
 825              	.LFB69:
 346:.\Protocolo.c **** 
 347:.\Protocolo.c **** /*
 348:.\Protocolo.c **** ***************************************************************************************************
 349:.\Protocolo.c **** *                                         uint8 get_totales(uint8 dir)
 350:.\Protocolo.c **** *
 351:.\Protocolo.c **** * Description : 
 352:.\Protocolo.c **** *               
 353:.\Protocolo.c **** *
 354:.\Protocolo.c **** * Argument(s) : none
 355:.\Protocolo.c **** *
 356:.\Protocolo.c **** * Return(s)   : none
 357:.\Protocolo.c **** *
 358:.\Protocolo.c **** * Caller(s)   : 
 359:.\Protocolo.c **** *
 360:.\Protocolo.c **** * Note(s)     : none.
 361:.\Protocolo.c **** ***************************************************************************************************
 362:.\Protocolo.c **** */
 363:.\Protocolo.c **** uint8 get_totales(uint8 dir,uint8 val){ 
 826              		.loc 1 363 0
 827              		.cfi_startproc
 828              		@ args = 0, pretend = 0, frame = 64
 829              		@ frame_needed = 0, uses_anonymous_args = 0
 830              	.LVL119:
 831 0000 2DE9F041 		push	{r4, r5, r6, r7, r8, lr}
 832              		.cfi_def_cfa_offset 24
 833              		.cfi_offset 4, -24
 834              		.cfi_offset 5, -20
 835              		.cfi_offset 6, -16
 836              		.cfi_offset 7, -12
 837              		.cfi_offset 8, -8
 838              		.cfi_offset 14, -4
 839 0004 90B0     		sub	sp, sp, #64
 840              		.cfi_def_cfa_offset 88
 841 0006 0646     		mov	r6, r0
 842 0008 0C46     		mov	r4, r1
 364:.\Protocolo.c **** 	uint8 corte[25], minuendo[14],sustraendo[14]; 
 365:.\Protocolo.c ****     Surtidor_PutChar(0x50|dir);
 843              		.loc 1 365 0
 844 000a 40F05000 		orr	r0, r0, #80
 845              	.LVL120:
 846 000e FFF7FEFF 		bl	Surtidor_PutChar
 847              	.LVL121:
 366:.\Protocolo.c ****     CyDelay(1000);
 848              		.loc 1 366 0
 849 0012 4FF47A70 		mov	r0, #1000
 850 0016 FFF7FEFF 		bl	CyDelay
 851              	.LVL122:
 367:.\Protocolo.c **** 	switch(Surtidor_GetRxBufferSize()){
 852              		.loc 1 367 0
 853 001a FFF7FEFF 		bl	Surtidor_GetRxBufferSize
 854              	.LVL123:
 855 001e 4028     		cmp	r0, #64
 856 0020 00F0AA83 		beq	.L66
 857 0024 06D8     		bhi	.L67
 858 0026 2228     		cmp	r0, #34
ARM GAS  C:\Users\RECEPC~1\AppData\Local\Temp\ccNG63cQ.s 			page 24


 859 0028 0FD0     		beq	.L68
 860 002a 2E28     		cmp	r0, #46
 861 002c 01F00D83 		beq	.L69
 862 0030 02F005BE 		b	.L65
 863              	.L67:
 864 0034 5E28     		cmp	r0, #94
 865 0036 00F04A87 		beq	.L70
 866 003a 8228     		cmp	r0, #130
 867 003c 02F05882 		beq	.L71
 868 0040 5828     		cmp	r0, #88
 869 0042 42F0FC85 		bne	.L65
 870 0046 01F098BE 		b	.L72
 871              	.L68:
 368:.\Protocolo.c **** 		case 34:
 369:.\Protocolo.c **** 			if((Surtidor_rxBuffer[0]==0xFF)&&(Surtidor_rxBuffer[1]==0xF6)&&(Surtidor_rxBuffer[33]==0xF0)&&(S
 872              		.loc 1 369 0
 873 004a A54B     		ldr	r3, .L540
 874 004c 1B78     		ldrb	r3, [r3]	@ zero_extendqisi2
 875 004e DBB2     		uxtb	r3, r3
 876 0050 FF2B     		cmp	r3, #255
 877 0052 42F00886 		bne	.L516
 878              		.loc 1 369 0 is_stmt 0 discriminator 1
 879 0056 A24B     		ldr	r3, .L540
 880 0058 5B78     		ldrb	r3, [r3, #1]	@ zero_extendqisi2
 881 005a DBB2     		uxtb	r3, r3
 882 005c F62B     		cmp	r3, #246
 883 005e 42F00486 		bne	.L517
 884 0062 9F4B     		ldr	r3, .L540
 885 0064 93F82130 		ldrb	r3, [r3, #33]	@ zero_extendqisi2
 886 0068 DBB2     		uxtb	r3, r3
 887 006a F02B     		cmp	r3, #240
 888 006c 42F0FF85 		bne	.L518
 889 0070 9B4B     		ldr	r3, .L540
 890 0072 DB78     		ldrb	r3, [r3, #3]	@ zero_extendqisi2
 891 0074 DBB2     		uxtb	r3, r3
 892 0076 F92B     		cmp	r3, #249
 893 0078 42F0FB85 		bne	.L519
 370:.\Protocolo.c **** 				rventa.manguera=(Surtidor_rxBuffer[2]&0x0F)+1;			
 894              		.loc 1 370 0 is_stmt 1
 895 007c 984B     		ldr	r3, .L540
 896 007e 9878     		ldrb	r0, [r3, #2]	@ zero_extendqisi2
 897 0080 00F00F00 		and	r0, r0, #15
 898 0084 0130     		adds	r0, r0, #1
 899 0086 974B     		ldr	r3, .L540+4
 900 0088 83F8E000 		strb	r0, [r3, #224]
 371:.\Protocolo.c **** 				for(x=0;x<=7;x++){												
 901              		.loc 1 371 0
 902 008c 0022     		movs	r2, #0
 903 008e 964B     		ldr	r3, .L540+8
 904 0090 1A60     		str	r2, [r3]
 905 0092 1A46     		mov	r2, r3
 372:.\Protocolo.c **** 					rventa.tvolumen[x]=(Surtidor_rxBuffer[x+4]&0x0F);
 906              		.loc 1 372 0
 907 0094 DFF848E2 		ldr	lr, .L540
 908 0098 924F     		ldr	r7, .L540+4
 371:.\Protocolo.c **** 				for(x=0;x<=7;x++){												
 909              		.loc 1 371 0
ARM GAS  C:\Users\RECEPC~1\AppData\Local\Temp\ccNG63cQ.s 			page 25


 910 009a 09E0     		b	.L74
 911              	.L75:
 912              		.loc 1 372 0 discriminator 2
 913 009c 191D     		adds	r1, r3, #4
 914 009e 1EF80150 		ldrb	r5, [lr, r1]	@ zero_extendqisi2
 915 00a2 F918     		adds	r1, r7, r3
 916 00a4 05F00F05 		and	r5, r5, #15
 917 00a8 81F8BD50 		strb	r5, [r1, #189]
 371:.\Protocolo.c **** 				for(x=0;x<=7;x++){												
 918              		.loc 1 371 0 discriminator 2
 919 00ac 0133     		adds	r3, r3, #1
 920 00ae 1360     		str	r3, [r2]
 921              	.L74:
 371:.\Protocolo.c **** 				for(x=0;x<=7;x++){												
 922              		.loc 1 371 0 is_stmt 0 discriminator 1
 923 00b0 1368     		ldr	r3, [r2]
 924 00b2 072B     		cmp	r3, #7
 925 00b4 F2D9     		bls	.L75
 373:.\Protocolo.c **** 				}
 374:.\Protocolo.c **** 				for(x=0;x<=7;x++){
 926              		.loc 1 374 0 is_stmt 1
 927 00b6 0022     		movs	r2, #0
 928 00b8 8B4B     		ldr	r3, .L540+8
 929 00ba 1A60     		str	r2, [r3]
 930 00bc 1A46     		mov	r2, r3
 375:.\Protocolo.c **** 					rventa.tdinero[x]=(Surtidor_rxBuffer[x+13]&0x0F);
 931              		.loc 1 375 0
 932 00be DFF820E2 		ldr	lr, .L540
 933 00c2 884F     		ldr	r7, .L540+4
 374:.\Protocolo.c **** 				for(x=0;x<=7;x++){
 934              		.loc 1 374 0
 935 00c4 0AE0     		b	.L76
 936              	.L77:
 937              		.loc 1 375 0 discriminator 2
 938 00c6 03F10D01 		add	r1, r3, #13
 939 00ca 1EF80150 		ldrb	r5, [lr, r1]	@ zero_extendqisi2
 940 00ce F918     		adds	r1, r7, r3
 941 00d0 05F00F05 		and	r5, r5, #15
 942 00d4 81F8CA50 		strb	r5, [r1, #202]
 374:.\Protocolo.c **** 				for(x=0;x<=7;x++){
 943              		.loc 1 374 0 discriminator 2
 944 00d8 0133     		adds	r3, r3, #1
 945 00da 1360     		str	r3, [r2]
 946              	.L76:
 374:.\Protocolo.c **** 				for(x=0;x<=7;x++){
 947              		.loc 1 374 0 is_stmt 0 discriminator 1
 948 00dc 1368     		ldr	r3, [r2]
 949 00de 072B     		cmp	r3, #7
 950 00e0 F1D9     		bls	.L77
 376:.\Protocolo.c **** 				}
 377:.\Protocolo.c **** 				for(z=0;z<=7;z++){
 951              		.loc 1 377 0 is_stmt 1
 952 00e2 0022     		movs	r2, #0
 953 00e4 814B     		ldr	r3, .L540+12
 954 00e6 1A60     		str	r2, [r3]
 955 00e8 1946     		mov	r1, r3
 378:.\Protocolo.c **** 					corte[z+1]=rventa.tvolumen[z];
ARM GAS  C:\Users\RECEPC~1\AppData\Local\Temp\ccNG63cQ.s 			page 26


 956              		.loc 1 378 0
 957 00ea 7E4F     		ldr	r7, .L540+4
 377:.\Protocolo.c **** 				for(z=0;z<=7;z++){
 958              		.loc 1 377 0
 959 00ec 08E0     		b	.L78
 960              	.L79:
 961              		.loc 1 378 0 discriminator 2
 962 00ee 5A1C     		adds	r2, r3, #1
 963 00f0 3B44     		add	r3, r3, r7
 964 00f2 93F8BD50 		ldrb	r5, [r3, #189]	@ zero_extendqisi2
 965 00f6 10AB     		add	r3, sp, #64
 966 00f8 1344     		add	r3, r3, r2
 967 00fa 03F81C5C 		strb	r5, [r3, #-28]
 377:.\Protocolo.c **** 				for(z=0;z<=7;z++){
 968              		.loc 1 377 0 discriminator 2
 969 00fe 0A60     		str	r2, [r1]
 970              	.L78:
 377:.\Protocolo.c **** 				for(z=0;z<=7;z++){
 971              		.loc 1 377 0 is_stmt 0 discriminator 1
 972 0100 0B68     		ldr	r3, [r1]
 973 0102 072B     		cmp	r3, #7
 974 0104 F3D9     		bls	.L79
 379:.\Protocolo.c **** 				}
 380:.\Protocolo.c **** 				for(z=9;z<=16;z++){
 975              		.loc 1 380 0 is_stmt 1
 976 0106 0922     		movs	r2, #9
 977 0108 784B     		ldr	r3, .L540+12
 978 010a 1A60     		str	r2, [r3]
 979 010c 1A46     		mov	r2, r3
 381:.\Protocolo.c **** 					corte[z]=rventa.tdinero[z-9];
 980              		.loc 1 381 0
 981 010e 754F     		ldr	r7, .L540+4
 380:.\Protocolo.c **** 				for(z=9;z<=16;z++){
 982              		.loc 1 380 0
 983 0110 08E0     		b	.L80
 984              	.L81:
 985              		.loc 1 381 0 discriminator 2
 986 0112 F918     		adds	r1, r7, r3
 987 0114 91F8C150 		ldrb	r5, [r1, #193]	@ zero_extendqisi2
 988 0118 10A9     		add	r1, sp, #64
 989 011a 1944     		add	r1, r1, r3
 990 011c 01F81C5C 		strb	r5, [r1, #-28]
 380:.\Protocolo.c **** 				for(z=9;z<=16;z++){
 991              		.loc 1 380 0 discriminator 2
 992 0120 0133     		adds	r3, r3, #1
 993 0122 1360     		str	r3, [r2]
 994              	.L80:
 380:.\Protocolo.c **** 				for(z=9;z<=16;z++){
 995              		.loc 1 380 0 is_stmt 0 discriminator 1
 996 0124 1368     		ldr	r3, [r2]
 997 0126 102B     		cmp	r3, #16
 998 0128 F3D9     		bls	.L81
 382:.\Protocolo.c **** 				}
 383:.\Protocolo.c **** 				corte[0]=16;				
 999              		.loc 1 383 0 is_stmt 1
 1000 012a 1023     		movs	r3, #16
 1001 012c 8DF82430 		strb	r3, [sp, #36]
ARM GAS  C:\Users\RECEPC~1\AppData\Local\Temp\ccNG63cQ.s 			page 27


 384:.\Protocolo.c **** 				if(((rventa.manguera==(corriente&0x0F))&&(dir==lado.a.dir))||((rventa.manguera==(corriente2&0x0
 1002              		.loc 1 384 0
 1003 0130 6F4B     		ldr	r3, .L540+16
 1004 0132 1B78     		ldrb	r3, [r3]	@ zero_extendqisi2
 1005 0134 03F00F03 		and	r3, r3, #15
 1006 0138 9842     		cmp	r0, r3
 1007 013a 03D1     		bne	.L82
 1008              		.loc 1 384 0 is_stmt 0 discriminator 1
 1009 013c 6D4B     		ldr	r3, .L540+20
 1010 013e 1B78     		ldrb	r3, [r3]	@ zero_extendqisi2
 1011 0140 B342     		cmp	r3, r6
 1012 0142 0BD0     		beq	.L83
 1013              	.L82:
 1014              		.loc 1 384 0 discriminator 2
 1015 0144 6C4B     		ldr	r3, .L540+24
 1016 0146 1B78     		ldrb	r3, [r3]	@ zero_extendqisi2
 1017 0148 03F00F03 		and	r3, r3, #15
 1018 014c 9842     		cmp	r0, r3
 1019 014e 40F0A780 		bne	.L84
 1020              		.loc 1 384 0 discriminator 1
 1021 0152 684B     		ldr	r3, .L540+20
 1022 0154 1B79     		ldrb	r3, [r3, #4]	@ zero_extendqisi2
 1023 0156 B342     		cmp	r3, r6
 1024 0158 40F0A280 		bne	.L84
 1025              	.L83:
 385:.\Protocolo.c **** 					for(x=0;x<=16;x++){									
 1026              		.loc 1 385 0 is_stmt 1
 1027 015c 0022     		movs	r2, #0
 1028 015e 624B     		ldr	r3, .L540+8
 1029 0160 1A60     		str	r2, [r3]
 1030 0162 1D46     		mov	r5, r3
 386:.\Protocolo.c **** 						write_psoc1(val,msn_tc[x]);
 1031              		.loc 1 386 0
 1032 0164 654F     		ldr	r7, .L540+28
 385:.\Protocolo.c **** 					for(x=0;x<=16;x++){									
 1033              		.loc 1 385 0
 1034 0166 06E0     		b	.L85
 1035              	.L86:
 1036              		.loc 1 386 0 discriminator 2
 1037 0168 2046     		mov	r0, r4
 1038 016a F95C     		ldrb	r1, [r7, r3]	@ zero_extendqisi2
 1039 016c FFF7FEFF 		bl	write_psoc1
 1040              	.LVL124:
 385:.\Protocolo.c **** 					for(x=0;x<=16;x++){									
 1041              		.loc 1 385 0 discriminator 2
 1042 0170 2B68     		ldr	r3, [r5]
 1043 0172 0133     		adds	r3, r3, #1
 1044 0174 2B60     		str	r3, [r5]
 1045              	.L85:
 385:.\Protocolo.c **** 					for(x=0;x<=16;x++){									
 1046              		.loc 1 385 0 is_stmt 0 discriminator 1
 1047 0176 2B68     		ldr	r3, [r5]
 1048 0178 102B     		cmp	r3, #16
 1049 017a F5D9     		bls	.L86
 387:.\Protocolo.c **** 					}
 388:.\Protocolo.c **** 					write_psoc1(val,10);
 1050              		.loc 1 388 0 is_stmt 1
ARM GAS  C:\Users\RECEPC~1\AppData\Local\Temp\ccNG63cQ.s 			page 28


 1051 017c 2046     		mov	r0, r4
 1052 017e 0A21     		movs	r1, #10
 1053 0180 FFF7FEFF 		bl	write_psoc1
 1054              	.LVL125:
 389:.\Protocolo.c **** 					for(x=0;x<=14;x++){									
 1055              		.loc 1 389 0
 1056 0184 0022     		movs	r2, #0
 1057 0186 584B     		ldr	r3, .L540+8
 1058 0188 1A60     		str	r2, [r3]
 1059 018a 1D46     		mov	r5, r3
 390:.\Protocolo.c **** 						write_psoc1(val,msn_lecact[x]);				//LECTURA ACTUAL
 1060              		.loc 1 390 0
 1061 018c 5B4F     		ldr	r7, .L540+28
 389:.\Protocolo.c **** 					for(x=0;x<=14;x++){									
 1062              		.loc 1 389 0
 1063 018e 07E0     		b	.L87
 1064              	.L88:
 1065              		.loc 1 390 0 discriminator 2
 1066 0190 3B44     		add	r3, r3, r7
 1067 0192 2046     		mov	r0, r4
 1068 0194 197D     		ldrb	r1, [r3, #20]	@ zero_extendqisi2
 1069 0196 FFF7FEFF 		bl	write_psoc1
 1070              	.LVL126:
 389:.\Protocolo.c **** 					for(x=0;x<=14;x++){									
 1071              		.loc 1 389 0 discriminator 2
 1072 019a 2B68     		ldr	r3, [r5]
 1073 019c 0133     		adds	r3, r3, #1
 1074 019e 2B60     		str	r3, [r5]
 1075              	.L87:
 389:.\Protocolo.c **** 					for(x=0;x<=14;x++){									
 1076              		.loc 1 389 0 is_stmt 0 discriminator 1
 1077 01a0 2B68     		ldr	r3, [r5]
 1078 01a2 0E2B     		cmp	r3, #14
 1079 01a4 F4D9     		bls	.L88
 391:.\Protocolo.c **** 					}
 392:.\Protocolo.c **** 					write_psoc1(val,10);
 1080              		.loc 1 392 0 is_stmt 1
 1081 01a6 2046     		mov	r0, r4
 1082 01a8 0A21     		movs	r1, #10
 1083 01aa FFF7FEFF 		bl	write_psoc1
 1084              	.LVL127:
 393:.\Protocolo.c **** 					print_totalesac(8,val);	
 1085              		.loc 1 393 0
 1086 01ae 0820     		movs	r0, #8
 1087 01b0 2146     		mov	r1, r4
 1088 01b2 FFF7FEFF 		bl	print_totalesac
 1089              	.LVL128:
 394:.\Protocolo.c **** 					for(x=0;x<=16;x++){												
 1090              		.loc 1 394 0
 1091 01b6 0022     		movs	r2, #0
 1092 01b8 4B4B     		ldr	r3, .L540+8
 1093 01ba 1A60     		str	r2, [r3]
 1094 01bc 1D46     		mov	r5, r3
 395:.\Protocolo.c **** 						write_psoc1(val,msn_lecaan[x]);				//LECTURA ANTERIOR
 1095              		.loc 1 395 0
 1096 01be 4F4F     		ldr	r7, .L540+28
 394:.\Protocolo.c **** 					for(x=0;x<=16;x++){												
ARM GAS  C:\Users\RECEPC~1\AppData\Local\Temp\ccNG63cQ.s 			page 29


 1097              		.loc 1 394 0
 1098 01c0 08E0     		b	.L89
 1099              	.L90:
 1100              		.loc 1 395 0 discriminator 2
 1101 01c2 3B44     		add	r3, r3, r7
 1102 01c4 2046     		mov	r0, r4
 1103 01c6 93F82410 		ldrb	r1, [r3, #36]	@ zero_extendqisi2
 1104 01ca FFF7FEFF 		bl	write_psoc1
 1105              	.LVL129:
 394:.\Protocolo.c **** 					for(x=0;x<=16;x++){												
 1106              		.loc 1 394 0 discriminator 2
 1107 01ce 2B68     		ldr	r3, [r5]
 1108 01d0 0133     		adds	r3, r3, #1
 1109 01d2 2B60     		str	r3, [r5]
 1110              	.L89:
 394:.\Protocolo.c **** 					for(x=0;x<=16;x++){												
 1111              		.loc 1 394 0 is_stmt 0 discriminator 1
 1112 01d4 2B68     		ldr	r3, [r5]
 1113 01d6 102B     		cmp	r3, #16
 1114 01d8 F3D9     		bls	.L90
 396:.\Protocolo.c **** 					}
 397:.\Protocolo.c **** 					write_psoc1(val,10);
 1115              		.loc 1 397 0 is_stmt 1
 1116 01da 2046     		mov	r0, r4
 1117 01dc 0A21     		movs	r1, #10
 1118 01de FFF7FEFF 		bl	write_psoc1
 1119              	.LVL130:
 398:.\Protocolo.c **** 					if(dir==lado.a.dir){
 1120              		.loc 1 398 0
 1121 01e2 444B     		ldr	r3, .L540+20
 1122 01e4 1B78     		ldrb	r3, [r3]	@ zero_extendqisi2
 1123 01e6 B342     		cmp	r3, r6
 1124 01e8 04D1     		bne	.L91
 399:.\Protocolo.c **** 						leer_eeprom(192,25);
 1125              		.loc 1 399 0
 1126 01ea C020     		movs	r0, #192
 1127 01ec 1921     		movs	r1, #25
 1128 01ee FFF7FEFF 		bl	leer_eeprom
 1129              	.LVL131:
 1130 01f2 04E0     		b	.L92
 1131              	.L91:
 400:.\Protocolo.c **** 					}
 401:.\Protocolo.c **** 					else{
 402:.\Protocolo.c **** 						leer_eeprom(281,25);
 1132              		.loc 1 402 0
 1133 01f4 40F21910 		movw	r0, #281
 1134 01f8 1921     		movs	r1, #25
 1135 01fa FFF7FEFF 		bl	leer_eeprom
 1136              	.LVL132:
 1137              	.L92:
 403:.\Protocolo.c **** 					}
 404:.\Protocolo.c **** 					print_totales(val);
 1138              		.loc 1 404 0
 1139 01fe 2046     		mov	r0, r4
 1140 0200 FFF7FEFF 		bl	print_totales
 1141              	.LVL133:
 405:.\Protocolo.c **** 					for(z=1;z<=8;z++){
ARM GAS  C:\Users\RECEPC~1\AppData\Local\Temp\ccNG63cQ.s 			page 30


 1142              		.loc 1 405 0
 1143 0204 0122     		movs	r2, #1
 1144 0206 394B     		ldr	r3, .L540+12
 1145 0208 1A60     		str	r2, [r3]
 1146 020a 1A46     		mov	r2, r3
 406:.\Protocolo.c **** 						minuendo[z]=rventa.tdinero[z-1];
 1147              		.loc 1 406 0
 1148 020c 354F     		ldr	r7, .L540+4
 407:.\Protocolo.c **** 						sustraendo[z]=buffer_i2c[z+8];
 1149              		.loc 1 407 0
 1150 020e 3C4D     		ldr	r5, .L540+32
 405:.\Protocolo.c **** 					for(z=1;z<=8;z++){
 1151              		.loc 1 405 0
 1152 0210 0DE0     		b	.L93
 1153              	.L94:
 406:.\Protocolo.c **** 						minuendo[z]=rventa.tdinero[z-1];
 1154              		.loc 1 406 0 discriminator 2
 1155 0212 F918     		adds	r1, r7, r3
 1156 0214 91F8C900 		ldrb	r0, [r1, #201]	@ zero_extendqisi2
 1157 0218 10A9     		add	r1, sp, #64
 1158 021a 1944     		add	r1, r1, r3
 1159 021c 01F82C0C 		strb	r0, [r1, #-44]
 1160              		.loc 1 407 0 discriminator 2
 1161 0220 03F10800 		add	r0, r3, #8
 1162 0224 285C     		ldrb	r0, [r5, r0]	@ zero_extendqisi2
 1163 0226 01F83C0C 		strb	r0, [r1, #-60]
 405:.\Protocolo.c **** 					for(z=1;z<=8;z++){
 1164              		.loc 1 405 0 discriminator 2
 1165 022a 0133     		adds	r3, r3, #1
 1166 022c 1360     		str	r3, [r2]
 1167              	.L93:
 405:.\Protocolo.c **** 					for(z=1;z<=8;z++){
 1168              		.loc 1 405 0 is_stmt 0 discriminator 1
 1169 022e 1368     		ldr	r3, [r2]
 1170 0230 082B     		cmp	r3, #8
 1171 0232 EED9     		bls	.L94
 408:.\Protocolo.c **** 					}
 409:.\Protocolo.c **** 					minuendo[0]=8;
 1172              		.loc 1 409 0 is_stmt 1
 1173 0234 10A9     		add	r1, sp, #64
 1174 0236 0823     		movs	r3, #8
 1175 0238 01F82C3D 		strb	r3, [r1, #-44]!
 410:.\Protocolo.c **** 					operacion(2,minuendo,sustraendo);
 1176              		.loc 1 410 0
 1177 023c 0220     		movs	r0, #2
 1178 023e 01AA     		add	r2, sp, #4
 1179 0240 FFF7FEFF 		bl	operacion
 1180              	.LVL134:
 411:.\Protocolo.c **** 					for(x=0;x<=17;x++){									
 1181              		.loc 1 411 0
 1182 0244 0022     		movs	r2, #0
 1183 0246 284B     		ldr	r3, .L540+8
 1184 0248 1A60     		str	r2, [r3]
 1185 024a 1D46     		mov	r5, r3
 412:.\Protocolo.c **** 						write_psoc1(val,msn_tventas[x]);				//Total de ventas
 1186              		.loc 1 412 0
 1187 024c 2B4F     		ldr	r7, .L540+28
ARM GAS  C:\Users\RECEPC~1\AppData\Local\Temp\ccNG63cQ.s 			page 31


 411:.\Protocolo.c **** 					for(x=0;x<=17;x++){									
 1188              		.loc 1 411 0
 1189 024e 08E0     		b	.L95
 1190              	.L96:
 1191              		.loc 1 412 0 discriminator 2
 1192 0250 3B44     		add	r3, r3, r7
 1193 0252 2046     		mov	r0, r4
 1194 0254 93F83810 		ldrb	r1, [r3, #56]	@ zero_extendqisi2
 1195 0258 FFF7FEFF 		bl	write_psoc1
 1196              	.LVL135:
 411:.\Protocolo.c **** 					for(x=0;x<=17;x++){									
 1197              		.loc 1 411 0 discriminator 2
 1198 025c 2B68     		ldr	r3, [r5]
 1199 025e 0133     		adds	r3, r3, #1
 1200 0260 2B60     		str	r3, [r5]
 1201              	.L95:
 411:.\Protocolo.c **** 					for(x=0;x<=17;x++){									
 1202              		.loc 1 411 0 is_stmt 0 discriminator 1
 1203 0262 2B68     		ldr	r3, [r5]
 1204 0264 112B     		cmp	r3, #17
 1205 0266 F3D9     		bls	.L96
 413:.\Protocolo.c **** 					}
 414:.\Protocolo.c **** 					print_valor(resultado,val);
 1206              		.loc 1 414 0 is_stmt 1
 1207 0268 2648     		ldr	r0, .L540+36
 1208 026a 2146     		mov	r1, r4
 1209 026c FFF7FEFF 		bl	print_valor
 1210              	.LVL136:
 415:.\Protocolo.c **** 					if(dir==lado.a.dir){
 1211              		.loc 1 415 0
 1212 0270 204B     		ldr	r3, .L540+20
 1213 0272 1B78     		ldrb	r3, [r3]	@ zero_extendqisi2
 1214 0274 B342     		cmp	r3, r6
 1215 0276 09D1     		bne	.L97
 416:.\Protocolo.c **** 						write_eeprom(192,corte);	
 1216              		.loc 1 416 0
 1217 0278 C020     		movs	r0, #192
 1218 027a 09A9     		add	r1, sp, #36
 1219 027c FFF7FEFF 		bl	write_eeprom
 1220              	.LVL137:
 417:.\Protocolo.c **** 						write_eeprom(512,resultado);
 1221              		.loc 1 417 0
 1222 0280 4FF40070 		mov	r0, #512
 1223 0284 1F49     		ldr	r1, .L540+36
 1224 0286 FFF7FEFF 		bl	write_eeprom
 1225              	.LVL138:
 1226 028a 09E0     		b	.L84
 1227              	.L97:
 418:.\Protocolo.c **** 					}
 419:.\Protocolo.c **** 					else{
 420:.\Protocolo.c **** 						write_eeprom(281,corte);
 1228              		.loc 1 420 0
 1229 028c 40F21910 		movw	r0, #281
 1230 0290 09A9     		add	r1, sp, #36
 1231 0292 FFF7FEFF 		bl	write_eeprom
 1232              	.LVL139:
 421:.\Protocolo.c **** 						write_eeprom(551,resultado);
ARM GAS  C:\Users\RECEPC~1\AppData\Local\Temp\ccNG63cQ.s 			page 32


 1233              		.loc 1 421 0
 1234 0296 40F22720 		movw	r0, #551
 1235 029a 1A49     		ldr	r1, .L540+36
 1236 029c FFF7FEFF 		bl	write_eeprom
 1237              	.LVL140:
 1238              	.L84:
 422:.\Protocolo.c **** 					}
 423:.\Protocolo.c **** 				}
 424:.\Protocolo.c **** 				if(((rventa.manguera==(diesel&0x0F))&&(dir==lado.a.dir))||((rventa.manguera==(diesel2&0x0F))&&(
 1239              		.loc 1 424 0
 1240 02a0 104B     		ldr	r3, .L540+4
 1241 02a2 93F8E030 		ldrb	r3, [r3, #224]	@ zero_extendqisi2
 1242 02a6 184A     		ldr	r2, .L540+40
 1243 02a8 1278     		ldrb	r2, [r2]	@ zero_extendqisi2
 1244 02aa 02F00F02 		and	r2, r2, #15
 1245 02ae 9A42     		cmp	r2, r3
 1246 02b0 03D1     		bne	.L98
 1247              		.loc 1 424 0 is_stmt 0 discriminator 1
 1248 02b2 104A     		ldr	r2, .L540+20
 1249 02b4 1278     		ldrb	r2, [r2]	@ zero_extendqisi2
 1250 02b6 B242     		cmp	r2, r6
 1251 02b8 0BD0     		beq	.L99
 1252              	.L98:
 1253              		.loc 1 424 0 discriminator 2
 1254 02ba 144A     		ldr	r2, .L540+44
 1255 02bc 1278     		ldrb	r2, [r2]	@ zero_extendqisi2
 1256 02be 02F00F02 		and	r2, r2, #15
 1257 02c2 9342     		cmp	r3, r2
 1258 02c4 40F0C280 		bne	.L100
 1259              		.loc 1 424 0 discriminator 1
 1260 02c8 0A4B     		ldr	r3, .L540+20
 1261 02ca 1B79     		ldrb	r3, [r3, #4]	@ zero_extendqisi2
 1262 02cc B342     		cmp	r3, r6
 1263 02ce 40F0BD80 		bne	.L100
 1264              	.L99:
 425:.\Protocolo.c **** 					for(x=0;x<=13;x++){									
 1265              		.loc 1 425 0 is_stmt 1
 1266 02d2 0022     		movs	r2, #0
 1267 02d4 044B     		ldr	r3, .L540+8
 1268 02d6 1A60     		str	r2, [r3]
 1269 02d8 1D46     		mov	r5, r3
 426:.\Protocolo.c **** 						write_psoc1(val,msn_td[x]);
 1270              		.loc 1 426 0
 1271 02da 084F     		ldr	r7, .L540+28
 425:.\Protocolo.c **** 					for(x=0;x<=13;x++){									
 1272              		.loc 1 425 0
 1273 02dc 21E0     		b	.L101
 1274              	.L541:
 1275 02de 00BF     		.align	2
 1276              	.L540:
 1277 02e0 00000000 		.word	Surtidor_rxBuffer
 1278 02e4 00000000 		.word	rventa
 1279 02e8 00000000 		.word	x
 1280 02ec 00000000 		.word	z
 1281 02f0 00000000 		.word	corriente
 1282 02f4 00000000 		.word	lado
 1283 02f8 00000000 		.word	corriente2
ARM GAS  C:\Users\RECEPC~1\AppData\Local\Temp\ccNG63cQ.s 			page 33


 1284 02fc 00000000 		.word	.LANCHOR1
 1285 0300 00000000 		.word	buffer_i2c
 1286 0304 00000000 		.word	resultado
 1287 0308 00000000 		.word	diesel
 1288 030c 00000000 		.word	diesel2
 1289              	.L102:
 1290              		.loc 1 426 0 discriminator 2
 1291 0310 3B44     		add	r3, r3, r7
 1292 0312 2046     		mov	r0, r4
 1293 0314 93F84C10 		ldrb	r1, [r3, #76]	@ zero_extendqisi2
 1294 0318 FFF7FEFF 		bl	write_psoc1
 1295              	.LVL141:
 425:.\Protocolo.c **** 					for(x=0;x<=13;x++){									
 1296              		.loc 1 425 0 discriminator 2
 1297 031c 2B68     		ldr	r3, [r5]
 1298 031e 0133     		adds	r3, r3, #1
 1299 0320 2B60     		str	r3, [r5]
 1300              	.L101:
 425:.\Protocolo.c **** 					for(x=0;x<=13;x++){									
 1301              		.loc 1 425 0 is_stmt 0 discriminator 1
 1302 0322 2B68     		ldr	r3, [r5]
 1303 0324 0D2B     		cmp	r3, #13
 1304 0326 F3D9     		bls	.L102
 427:.\Protocolo.c **** 					}
 428:.\Protocolo.c **** 					write_psoc1(val,10);
 1305              		.loc 1 428 0 is_stmt 1
 1306 0328 2046     		mov	r0, r4
 1307 032a 0A21     		movs	r1, #10
 1308 032c FFF7FEFF 		bl	write_psoc1
 1309              	.LVL142:
 429:.\Protocolo.c **** 					for(x=0;x<=14;x++){									
 1310              		.loc 1 429 0
 1311 0330 0022     		movs	r2, #0
 1312 0332 A14B     		ldr	r3, .L542
 1313 0334 1A60     		str	r2, [r3]
 1314 0336 1D46     		mov	r5, r3
 430:.\Protocolo.c **** 						write_psoc1(val,msn_lecact[x]);				//LECTURA ACTUAL
 1315              		.loc 1 430 0
 1316 0338 A04F     		ldr	r7, .L542+4
 429:.\Protocolo.c **** 					for(x=0;x<=14;x++){									
 1317              		.loc 1 429 0
 1318 033a 07E0     		b	.L103
 1319              	.L104:
 1320              		.loc 1 430 0 discriminator 2
 1321 033c 3B44     		add	r3, r3, r7
 1322 033e 2046     		mov	r0, r4
 1323 0340 197D     		ldrb	r1, [r3, #20]	@ zero_extendqisi2
 1324 0342 FFF7FEFF 		bl	write_psoc1
 1325              	.LVL143:
 429:.\Protocolo.c **** 					for(x=0;x<=14;x++){									
 1326              		.loc 1 429 0 discriminator 2
 1327 0346 2B68     		ldr	r3, [r5]
 1328 0348 0133     		adds	r3, r3, #1
 1329 034a 2B60     		str	r3, [r5]
 1330              	.L103:
 429:.\Protocolo.c **** 					for(x=0;x<=14;x++){									
 1331              		.loc 1 429 0 is_stmt 0 discriminator 1
ARM GAS  C:\Users\RECEPC~1\AppData\Local\Temp\ccNG63cQ.s 			page 34


 1332 034c 2B68     		ldr	r3, [r5]
 1333 034e 0E2B     		cmp	r3, #14
 1334 0350 F4D9     		bls	.L104
 431:.\Protocolo.c **** 					}
 432:.\Protocolo.c **** 					write_psoc1(val,10);
 1335              		.loc 1 432 0 is_stmt 1
 1336 0352 2046     		mov	r0, r4
 1337 0354 0A21     		movs	r1, #10
 1338 0356 FFF7FEFF 		bl	write_psoc1
 1339              	.LVL144:
 433:.\Protocolo.c **** 					print_totalesac(8,val);	
 1340              		.loc 1 433 0
 1341 035a 0820     		movs	r0, #8
 1342 035c 2146     		mov	r1, r4
 1343 035e FFF7FEFF 		bl	print_totalesac
 1344              	.LVL145:
 434:.\Protocolo.c **** 					for(x=0;x<=16;x++){												
 1345              		.loc 1 434 0
 1346 0362 0022     		movs	r2, #0
 1347 0364 944B     		ldr	r3, .L542
 1348 0366 1A60     		str	r2, [r3]
 1349 0368 1D46     		mov	r5, r3
 435:.\Protocolo.c **** 						write_psoc1(val,msn_lecaan[x]);				//LECTURA ANTERIOR
 1350              		.loc 1 435 0
 1351 036a 944F     		ldr	r7, .L542+4
 434:.\Protocolo.c **** 					for(x=0;x<=16;x++){												
 1352              		.loc 1 434 0
 1353 036c 08E0     		b	.L105
 1354              	.L106:
 1355              		.loc 1 435 0 discriminator 2
 1356 036e 3B44     		add	r3, r3, r7
 1357 0370 2046     		mov	r0, r4
 1358 0372 93F82410 		ldrb	r1, [r3, #36]	@ zero_extendqisi2
 1359 0376 FFF7FEFF 		bl	write_psoc1
 1360              	.LVL146:
 434:.\Protocolo.c **** 					for(x=0;x<=16;x++){												
 1361              		.loc 1 434 0 discriminator 2
 1362 037a 2B68     		ldr	r3, [r5]
 1363 037c 0133     		adds	r3, r3, #1
 1364 037e 2B60     		str	r3, [r5]
 1365              	.L105:
 434:.\Protocolo.c **** 					for(x=0;x<=16;x++){												
 1366              		.loc 1 434 0 is_stmt 0 discriminator 1
 1367 0380 2B68     		ldr	r3, [r5]
 1368 0382 102B     		cmp	r3, #16
 1369 0384 F3D9     		bls	.L106
 436:.\Protocolo.c **** 					}
 437:.\Protocolo.c **** 					write_psoc1(val,10);
 1370              		.loc 1 437 0 is_stmt 1
 1371 0386 2046     		mov	r0, r4
 1372 0388 0A21     		movs	r1, #10
 1373 038a FFF7FEFF 		bl	write_psoc1
 1374              	.LVL147:
 438:.\Protocolo.c **** 					if(dir==lado.a.dir){
 1375              		.loc 1 438 0
 1376 038e 8C4B     		ldr	r3, .L542+8
 1377 0390 1B78     		ldrb	r3, [r3]	@ zero_extendqisi2
ARM GAS  C:\Users\RECEPC~1\AppData\Local\Temp\ccNG63cQ.s 			page 35


 1378 0392 B342     		cmp	r3, r6
 1379 0394 04D1     		bne	.L107
 439:.\Protocolo.c **** 						leer_eeprom(217,25);
 1380              		.loc 1 439 0
 1381 0396 D920     		movs	r0, #217
 1382 0398 1921     		movs	r1, #25
 1383 039a FFF7FEFF 		bl	leer_eeprom
 1384              	.LVL148:
 1385 039e 04E0     		b	.L108
 1386              	.L107:
 440:.\Protocolo.c **** 					}
 441:.\Protocolo.c **** 					else{
 442:.\Protocolo.c **** 						leer_eeprom(320,25);
 1387              		.loc 1 442 0
 1388 03a0 4FF4A070 		mov	r0, #320
 1389 03a4 1921     		movs	r1, #25
 1390 03a6 FFF7FEFF 		bl	leer_eeprom
 1391              	.LVL149:
 1392              	.L108:
 443:.\Protocolo.c **** 					}
 444:.\Protocolo.c **** 					print_totales(val);
 1393              		.loc 1 444 0
 1394 03aa 2046     		mov	r0, r4
 1395 03ac FFF7FEFF 		bl	print_totales
 1396              	.LVL150:
 445:.\Protocolo.c **** 					for(z=1;z<=8;z++){
 1397              		.loc 1 445 0
 1398 03b0 0122     		movs	r2, #1
 1399 03b2 844B     		ldr	r3, .L542+12
 1400 03b4 1A60     		str	r2, [r3]
 1401 03b6 1A46     		mov	r2, r3
 446:.\Protocolo.c **** 						minuendo[z]=rventa.tdinero[z-1];
 1402              		.loc 1 446 0
 1403 03b8 834F     		ldr	r7, .L542+16
 447:.\Protocolo.c **** 						sustraendo[z]=buffer_i2c[z+8];
 1404              		.loc 1 447 0
 1405 03ba 844D     		ldr	r5, .L542+20
 445:.\Protocolo.c **** 					for(z=1;z<=8;z++){
 1406              		.loc 1 445 0
 1407 03bc 0DE0     		b	.L109
 1408              	.L110:
 446:.\Protocolo.c **** 						minuendo[z]=rventa.tdinero[z-1];
 1409              		.loc 1 446 0 discriminator 2
 1410 03be F918     		adds	r1, r7, r3
 1411 03c0 91F8C900 		ldrb	r0, [r1, #201]	@ zero_extendqisi2
 1412 03c4 10A9     		add	r1, sp, #64
 1413 03c6 1944     		add	r1, r1, r3
 1414 03c8 01F82C0C 		strb	r0, [r1, #-44]
 1415              		.loc 1 447 0 discriminator 2
 1416 03cc 03F10800 		add	r0, r3, #8
 1417 03d0 285C     		ldrb	r0, [r5, r0]	@ zero_extendqisi2
 1418 03d2 01F83C0C 		strb	r0, [r1, #-60]
 445:.\Protocolo.c **** 					for(z=1;z<=8;z++){
 1419              		.loc 1 445 0 discriminator 2
 1420 03d6 0133     		adds	r3, r3, #1
 1421 03d8 1360     		str	r3, [r2]
 1422              	.L109:
ARM GAS  C:\Users\RECEPC~1\AppData\Local\Temp\ccNG63cQ.s 			page 36


 445:.\Protocolo.c **** 					for(z=1;z<=8;z++){
 1423              		.loc 1 445 0 is_stmt 0 discriminator 1
 1424 03da 1368     		ldr	r3, [r2]
 1425 03dc 082B     		cmp	r3, #8
 1426 03de EED9     		bls	.L110
 448:.\Protocolo.c **** 					}
 449:.\Protocolo.c **** 					minuendo[0]=8;
 1427              		.loc 1 449 0 is_stmt 1
 1428 03e0 10A9     		add	r1, sp, #64
 1429 03e2 0823     		movs	r3, #8
 1430 03e4 01F82C3D 		strb	r3, [r1, #-44]!
 450:.\Protocolo.c **** 					operacion(2,minuendo,sustraendo);
 1431              		.loc 1 450 0
 1432 03e8 0220     		movs	r0, #2
 1433 03ea 01AA     		add	r2, sp, #4
 1434 03ec FFF7FEFF 		bl	operacion
 1435              	.LVL151:
 451:.\Protocolo.c **** 					for(x=0;x<=17;x++){									
 1436              		.loc 1 451 0
 1437 03f0 0022     		movs	r2, #0
 1438 03f2 714B     		ldr	r3, .L542
 1439 03f4 1A60     		str	r2, [r3]
 1440 03f6 1D46     		mov	r5, r3
 452:.\Protocolo.c **** 						write_psoc1(val,msn_tventas[x]);				//Total de ventas
 1441              		.loc 1 452 0
 1442 03f8 704F     		ldr	r7, .L542+4
 451:.\Protocolo.c **** 					for(x=0;x<=17;x++){									
 1443              		.loc 1 451 0
 1444 03fa 08E0     		b	.L111
 1445              	.L112:
 1446              		.loc 1 452 0 discriminator 2
 1447 03fc 3B44     		add	r3, r3, r7
 1448 03fe 2046     		mov	r0, r4
 1449 0400 93F83810 		ldrb	r1, [r3, #56]	@ zero_extendqisi2
 1450 0404 FFF7FEFF 		bl	write_psoc1
 1451              	.LVL152:
 451:.\Protocolo.c **** 					for(x=0;x<=17;x++){									
 1452              		.loc 1 451 0 discriminator 2
 1453 0408 2B68     		ldr	r3, [r5]
 1454 040a 0133     		adds	r3, r3, #1
 1455 040c 2B60     		str	r3, [r5]
 1456              	.L111:
 451:.\Protocolo.c **** 					for(x=0;x<=17;x++){									
 1457              		.loc 1 451 0 is_stmt 0 discriminator 1
 1458 040e 2B68     		ldr	r3, [r5]
 1459 0410 112B     		cmp	r3, #17
 1460 0412 F3D9     		bls	.L112
 453:.\Protocolo.c **** 					}
 454:.\Protocolo.c **** 					print_valor(resultado,val);				
 1461              		.loc 1 454 0 is_stmt 1
 1462 0414 6E48     		ldr	r0, .L542+24
 1463 0416 2146     		mov	r1, r4
 1464 0418 FFF7FEFF 		bl	print_valor
 1465              	.LVL153:
 455:.\Protocolo.c **** 					if(dir==lado.a.dir){
 1466              		.loc 1 455 0
 1467 041c 684B     		ldr	r3, .L542+8
ARM GAS  C:\Users\RECEPC~1\AppData\Local\Temp\ccNG63cQ.s 			page 37


 1468 041e 1B78     		ldrb	r3, [r3]	@ zero_extendqisi2
 1469 0420 B342     		cmp	r3, r6
 1470 0422 09D1     		bne	.L113
 456:.\Protocolo.c **** 						write_eeprom(217,corte);
 1471              		.loc 1 456 0
 1472 0424 D920     		movs	r0, #217
 1473 0426 09A9     		add	r1, sp, #36
 1474 0428 FFF7FEFF 		bl	write_eeprom
 1475              	.LVL154:
 457:.\Protocolo.c **** 						write_eeprom(538,resultado);
 1476              		.loc 1 457 0
 1477 042c 40F21A20 		movw	r0, #538
 1478 0430 6749     		ldr	r1, .L542+24
 1479 0432 FFF7FEFF 		bl	write_eeprom
 1480              	.LVL155:
 1481 0436 09E0     		b	.L100
 1482              	.L113:
 458:.\Protocolo.c **** 					}
 459:.\Protocolo.c **** 					else{
 460:.\Protocolo.c **** 						write_eeprom(320,corte);
 1483              		.loc 1 460 0
 1484 0438 4FF4A070 		mov	r0, #320
 1485 043c 09A9     		add	r1, sp, #36
 1486 043e FFF7FEFF 		bl	write_eeprom
 1487              	.LVL156:
 461:.\Protocolo.c **** 						write_eeprom(576,resultado);
 1488              		.loc 1 461 0
 1489 0442 4FF41070 		mov	r0, #576
 1490 0446 6249     		ldr	r1, .L542+24
 1491 0448 FFF7FEFF 		bl	write_eeprom
 1492              	.LVL157:
 1493              	.L100:
 462:.\Protocolo.c **** 					}				
 463:.\Protocolo.c **** 				}
 464:.\Protocolo.c **** 				if(((rventa.manguera==(extra&0x0F))&&(dir==lado.a.dir))||((rventa.manguera==(extra2&0x0F))&&(di
 1494              		.loc 1 464 0
 1495 044c 5E4B     		ldr	r3, .L542+16
 1496 044e 93F8E030 		ldrb	r3, [r3, #224]	@ zero_extendqisi2
 1497 0452 604A     		ldr	r2, .L542+28
 1498 0454 1278     		ldrb	r2, [r2]	@ zero_extendqisi2
 1499 0456 02F00F02 		and	r2, r2, #15
 1500 045a 9A42     		cmp	r2, r3
 1501 045c 03D1     		bne	.L114
 1502              		.loc 1 464 0 is_stmt 0 discriminator 1
 1503 045e 584A     		ldr	r2, .L542+8
 1504 0460 1278     		ldrb	r2, [r2]	@ zero_extendqisi2
 1505 0462 B242     		cmp	r2, r6
 1506 0464 0BD0     		beq	.L115
 1507              	.L114:
 1508              		.loc 1 464 0 discriminator 2
 1509 0466 5C4A     		ldr	r2, .L542+32
 1510 0468 1278     		ldrb	r2, [r2]	@ zero_extendqisi2
 1511 046a 02F00F02 		and	r2, r2, #15
 1512 046e 9342     		cmp	r3, r2
 1513 0470 40F0BE80 		bne	.L116
 1514              		.loc 1 464 0 discriminator 1
 1515 0474 524B     		ldr	r3, .L542+8
ARM GAS  C:\Users\RECEPC~1\AppData\Local\Temp\ccNG63cQ.s 			page 38


 1516 0476 1B79     		ldrb	r3, [r3, #4]	@ zero_extendqisi2
 1517 0478 B342     		cmp	r3, r6
 1518 047a 40F0B980 		bne	.L116
 1519              	.L115:
 465:.\Protocolo.c **** 					for(x=0;x<=12;x++){									
 1520              		.loc 1 465 0 is_stmt 1
 1521 047e 0022     		movs	r2, #0
 1522 0480 4D4B     		ldr	r3, .L542
 1523 0482 1A60     		str	r2, [r3]
 1524 0484 1D46     		mov	r5, r3
 466:.\Protocolo.c **** 						write_psoc1(val,msn_te[x]);
 1525              		.loc 1 466 0
 1526 0486 4D4F     		ldr	r7, .L542+4
 465:.\Protocolo.c **** 					for(x=0;x<=12;x++){									
 1527              		.loc 1 465 0
 1528 0488 08E0     		b	.L117
 1529              	.L118:
 1530              		.loc 1 466 0 discriminator 2
 1531 048a 3B44     		add	r3, r3, r7
 1532 048c 2046     		mov	r0, r4
 1533 048e 93F85C10 		ldrb	r1, [r3, #92]	@ zero_extendqisi2
 1534 0492 FFF7FEFF 		bl	write_psoc1
 1535              	.LVL158:
 465:.\Protocolo.c **** 					for(x=0;x<=12;x++){									
 1536              		.loc 1 465 0 discriminator 2
 1537 0496 2B68     		ldr	r3, [r5]
 1538 0498 0133     		adds	r3, r3, #1
 1539 049a 2B60     		str	r3, [r5]
 1540              	.L117:
 465:.\Protocolo.c **** 					for(x=0;x<=12;x++){									
 1541              		.loc 1 465 0 is_stmt 0 discriminator 1
 1542 049c 2B68     		ldr	r3, [r5]
 1543 049e 0C2B     		cmp	r3, #12
 1544 04a0 F3D9     		bls	.L118
 467:.\Protocolo.c **** 					}
 468:.\Protocolo.c **** 					write_psoc1(val,10);
 1545              		.loc 1 468 0 is_stmt 1
 1546 04a2 2046     		mov	r0, r4
 1547 04a4 0A21     		movs	r1, #10
 1548 04a6 FFF7FEFF 		bl	write_psoc1
 1549              	.LVL159:
 469:.\Protocolo.c **** 					for(x=0;x<=14;x++){									
 1550              		.loc 1 469 0
 1551 04aa 0022     		movs	r2, #0
 1552 04ac 424B     		ldr	r3, .L542
 1553 04ae 1A60     		str	r2, [r3]
 1554 04b0 1D46     		mov	r5, r3
 470:.\Protocolo.c **** 						write_psoc1(val,msn_lecact[x]);				//LECTURA ACTUAL
 1555              		.loc 1 470 0
 1556 04b2 424F     		ldr	r7, .L542+4
 469:.\Protocolo.c **** 					for(x=0;x<=14;x++){									
 1557              		.loc 1 469 0
 1558 04b4 07E0     		b	.L119
 1559              	.L120:
 1560              		.loc 1 470 0 discriminator 2
 1561 04b6 3B44     		add	r3, r3, r7
 1562 04b8 2046     		mov	r0, r4
ARM GAS  C:\Users\RECEPC~1\AppData\Local\Temp\ccNG63cQ.s 			page 39


 1563 04ba 197D     		ldrb	r1, [r3, #20]	@ zero_extendqisi2
 1564 04bc FFF7FEFF 		bl	write_psoc1
 1565              	.LVL160:
 469:.\Protocolo.c **** 					for(x=0;x<=14;x++){									
 1566              		.loc 1 469 0 discriminator 2
 1567 04c0 2B68     		ldr	r3, [r5]
 1568 04c2 0133     		adds	r3, r3, #1
 1569 04c4 2B60     		str	r3, [r5]
 1570              	.L119:
 469:.\Protocolo.c **** 					for(x=0;x<=14;x++){									
 1571              		.loc 1 469 0 is_stmt 0 discriminator 1
 1572 04c6 2B68     		ldr	r3, [r5]
 1573 04c8 0E2B     		cmp	r3, #14
 1574 04ca F4D9     		bls	.L120
 471:.\Protocolo.c **** 					}
 472:.\Protocolo.c **** 					write_psoc1(val,10);
 1575              		.loc 1 472 0 is_stmt 1
 1576 04cc 2046     		mov	r0, r4
 1577 04ce 0A21     		movs	r1, #10
 1578 04d0 FFF7FEFF 		bl	write_psoc1
 1579              	.LVL161:
 473:.\Protocolo.c **** 					print_totalesac(8,val);	
 1580              		.loc 1 473 0
 1581 04d4 0820     		movs	r0, #8
 1582 04d6 2146     		mov	r1, r4
 1583 04d8 FFF7FEFF 		bl	print_totalesac
 1584              	.LVL162:
 474:.\Protocolo.c **** 					for(x=0;x<=16;x++){												
 1585              		.loc 1 474 0
 1586 04dc 0022     		movs	r2, #0
 1587 04de 364B     		ldr	r3, .L542
 1588 04e0 1A60     		str	r2, [r3]
 1589 04e2 1D46     		mov	r5, r3
 475:.\Protocolo.c **** 						write_psoc1(val,msn_lecaan[x]);				//LECTURA ANTERIOR
 1590              		.loc 1 475 0
 1591 04e4 354F     		ldr	r7, .L542+4
 474:.\Protocolo.c **** 					for(x=0;x<=16;x++){												
 1592              		.loc 1 474 0
 1593 04e6 08E0     		b	.L121
 1594              	.L122:
 1595              		.loc 1 475 0 discriminator 2
 1596 04e8 3B44     		add	r3, r3, r7
 1597 04ea 2046     		mov	r0, r4
 1598 04ec 93F82410 		ldrb	r1, [r3, #36]	@ zero_extendqisi2
 1599 04f0 FFF7FEFF 		bl	write_psoc1
 1600              	.LVL163:
 474:.\Protocolo.c **** 					for(x=0;x<=16;x++){												
 1601              		.loc 1 474 0 discriminator 2
 1602 04f4 2B68     		ldr	r3, [r5]
 1603 04f6 0133     		adds	r3, r3, #1
 1604 04f8 2B60     		str	r3, [r5]
 1605              	.L121:
 474:.\Protocolo.c **** 					for(x=0;x<=16;x++){												
 1606              		.loc 1 474 0 is_stmt 0 discriminator 1
 1607 04fa 2B68     		ldr	r3, [r5]
 1608 04fc 102B     		cmp	r3, #16
 1609 04fe F3D9     		bls	.L122
ARM GAS  C:\Users\RECEPC~1\AppData\Local\Temp\ccNG63cQ.s 			page 40


 476:.\Protocolo.c **** 					}
 477:.\Protocolo.c **** 					write_psoc1(val,10);
 1610              		.loc 1 477 0 is_stmt 1
 1611 0500 2046     		mov	r0, r4
 1612 0502 0A21     		movs	r1, #10
 1613 0504 FFF7FEFF 		bl	write_psoc1
 1614              	.LVL164:
 478:.\Protocolo.c **** 					if(dir==lado.a.dir){
 1615              		.loc 1 478 0
 1616 0508 2D4B     		ldr	r3, .L542+8
 1617 050a 1B78     		ldrb	r3, [r3]	@ zero_extendqisi2
 1618 050c B342     		cmp	r3, r6
 1619 050e 05D1     		bne	.L123
 479:.\Protocolo.c **** 						leer_eeprom(256,25);
 1620              		.loc 1 479 0
 1621 0510 4FF48070 		mov	r0, #256
 1622 0514 1921     		movs	r1, #25
 1623 0516 FFF7FEFF 		bl	leer_eeprom
 1624              	.LVL165:
 1625 051a 04E0     		b	.L124
 1626              	.L123:
 480:.\Protocolo.c **** 					}
 481:.\Protocolo.c **** 					else{
 482:.\Protocolo.c **** 						leer_eeprom(345,25);
 1627              		.loc 1 482 0
 1628 051c 40F25910 		movw	r0, #345
 1629 0520 1921     		movs	r1, #25
 1630 0522 FFF7FEFF 		bl	leer_eeprom
 1631              	.LVL166:
 1632              	.L124:
 483:.\Protocolo.c **** 					}
 484:.\Protocolo.c **** 					print_totales(val);
 1633              		.loc 1 484 0
 1634 0526 2046     		mov	r0, r4
 1635 0528 FFF7FEFF 		bl	print_totales
 1636              	.LVL167:
 485:.\Protocolo.c **** 					for(z=1;z<=8;z++){
 1637              		.loc 1 485 0
 1638 052c 0122     		movs	r2, #1
 1639 052e 254B     		ldr	r3, .L542+12
 1640 0530 1A60     		str	r2, [r3]
 1641 0532 1A46     		mov	r2, r3
 486:.\Protocolo.c **** 						minuendo[z]=rventa.tdinero[z-1];
 1642              		.loc 1 486 0
 1643 0534 244F     		ldr	r7, .L542+16
 487:.\Protocolo.c **** 						sustraendo[z]=buffer_i2c[z+8];
 1644              		.loc 1 487 0
 1645 0536 254D     		ldr	r5, .L542+20
 485:.\Protocolo.c **** 					for(z=1;z<=8;z++){
 1646              		.loc 1 485 0
 1647 0538 0DE0     		b	.L125
 1648              	.L126:
 486:.\Protocolo.c **** 						minuendo[z]=rventa.tdinero[z-1];
 1649              		.loc 1 486 0 discriminator 2
 1650 053a F918     		adds	r1, r7, r3
 1651 053c 91F8C900 		ldrb	r0, [r1, #201]	@ zero_extendqisi2
 1652 0540 10A9     		add	r1, sp, #64
ARM GAS  C:\Users\RECEPC~1\AppData\Local\Temp\ccNG63cQ.s 			page 41


 1653 0542 1944     		add	r1, r1, r3
 1654 0544 01F82C0C 		strb	r0, [r1, #-44]
 1655              		.loc 1 487 0 discriminator 2
 1656 0548 03F10800 		add	r0, r3, #8
 1657 054c 285C     		ldrb	r0, [r5, r0]	@ zero_extendqisi2
 1658 054e 01F83C0C 		strb	r0, [r1, #-60]
 485:.\Protocolo.c **** 					for(z=1;z<=8;z++){
 1659              		.loc 1 485 0 discriminator 2
 1660 0552 0133     		adds	r3, r3, #1
 1661 0554 1360     		str	r3, [r2]
 1662              	.L125:
 485:.\Protocolo.c **** 					for(z=1;z<=8;z++){
 1663              		.loc 1 485 0 is_stmt 0 discriminator 1
 1664 0556 1368     		ldr	r3, [r2]
 1665 0558 082B     		cmp	r3, #8
 1666 055a EED9     		bls	.L126
 488:.\Protocolo.c **** 					}
 489:.\Protocolo.c **** 					minuendo[0]=8;
 1667              		.loc 1 489 0 is_stmt 1
 1668 055c 10A9     		add	r1, sp, #64
 1669 055e 0823     		movs	r3, #8
 1670 0560 01F82C3D 		strb	r3, [r1, #-44]!
 490:.\Protocolo.c **** 					operacion(2,minuendo,sustraendo);
 1671              		.loc 1 490 0
 1672 0564 0220     		movs	r0, #2
 1673 0566 01AA     		add	r2, sp, #4
 1674 0568 FFF7FEFF 		bl	operacion
 1675              	.LVL168:
 491:.\Protocolo.c **** 					for(x=0;x<=17;x++){									
 1676              		.loc 1 491 0
 1677 056c 0022     		movs	r2, #0
 1678 056e 124B     		ldr	r3, .L542
 1679 0570 1A60     		str	r2, [r3]
 1680 0572 1D46     		mov	r5, r3
 492:.\Protocolo.c **** 						write_psoc1(val,msn_tventas[x]);				//Total de ventas
 1681              		.loc 1 492 0
 1682 0574 114F     		ldr	r7, .L542+4
 491:.\Protocolo.c **** 					for(x=0;x<=17;x++){									
 1683              		.loc 1 491 0
 1684 0576 08E0     		b	.L127
 1685              	.L128:
 1686              		.loc 1 492 0 discriminator 2
 1687 0578 3B44     		add	r3, r3, r7
 1688 057a 2046     		mov	r0, r4
 1689 057c 93F83810 		ldrb	r1, [r3, #56]	@ zero_extendqisi2
 1690 0580 FFF7FEFF 		bl	write_psoc1
 1691              	.LVL169:
 491:.\Protocolo.c **** 					for(x=0;x<=17;x++){									
 1692              		.loc 1 491 0 discriminator 2
 1693 0584 2B68     		ldr	r3, [r5]
 1694 0586 0133     		adds	r3, r3, #1
 1695 0588 2B60     		str	r3, [r5]
 1696              	.L127:
 491:.\Protocolo.c **** 					for(x=0;x<=17;x++){									
 1697              		.loc 1 491 0 is_stmt 0 discriminator 1
 1698 058a 2B68     		ldr	r3, [r5]
 1699 058c 112B     		cmp	r3, #17
ARM GAS  C:\Users\RECEPC~1\AppData\Local\Temp\ccNG63cQ.s 			page 42


 1700 058e F3D9     		bls	.L128
 493:.\Protocolo.c **** 					}
 494:.\Protocolo.c **** 					print_valor(resultado,val);							
 1701              		.loc 1 494 0 is_stmt 1
 1702 0590 0F48     		ldr	r0, .L542+24
 1703 0592 2146     		mov	r1, r4
 1704 0594 FFF7FEFF 		bl	print_valor
 1705              	.LVL170:
 495:.\Protocolo.c **** 					if(dir==lado.a.dir){
 1706              		.loc 1 495 0
 1707 0598 094B     		ldr	r3, .L542+8
 1708 059a 1B78     		ldrb	r3, [r3]	@ zero_extendqisi2
 1709 059c B342     		cmp	r3, r6
 1710 059e 1DD1     		bne	.L129
 496:.\Protocolo.c **** 						write_eeprom(256,corte);
 1711              		.loc 1 496 0
 1712 05a0 4FF48070 		mov	r0, #256
 1713 05a4 09A9     		add	r1, sp, #36
 1714 05a6 FFF7FEFF 		bl	write_eeprom
 1715              	.LVL171:
 497:.\Protocolo.c **** 						write_eeprom(525,resultado);
 1716              		.loc 1 497 0
 1717 05aa 40F20D20 		movw	r0, #525
 1718 05ae 0849     		ldr	r1, .L542+24
 1719 05b0 FFF7FEFF 		bl	write_eeprom
 1720              	.LVL172:
 1721 05b4 1CE0     		b	.L116
 1722              	.L543:
 1723 05b6 00BF     		.align	2
 1724              	.L542:
 1725 05b8 00000000 		.word	x
 1726 05bc 00000000 		.word	.LANCHOR1
 1727 05c0 00000000 		.word	lado
 1728 05c4 00000000 		.word	z
 1729 05c8 00000000 		.word	rventa
 1730 05cc 00000000 		.word	buffer_i2c
 1731 05d0 00000000 		.word	resultado
 1732 05d4 00000000 		.word	extra
 1733 05d8 00000000 		.word	extra2
 1734              	.L129:
 498:.\Protocolo.c **** 					}
 499:.\Protocolo.c **** 					else{
 500:.\Protocolo.c **** 						write_eeprom(345,corte);
 1735              		.loc 1 500 0
 1736 05dc 40F25910 		movw	r0, #345
 1737 05e0 09A9     		add	r1, sp, #36
 1738 05e2 FFF7FEFF 		bl	write_eeprom
 1739              	.LVL173:
 501:.\Protocolo.c **** 						write_eeprom(589,resultado);
 1740              		.loc 1 501 0
 1741 05e6 40F24D20 		movw	r0, #589
 1742 05ea AF49     		ldr	r1, .L544
 1743 05ec FFF7FEFF 		bl	write_eeprom
 1744              	.LVL174:
 1745              	.L116:
 502:.\Protocolo.c **** 					}					
 503:.\Protocolo.c **** 				}
ARM GAS  C:\Users\RECEPC~1\AppData\Local\Temp\ccNG63cQ.s 			page 43


 504:.\Protocolo.c ****                 
 505:.\Protocolo.c ****                 if(((rventa.manguera==(kero&0x0F))&&(dir==lado.a.dir))||((rventa.manguera==(kero2&0
 1746              		.loc 1 505 0
 1747 05f0 AE4B     		ldr	r3, .L544+4
 1748 05f2 93F8E030 		ldrb	r3, [r3, #224]	@ zero_extendqisi2
 1749 05f6 AE4A     		ldr	r2, .L544+8
 1750 05f8 1278     		ldrb	r2, [r2]	@ zero_extendqisi2
 1751 05fa 02F00F02 		and	r2, r2, #15
 1752 05fe 9A42     		cmp	r2, r3
 1753 0600 03D1     		bne	.L130
 1754              		.loc 1 505 0 is_stmt 0 discriminator 1
 1755 0602 AC4A     		ldr	r2, .L544+12
 1756 0604 1278     		ldrb	r2, [r2]	@ zero_extendqisi2
 1757 0606 B242     		cmp	r2, r6
 1758 0608 0BD0     		beq	.L131
 1759              	.L130:
 1760              		.loc 1 505 0 discriminator 2
 1761 060a AB4A     		ldr	r2, .L544+16
 1762 060c 1278     		ldrb	r2, [r2]	@ zero_extendqisi2
 1763 060e 02F00F02 		and	r2, r2, #15
 1764 0612 9342     		cmp	r3, r2
 1765 0614 40F0AB80 		bne	.L132
 1766              		.loc 1 505 0 discriminator 1
 1767 0618 A64B     		ldr	r3, .L544+12
 1768 061a 1B79     		ldrb	r3, [r3, #4]	@ zero_extendqisi2
 1769 061c B342     		cmp	r3, r6
 1770 061e 40F0A680 		bne	.L132
 1771              	.L131:
 506:.\Protocolo.c **** 					for(x=0;x<=9;x++){									
 1772              		.loc 1 506 0 is_stmt 1
 1773 0622 0022     		movs	r2, #0
 1774 0624 A54B     		ldr	r3, .L544+20
 1775 0626 1A60     		str	r2, [r3]
 1776 0628 1D46     		mov	r5, r3
 507:.\Protocolo.c **** 						write_psoc1(val,msn_tk[x]);                 // CUARTO PRODUCTO
 1777              		.loc 1 507 0
 1778 062a A54F     		ldr	r7, .L544+24
 506:.\Protocolo.c **** 					for(x=0;x<=9;x++){									
 1779              		.loc 1 506 0
 1780 062c 08E0     		b	.L133
 1781              	.L134:
 1782              		.loc 1 507 0 discriminator 2
 1783 062e 3B44     		add	r3, r3, r7
 1784 0630 2046     		mov	r0, r4
 1785 0632 93F86C10 		ldrb	r1, [r3, #108]	@ zero_extendqisi2
 1786 0636 FFF7FEFF 		bl	write_psoc1
 1787              	.LVL175:
 506:.\Protocolo.c **** 					for(x=0;x<=9;x++){									
 1788              		.loc 1 506 0 discriminator 2
 1789 063a 2B68     		ldr	r3, [r5]
 1790 063c 0133     		adds	r3, r3, #1
 1791 063e 2B60     		str	r3, [r5]
 1792              	.L133:
 506:.\Protocolo.c **** 					for(x=0;x<=9;x++){									
 1793              		.loc 1 506 0 is_stmt 0 discriminator 1
 1794 0640 2B68     		ldr	r3, [r5]
 1795 0642 092B     		cmp	r3, #9
ARM GAS  C:\Users\RECEPC~1\AppData\Local\Temp\ccNG63cQ.s 			page 44


 1796 0644 F3D9     		bls	.L134
 508:.\Protocolo.c **** 					}
 509:.\Protocolo.c **** 					write_psoc1(val,10);
 1797              		.loc 1 509 0 is_stmt 1
 1798 0646 2046     		mov	r0, r4
 1799 0648 0A21     		movs	r1, #10
 1800 064a FFF7FEFF 		bl	write_psoc1
 1801              	.LVL176:
 510:.\Protocolo.c **** 					for(x=0;x<=14;x++){									
 1802              		.loc 1 510 0
 1803 064e 0022     		movs	r2, #0
 1804 0650 9A4B     		ldr	r3, .L544+20
 1805 0652 1A60     		str	r2, [r3]
 1806 0654 1D46     		mov	r5, r3
 511:.\Protocolo.c **** 						write_psoc1(val,msn_lecact[x]);				//LECTURA ACTUAL
 1807              		.loc 1 511 0
 1808 0656 9A4F     		ldr	r7, .L544+24
 510:.\Protocolo.c **** 					for(x=0;x<=14;x++){									
 1809              		.loc 1 510 0
 1810 0658 07E0     		b	.L135
 1811              	.L136:
 1812              		.loc 1 511 0 discriminator 2
 1813 065a 3B44     		add	r3, r3, r7
 1814 065c 2046     		mov	r0, r4
 1815 065e 197D     		ldrb	r1, [r3, #20]	@ zero_extendqisi2
 1816 0660 FFF7FEFF 		bl	write_psoc1
 1817              	.LVL177:
 510:.\Protocolo.c **** 					for(x=0;x<=14;x++){									
 1818              		.loc 1 510 0 discriminator 2
 1819 0664 2B68     		ldr	r3, [r5]
 1820 0666 0133     		adds	r3, r3, #1
 1821 0668 2B60     		str	r3, [r5]
 1822              	.L135:
 510:.\Protocolo.c **** 					for(x=0;x<=14;x++){									
 1823              		.loc 1 510 0 is_stmt 0 discriminator 1
 1824 066a 2B68     		ldr	r3, [r5]
 1825 066c 0E2B     		cmp	r3, #14
 1826 066e F4D9     		bls	.L136
 512:.\Protocolo.c **** 					}
 513:.\Protocolo.c **** 					write_psoc1(val,10);
 1827              		.loc 1 513 0 is_stmt 1
 1828 0670 2046     		mov	r0, r4
 1829 0672 0A21     		movs	r1, #10
 1830 0674 FFF7FEFF 		bl	write_psoc1
 1831              	.LVL178:
 514:.\Protocolo.c **** 					print_totalesac(8,val);	
 1832              		.loc 1 514 0
 1833 0678 0820     		movs	r0, #8
 1834 067a 2146     		mov	r1, r4
 1835 067c FFF7FEFF 		bl	print_totalesac
 1836              	.LVL179:
 515:.\Protocolo.c **** 					for(x=0;x<=16;x++){												
 1837              		.loc 1 515 0
 1838 0680 0022     		movs	r2, #0
 1839 0682 8E4B     		ldr	r3, .L544+20
 1840 0684 1A60     		str	r2, [r3]
 1841 0686 1D46     		mov	r5, r3
ARM GAS  C:\Users\RECEPC~1\AppData\Local\Temp\ccNG63cQ.s 			page 45


 516:.\Protocolo.c **** 						write_psoc1(val,msn_lecaan[x]);				//LECTURA ANTERIOR
 1842              		.loc 1 516 0
 1843 0688 8D4F     		ldr	r7, .L544+24
 515:.\Protocolo.c **** 					for(x=0;x<=16;x++){												
 1844              		.loc 1 515 0
 1845 068a 08E0     		b	.L137
 1846              	.L138:
 1847              		.loc 1 516 0 discriminator 2
 1848 068c 3B44     		add	r3, r3, r7
 1849 068e 2046     		mov	r0, r4
 1850 0690 93F82410 		ldrb	r1, [r3, #36]	@ zero_extendqisi2
 1851 0694 FFF7FEFF 		bl	write_psoc1
 1852              	.LVL180:
 515:.\Protocolo.c **** 					for(x=0;x<=16;x++){												
 1853              		.loc 1 515 0 discriminator 2
 1854 0698 2B68     		ldr	r3, [r5]
 1855 069a 0133     		adds	r3, r3, #1
 1856 069c 2B60     		str	r3, [r5]
 1857              	.L137:
 515:.\Protocolo.c **** 					for(x=0;x<=16;x++){												
 1858              		.loc 1 515 0 is_stmt 0 discriminator 1
 1859 069e 2B68     		ldr	r3, [r5]
 1860 06a0 102B     		cmp	r3, #16
 1861 06a2 F3D9     		bls	.L138
 517:.\Protocolo.c **** 					}
 518:.\Protocolo.c **** 					write_psoc1(val,10);
 1862              		.loc 1 518 0 is_stmt 1
 1863 06a4 2046     		mov	r0, r4
 1864 06a6 0A21     		movs	r1, #10
 1865 06a8 FFF7FEFF 		bl	write_psoc1
 1866              	.LVL181:
 519:.\Protocolo.c **** 					if(dir==lado.a.dir){
 1867              		.loc 1 519 0
 1868 06ac 814B     		ldr	r3, .L544+12
 1869 06ae 1B78     		ldrb	r3, [r3]	@ zero_extendqisi2
 1870 06b0 B342     		cmp	r3, r6
 1871 06b2 05D1     		bne	.L139
 520:.\Protocolo.c **** 						leer_eeprom(1096,25);
 1872              		.loc 1 520 0
 1873 06b4 4FF48960 		mov	r0, #1096
 1874 06b8 1921     		movs	r1, #25
 1875 06ba FFF7FEFF 		bl	leer_eeprom
 1876              	.LVL182:
 1877 06be 04E0     		b	.L140
 1878              	.L139:
 521:.\Protocolo.c **** 					}
 522:.\Protocolo.c **** 					else{
 523:.\Protocolo.c **** 						leer_eeprom(1054,25);
 1879              		.loc 1 523 0
 1880 06c0 40F21E40 		movw	r0, #1054
 1881 06c4 1921     		movs	r1, #25
 1882 06c6 FFF7FEFF 		bl	leer_eeprom
 1883              	.LVL183:
 1884              	.L140:
 524:.\Protocolo.c **** 					}
 525:.\Protocolo.c **** 					print_totales(val);
 1885              		.loc 1 525 0
ARM GAS  C:\Users\RECEPC~1\AppData\Local\Temp\ccNG63cQ.s 			page 46


 1886 06ca 2046     		mov	r0, r4
 1887 06cc FFF7FEFF 		bl	print_totales
 1888              	.LVL184:
 526:.\Protocolo.c **** 					for(z=1;z<=8;z++){
 1889              		.loc 1 526 0
 1890 06d0 0122     		movs	r2, #1
 1891 06d2 7C4B     		ldr	r3, .L544+28
 1892 06d4 1A60     		str	r2, [r3]
 1893 06d6 1946     		mov	r1, r3
 527:.\Protocolo.c **** 						minuendo[z]=rventa.tdinero[z-1];
 1894              		.loc 1 527 0
 1895 06d8 744F     		ldr	r7, .L544+4
 528:.\Protocolo.c **** 						sustraendo[z]=buffer_i2c[z+8];
 1896              		.loc 1 528 0
 1897 06da 7B4D     		ldr	r5, .L544+32
 526:.\Protocolo.c **** 					for(z=1;z<=8;z++){
 1898              		.loc 1 526 0
 1899 06dc 0DE0     		b	.L141
 1900              	.L142:
 527:.\Protocolo.c **** 						minuendo[z]=rventa.tdinero[z-1];
 1901              		.loc 1 527 0 discriminator 2
 1902 06de FA18     		adds	r2, r7, r3
 1903 06e0 92F8C900 		ldrb	r0, [r2, #201]	@ zero_extendqisi2
 1904 06e4 10AA     		add	r2, sp, #64
 1905 06e6 1A44     		add	r2, r2, r3
 1906 06e8 02F82C0C 		strb	r0, [r2, #-44]
 1907              		.loc 1 528 0 discriminator 2
 1908 06ec 03F10800 		add	r0, r3, #8
 1909 06f0 285C     		ldrb	r0, [r5, r0]	@ zero_extendqisi2
 1910 06f2 02F83C0C 		strb	r0, [r2, #-60]
 526:.\Protocolo.c **** 					for(z=1;z<=8;z++){
 1911              		.loc 1 526 0 discriminator 2
 1912 06f6 0133     		adds	r3, r3, #1
 1913 06f8 0B60     		str	r3, [r1]
 1914              	.L141:
 526:.\Protocolo.c **** 					for(z=1;z<=8;z++){
 1915              		.loc 1 526 0 is_stmt 0 discriminator 1
 1916 06fa 0B68     		ldr	r3, [r1]
 1917 06fc 082B     		cmp	r3, #8
 1918 06fe EED9     		bls	.L142
 529:.\Protocolo.c **** 					}
 530:.\Protocolo.c **** 					minuendo[0]=8;
 1919              		.loc 1 530 0 is_stmt 1
 1920 0700 10A9     		add	r1, sp, #64
 1921 0702 0823     		movs	r3, #8
 1922 0704 01F82C3D 		strb	r3, [r1, #-44]!
 531:.\Protocolo.c **** 					operacion(2,minuendo,sustraendo);
 1923              		.loc 1 531 0
 1924 0708 0220     		movs	r0, #2
 1925 070a 01AA     		add	r2, sp, #4
 1926 070c FFF7FEFF 		bl	operacion
 1927              	.LVL185:
 532:.\Protocolo.c **** 					for(x=0;x<=17;x++){									
 1928              		.loc 1 532 0
 1929 0710 0022     		movs	r2, #0
 1930 0712 6A4B     		ldr	r3, .L544+20
 1931 0714 1A60     		str	r2, [r3]
ARM GAS  C:\Users\RECEPC~1\AppData\Local\Temp\ccNG63cQ.s 			page 47


 1932 0716 1D46     		mov	r5, r3
 533:.\Protocolo.c **** 						write_psoc1(val,msn_tventas[x]);				//Total de ventas
 1933              		.loc 1 533 0
 1934 0718 694F     		ldr	r7, .L544+24
 532:.\Protocolo.c **** 					for(x=0;x<=17;x++){									
 1935              		.loc 1 532 0
 1936 071a 08E0     		b	.L143
 1937              	.L144:
 1938              		.loc 1 533 0 discriminator 2
 1939 071c 3B44     		add	r3, r3, r7
 1940 071e 2046     		mov	r0, r4
 1941 0720 93F83810 		ldrb	r1, [r3, #56]	@ zero_extendqisi2
 1942 0724 FFF7FEFF 		bl	write_psoc1
 1943              	.LVL186:
 532:.\Protocolo.c **** 					for(x=0;x<=17;x++){									
 1944              		.loc 1 532 0 discriminator 2
 1945 0728 2B68     		ldr	r3, [r5]
 1946 072a 0133     		adds	r3, r3, #1
 1947 072c 2B60     		str	r3, [r5]
 1948              	.L143:
 532:.\Protocolo.c **** 					for(x=0;x<=17;x++){									
 1949              		.loc 1 532 0 is_stmt 0 discriminator 1
 1950 072e 2B68     		ldr	r3, [r5]
 1951 0730 112B     		cmp	r3, #17
 1952 0732 F3D9     		bls	.L144
 534:.\Protocolo.c **** 					}
 535:.\Protocolo.c **** 					print_valor(resultado,val);							
 1953              		.loc 1 535 0 is_stmt 1
 1954 0734 5C48     		ldr	r0, .L544
 1955 0736 2146     		mov	r1, r4
 1956 0738 FFF7FEFF 		bl	print_valor
 1957              	.LVL187:
 536:.\Protocolo.c **** 					if(dir==lado.a.dir){
 1958              		.loc 1 536 0
 1959 073c 5D4B     		ldr	r3, .L544+12
 1960 073e 1B78     		ldrb	r3, [r3]	@ zero_extendqisi2
 1961 0740 B342     		cmp	r3, r6
 1962 0742 0AD1     		bne	.L145
 537:.\Protocolo.c **** 						write_eeprom(1096,corte);
 1963              		.loc 1 537 0
 1964 0744 4FF48960 		mov	r0, #1096
 1965 0748 09A9     		add	r1, sp, #36
 1966 074a FFF7FEFF 		bl	write_eeprom
 1967              	.LVL188:
 538:.\Protocolo.c **** 						write_eeprom(1038,resultado);
 1968              		.loc 1 538 0
 1969 074e 40F20E40 		movw	r0, #1038
 1970 0752 5549     		ldr	r1, .L544
 1971 0754 FFF7FEFF 		bl	write_eeprom
 1972              	.LVL189:
 1973 0758 09E0     		b	.L132
 1974              	.L145:
 539:.\Protocolo.c **** 					}
 540:.\Protocolo.c **** 					else{
 541:.\Protocolo.c **** 						write_eeprom(1054,corte);
 1975              		.loc 1 541 0
 1976 075a 40F21E40 		movw	r0, #1054
ARM GAS  C:\Users\RECEPC~1\AppData\Local\Temp\ccNG63cQ.s 			page 48


 1977 075e 09A9     		add	r1, sp, #36
 1978 0760 FFF7FEFF 		bl	write_eeprom
 1979              	.LVL190:
 542:.\Protocolo.c **** 						write_eeprom(1081,resultado);
 1980              		.loc 1 542 0
 1981 0764 40F23940 		movw	r0, #1081
 1982 0768 4F49     		ldr	r1, .L544
 1983 076a FFF7FEFF 		bl	write_eeprom
 1984              	.LVL191:
 1985              	.L132:
 543:.\Protocolo.c **** 					}					
 544:.\Protocolo.c **** 				}
 545:.\Protocolo.c **** 				
 546:.\Protocolo.c **** 				Surtidor_ClearRxBuffer();
 1986              		.loc 1 546 0
 1987 076e FFF7FEFF 		bl	Surtidor_ClearRxBuffer
 1988              	.LVL192:
 547:.\Protocolo.c **** 				return 1;
 1989              		.loc 1 547 0
 1990 0772 0120     		movs	r0, #1
 1991 0774 02F0A6BA 		b	.L73
 1992              	.L66:
 548:.\Protocolo.c **** 			}
 549:.\Protocolo.c **** 			else{
 550:.\Protocolo.c **** 				return 0;
 551:.\Protocolo.c **** 			}
 552:.\Protocolo.c **** 		break;
 553:.\Protocolo.c **** 
 554:.\Protocolo.c **** 		case 64:
 555:.\Protocolo.c **** 			if((Surtidor_rxBuffer[0]==0xFF)&&(Surtidor_rxBuffer[1]==0xF6)&&(Surtidor_rxBuffer[63]==0xF0)&&(S
 1993              		.loc 1 555 0
 1994 0778 544B     		ldr	r3, .L544+36
 1995 077a 1B78     		ldrb	r3, [r3]	@ zero_extendqisi2
 1996 077c DBB2     		uxtb	r3, r3
 1997 077e FF2B     		cmp	r3, #255
 1998 0780 42F07982 		bne	.L520
 1999              		.loc 1 555 0 is_stmt 0 discriminator 1
 2000 0784 514B     		ldr	r3, .L544+36
 2001 0786 5B78     		ldrb	r3, [r3, #1]	@ zero_extendqisi2
 2002 0788 DBB2     		uxtb	r3, r3
 2003 078a F62B     		cmp	r3, #246
 2004 078c 42F07582 		bne	.L521
 2005 0790 4E4B     		ldr	r3, .L544+36
 2006 0792 93F83F30 		ldrb	r3, [r3, #63]	@ zero_extendqisi2
 2007 0796 DBB2     		uxtb	r3, r3
 2008 0798 F02B     		cmp	r3, #240
 2009 079a 42F07082 		bne	.L522
 2010 079e 4B4B     		ldr	r3, .L544+36
 2011 07a0 DB78     		ldrb	r3, [r3, #3]	@ zero_extendqisi2
 2012 07a2 DBB2     		uxtb	r3, r3
 2013 07a4 F92B     		cmp	r3, #249
 2014 07a6 42F06C82 		bne	.L523
 556:.\Protocolo.c **** 				for(y=0;y<=30;y+=30){
 2015              		.loc 1 556 0 is_stmt 1
 2016 07aa 0022     		movs	r2, #0
 2017 07ac 484B     		ldr	r3, .L544+40
 2018 07ae 1A60     		str	r2, [r3]
ARM GAS  C:\Users\RECEPC~1\AppData\Local\Temp\ccNG63cQ.s 			page 49


 2019 07b0 1F46     		mov	r7, r3
 557:.\Protocolo.c **** 					rventa.manguera=(Surtidor_rxBuffer[y+2]&0x0F)+1;
 558:.\Protocolo.c **** 					for(x=0;x<=7;x++){
 2020              		.loc 1 558 0
 2021 07b2 424D     		ldr	r5, .L544+20
 556:.\Protocolo.c **** 				for(y=0;y<=30;y+=30){
 2022              		.loc 1 556 0
 2023 07b4 82E3     		b	.L146
 2024              	.L219:
 557:.\Protocolo.c **** 					rventa.manguera=(Surtidor_rxBuffer[y+2]&0x0F)+1;
 2025              		.loc 1 557 0
 2026 07b6 931C     		adds	r3, r2, #2
 2027 07b8 4449     		ldr	r1, .L544+36
 2028 07ba C85C     		ldrb	r0, [r1, r3]	@ zero_extendqisi2
 2029 07bc 00F00F00 		and	r0, r0, #15
 2030 07c0 0130     		adds	r0, r0, #1
 2031 07c2 3A4B     		ldr	r3, .L544+4
 2032 07c4 83F8E000 		strb	r0, [r3, #224]
 2033              		.loc 1 558 0
 2034 07c8 0023     		movs	r3, #0
 2035 07ca 2B60     		str	r3, [r5]
 559:.\Protocolo.c **** 						rventa.tvolumen[x]=(Surtidor_rxBuffer[y+4+x]&0x0F);
 2036              		.loc 1 559 0
 2037 07cc 8846     		mov	r8, r1
 2038 07ce DFF8DCC0 		ldr	ip, .L544+4
 558:.\Protocolo.c **** 					for(x=0;x<=7;x++){
 2039              		.loc 1 558 0
 2040 07d2 0BE0     		b	.L147
 2041              	.L148:
 2042              		.loc 1 559 0 discriminator 2
 2043 07d4 D118     		adds	r1, r2, r3
 2044 07d6 0431     		adds	r1, r1, #4
 2045 07d8 18F801E0 		ldrb	lr, [r8, r1]	@ zero_extendqisi2
 2046 07dc 0CEB0301 		add	r1, ip, r3
 2047 07e0 0EF00F0E 		and	lr, lr, #15
 2048 07e4 81F8BDE0 		strb	lr, [r1, #189]
 558:.\Protocolo.c **** 					for(x=0;x<=7;x++){
 2049              		.loc 1 558 0 discriminator 2
 2050 07e8 0133     		adds	r3, r3, #1
 2051 07ea 2B60     		str	r3, [r5]
 2052              	.L147:
 558:.\Protocolo.c **** 					for(x=0;x<=7;x++){
 2053              		.loc 1 558 0 is_stmt 0 discriminator 1
 2054 07ec 2B68     		ldr	r3, [r5]
 2055 07ee 072B     		cmp	r3, #7
 2056 07f0 F0D9     		bls	.L148
 560:.\Protocolo.c **** 					}
 561:.\Protocolo.c **** 					for(x=0;x<=7;x++){
 2057              		.loc 1 561 0 is_stmt 1
 2058 07f2 0023     		movs	r3, #0
 2059 07f4 2B60     		str	r3, [r5]
 562:.\Protocolo.c **** 						rventa.tdinero[x]=(Surtidor_rxBuffer[y+13+x]&0x0F);
 2060              		.loc 1 562 0
 2061 07f6 DFF8D480 		ldr	r8, .L544+36
 2062 07fa DFF8B0C0 		ldr	ip, .L544+4
 561:.\Protocolo.c **** 					for(x=0;x<=7;x++){
 2063              		.loc 1 561 0
ARM GAS  C:\Users\RECEPC~1\AppData\Local\Temp\ccNG63cQ.s 			page 50


 2064 07fe 0BE0     		b	.L149
 2065              	.L150:
 2066              		.loc 1 562 0 discriminator 2
 2067 0800 D118     		adds	r1, r2, r3
 2068 0802 0D31     		adds	r1, r1, #13
 2069 0804 18F801E0 		ldrb	lr, [r8, r1]	@ zero_extendqisi2
 2070 0808 0CEB0301 		add	r1, ip, r3
 2071 080c 0EF00F0E 		and	lr, lr, #15
 2072 0810 81F8CAE0 		strb	lr, [r1, #202]
 561:.\Protocolo.c **** 					for(x=0;x<=7;x++){
 2073              		.loc 1 561 0 discriminator 2
 2074 0814 0133     		adds	r3, r3, #1
 2075 0816 2B60     		str	r3, [r5]
 2076              	.L149:
 561:.\Protocolo.c **** 					for(x=0;x<=7;x++){
 2077              		.loc 1 561 0 is_stmt 0 discriminator 1
 2078 0818 2B68     		ldr	r3, [r5]
 2079 081a 072B     		cmp	r3, #7
 2080 081c F0D9     		bls	.L150
 563:.\Protocolo.c ****                         
 564:.\Protocolo.c **** 					}
 565:.\Protocolo.c **** 					for(z=0;z<=7;z++){
 2081              		.loc 1 565 0 is_stmt 1
 2082 081e 0022     		movs	r2, #0
 2083 0820 284B     		ldr	r3, .L544+28
 2084 0822 1A60     		str	r2, [r3]
 2085 0824 1946     		mov	r1, r3
 566:.\Protocolo.c **** 						corte[z+1]=rventa.tvolumen[z];
 2086              		.loc 1 566 0
 2087 0826 DFF884C0 		ldr	ip, .L544+4
 565:.\Protocolo.c **** 					for(z=0;z<=7;z++){
 2088              		.loc 1 565 0
 2089 082a 08E0     		b	.L151
 2090              	.L152:
 2091              		.loc 1 566 0 discriminator 2
 2092 082c 5A1C     		adds	r2, r3, #1
 2093 082e 6344     		add	r3, r3, ip
 2094 0830 93F8BDE0 		ldrb	lr, [r3, #189]	@ zero_extendqisi2
 2095 0834 10AB     		add	r3, sp, #64
 2096 0836 1344     		add	r3, r3, r2
 2097 0838 03F81CEC 		strb	lr, [r3, #-28]
 565:.\Protocolo.c **** 					for(z=0;z<=7;z++){
 2098              		.loc 1 565 0 discriminator 2
 2099 083c 0A60     		str	r2, [r1]
 2100              	.L151:
 565:.\Protocolo.c **** 					for(z=0;z<=7;z++){
 2101              		.loc 1 565 0 is_stmt 0 discriminator 1
 2102 083e 0B68     		ldr	r3, [r1]
 2103 0840 072B     		cmp	r3, #7
 2104 0842 F3D9     		bls	.L152
 567:.\Protocolo.c **** 					}
 568:.\Protocolo.c **** 					for(z=9;z<=16;z++){
 2105              		.loc 1 568 0 is_stmt 1
 2106 0844 0922     		movs	r2, #9
 2107 0846 1F4B     		ldr	r3, .L544+28
 2108 0848 1A60     		str	r2, [r3]
 2109 084a 1A46     		mov	r2, r3
ARM GAS  C:\Users\RECEPC~1\AppData\Local\Temp\ccNG63cQ.s 			page 51


 569:.\Protocolo.c **** 						corte[z]=rventa.tdinero[z-9];
 2110              		.loc 1 569 0
 2111 084c DFF85CC0 		ldr	ip, .L544+4
 568:.\Protocolo.c **** 					for(z=9;z<=16;z++){
 2112              		.loc 1 568 0
 2113 0850 09E0     		b	.L153
 2114              	.L154:
 2115              		.loc 1 569 0 discriminator 2
 2116 0852 0CEB0301 		add	r1, ip, r3
 2117 0856 91F8C1E0 		ldrb	lr, [r1, #193]	@ zero_extendqisi2
 2118 085a 10A9     		add	r1, sp, #64
 2119 085c 1944     		add	r1, r1, r3
 2120 085e 01F81CEC 		strb	lr, [r1, #-28]
 568:.\Protocolo.c **** 					for(z=9;z<=16;z++){
 2121              		.loc 1 568 0 discriminator 2
 2122 0862 0133     		adds	r3, r3, #1
 2123 0864 1360     		str	r3, [r2]
 2124              	.L153:
 568:.\Protocolo.c **** 					for(z=9;z<=16;z++){
 2125              		.loc 1 568 0 is_stmt 0 discriminator 1
 2126 0866 1368     		ldr	r3, [r2]
 2127 0868 102B     		cmp	r3, #16
 2128 086a F2D9     		bls	.L154
 570:.\Protocolo.c **** 					}
 571:.\Protocolo.c **** 					corte[0]=16;							
 2129              		.loc 1 571 0 is_stmt 1
 2130 086c 1023     		movs	r3, #16
 2131 086e 8DF82430 		strb	r3, [sp, #36]
 572:.\Protocolo.c **** 					if(((rventa.manguera==(corriente&0x0F))&&(dir==lado.a.dir))||((rventa.manguera==(corriente2&0x
 2132              		.loc 1 572 0
 2133 0872 184B     		ldr	r3, .L544+44
 2134 0874 1B78     		ldrb	r3, [r3]	@ zero_extendqisi2
 2135 0876 03F00F03 		and	r3, r3, #15
 2136 087a 8342     		cmp	r3, r0
 2137 087c 03D1     		bne	.L155
 2138              		.loc 1 572 0 is_stmt 0 discriminator 1
 2139 087e 0D4B     		ldr	r3, .L544+12
 2140 0880 1B78     		ldrb	r3, [r3]	@ zero_extendqisi2
 2141 0882 B342     		cmp	r3, r6
 2142 0884 0BD0     		beq	.L156
 2143              	.L155:
 2144              		.loc 1 572 0 discriminator 2
 2145 0886 144B     		ldr	r3, .L544+48
 2146 0888 1B78     		ldrb	r3, [r3]	@ zero_extendqisi2
 2147 088a 03F00F03 		and	r3, r3, #15
 2148 088e 9842     		cmp	r0, r3
 2149 0890 40F0C280 		bne	.L157
 2150              		.loc 1 572 0 discriminator 1
 2151 0894 074B     		ldr	r3, .L544+12
 2152 0896 1B79     		ldrb	r3, [r3, #4]	@ zero_extendqisi2
 2153 0898 B342     		cmp	r3, r6
 2154 089a 40F0BD80 		bne	.L157
 2155              	.L156:
 573:.\Protocolo.c **** 						for(x=0;x<=16;x++){									
 2156              		.loc 1 573 0 is_stmt 1
 2157 089e 0023     		movs	r3, #0
 2158 08a0 2B60     		str	r3, [r5]
ARM GAS  C:\Users\RECEPC~1\AppData\Local\Temp\ccNG63cQ.s 			page 52


 574:.\Protocolo.c **** 							write_psoc1(val,msn_tc[x]);
 2159              		.loc 1 574 0
 2160 08a2 DFF81C80 		ldr	r8, .L544+24
 573:.\Protocolo.c **** 						for(x=0;x<=16;x++){									
 2161              		.loc 1 573 0
 2162 08a6 21E0     		b	.L158
 2163              	.L545:
 2164              		.align	2
 2165              	.L544:
 2166 08a8 00000000 		.word	resultado
 2167 08ac 00000000 		.word	rventa
 2168 08b0 00000000 		.word	kero
 2169 08b4 00000000 		.word	lado
 2170 08b8 00000000 		.word	kero2
 2171 08bc 00000000 		.word	x
 2172 08c0 00000000 		.word	.LANCHOR1
 2173 08c4 00000000 		.word	z
 2174 08c8 00000000 		.word	buffer_i2c
 2175 08cc 00000000 		.word	Surtidor_rxBuffer
 2176 08d0 00000000 		.word	y
 2177 08d4 00000000 		.word	corriente
 2178 08d8 00000000 		.word	corriente2
 2179              	.L159:
 2180              		.loc 1 574 0 discriminator 2
 2181 08dc 2046     		mov	r0, r4
 2182 08de 18F80310 		ldrb	r1, [r8, r3]	@ zero_extendqisi2
 2183 08e2 FFF7FEFF 		bl	write_psoc1
 2184              	.LVL193:
 573:.\Protocolo.c **** 						for(x=0;x<=16;x++){									
 2185              		.loc 1 573 0 discriminator 2
 2186 08e6 2B68     		ldr	r3, [r5]
 2187 08e8 0133     		adds	r3, r3, #1
 2188 08ea 2B60     		str	r3, [r5]
 2189              	.L158:
 573:.\Protocolo.c **** 						for(x=0;x<=16;x++){									
 2190              		.loc 1 573 0 is_stmt 0 discriminator 1
 2191 08ec 2B68     		ldr	r3, [r5]
 2192 08ee 102B     		cmp	r3, #16
 2193 08f0 F4D9     		bls	.L159
 575:.\Protocolo.c **** 						}
 576:.\Protocolo.c **** 						write_psoc1(val,10);
 2194              		.loc 1 576 0 is_stmt 1
 2195 08f2 2046     		mov	r0, r4
 2196 08f4 0A21     		movs	r1, #10
 2197 08f6 FFF7FEFF 		bl	write_psoc1
 2198              	.LVL194:
 577:.\Protocolo.c **** 						for(x=0;x<=14;x++){									
 2199              		.loc 1 577 0
 2200 08fa 0023     		movs	r3, #0
 2201 08fc 2B60     		str	r3, [r5]
 578:.\Protocolo.c **** 							write_psoc1(val,msn_lecact[x]);				//LECTURA ACTUAL
 2202              		.loc 1 578 0
 2203 08fe DFF84883 		ldr	r8, .L546+32
 577:.\Protocolo.c **** 						for(x=0;x<=14;x++){									
 2204              		.loc 1 577 0
 2205 0902 07E0     		b	.L160
 2206              	.L161:
ARM GAS  C:\Users\RECEPC~1\AppData\Local\Temp\ccNG63cQ.s 			page 53


 2207              		.loc 1 578 0 discriminator 2
 2208 0904 4344     		add	r3, r3, r8
 2209 0906 2046     		mov	r0, r4
 2210 0908 197D     		ldrb	r1, [r3, #20]	@ zero_extendqisi2
 2211 090a FFF7FEFF 		bl	write_psoc1
 2212              	.LVL195:
 577:.\Protocolo.c **** 						for(x=0;x<=14;x++){									
 2213              		.loc 1 577 0 discriminator 2
 2214 090e 2B68     		ldr	r3, [r5]
 2215 0910 0133     		adds	r3, r3, #1
 2216 0912 2B60     		str	r3, [r5]
 2217              	.L160:
 577:.\Protocolo.c **** 						for(x=0;x<=14;x++){									
 2218              		.loc 1 577 0 is_stmt 0 discriminator 1
 2219 0914 2B68     		ldr	r3, [r5]
 2220 0916 0E2B     		cmp	r3, #14
 2221 0918 F4D9     		bls	.L161
 579:.\Protocolo.c **** 						}
 580:.\Protocolo.c **** 						write_psoc1(val,10);
 2222              		.loc 1 580 0 is_stmt 1
 2223 091a 2046     		mov	r0, r4
 2224 091c 0A21     		movs	r1, #10
 2225 091e FFF7FEFF 		bl	write_psoc1
 2226              	.LVL196:
 581:.\Protocolo.c **** 						print_totalesac(8,val);	
 2227              		.loc 1 581 0
 2228 0922 0820     		movs	r0, #8
 2229 0924 2146     		mov	r1, r4
 2230 0926 FFF7FEFF 		bl	print_totalesac
 2231              	.LVL197:
 582:.\Protocolo.c **** 						for(x=0;x<=16;x++){												
 2232              		.loc 1 582 0
 2233 092a 0023     		movs	r3, #0
 2234 092c 2B60     		str	r3, [r5]
 583:.\Protocolo.c **** 							write_psoc1(val,msn_lecaan[x]);				//LECTURA ANTERIOR
 2235              		.loc 1 583 0
 2236 092e DFF81883 		ldr	r8, .L546+32
 582:.\Protocolo.c **** 						for(x=0;x<=16;x++){												
 2237              		.loc 1 582 0
 2238 0932 08E0     		b	.L162
 2239              	.L163:
 2240              		.loc 1 583 0 discriminator 2
 2241 0934 4344     		add	r3, r3, r8
 2242 0936 2046     		mov	r0, r4
 2243 0938 93F82410 		ldrb	r1, [r3, #36]	@ zero_extendqisi2
 2244 093c FFF7FEFF 		bl	write_psoc1
 2245              	.LVL198:
 582:.\Protocolo.c **** 						for(x=0;x<=16;x++){												
 2246              		.loc 1 582 0 discriminator 2
 2247 0940 2B68     		ldr	r3, [r5]
 2248 0942 0133     		adds	r3, r3, #1
 2249 0944 2B60     		str	r3, [r5]
 2250              	.L162:
 582:.\Protocolo.c **** 						for(x=0;x<=16;x++){												
 2251              		.loc 1 582 0 is_stmt 0 discriminator 1
 2252 0946 2B68     		ldr	r3, [r5]
 2253 0948 102B     		cmp	r3, #16
ARM GAS  C:\Users\RECEPC~1\AppData\Local\Temp\ccNG63cQ.s 			page 54


 2254 094a F3D9     		bls	.L163
 584:.\Protocolo.c **** 						}
 585:.\Protocolo.c **** 						write_psoc1(val,10);
 2255              		.loc 1 585 0 is_stmt 1
 2256 094c 2046     		mov	r0, r4
 2257 094e 0A21     		movs	r1, #10
 2258 0950 FFF7FEFF 		bl	write_psoc1
 2259              	.LVL199:
 586:.\Protocolo.c **** 						if(dir==lado.a.dir){
 2260              		.loc 1 586 0
 2261 0954 B44B     		ldr	r3, .L546
 2262 0956 1B78     		ldrb	r3, [r3]	@ zero_extendqisi2
 2263 0958 B342     		cmp	r3, r6
 2264 095a 04D1     		bne	.L164
 587:.\Protocolo.c **** 							leer_eeprom(192,25);
 2265              		.loc 1 587 0
 2266 095c C020     		movs	r0, #192
 2267 095e 1921     		movs	r1, #25
 2268 0960 FFF7FEFF 		bl	leer_eeprom
 2269              	.LVL200:
 2270 0964 04E0     		b	.L165
 2271              	.L164:
 588:.\Protocolo.c **** 						}
 589:.\Protocolo.c **** 						else{
 590:.\Protocolo.c **** 							leer_eeprom(281,25);
 2272              		.loc 1 590 0
 2273 0966 40F21910 		movw	r0, #281
 2274 096a 1921     		movs	r1, #25
 2275 096c FFF7FEFF 		bl	leer_eeprom
 2276              	.LVL201:
 2277              	.L165:
 591:.\Protocolo.c **** 						}
 592:.\Protocolo.c **** 						print_totales(val);
 2278              		.loc 1 592 0
 2279 0970 2046     		mov	r0, r4
 2280 0972 FFF7FEFF 		bl	print_totales
 2281              	.LVL202:
 593:.\Protocolo.c **** 						for(z=1;z<=8;z++){
 2282              		.loc 1 593 0
 2283 0976 0122     		movs	r2, #1
 2284 0978 AC4B     		ldr	r3, .L546+4
 2285 097a 1A60     		str	r2, [r3]
 2286 097c 1946     		mov	r1, r3
 594:.\Protocolo.c **** 							minuendo[z]=rventa.tdinero[z-1];
 2287              		.loc 1 594 0
 2288 097e DFF8B4C2 		ldr	ip, .L546+12
 595:.\Protocolo.c **** 							sustraendo[z]=buffer_i2c[z+8];
 2289              		.loc 1 595 0
 2290 0982 DFF8C8E2 		ldr	lr, .L546+36
 593:.\Protocolo.c **** 						for(z=1;z<=8;z++){
 2291              		.loc 1 593 0
 2292 0986 0FE0     		b	.L166
 2293              	.L167:
 594:.\Protocolo.c **** 							minuendo[z]=rventa.tdinero[z-1];
 2294              		.loc 1 594 0 discriminator 2
 2295 0988 0CEB0302 		add	r2, ip, r3
 2296 098c 92F8C900 		ldrb	r0, [r2, #201]	@ zero_extendqisi2
ARM GAS  C:\Users\RECEPC~1\AppData\Local\Temp\ccNG63cQ.s 			page 55


 2297 0990 10AA     		add	r2, sp, #64
 2298 0992 1A44     		add	r2, r2, r3
 2299 0994 02F82C0C 		strb	r0, [r2, #-44]
 2300              		.loc 1 595 0 discriminator 2
 2301 0998 03F10800 		add	r0, r3, #8
 2302 099c 1EF80000 		ldrb	r0, [lr, r0]	@ zero_extendqisi2
 2303 09a0 02F83C0C 		strb	r0, [r2, #-60]
 593:.\Protocolo.c **** 						for(z=1;z<=8;z++){
 2304              		.loc 1 593 0 discriminator 2
 2305 09a4 0133     		adds	r3, r3, #1
 2306 09a6 0B60     		str	r3, [r1]
 2307              	.L166:
 593:.\Protocolo.c **** 						for(z=1;z<=8;z++){
 2308              		.loc 1 593 0 is_stmt 0 discriminator 1
 2309 09a8 0B68     		ldr	r3, [r1]
 2310 09aa 082B     		cmp	r3, #8
 2311 09ac ECD9     		bls	.L167
 596:.\Protocolo.c **** 						}
 597:.\Protocolo.c **** 						minuendo[0]=8;
 2312              		.loc 1 597 0 is_stmt 1
 2313 09ae 10A9     		add	r1, sp, #64
 2314 09b0 0823     		movs	r3, #8
 2315 09b2 01F82C3D 		strb	r3, [r1, #-44]!
 598:.\Protocolo.c **** 						operacion(2,minuendo,sustraendo);
 2316              		.loc 1 598 0
 2317 09b6 0220     		movs	r0, #2
 2318 09b8 01AA     		add	r2, sp, #4
 2319 09ba FFF7FEFF 		bl	operacion
 2320              	.LVL203:
 599:.\Protocolo.c **** 						for(x=0;x<=17;x++){									
 2321              		.loc 1 599 0
 2322 09be 0023     		movs	r3, #0
 2323 09c0 2B60     		str	r3, [r5]
 600:.\Protocolo.c **** 							write_psoc1(val,msn_tventas[x]);				//Total de ventas
 2324              		.loc 1 600 0
 2325 09c2 DFF88482 		ldr	r8, .L546+32
 599:.\Protocolo.c **** 						for(x=0;x<=17;x++){									
 2326              		.loc 1 599 0
 2327 09c6 08E0     		b	.L168
 2328              	.L169:
 2329              		.loc 1 600 0 discriminator 2
 2330 09c8 4344     		add	r3, r3, r8
 2331 09ca 2046     		mov	r0, r4
 2332 09cc 93F83810 		ldrb	r1, [r3, #56]	@ zero_extendqisi2
 2333 09d0 FFF7FEFF 		bl	write_psoc1
 2334              	.LVL204:
 599:.\Protocolo.c **** 						for(x=0;x<=17;x++){									
 2335              		.loc 1 599 0 discriminator 2
 2336 09d4 2B68     		ldr	r3, [r5]
 2337 09d6 0133     		adds	r3, r3, #1
 2338 09d8 2B60     		str	r3, [r5]
 2339              	.L168:
 599:.\Protocolo.c **** 						for(x=0;x<=17;x++){									
 2340              		.loc 1 599 0 is_stmt 0 discriminator 1
 2341 09da 2B68     		ldr	r3, [r5]
 2342 09dc 112B     		cmp	r3, #17
 2343 09de F3D9     		bls	.L169
ARM GAS  C:\Users\RECEPC~1\AppData\Local\Temp\ccNG63cQ.s 			page 56


 601:.\Protocolo.c **** 						}
 602:.\Protocolo.c **** 						print_valor(resultado,val);
 2344              		.loc 1 602 0 is_stmt 1
 2345 09e0 9348     		ldr	r0, .L546+8
 2346 09e2 2146     		mov	r1, r4
 2347 09e4 FFF7FEFF 		bl	print_valor
 2348              	.LVL205:
 603:.\Protocolo.c **** 						if(dir==lado.a.dir){
 2349              		.loc 1 603 0
 2350 09e8 8F4B     		ldr	r3, .L546
 2351 09ea 1B78     		ldrb	r3, [r3]	@ zero_extendqisi2
 2352 09ec B342     		cmp	r3, r6
 2353 09ee 09D1     		bne	.L170
 604:.\Protocolo.c **** 							write_eeprom(192,corte);	
 2354              		.loc 1 604 0
 2355 09f0 C020     		movs	r0, #192
 2356 09f2 09A9     		add	r1, sp, #36
 2357 09f4 FFF7FEFF 		bl	write_eeprom
 2358              	.LVL206:
 605:.\Protocolo.c **** 							write_eeprom(512,resultado);
 2359              		.loc 1 605 0
 2360 09f8 4FF40070 		mov	r0, #512
 2361 09fc 8C49     		ldr	r1, .L546+8
 2362 09fe FFF7FEFF 		bl	write_eeprom
 2363              	.LVL207:
 2364 0a02 09E0     		b	.L157
 2365              	.L170:
 606:.\Protocolo.c **** 						}
 607:.\Protocolo.c **** 						else{
 608:.\Protocolo.c **** 							write_eeprom(281,corte);
 2366              		.loc 1 608 0
 2367 0a04 40F21910 		movw	r0, #281
 2368 0a08 09A9     		add	r1, sp, #36
 2369 0a0a FFF7FEFF 		bl	write_eeprom
 2370              	.LVL208:
 609:.\Protocolo.c **** 							write_eeprom(551,resultado);
 2371              		.loc 1 609 0
 2372 0a0e 40F22720 		movw	r0, #551
 2373 0a12 8749     		ldr	r1, .L546+8
 2374 0a14 FFF7FEFF 		bl	write_eeprom
 2375              	.LVL209:
 2376              	.L157:
 610:.\Protocolo.c **** 						}
 611:.\Protocolo.c **** 					}
 612:.\Protocolo.c **** 					if(((rventa.manguera==(diesel&0x0F))&&(dir==lado.a.dir))||((rventa.manguera==(diesel2&0x0F))&&
 2377              		.loc 1 612 0
 2378 0a18 864B     		ldr	r3, .L546+12
 2379 0a1a 93F8E030 		ldrb	r3, [r3, #224]	@ zero_extendqisi2
 2380 0a1e 864A     		ldr	r2, .L546+16
 2381 0a20 1278     		ldrb	r2, [r2]	@ zero_extendqisi2
 2382 0a22 02F00F02 		and	r2, r2, #15
 2383 0a26 9A42     		cmp	r2, r3
 2384 0a28 03D1     		bne	.L171
 2385              		.loc 1 612 0 is_stmt 0 discriminator 1
 2386 0a2a 7F4A     		ldr	r2, .L546
 2387 0a2c 1278     		ldrb	r2, [r2]	@ zero_extendqisi2
 2388 0a2e B242     		cmp	r2, r6
ARM GAS  C:\Users\RECEPC~1\AppData\Local\Temp\ccNG63cQ.s 			page 57


 2389 0a30 0BD0     		beq	.L172
 2390              	.L171:
 2391              		.loc 1 612 0 discriminator 2
 2392 0a32 824A     		ldr	r2, .L546+20
 2393 0a34 1278     		ldrb	r2, [r2]	@ zero_extendqisi2
 2394 0a36 02F00F02 		and	r2, r2, #15
 2395 0a3a 9342     		cmp	r3, r2
 2396 0a3c 40F0A980 		bne	.L173
 2397              		.loc 1 612 0 discriminator 1
 2398 0a40 794B     		ldr	r3, .L546
 2399 0a42 1B79     		ldrb	r3, [r3, #4]	@ zero_extendqisi2
 2400 0a44 B342     		cmp	r3, r6
 2401 0a46 40F0A480 		bne	.L173
 2402              	.L172:
 613:.\Protocolo.c **** 						for(x=0;x<=13;x++){									
 2403              		.loc 1 613 0 is_stmt 1
 2404 0a4a 0023     		movs	r3, #0
 2405 0a4c 2B60     		str	r3, [r5]
 614:.\Protocolo.c **** 							write_psoc1(val,msn_td[x]);
 2406              		.loc 1 614 0
 2407 0a4e DFF8F881 		ldr	r8, .L546+32
 613:.\Protocolo.c **** 						for(x=0;x<=13;x++){									
 2408              		.loc 1 613 0
 2409 0a52 08E0     		b	.L174
 2410              	.L175:
 2411              		.loc 1 614 0 discriminator 2
 2412 0a54 4344     		add	r3, r3, r8
 2413 0a56 2046     		mov	r0, r4
 2414 0a58 93F84C10 		ldrb	r1, [r3, #76]	@ zero_extendqisi2
 2415 0a5c FFF7FEFF 		bl	write_psoc1
 2416              	.LVL210:
 613:.\Protocolo.c **** 						for(x=0;x<=13;x++){									
 2417              		.loc 1 613 0 discriminator 2
 2418 0a60 2B68     		ldr	r3, [r5]
 2419 0a62 0133     		adds	r3, r3, #1
 2420 0a64 2B60     		str	r3, [r5]
 2421              	.L174:
 613:.\Protocolo.c **** 						for(x=0;x<=13;x++){									
 2422              		.loc 1 613 0 is_stmt 0 discriminator 1
 2423 0a66 2B68     		ldr	r3, [r5]
 2424 0a68 0D2B     		cmp	r3, #13
 2425 0a6a F3D9     		bls	.L175
 615:.\Protocolo.c **** 						}
 616:.\Protocolo.c **** 						write_psoc1(val,10);
 2426              		.loc 1 616 0 is_stmt 1
 2427 0a6c 2046     		mov	r0, r4
 2428 0a6e 0A21     		movs	r1, #10
 2429 0a70 FFF7FEFF 		bl	write_psoc1
 2430              	.LVL211:
 617:.\Protocolo.c **** 						for(x=0;x<=14;x++){									
 2431              		.loc 1 617 0
 2432 0a74 0023     		movs	r3, #0
 2433 0a76 2B60     		str	r3, [r5]
 618:.\Protocolo.c **** 							write_psoc1(val,msn_lecact[x]);				//LECTURA ACTUAL
 2434              		.loc 1 618 0
 2435 0a78 DFF8CC81 		ldr	r8, .L546+32
 617:.\Protocolo.c **** 						for(x=0;x<=14;x++){									
ARM GAS  C:\Users\RECEPC~1\AppData\Local\Temp\ccNG63cQ.s 			page 58


 2436              		.loc 1 617 0
 2437 0a7c 07E0     		b	.L176
 2438              	.L177:
 2439              		.loc 1 618 0 discriminator 2
 2440 0a7e 4344     		add	r3, r3, r8
 2441 0a80 2046     		mov	r0, r4
 2442 0a82 197D     		ldrb	r1, [r3, #20]	@ zero_extendqisi2
 2443 0a84 FFF7FEFF 		bl	write_psoc1
 2444              	.LVL212:
 617:.\Protocolo.c **** 						for(x=0;x<=14;x++){									
 2445              		.loc 1 617 0 discriminator 2
 2446 0a88 2B68     		ldr	r3, [r5]
 2447 0a8a 0133     		adds	r3, r3, #1
 2448 0a8c 2B60     		str	r3, [r5]
 2449              	.L176:
 617:.\Protocolo.c **** 						for(x=0;x<=14;x++){									
 2450              		.loc 1 617 0 is_stmt 0 discriminator 1
 2451 0a8e 2B68     		ldr	r3, [r5]
 2452 0a90 0E2B     		cmp	r3, #14
 2453 0a92 F4D9     		bls	.L177
 619:.\Protocolo.c **** 						}
 620:.\Protocolo.c **** 						write_psoc1(val,10);
 2454              		.loc 1 620 0 is_stmt 1
 2455 0a94 2046     		mov	r0, r4
 2456 0a96 0A21     		movs	r1, #10
 2457 0a98 FFF7FEFF 		bl	write_psoc1
 2458              	.LVL213:
 621:.\Protocolo.c **** 						print_totalesac(8,val);	
 2459              		.loc 1 621 0
 2460 0a9c 0820     		movs	r0, #8
 2461 0a9e 2146     		mov	r1, r4
 2462 0aa0 FFF7FEFF 		bl	print_totalesac
 2463              	.LVL214:
 622:.\Protocolo.c **** 						for(x=0;x<=16;x++){												
 2464              		.loc 1 622 0
 2465 0aa4 0023     		movs	r3, #0
 2466 0aa6 2B60     		str	r3, [r5]
 623:.\Protocolo.c **** 							write_psoc1(val,msn_lecaan[x]);				//LECTURA ANTERIOR
 2467              		.loc 1 623 0
 2468 0aa8 DFF89C81 		ldr	r8, .L546+32
 622:.\Protocolo.c **** 						for(x=0;x<=16;x++){												
 2469              		.loc 1 622 0
 2470 0aac 08E0     		b	.L178
 2471              	.L179:
 2472              		.loc 1 623 0 discriminator 2
 2473 0aae 4344     		add	r3, r3, r8
 2474 0ab0 2046     		mov	r0, r4
 2475 0ab2 93F82410 		ldrb	r1, [r3, #36]	@ zero_extendqisi2
 2476 0ab6 FFF7FEFF 		bl	write_psoc1
 2477              	.LVL215:
 622:.\Protocolo.c **** 						for(x=0;x<=16;x++){												
 2478              		.loc 1 622 0 discriminator 2
 2479 0aba 2B68     		ldr	r3, [r5]
 2480 0abc 0133     		adds	r3, r3, #1
 2481 0abe 2B60     		str	r3, [r5]
 2482              	.L178:
 622:.\Protocolo.c **** 						for(x=0;x<=16;x++){												
ARM GAS  C:\Users\RECEPC~1\AppData\Local\Temp\ccNG63cQ.s 			page 59


 2483              		.loc 1 622 0 is_stmt 0 discriminator 1
 2484 0ac0 2B68     		ldr	r3, [r5]
 2485 0ac2 102B     		cmp	r3, #16
 2486 0ac4 F3D9     		bls	.L179
 624:.\Protocolo.c **** 						}
 625:.\Protocolo.c **** 						write_psoc1(val,10);
 2487              		.loc 1 625 0 is_stmt 1
 2488 0ac6 2046     		mov	r0, r4
 2489 0ac8 0A21     		movs	r1, #10
 2490 0aca FFF7FEFF 		bl	write_psoc1
 2491              	.LVL216:
 626:.\Protocolo.c **** 						if(dir==lado.a.dir){
 2492              		.loc 1 626 0
 2493 0ace 564B     		ldr	r3, .L546
 2494 0ad0 1B78     		ldrb	r3, [r3]	@ zero_extendqisi2
 2495 0ad2 B342     		cmp	r3, r6
 2496 0ad4 04D1     		bne	.L180
 627:.\Protocolo.c **** 							leer_eeprom(217,25);
 2497              		.loc 1 627 0
 2498 0ad6 D920     		movs	r0, #217
 2499 0ad8 1921     		movs	r1, #25
 2500 0ada FFF7FEFF 		bl	leer_eeprom
 2501              	.LVL217:
 2502 0ade 04E0     		b	.L181
 2503              	.L180:
 628:.\Protocolo.c **** 						}
 629:.\Protocolo.c **** 						else{
 630:.\Protocolo.c **** 							leer_eeprom(320,25);
 2504              		.loc 1 630 0
 2505 0ae0 4FF4A070 		mov	r0, #320
 2506 0ae4 1921     		movs	r1, #25
 2507 0ae6 FFF7FEFF 		bl	leer_eeprom
 2508              	.LVL218:
 2509              	.L181:
 631:.\Protocolo.c **** 						}
 632:.\Protocolo.c **** 						print_totales(val);
 2510              		.loc 1 632 0
 2511 0aea 2046     		mov	r0, r4
 2512 0aec FFF7FEFF 		bl	print_totales
 2513              	.LVL219:
 633:.\Protocolo.c **** 						for(z=1;z<=8;z++){
 2514              		.loc 1 633 0
 2515 0af0 0122     		movs	r2, #1
 2516 0af2 4E4B     		ldr	r3, .L546+4
 2517 0af4 1A60     		str	r2, [r3]
 2518 0af6 1946     		mov	r1, r3
 634:.\Protocolo.c **** 							minuendo[z]=rventa.tdinero[z-1];
 2519              		.loc 1 634 0
 2520 0af8 DFF838C1 		ldr	ip, .L546+12
 635:.\Protocolo.c **** 							sustraendo[z]=buffer_i2c[z+8];
 2521              		.loc 1 635 0
 2522 0afc DFF84CE1 		ldr	lr, .L546+36
 633:.\Protocolo.c **** 						for(z=1;z<=8;z++){
 2523              		.loc 1 633 0
 2524 0b00 0FE0     		b	.L182
 2525              	.L183:
 634:.\Protocolo.c **** 							minuendo[z]=rventa.tdinero[z-1];
ARM GAS  C:\Users\RECEPC~1\AppData\Local\Temp\ccNG63cQ.s 			page 60


 2526              		.loc 1 634 0 discriminator 2
 2527 0b02 0CEB0302 		add	r2, ip, r3
 2528 0b06 92F8C900 		ldrb	r0, [r2, #201]	@ zero_extendqisi2
 2529 0b0a 10AA     		add	r2, sp, #64
 2530 0b0c 1A44     		add	r2, r2, r3
 2531 0b0e 02F82C0C 		strb	r0, [r2, #-44]
 2532              		.loc 1 635 0 discriminator 2
 2533 0b12 03F10800 		add	r0, r3, #8
 2534 0b16 1EF80000 		ldrb	r0, [lr, r0]	@ zero_extendqisi2
 2535 0b1a 02F83C0C 		strb	r0, [r2, #-60]
 633:.\Protocolo.c **** 						for(z=1;z<=8;z++){
 2536              		.loc 1 633 0 discriminator 2
 2537 0b1e 0133     		adds	r3, r3, #1
 2538 0b20 0B60     		str	r3, [r1]
 2539              	.L182:
 633:.\Protocolo.c **** 						for(z=1;z<=8;z++){
 2540              		.loc 1 633 0 is_stmt 0 discriminator 1
 2541 0b22 0B68     		ldr	r3, [r1]
 2542 0b24 082B     		cmp	r3, #8
 2543 0b26 ECD9     		bls	.L183
 636:.\Protocolo.c **** 						}
 637:.\Protocolo.c **** 						minuendo[0]=8;
 2544              		.loc 1 637 0 is_stmt 1
 2545 0b28 10A9     		add	r1, sp, #64
 2546 0b2a 0823     		movs	r3, #8
 2547 0b2c 01F82C3D 		strb	r3, [r1, #-44]!
 638:.\Protocolo.c **** 						operacion(2,minuendo,sustraendo);
 2548              		.loc 1 638 0
 2549 0b30 0220     		movs	r0, #2
 2550 0b32 01AA     		add	r2, sp, #4
 2551 0b34 FFF7FEFF 		bl	operacion
 2552              	.LVL220:
 639:.\Protocolo.c **** 						for(x=0;x<=17;x++){									
 2553              		.loc 1 639 0
 2554 0b38 0023     		movs	r3, #0
 2555 0b3a 2B60     		str	r3, [r5]
 640:.\Protocolo.c **** 							write_psoc1(val,msn_tventas[x]);				//Total de ventas
 2556              		.loc 1 640 0
 2557 0b3c DFF80881 		ldr	r8, .L546+32
 639:.\Protocolo.c **** 						for(x=0;x<=17;x++){									
 2558              		.loc 1 639 0
 2559 0b40 08E0     		b	.L184
 2560              	.L185:
 2561              		.loc 1 640 0 discriminator 2
 2562 0b42 4344     		add	r3, r3, r8
 2563 0b44 2046     		mov	r0, r4
 2564 0b46 93F83810 		ldrb	r1, [r3, #56]	@ zero_extendqisi2
 2565 0b4a FFF7FEFF 		bl	write_psoc1
 2566              	.LVL221:
 639:.\Protocolo.c **** 						for(x=0;x<=17;x++){									
 2567              		.loc 1 639 0 discriminator 2
 2568 0b4e 2B68     		ldr	r3, [r5]
 2569 0b50 0133     		adds	r3, r3, #1
 2570 0b52 2B60     		str	r3, [r5]
 2571              	.L184:
 639:.\Protocolo.c **** 						for(x=0;x<=17;x++){									
 2572              		.loc 1 639 0 is_stmt 0 discriminator 1
ARM GAS  C:\Users\RECEPC~1\AppData\Local\Temp\ccNG63cQ.s 			page 61


 2573 0b54 2B68     		ldr	r3, [r5]
 2574 0b56 112B     		cmp	r3, #17
 2575 0b58 F3D9     		bls	.L185
 641:.\Protocolo.c **** 						}
 642:.\Protocolo.c **** 						print_valor(resultado,val);				
 2576              		.loc 1 642 0 is_stmt 1
 2577 0b5a 3548     		ldr	r0, .L546+8
 2578 0b5c 2146     		mov	r1, r4
 2579 0b5e FFF7FEFF 		bl	print_valor
 2580              	.LVL222:
 643:.\Protocolo.c **** 						if(dir==lado.a.dir){
 2581              		.loc 1 643 0
 2582 0b62 314B     		ldr	r3, .L546
 2583 0b64 1B78     		ldrb	r3, [r3]	@ zero_extendqisi2
 2584 0b66 B342     		cmp	r3, r6
 2585 0b68 09D1     		bne	.L186
 644:.\Protocolo.c **** 							write_eeprom(217,corte);
 2586              		.loc 1 644 0
 2587 0b6a D920     		movs	r0, #217
 2588 0b6c 09A9     		add	r1, sp, #36
 2589 0b6e FFF7FEFF 		bl	write_eeprom
 2590              	.LVL223:
 645:.\Protocolo.c **** 							write_eeprom(538,resultado);
 2591              		.loc 1 645 0
 2592 0b72 40F21A20 		movw	r0, #538
 2593 0b76 2E49     		ldr	r1, .L546+8
 2594 0b78 FFF7FEFF 		bl	write_eeprom
 2595              	.LVL224:
 2596 0b7c 09E0     		b	.L173
 2597              	.L186:
 646:.\Protocolo.c **** 						}
 647:.\Protocolo.c **** 						else{
 648:.\Protocolo.c **** 							write_eeprom(320,corte);
 2598              		.loc 1 648 0
 2599 0b7e 4FF4A070 		mov	r0, #320
 2600 0b82 09A9     		add	r1, sp, #36
 2601 0b84 FFF7FEFF 		bl	write_eeprom
 2602              	.LVL225:
 649:.\Protocolo.c **** 							write_eeprom(576,resultado);
 2603              		.loc 1 649 0
 2604 0b88 4FF41070 		mov	r0, #576
 2605 0b8c 2849     		ldr	r1, .L546+8
 2606 0b8e FFF7FEFF 		bl	write_eeprom
 2607              	.LVL226:
 2608              	.L173:
 650:.\Protocolo.c **** 						}				
 651:.\Protocolo.c **** 					}
 652:.\Protocolo.c **** 					if(((rventa.manguera==(extra&0x0F))&&(dir==lado.a.dir))||((rventa.manguera==(extra2&0x0F))&&(d
 2609              		.loc 1 652 0
 2610 0b92 284B     		ldr	r3, .L546+12
 2611 0b94 93F8E030 		ldrb	r3, [r3, #224]	@ zero_extendqisi2
 2612 0b98 294A     		ldr	r2, .L546+24
 2613 0b9a 1278     		ldrb	r2, [r2]	@ zero_extendqisi2
 2614 0b9c 02F00F02 		and	r2, r2, #15
 2615 0ba0 9A42     		cmp	r2, r3
 2616 0ba2 03D1     		bne	.L187
 2617              		.loc 1 652 0 is_stmt 0 discriminator 1
ARM GAS  C:\Users\RECEPC~1\AppData\Local\Temp\ccNG63cQ.s 			page 62


 2618 0ba4 204A     		ldr	r2, .L546
 2619 0ba6 1278     		ldrb	r2, [r2]	@ zero_extendqisi2
 2620 0ba8 B242     		cmp	r2, r6
 2621 0baa 0BD0     		beq	.L188
 2622              	.L187:
 2623              		.loc 1 652 0 discriminator 2
 2624 0bac 254A     		ldr	r2, .L546+28
 2625 0bae 1278     		ldrb	r2, [r2]	@ zero_extendqisi2
 2626 0bb0 02F00F02 		and	r2, r2, #15
 2627 0bb4 9342     		cmp	r3, r2
 2628 0bb6 40F0BF80 		bne	.L189
 2629              		.loc 1 652 0 discriminator 1
 2630 0bba 1B4B     		ldr	r3, .L546
 2631 0bbc 1B79     		ldrb	r3, [r3, #4]	@ zero_extendqisi2
 2632 0bbe B342     		cmp	r3, r6
 2633 0bc0 40F0BA80 		bne	.L189
 2634              	.L188:
 653:.\Protocolo.c **** 						for(x=0;x<=12;x++){									
 2635              		.loc 1 653 0 is_stmt 1
 2636 0bc4 0023     		movs	r3, #0
 2637 0bc6 2B60     		str	r3, [r5]
 654:.\Protocolo.c **** 							write_psoc1(val,msn_te[x]);
 2638              		.loc 1 654 0
 2639 0bc8 DFF87C80 		ldr	r8, .L546+32
 653:.\Protocolo.c **** 						for(x=0;x<=12;x++){									
 2640              		.loc 1 653 0
 2641 0bcc 08E0     		b	.L190
 2642              	.L191:
 2643              		.loc 1 654 0 discriminator 2
 2644 0bce 4344     		add	r3, r3, r8
 2645 0bd0 2046     		mov	r0, r4
 2646 0bd2 93F85C10 		ldrb	r1, [r3, #92]	@ zero_extendqisi2
 2647 0bd6 FFF7FEFF 		bl	write_psoc1
 2648              	.LVL227:
 653:.\Protocolo.c **** 						for(x=0;x<=12;x++){									
 2649              		.loc 1 653 0 discriminator 2
 2650 0bda 2B68     		ldr	r3, [r5]
 2651 0bdc 0133     		adds	r3, r3, #1
 2652 0bde 2B60     		str	r3, [r5]
 2653              	.L190:
 653:.\Protocolo.c **** 						for(x=0;x<=12;x++){									
 2654              		.loc 1 653 0 is_stmt 0 discriminator 1
 2655 0be0 2B68     		ldr	r3, [r5]
 2656 0be2 0C2B     		cmp	r3, #12
 2657 0be4 F3D9     		bls	.L191
 655:.\Protocolo.c **** 						}
 656:.\Protocolo.c **** 						write_psoc1(val,10);
 2658              		.loc 1 656 0 is_stmt 1
 2659 0be6 2046     		mov	r0, r4
 2660 0be8 0A21     		movs	r1, #10
 2661 0bea FFF7FEFF 		bl	write_psoc1
 2662              	.LVL228:
 657:.\Protocolo.c **** 						for(x=0;x<=14;x++){									
 2663              		.loc 1 657 0
 2664 0bee 0023     		movs	r3, #0
 2665 0bf0 2B60     		str	r3, [r5]
 658:.\Protocolo.c **** 							write_psoc1(val,msn_lecact[x]);				//LECTURA ACTUAL
ARM GAS  C:\Users\RECEPC~1\AppData\Local\Temp\ccNG63cQ.s 			page 63


 2666              		.loc 1 658 0
 2667 0bf2 DFF85480 		ldr	r8, .L546+32
 657:.\Protocolo.c **** 						for(x=0;x<=14;x++){									
 2668              		.loc 1 657 0
 2669 0bf6 07E0     		b	.L192
 2670              	.L193:
 2671              		.loc 1 658 0 discriminator 2
 2672 0bf8 4344     		add	r3, r3, r8
 2673 0bfa 2046     		mov	r0, r4
 2674 0bfc 197D     		ldrb	r1, [r3, #20]	@ zero_extendqisi2
 2675 0bfe FFF7FEFF 		bl	write_psoc1
 2676              	.LVL229:
 657:.\Protocolo.c **** 						for(x=0;x<=14;x++){									
 2677              		.loc 1 657 0 discriminator 2
 2678 0c02 2B68     		ldr	r3, [r5]
 2679 0c04 0133     		adds	r3, r3, #1
 2680 0c06 2B60     		str	r3, [r5]
 2681              	.L192:
 657:.\Protocolo.c **** 						for(x=0;x<=14;x++){									
 2682              		.loc 1 657 0 is_stmt 0 discriminator 1
 2683 0c08 2B68     		ldr	r3, [r5]
 2684 0c0a 0E2B     		cmp	r3, #14
 2685 0c0c F4D9     		bls	.L193
 659:.\Protocolo.c **** 						}
 660:.\Protocolo.c **** 						write_psoc1(val,10);
 2686              		.loc 1 660 0 is_stmt 1
 2687 0c0e 2046     		mov	r0, r4
 2688 0c10 0A21     		movs	r1, #10
 2689 0c12 FFF7FEFF 		bl	write_psoc1
 2690              	.LVL230:
 661:.\Protocolo.c **** 						print_totalesac(8,val);	
 2691              		.loc 1 661 0
 2692 0c16 0820     		movs	r0, #8
 2693 0c18 2146     		mov	r1, r4
 2694 0c1a FFF7FEFF 		bl	print_totalesac
 2695              	.LVL231:
 662:.\Protocolo.c **** 						for(x=0;x<=16;x++){												
 2696              		.loc 1 662 0
 2697 0c1e 0023     		movs	r3, #0
 2698 0c20 2B60     		str	r3, [r5]
 663:.\Protocolo.c **** 							write_psoc1(val,msn_lecaan[x]);				//LECTURA ANTERIOR
 2699              		.loc 1 663 0
 2700 0c22 DFF82480 		ldr	r8, .L546+32
 662:.\Protocolo.c **** 						for(x=0;x<=16;x++){												
 2701              		.loc 1 662 0
 2702 0c26 1CE0     		b	.L194
 2703              	.L547:
 2704              		.align	2
 2705              	.L546:
 2706 0c28 00000000 		.word	lado
 2707 0c2c 00000000 		.word	z
 2708 0c30 00000000 		.word	resultado
 2709 0c34 00000000 		.word	rventa
 2710 0c38 00000000 		.word	diesel
 2711 0c3c 00000000 		.word	diesel2
 2712 0c40 00000000 		.word	extra
 2713 0c44 00000000 		.word	extra2
ARM GAS  C:\Users\RECEPC~1\AppData\Local\Temp\ccNG63cQ.s 			page 64


 2714 0c48 00000000 		.word	.LANCHOR1
 2715 0c4c 00000000 		.word	buffer_i2c
 2716              	.L195:
 2717              		.loc 1 663 0 discriminator 2
 2718 0c50 4344     		add	r3, r3, r8
 2719 0c52 2046     		mov	r0, r4
 2720 0c54 93F82410 		ldrb	r1, [r3, #36]	@ zero_extendqisi2
 2721 0c58 FFF7FEFF 		bl	write_psoc1
 2722              	.LVL232:
 662:.\Protocolo.c **** 						for(x=0;x<=16;x++){												
 2723              		.loc 1 662 0 discriminator 2
 2724 0c5c 2B68     		ldr	r3, [r5]
 2725 0c5e 0133     		adds	r3, r3, #1
 2726 0c60 2B60     		str	r3, [r5]
 2727              	.L194:
 662:.\Protocolo.c **** 						for(x=0;x<=16;x++){												
 2728              		.loc 1 662 0 is_stmt 0 discriminator 1
 2729 0c62 2B68     		ldr	r3, [r5]
 2730 0c64 102B     		cmp	r3, #16
 2731 0c66 F3D9     		bls	.L195
 664:.\Protocolo.c **** 						}
 665:.\Protocolo.c **** 						write_psoc1(val,10);
 2732              		.loc 1 665 0 is_stmt 1
 2733 0c68 2046     		mov	r0, r4
 2734 0c6a 0A21     		movs	r1, #10
 2735 0c6c FFF7FEFF 		bl	write_psoc1
 2736              	.LVL233:
 666:.\Protocolo.c **** 						if(dir==lado.a.dir){
 2737              		.loc 1 666 0
 2738 0c70 B94B     		ldr	r3, .L548
 2739 0c72 1B78     		ldrb	r3, [r3]	@ zero_extendqisi2
 2740 0c74 B342     		cmp	r3, r6
 2741 0c76 05D1     		bne	.L196
 667:.\Protocolo.c **** 							leer_eeprom(256,25);
 2742              		.loc 1 667 0
 2743 0c78 4FF48070 		mov	r0, #256
 2744 0c7c 1921     		movs	r1, #25
 2745 0c7e FFF7FEFF 		bl	leer_eeprom
 2746              	.LVL234:
 2747 0c82 04E0     		b	.L197
 2748              	.L196:
 668:.\Protocolo.c **** 						}
 669:.\Protocolo.c **** 						else{
 670:.\Protocolo.c **** 							leer_eeprom(345,25);
 2749              		.loc 1 670 0
 2750 0c84 40F25910 		movw	r0, #345
 2751 0c88 1921     		movs	r1, #25
 2752 0c8a FFF7FEFF 		bl	leer_eeprom
 2753              	.LVL235:
 2754              	.L197:
 671:.\Protocolo.c **** 						}
 672:.\Protocolo.c **** 						print_totales(val);
 2755              		.loc 1 672 0
 2756 0c8e 2046     		mov	r0, r4
 2757 0c90 FFF7FEFF 		bl	print_totales
 2758              	.LVL236:
 673:.\Protocolo.c **** 						for(z=1;z<=8;z++){
ARM GAS  C:\Users\RECEPC~1\AppData\Local\Temp\ccNG63cQ.s 			page 65


 2759              		.loc 1 673 0
 2760 0c94 0122     		movs	r2, #1
 2761 0c96 B14B     		ldr	r3, .L548+4
 2762 0c98 1A60     		str	r2, [r3]
 2763 0c9a 1946     		mov	r1, r3
 674:.\Protocolo.c **** 							minuendo[z]=rventa.tdinero[z-1];
 2764              		.loc 1 674 0
 2765 0c9c DFF8C4C2 		ldr	ip, .L548+12
 675:.\Protocolo.c **** 							sustraendo[z]=buffer_i2c[z+8];
 2766              		.loc 1 675 0
 2767 0ca0 DFF8D8E2 		ldr	lr, .L548+36
 673:.\Protocolo.c **** 						for(z=1;z<=8;z++){
 2768              		.loc 1 673 0
 2769 0ca4 0FE0     		b	.L198
 2770              	.L199:
 674:.\Protocolo.c **** 							minuendo[z]=rventa.tdinero[z-1];
 2771              		.loc 1 674 0 discriminator 2
 2772 0ca6 0CEB0302 		add	r2, ip, r3
 2773 0caa 92F8C900 		ldrb	r0, [r2, #201]	@ zero_extendqisi2
 2774 0cae 10AA     		add	r2, sp, #64
 2775 0cb0 1A44     		add	r2, r2, r3
 2776 0cb2 02F82C0C 		strb	r0, [r2, #-44]
 2777              		.loc 1 675 0 discriminator 2
 2778 0cb6 03F10800 		add	r0, r3, #8
 2779 0cba 1EF80000 		ldrb	r0, [lr, r0]	@ zero_extendqisi2
 2780 0cbe 02F83C0C 		strb	r0, [r2, #-60]
 673:.\Protocolo.c **** 						for(z=1;z<=8;z++){
 2781              		.loc 1 673 0 discriminator 2
 2782 0cc2 0133     		adds	r3, r3, #1
 2783 0cc4 0B60     		str	r3, [r1]
 2784              	.L198:
 673:.\Protocolo.c **** 						for(z=1;z<=8;z++){
 2785              		.loc 1 673 0 is_stmt 0 discriminator 1
 2786 0cc6 0B68     		ldr	r3, [r1]
 2787 0cc8 082B     		cmp	r3, #8
 2788 0cca ECD9     		bls	.L199
 676:.\Protocolo.c **** 						}
 677:.\Protocolo.c **** 						minuendo[0]=8;
 2789              		.loc 1 677 0 is_stmt 1
 2790 0ccc 10A9     		add	r1, sp, #64
 2791 0cce 0823     		movs	r3, #8
 2792 0cd0 01F82C3D 		strb	r3, [r1, #-44]!
 678:.\Protocolo.c **** 						operacion(2,minuendo,sustraendo);
 2793              		.loc 1 678 0
 2794 0cd4 0220     		movs	r0, #2
 2795 0cd6 01AA     		add	r2, sp, #4
 2796 0cd8 FFF7FEFF 		bl	operacion
 2797              	.LVL237:
 679:.\Protocolo.c **** 						for(x=0;x<=17;x++){									
 2798              		.loc 1 679 0
 2799 0cdc 0023     		movs	r3, #0
 2800 0cde 2B60     		str	r3, [r5]
 680:.\Protocolo.c **** 							write_psoc1(val,msn_tventas[x]);				//Total de ventas
 2801              		.loc 1 680 0
 2802 0ce0 DFF89C82 		ldr	r8, .L548+40
 679:.\Protocolo.c **** 						for(x=0;x<=17;x++){									
 2803              		.loc 1 679 0
ARM GAS  C:\Users\RECEPC~1\AppData\Local\Temp\ccNG63cQ.s 			page 66


 2804 0ce4 08E0     		b	.L200
 2805              	.L201:
 2806              		.loc 1 680 0 discriminator 2
 2807 0ce6 4344     		add	r3, r3, r8
 2808 0ce8 2046     		mov	r0, r4
 2809 0cea 93F83810 		ldrb	r1, [r3, #56]	@ zero_extendqisi2
 2810 0cee FFF7FEFF 		bl	write_psoc1
 2811              	.LVL238:
 679:.\Protocolo.c **** 						for(x=0;x<=17;x++){									
 2812              		.loc 1 679 0 discriminator 2
 2813 0cf2 2B68     		ldr	r3, [r5]
 2814 0cf4 0133     		adds	r3, r3, #1
 2815 0cf6 2B60     		str	r3, [r5]
 2816              	.L200:
 679:.\Protocolo.c **** 						for(x=0;x<=17;x++){									
 2817              		.loc 1 679 0 is_stmt 0 discriminator 1
 2818 0cf8 2B68     		ldr	r3, [r5]
 2819 0cfa 112B     		cmp	r3, #17
 2820 0cfc F3D9     		bls	.L201
 681:.\Protocolo.c **** 						}
 682:.\Protocolo.c **** 						print_valor(resultado,val);							
 2821              		.loc 1 682 0 is_stmt 1
 2822 0cfe 9848     		ldr	r0, .L548+8
 2823 0d00 2146     		mov	r1, r4
 2824 0d02 FFF7FEFF 		bl	print_valor
 2825              	.LVL239:
 683:.\Protocolo.c **** 						if(dir==lado.a.dir){
 2826              		.loc 1 683 0
 2827 0d06 944B     		ldr	r3, .L548
 2828 0d08 1B78     		ldrb	r3, [r3]	@ zero_extendqisi2
 2829 0d0a B342     		cmp	r3, r6
 2830 0d0c 0AD1     		bne	.L202
 684:.\Protocolo.c **** 							write_eeprom(256,corte);
 2831              		.loc 1 684 0
 2832 0d0e 4FF48070 		mov	r0, #256
 2833 0d12 09A9     		add	r1, sp, #36
 2834 0d14 FFF7FEFF 		bl	write_eeprom
 2835              	.LVL240:
 685:.\Protocolo.c **** 							write_eeprom(525,resultado);
 2836              		.loc 1 685 0
 2837 0d18 40F20D20 		movw	r0, #525
 2838 0d1c 9049     		ldr	r1, .L548+8
 2839 0d1e FFF7FEFF 		bl	write_eeprom
 2840              	.LVL241:
 2841 0d22 09E0     		b	.L189
 2842              	.L202:
 686:.\Protocolo.c **** 						}
 687:.\Protocolo.c **** 						else{
 688:.\Protocolo.c **** 							write_eeprom(345,corte);
 2843              		.loc 1 688 0
 2844 0d24 40F25910 		movw	r0, #345
 2845 0d28 09A9     		add	r1, sp, #36
 2846 0d2a FFF7FEFF 		bl	write_eeprom
 2847              	.LVL242:
 689:.\Protocolo.c **** 							write_eeprom(589,resultado);
 2848              		.loc 1 689 0
 2849 0d2e 40F24D20 		movw	r0, #589
ARM GAS  C:\Users\RECEPC~1\AppData\Local\Temp\ccNG63cQ.s 			page 67


 2850 0d32 8B49     		ldr	r1, .L548+8
 2851 0d34 FFF7FEFF 		bl	write_eeprom
 2852              	.LVL243:
 2853              	.L189:
 690:.\Protocolo.c **** 						}					
 691:.\Protocolo.c **** 					}	
 692:.\Protocolo.c ****                     
 693:.\Protocolo.c ****                     if(((rventa.manguera==(kero&0x0F))&&(dir==lado.a.dir))||((rventa.manguera==(ker
 2854              		.loc 1 693 0
 2855 0d38 8A4B     		ldr	r3, .L548+12
 2856 0d3a 93F8E030 		ldrb	r3, [r3, #224]	@ zero_extendqisi2
 2857 0d3e 8A4A     		ldr	r2, .L548+16
 2858 0d40 1278     		ldrb	r2, [r2]	@ zero_extendqisi2
 2859 0d42 02F00F02 		and	r2, r2, #15
 2860 0d46 9A42     		cmp	r2, r3
 2861 0d48 03D1     		bne	.L203
 2862              		.loc 1 693 0 is_stmt 0 discriminator 1
 2863 0d4a 834A     		ldr	r2, .L548
 2864 0d4c 1278     		ldrb	r2, [r2]	@ zero_extendqisi2
 2865 0d4e B242     		cmp	r2, r6
 2866 0d50 0BD0     		beq	.L204
 2867              	.L203:
 2868              		.loc 1 693 0 discriminator 2
 2869 0d52 864A     		ldr	r2, .L548+20
 2870 0d54 1278     		ldrb	r2, [r2]	@ zero_extendqisi2
 2871 0d56 02F00F02 		and	r2, r2, #15
 2872 0d5a 9342     		cmp	r3, r2
 2873 0d5c 40F0AB80 		bne	.L205
 2874              		.loc 1 693 0 discriminator 1
 2875 0d60 7D4B     		ldr	r3, .L548
 2876 0d62 1B79     		ldrb	r3, [r3, #4]	@ zero_extendqisi2
 2877 0d64 B342     		cmp	r3, r6
 2878 0d66 40F0A680 		bne	.L205
 2879              	.L204:
 694:.\Protocolo.c **** 						for(x=0;x<=9;x++){									
 2880              		.loc 1 694 0 is_stmt 1
 2881 0d6a 0023     		movs	r3, #0
 2882 0d6c 2B60     		str	r3, [r5]
 695:.\Protocolo.c **** 							write_psoc1(val,msn_tk[x]);
 2883              		.loc 1 695 0
 2884 0d6e DFF81082 		ldr	r8, .L548+40
 694:.\Protocolo.c **** 						for(x=0;x<=9;x++){									
 2885              		.loc 1 694 0
 2886 0d72 08E0     		b	.L206
 2887              	.L207:
 2888              		.loc 1 695 0 discriminator 2
 2889 0d74 4344     		add	r3, r3, r8
 2890 0d76 2046     		mov	r0, r4
 2891 0d78 93F86C10 		ldrb	r1, [r3, #108]	@ zero_extendqisi2
 2892 0d7c FFF7FEFF 		bl	write_psoc1
 2893              	.LVL244:
 694:.\Protocolo.c **** 						for(x=0;x<=9;x++){									
 2894              		.loc 1 694 0 discriminator 2
 2895 0d80 2B68     		ldr	r3, [r5]
 2896 0d82 0133     		adds	r3, r3, #1
 2897 0d84 2B60     		str	r3, [r5]
 2898              	.L206:
ARM GAS  C:\Users\RECEPC~1\AppData\Local\Temp\ccNG63cQ.s 			page 68


 694:.\Protocolo.c **** 						for(x=0;x<=9;x++){									
 2899              		.loc 1 694 0 is_stmt 0 discriminator 1
 2900 0d86 2B68     		ldr	r3, [r5]
 2901 0d88 092B     		cmp	r3, #9
 2902 0d8a F3D9     		bls	.L207
 696:.\Protocolo.c **** 						}
 697:.\Protocolo.c **** 						write_psoc1(val,10);
 2903              		.loc 1 697 0 is_stmt 1
 2904 0d8c 2046     		mov	r0, r4
 2905 0d8e 0A21     		movs	r1, #10
 2906 0d90 FFF7FEFF 		bl	write_psoc1
 2907              	.LVL245:
 698:.\Protocolo.c **** 						for(x=0;x<=14;x++){									
 2908              		.loc 1 698 0
 2909 0d94 0023     		movs	r3, #0
 2910 0d96 2B60     		str	r3, [r5]
 699:.\Protocolo.c **** 							write_psoc1(val,msn_lecact[x]);				//LECTURA ACTUAL
 2911              		.loc 1 699 0
 2912 0d98 DFF8E481 		ldr	r8, .L548+40
 698:.\Protocolo.c **** 						for(x=0;x<=14;x++){									
 2913              		.loc 1 698 0
 2914 0d9c 07E0     		b	.L208
 2915              	.L209:
 2916              		.loc 1 699 0 discriminator 2
 2917 0d9e 4344     		add	r3, r3, r8
 2918 0da0 2046     		mov	r0, r4
 2919 0da2 197D     		ldrb	r1, [r3, #20]	@ zero_extendqisi2
 2920 0da4 FFF7FEFF 		bl	write_psoc1
 2921              	.LVL246:
 698:.\Protocolo.c **** 						for(x=0;x<=14;x++){									
 2922              		.loc 1 698 0 discriminator 2
 2923 0da8 2B68     		ldr	r3, [r5]
 2924 0daa 0133     		adds	r3, r3, #1
 2925 0dac 2B60     		str	r3, [r5]
 2926              	.L208:
 698:.\Protocolo.c **** 						for(x=0;x<=14;x++){									
 2927              		.loc 1 698 0 is_stmt 0 discriminator 1
 2928 0dae 2B68     		ldr	r3, [r5]
 2929 0db0 0E2B     		cmp	r3, #14
 2930 0db2 F4D9     		bls	.L209
 700:.\Protocolo.c **** 						}
 701:.\Protocolo.c **** 						write_psoc1(val,10);
 2931              		.loc 1 701 0 is_stmt 1
 2932 0db4 2046     		mov	r0, r4
 2933 0db6 0A21     		movs	r1, #10
 2934 0db8 FFF7FEFF 		bl	write_psoc1
 2935              	.LVL247:
 702:.\Protocolo.c **** 						print_totalesac(8,val);	
 2936              		.loc 1 702 0
 2937 0dbc 0820     		movs	r0, #8
 2938 0dbe 2146     		mov	r1, r4
 2939 0dc0 FFF7FEFF 		bl	print_totalesac
 2940              	.LVL248:
 703:.\Protocolo.c **** 						for(x=0;x<=16;x++){												
 2941              		.loc 1 703 0
 2942 0dc4 0023     		movs	r3, #0
 2943 0dc6 2B60     		str	r3, [r5]
ARM GAS  C:\Users\RECEPC~1\AppData\Local\Temp\ccNG63cQ.s 			page 69


 704:.\Protocolo.c **** 							write_psoc1(val,msn_lecaan[x]);				//LECTURA ANTERIOR
 2944              		.loc 1 704 0
 2945 0dc8 DFF8B481 		ldr	r8, .L548+40
 703:.\Protocolo.c **** 						for(x=0;x<=16;x++){												
 2946              		.loc 1 703 0
 2947 0dcc 08E0     		b	.L210
 2948              	.L211:
 2949              		.loc 1 704 0 discriminator 2
 2950 0dce 4344     		add	r3, r3, r8
 2951 0dd0 2046     		mov	r0, r4
 2952 0dd2 93F82410 		ldrb	r1, [r3, #36]	@ zero_extendqisi2
 2953 0dd6 FFF7FEFF 		bl	write_psoc1
 2954              	.LVL249:
 703:.\Protocolo.c **** 						for(x=0;x<=16;x++){												
 2955              		.loc 1 703 0 discriminator 2
 2956 0dda 2B68     		ldr	r3, [r5]
 2957 0ddc 0133     		adds	r3, r3, #1
 2958 0dde 2B60     		str	r3, [r5]
 2959              	.L210:
 703:.\Protocolo.c **** 						for(x=0;x<=16;x++){												
 2960              		.loc 1 703 0 is_stmt 0 discriminator 1
 2961 0de0 2B68     		ldr	r3, [r5]
 2962 0de2 102B     		cmp	r3, #16
 2963 0de4 F3D9     		bls	.L211
 705:.\Protocolo.c **** 						}
 706:.\Protocolo.c **** 						write_psoc1(val,10);
 2964              		.loc 1 706 0 is_stmt 1
 2965 0de6 2046     		mov	r0, r4
 2966 0de8 0A21     		movs	r1, #10
 2967 0dea FFF7FEFF 		bl	write_psoc1
 2968              	.LVL250:
 707:.\Protocolo.c **** 						if(dir==lado.a.dir){
 2969              		.loc 1 707 0
 2970 0dee 5A4B     		ldr	r3, .L548
 2971 0df0 1B78     		ldrb	r3, [r3]	@ zero_extendqisi2
 2972 0df2 B342     		cmp	r3, r6
 2973 0df4 05D1     		bne	.L212
 708:.\Protocolo.c **** 							leer_eeprom(1096,25);
 2974              		.loc 1 708 0
 2975 0df6 4FF48960 		mov	r0, #1096
 2976 0dfa 1921     		movs	r1, #25
 2977 0dfc FFF7FEFF 		bl	leer_eeprom
 2978              	.LVL251:
 2979 0e00 04E0     		b	.L213
 2980              	.L212:
 709:.\Protocolo.c **** 						}
 710:.\Protocolo.c **** 						else{
 711:.\Protocolo.c **** 							leer_eeprom(1054,25);
 2981              		.loc 1 711 0
 2982 0e02 40F21E40 		movw	r0, #1054
 2983 0e06 1921     		movs	r1, #25
 2984 0e08 FFF7FEFF 		bl	leer_eeprom
 2985              	.LVL252:
 2986              	.L213:
 712:.\Protocolo.c **** 						}
 713:.\Protocolo.c **** 						print_totales(val);
 2987              		.loc 1 713 0
ARM GAS  C:\Users\RECEPC~1\AppData\Local\Temp\ccNG63cQ.s 			page 70


 2988 0e0c 2046     		mov	r0, r4
 2989 0e0e FFF7FEFF 		bl	print_totales
 2990              	.LVL253:
 714:.\Protocolo.c **** 						for(z=1;z<=8;z++){
 2991              		.loc 1 714 0
 2992 0e12 0122     		movs	r2, #1
 2993 0e14 514B     		ldr	r3, .L548+4
 2994 0e16 1A60     		str	r2, [r3]
 2995 0e18 1946     		mov	r1, r3
 715:.\Protocolo.c **** 							minuendo[z]=rventa.tdinero[z-1];
 2996              		.loc 1 715 0
 2997 0e1a DFF848C1 		ldr	ip, .L548+12
 716:.\Protocolo.c **** 							sustraendo[z]=buffer_i2c[z+8];
 2998              		.loc 1 716 0
 2999 0e1e DFF85CE1 		ldr	lr, .L548+36
 714:.\Protocolo.c **** 						for(z=1;z<=8;z++){
 3000              		.loc 1 714 0
 3001 0e22 0FE0     		b	.L214
 3002              	.L215:
 715:.\Protocolo.c **** 							minuendo[z]=rventa.tdinero[z-1];
 3003              		.loc 1 715 0 discriminator 2
 3004 0e24 0CEB0302 		add	r2, ip, r3
 3005 0e28 92F8C900 		ldrb	r0, [r2, #201]	@ zero_extendqisi2
 3006 0e2c 10AA     		add	r2, sp, #64
 3007 0e2e 1A44     		add	r2, r2, r3
 3008 0e30 02F82C0C 		strb	r0, [r2, #-44]
 3009              		.loc 1 716 0 discriminator 2
 3010 0e34 03F10800 		add	r0, r3, #8
 3011 0e38 1EF80000 		ldrb	r0, [lr, r0]	@ zero_extendqisi2
 3012 0e3c 02F83C0C 		strb	r0, [r2, #-60]
 714:.\Protocolo.c **** 						for(z=1;z<=8;z++){
 3013              		.loc 1 714 0 discriminator 2
 3014 0e40 0133     		adds	r3, r3, #1
 3015 0e42 0B60     		str	r3, [r1]
 3016              	.L214:
 714:.\Protocolo.c **** 						for(z=1;z<=8;z++){
 3017              		.loc 1 714 0 is_stmt 0 discriminator 1
 3018 0e44 0B68     		ldr	r3, [r1]
 3019 0e46 082B     		cmp	r3, #8
 3020 0e48 ECD9     		bls	.L215
 717:.\Protocolo.c **** 						}
 718:.\Protocolo.c **** 						minuendo[0]=8;
 3021              		.loc 1 718 0 is_stmt 1
 3022 0e4a 10A9     		add	r1, sp, #64
 3023 0e4c 0823     		movs	r3, #8
 3024 0e4e 01F82C3D 		strb	r3, [r1, #-44]!
 719:.\Protocolo.c **** 						operacion(2,minuendo,sustraendo);
 3025              		.loc 1 719 0
 3026 0e52 0220     		movs	r0, #2
 3027 0e54 01AA     		add	r2, sp, #4
 3028 0e56 FFF7FEFF 		bl	operacion
 3029              	.LVL254:
 720:.\Protocolo.c **** 						for(x=0;x<=17;x++){									
 3030              		.loc 1 720 0
 3031 0e5a 0023     		movs	r3, #0
 3032 0e5c 2B60     		str	r3, [r5]
 721:.\Protocolo.c **** 							write_psoc1(val,msn_tventas[x]);				//Total de ventas
ARM GAS  C:\Users\RECEPC~1\AppData\Local\Temp\ccNG63cQ.s 			page 71


 3033              		.loc 1 721 0
 3034 0e5e DFF82081 		ldr	r8, .L548+40
 720:.\Protocolo.c **** 						for(x=0;x<=17;x++){									
 3035              		.loc 1 720 0
 3036 0e62 08E0     		b	.L216
 3037              	.L217:
 3038              		.loc 1 721 0 discriminator 2
 3039 0e64 4344     		add	r3, r3, r8
 3040 0e66 2046     		mov	r0, r4
 3041 0e68 93F83810 		ldrb	r1, [r3, #56]	@ zero_extendqisi2
 3042 0e6c FFF7FEFF 		bl	write_psoc1
 3043              	.LVL255:
 720:.\Protocolo.c **** 						for(x=0;x<=17;x++){									
 3044              		.loc 1 720 0 discriminator 2
 3045 0e70 2B68     		ldr	r3, [r5]
 3046 0e72 0133     		adds	r3, r3, #1
 3047 0e74 2B60     		str	r3, [r5]
 3048              	.L216:
 720:.\Protocolo.c **** 						for(x=0;x<=17;x++){									
 3049              		.loc 1 720 0 is_stmt 0 discriminator 1
 3050 0e76 2B68     		ldr	r3, [r5]
 3051 0e78 112B     		cmp	r3, #17
 3052 0e7a F3D9     		bls	.L217
 722:.\Protocolo.c **** 						}
 723:.\Protocolo.c **** 						print_valor(resultado,val);							
 3053              		.loc 1 723 0 is_stmt 1
 3054 0e7c 3848     		ldr	r0, .L548+8
 3055 0e7e 2146     		mov	r1, r4
 3056 0e80 FFF7FEFF 		bl	print_valor
 3057              	.LVL256:
 724:.\Protocolo.c **** 						if(dir==lado.a.dir){
 3058              		.loc 1 724 0
 3059 0e84 344B     		ldr	r3, .L548
 3060 0e86 1B78     		ldrb	r3, [r3]	@ zero_extendqisi2
 3061 0e88 B342     		cmp	r3, r6
 3062 0e8a 0AD1     		bne	.L218
 725:.\Protocolo.c **** 						    write_eeprom(1096,corte);
 3063              		.loc 1 725 0
 3064 0e8c 4FF48960 		mov	r0, #1096
 3065 0e90 09A9     		add	r1, sp, #36
 3066 0e92 FFF7FEFF 		bl	write_eeprom
 3067              	.LVL257:
 726:.\Protocolo.c **** 						    write_eeprom(1038,resultado);
 3068              		.loc 1 726 0
 3069 0e96 40F20E40 		movw	r0, #1038
 3070 0e9a 3149     		ldr	r1, .L548+8
 3071 0e9c FFF7FEFF 		bl	write_eeprom
 3072              	.LVL258:
 3073 0ea0 09E0     		b	.L205
 3074              	.L218:
 727:.\Protocolo.c **** 					    }
 728:.\Protocolo.c **** 					    else{
 729:.\Protocolo.c **** 						    write_eeprom(1054,corte);
 3075              		.loc 1 729 0
 3076 0ea2 40F21E40 		movw	r0, #1054
 3077 0ea6 09A9     		add	r1, sp, #36
 3078 0ea8 FFF7FEFF 		bl	write_eeprom
ARM GAS  C:\Users\RECEPC~1\AppData\Local\Temp\ccNG63cQ.s 			page 72


 3079              	.LVL259:
 730:.\Protocolo.c **** 						    write_eeprom(1081,resultado);
 3080              		.loc 1 730 0
 3081 0eac 40F23940 		movw	r0, #1081
 3082 0eb0 2B49     		ldr	r1, .L548+8
 3083 0eb2 FFF7FEFF 		bl	write_eeprom
 3084              	.LVL260:
 3085              	.L205:
 556:.\Protocolo.c **** 				for(y=0;y<=30;y+=30){
 3086              		.loc 1 556 0
 3087 0eb6 3B68     		ldr	r3, [r7]
 3088 0eb8 1E33     		adds	r3, r3, #30
 3089 0eba 3B60     		str	r3, [r7]
 3090              	.L146:
 556:.\Protocolo.c **** 				for(y=0;y<=30;y+=30){
 3091              		.loc 1 556 0 is_stmt 0 discriminator 1
 3092 0ebc 3A68     		ldr	r2, [r7]
 3093 0ebe 1E2A     		cmp	r2, #30
 3094 0ec0 7FF679AC 		bls	.L219
 731:.\Protocolo.c **** 						}					
 732:.\Protocolo.c **** 					}
 733:.\Protocolo.c **** 				}
 734:.\Protocolo.c **** 				Surtidor_ClearRxBuffer();
 3095              		.loc 1 734 0 is_stmt 1
 3096 0ec4 FFF7FEFF 		bl	Surtidor_ClearRxBuffer
 3097              	.LVL261:
 735:.\Protocolo.c **** 				return 2;					
 3098              		.loc 1 735 0
 3099 0ec8 0220     		movs	r0, #2
 3100 0eca 01F0FBBE 		b	.L73
 3101              	.L70:
 736:.\Protocolo.c **** 			}			
 737:.\Protocolo.c **** 			else{
 738:.\Protocolo.c **** 				return 0;
 739:.\Protocolo.c **** 			}
 740:.\Protocolo.c **** 		break;
 741:.\Protocolo.c **** 		
 742:.\Protocolo.c **** 		case 94:
 743:.\Protocolo.c **** 			if((Surtidor_rxBuffer[0]==0xFF)&&(Surtidor_rxBuffer[1]==0xF6)&&(Surtidor_rxBuffer[93]==0xF0)&&(S
 3102              		.loc 1 743 0
 3103 0ece 284B     		ldr	r3, .L548+24
 3104 0ed0 1B78     		ldrb	r3, [r3]	@ zero_extendqisi2
 3105 0ed2 DBB2     		uxtb	r3, r3
 3106 0ed4 FF2B     		cmp	r3, #255
 3107 0ed6 41F0D686 		bne	.L524
 3108              		.loc 1 743 0 is_stmt 0 discriminator 1
 3109 0eda 254B     		ldr	r3, .L548+24
 3110 0edc 5B78     		ldrb	r3, [r3, #1]	@ zero_extendqisi2
 3111 0ede DBB2     		uxtb	r3, r3
 3112 0ee0 F62B     		cmp	r3, #246
 3113 0ee2 41F0D286 		bne	.L525
 3114 0ee6 224B     		ldr	r3, .L548+24
 3115 0ee8 93F85D30 		ldrb	r3, [r3, #93]	@ zero_extendqisi2
 3116 0eec DBB2     		uxtb	r3, r3
 3117 0eee F02B     		cmp	r3, #240
 3118 0ef0 41F0CD86 		bne	.L526
 3119 0ef4 1E4B     		ldr	r3, .L548+24
ARM GAS  C:\Users\RECEPC~1\AppData\Local\Temp\ccNG63cQ.s 			page 73


 3120 0ef6 DB78     		ldrb	r3, [r3, #3]	@ zero_extendqisi2
 3121 0ef8 DBB2     		uxtb	r3, r3
 3122 0efa F92B     		cmp	r3, #249
 3123 0efc 41F0C986 		bne	.L527
 744:.\Protocolo.c **** 				for(y=0;y<=60;y+=30){
 3124              		.loc 1 744 0 is_stmt 1
 3125 0f00 0022     		movs	r2, #0
 3126 0f02 1C4B     		ldr	r3, .L548+28
 3127 0f04 1A60     		str	r2, [r3]
 3128 0f06 1F46     		mov	r7, r3
 745:.\Protocolo.c **** 					rventa.manguera=(Surtidor_rxBuffer[y+2]&0x0F)+1;
 746:.\Protocolo.c **** 					for(x=0;x<=7;x++){
 3129              		.loc 1 746 0
 3130 0f08 1B4D     		ldr	r5, .L548+32
 744:.\Protocolo.c **** 				for(y=0;y<=60;y+=30){
 3131              		.loc 1 744 0
 3132 0f0a 95E3     		b	.L220
 3133              	.L293:
 745:.\Protocolo.c **** 					rventa.manguera=(Surtidor_rxBuffer[y+2]&0x0F)+1;
 3134              		.loc 1 745 0
 3135 0f0c 931C     		adds	r3, r2, #2
 3136 0f0e 1849     		ldr	r1, .L548+24
 3137 0f10 C85C     		ldrb	r0, [r1, r3]	@ zero_extendqisi2
 3138 0f12 00F00F00 		and	r0, r0, #15
 3139 0f16 0130     		adds	r0, r0, #1
 3140 0f18 124B     		ldr	r3, .L548+12
 3141 0f1a 83F8E000 		strb	r0, [r3, #224]
 3142              		.loc 1 746 0
 3143 0f1e 0023     		movs	r3, #0
 3144 0f20 2B60     		str	r3, [r5]
 747:.\Protocolo.c **** 						rventa.tvolumen[x]=(Surtidor_rxBuffer[y+4+x]&0x0F);						
 3145              		.loc 1 747 0
 3146 0f22 8846     		mov	r8, r1
 3147 0f24 DFF83CC0 		ldr	ip, .L548+12
 746:.\Protocolo.c **** 					for(x=0;x<=7;x++){
 3148              		.loc 1 746 0
 3149 0f28 0BE0     		b	.L221
 3150              	.L222:
 3151              		.loc 1 747 0 discriminator 2
 3152 0f2a D118     		adds	r1, r2, r3
 3153 0f2c 0431     		adds	r1, r1, #4
 3154 0f2e 18F801E0 		ldrb	lr, [r8, r1]	@ zero_extendqisi2
 3155 0f32 0CEB0301 		add	r1, ip, r3
 3156 0f36 0EF00F0E 		and	lr, lr, #15
 3157 0f3a 81F8BDE0 		strb	lr, [r1, #189]
 746:.\Protocolo.c **** 					for(x=0;x<=7;x++){
 3158              		.loc 1 746 0 discriminator 2
 3159 0f3e 0133     		adds	r3, r3, #1
 3160 0f40 2B60     		str	r3, [r5]
 3161              	.L221:
 746:.\Protocolo.c **** 					for(x=0;x<=7;x++){
 3162              		.loc 1 746 0 is_stmt 0 discriminator 1
 3163 0f42 2B68     		ldr	r3, [r5]
 3164 0f44 072B     		cmp	r3, #7
 3165 0f46 F0D9     		bls	.L222
 748:.\Protocolo.c **** 					}
 749:.\Protocolo.c **** 					for(x=0;x<=7;x++){
ARM GAS  C:\Users\RECEPC~1\AppData\Local\Temp\ccNG63cQ.s 			page 74


 3166              		.loc 1 749 0 is_stmt 1
 3167 0f48 0023     		movs	r3, #0
 3168 0f4a 2B60     		str	r3, [r5]
 750:.\Protocolo.c **** 						rventa.tdinero[x]=(Surtidor_rxBuffer[y+13+x]&0x0F);					
 3169              		.loc 1 750 0
 3170 0f4c DFF82080 		ldr	r8, .L548+24
 3171 0f50 DFF810C0 		ldr	ip, .L548+12
 749:.\Protocolo.c **** 					for(x=0;x<=7;x++){
 3172              		.loc 1 749 0
 3173 0f54 22E0     		b	.L223
 3174              	.L549:
 3175 0f56 00BF     		.align	2
 3176              	.L548:
 3177 0f58 00000000 		.word	lado
 3178 0f5c 00000000 		.word	z
 3179 0f60 00000000 		.word	resultado
 3180 0f64 00000000 		.word	rventa
 3181 0f68 00000000 		.word	kero
 3182 0f6c 00000000 		.word	kero2
 3183 0f70 00000000 		.word	Surtidor_rxBuffer
 3184 0f74 00000000 		.word	y
 3185 0f78 00000000 		.word	x
 3186 0f7c 00000000 		.word	buffer_i2c
 3187 0f80 00000000 		.word	.LANCHOR1
 3188              	.L224:
 3189              		.loc 1 750 0 discriminator 2
 3190 0f84 D118     		adds	r1, r2, r3
 3191 0f86 0D31     		adds	r1, r1, #13
 3192 0f88 18F801E0 		ldrb	lr, [r8, r1]	@ zero_extendqisi2
 3193 0f8c 0CEB0301 		add	r1, ip, r3
 3194 0f90 0EF00F0E 		and	lr, lr, #15
 3195 0f94 81F8CAE0 		strb	lr, [r1, #202]
 749:.\Protocolo.c **** 					for(x=0;x<=7;x++){
 3196              		.loc 1 749 0 discriminator 2
 3197 0f98 0133     		adds	r3, r3, #1
 3198 0f9a 2B60     		str	r3, [r5]
 3199              	.L223:
 749:.\Protocolo.c **** 					for(x=0;x<=7;x++){
 3200              		.loc 1 749 0 is_stmt 0 discriminator 1
 3201 0f9c 2B68     		ldr	r3, [r5]
 3202 0f9e 072B     		cmp	r3, #7
 3203 0fa0 F0D9     		bls	.L224
 751:.\Protocolo.c **** 					}
 752:.\Protocolo.c **** 					for(z=0;z<=7;z++){
 3204              		.loc 1 752 0 is_stmt 1
 3205 0fa2 0022     		movs	r2, #0
 3206 0fa4 AB4B     		ldr	r3, .L550
 3207 0fa6 1A60     		str	r2, [r3]
 3208 0fa8 1946     		mov	r1, r3
 753:.\Protocolo.c **** 						corte[z+1]=rventa.tvolumen[z];
 3209              		.loc 1 753 0
 3210 0faa DFF8BCC2 		ldr	ip, .L550+20
 752:.\Protocolo.c **** 					for(z=0;z<=7;z++){
 3211              		.loc 1 752 0
 3212 0fae 08E0     		b	.L225
 3213              	.L226:
 3214              		.loc 1 753 0 discriminator 2
ARM GAS  C:\Users\RECEPC~1\AppData\Local\Temp\ccNG63cQ.s 			page 75


 3215 0fb0 5A1C     		adds	r2, r3, #1
 3216 0fb2 6344     		add	r3, r3, ip
 3217 0fb4 93F8BDE0 		ldrb	lr, [r3, #189]	@ zero_extendqisi2
 3218 0fb8 10AB     		add	r3, sp, #64
 3219 0fba 1344     		add	r3, r3, r2
 3220 0fbc 03F81CEC 		strb	lr, [r3, #-28]
 752:.\Protocolo.c **** 					for(z=0;z<=7;z++){
 3221              		.loc 1 752 0 discriminator 2
 3222 0fc0 0A60     		str	r2, [r1]
 3223              	.L225:
 752:.\Protocolo.c **** 					for(z=0;z<=7;z++){
 3224              		.loc 1 752 0 is_stmt 0 discriminator 1
 3225 0fc2 0B68     		ldr	r3, [r1]
 3226 0fc4 072B     		cmp	r3, #7
 3227 0fc6 F3D9     		bls	.L226
 754:.\Protocolo.c **** 					}
 755:.\Protocolo.c **** 					for(z=9;z<=16;z++){
 3228              		.loc 1 755 0 is_stmt 1
 3229 0fc8 0922     		movs	r2, #9
 3230 0fca A24B     		ldr	r3, .L550
 3231 0fcc 1A60     		str	r2, [r3]
 3232 0fce 1A46     		mov	r2, r3
 756:.\Protocolo.c **** 						corte[z]=rventa.tdinero[z-9];
 3233              		.loc 1 756 0
 3234 0fd0 DFF894C2 		ldr	ip, .L550+20
 755:.\Protocolo.c **** 					for(z=9;z<=16;z++){
 3235              		.loc 1 755 0
 3236 0fd4 09E0     		b	.L227
 3237              	.L228:
 3238              		.loc 1 756 0 discriminator 2
 3239 0fd6 0CEB0301 		add	r1, ip, r3
 3240 0fda 91F8C1E0 		ldrb	lr, [r1, #193]	@ zero_extendqisi2
 3241 0fde 10A9     		add	r1, sp, #64
 3242 0fe0 1944     		add	r1, r1, r3
 3243 0fe2 01F81CEC 		strb	lr, [r1, #-28]
 755:.\Protocolo.c **** 					for(z=9;z<=16;z++){
 3244              		.loc 1 755 0 discriminator 2
 3245 0fe6 0133     		adds	r3, r3, #1
 3246 0fe8 1360     		str	r3, [r2]
 3247              	.L227:
 755:.\Protocolo.c **** 					for(z=9;z<=16;z++){
 3248              		.loc 1 755 0 is_stmt 0 discriminator 1
 3249 0fea 1368     		ldr	r3, [r2]
 3250 0fec 102B     		cmp	r3, #16
 3251 0fee F2D9     		bls	.L228
 757:.\Protocolo.c **** 					}
 758:.\Protocolo.c **** 					corte[0]=16;		
 3252              		.loc 1 758 0 is_stmt 1
 3253 0ff0 1023     		movs	r3, #16
 3254 0ff2 8DF82430 		strb	r3, [sp, #36]
 759:.\Protocolo.c **** 					if(((rventa.manguera==(corriente&0x0F))&&(dir==lado.a.dir))||((rventa.manguera==(corriente2&0x
 3255              		.loc 1 759 0
 3256 0ff6 984B     		ldr	r3, .L550+4
 3257 0ff8 1B78     		ldrb	r3, [r3]	@ zero_extendqisi2
 3258 0ffa 03F00F03 		and	r3, r3, #15
 3259 0ffe 8342     		cmp	r3, r0
 3260 1000 03D1     		bne	.L229
ARM GAS  C:\Users\RECEPC~1\AppData\Local\Temp\ccNG63cQ.s 			page 76


 3261              		.loc 1 759 0 is_stmt 0 discriminator 1
 3262 1002 964B     		ldr	r3, .L550+8
 3263 1004 1B78     		ldrb	r3, [r3]	@ zero_extendqisi2
 3264 1006 B342     		cmp	r3, r6
 3265 1008 0BD0     		beq	.L230
 3266              	.L229:
 3267              		.loc 1 759 0 discriminator 2
 3268 100a 954B     		ldr	r3, .L550+12
 3269 100c 1B78     		ldrb	r3, [r3]	@ zero_extendqisi2
 3270 100e 03F00F03 		and	r3, r3, #15
 3271 1012 9842     		cmp	r0, r3
 3272 1014 40F0A880 		bne	.L231
 3273              		.loc 1 759 0 discriminator 1
 3274 1018 904B     		ldr	r3, .L550+8
 3275 101a 1B79     		ldrb	r3, [r3, #4]	@ zero_extendqisi2
 3276 101c B342     		cmp	r3, r6
 3277 101e 40F0A380 		bne	.L231
 3278              	.L230:
 760:.\Protocolo.c **** 						for(x=0;x<=16;x++){									
 3279              		.loc 1 760 0 is_stmt 1
 3280 1022 0023     		movs	r3, #0
 3281 1024 2B60     		str	r3, [r5]
 761:.\Protocolo.c **** 							write_psoc1(val,msn_tc[x]);
 3282              		.loc 1 761 0
 3283 1026 DFF84C82 		ldr	r8, .L550+32
 760:.\Protocolo.c **** 						for(x=0;x<=16;x++){									
 3284              		.loc 1 760 0
 3285 102a 07E0     		b	.L232
 3286              	.L233:
 3287              		.loc 1 761 0 discriminator 2
 3288 102c 2046     		mov	r0, r4
 3289 102e 18F80310 		ldrb	r1, [r8, r3]	@ zero_extendqisi2
 3290 1032 FFF7FEFF 		bl	write_psoc1
 3291              	.LVL262:
 760:.\Protocolo.c **** 						for(x=0;x<=16;x++){									
 3292              		.loc 1 760 0 discriminator 2
 3293 1036 2B68     		ldr	r3, [r5]
 3294 1038 0133     		adds	r3, r3, #1
 3295 103a 2B60     		str	r3, [r5]
 3296              	.L232:
 760:.\Protocolo.c **** 						for(x=0;x<=16;x++){									
 3297              		.loc 1 760 0 is_stmt 0 discriminator 1
 3298 103c 2B68     		ldr	r3, [r5]
 3299 103e 102B     		cmp	r3, #16
 3300 1040 F4D9     		bls	.L233
 762:.\Protocolo.c **** 						}
 763:.\Protocolo.c **** 						write_psoc1(val,10);
 3301              		.loc 1 763 0 is_stmt 1
 3302 1042 2046     		mov	r0, r4
 3303 1044 0A21     		movs	r1, #10
 3304 1046 FFF7FEFF 		bl	write_psoc1
 3305              	.LVL263:
 764:.\Protocolo.c **** 						for(x=0;x<=14;x++){									
 3306              		.loc 1 764 0
 3307 104a 0023     		movs	r3, #0
 3308 104c 2B60     		str	r3, [r5]
 765:.\Protocolo.c **** 							write_psoc1(val,msn_lecact[x]);				//LECTURA ACTUAL
ARM GAS  C:\Users\RECEPC~1\AppData\Local\Temp\ccNG63cQ.s 			page 77


 3309              		.loc 1 765 0
 3310 104e DFF82482 		ldr	r8, .L550+32
 764:.\Protocolo.c **** 						for(x=0;x<=14;x++){									
 3311              		.loc 1 764 0
 3312 1052 07E0     		b	.L234
 3313              	.L235:
 3314              		.loc 1 765 0 discriminator 2
 3315 1054 4344     		add	r3, r3, r8
 3316 1056 2046     		mov	r0, r4
 3317 1058 197D     		ldrb	r1, [r3, #20]	@ zero_extendqisi2
 3318 105a FFF7FEFF 		bl	write_psoc1
 3319              	.LVL264:
 764:.\Protocolo.c **** 						for(x=0;x<=14;x++){									
 3320              		.loc 1 764 0 discriminator 2
 3321 105e 2B68     		ldr	r3, [r5]
 3322 1060 0133     		adds	r3, r3, #1
 3323 1062 2B60     		str	r3, [r5]
 3324              	.L234:
 764:.\Protocolo.c **** 						for(x=0;x<=14;x++){									
 3325              		.loc 1 764 0 is_stmt 0 discriminator 1
 3326 1064 2B68     		ldr	r3, [r5]
 3327 1066 0E2B     		cmp	r3, #14
 3328 1068 F4D9     		bls	.L235
 766:.\Protocolo.c **** 						}
 767:.\Protocolo.c **** 						write_psoc1(val,10);
 3329              		.loc 1 767 0 is_stmt 1
 3330 106a 2046     		mov	r0, r4
 3331 106c 0A21     		movs	r1, #10
 3332 106e FFF7FEFF 		bl	write_psoc1
 3333              	.LVL265:
 768:.\Protocolo.c **** 						print_totalesac(8,val);	
 3334              		.loc 1 768 0
 3335 1072 0820     		movs	r0, #8
 3336 1074 2146     		mov	r1, r4
 3337 1076 FFF7FEFF 		bl	print_totalesac
 3338              	.LVL266:
 769:.\Protocolo.c **** 						for(x=0;x<=16;x++){												
 3339              		.loc 1 769 0
 3340 107a 0023     		movs	r3, #0
 3341 107c 2B60     		str	r3, [r5]
 770:.\Protocolo.c **** 							write_psoc1(val,msn_lecaan[x]);				//LECTURA ANTERIOR
 3342              		.loc 1 770 0
 3343 107e DFF8F481 		ldr	r8, .L550+32
 769:.\Protocolo.c **** 						for(x=0;x<=16;x++){												
 3344              		.loc 1 769 0
 3345 1082 08E0     		b	.L236
 3346              	.L237:
 3347              		.loc 1 770 0 discriminator 2
 3348 1084 4344     		add	r3, r3, r8
 3349 1086 2046     		mov	r0, r4
 3350 1088 93F82410 		ldrb	r1, [r3, #36]	@ zero_extendqisi2
 3351 108c FFF7FEFF 		bl	write_psoc1
 3352              	.LVL267:
 769:.\Protocolo.c **** 						for(x=0;x<=16;x++){												
 3353              		.loc 1 769 0 discriminator 2
 3354 1090 2B68     		ldr	r3, [r5]
 3355 1092 0133     		adds	r3, r3, #1
ARM GAS  C:\Users\RECEPC~1\AppData\Local\Temp\ccNG63cQ.s 			page 78


 3356 1094 2B60     		str	r3, [r5]
 3357              	.L236:
 769:.\Protocolo.c **** 						for(x=0;x<=16;x++){												
 3358              		.loc 1 769 0 is_stmt 0 discriminator 1
 3359 1096 2B68     		ldr	r3, [r5]
 3360 1098 102B     		cmp	r3, #16
 3361 109a F3D9     		bls	.L237
 771:.\Protocolo.c **** 						}
 772:.\Protocolo.c **** 						write_psoc1(val,10);
 3362              		.loc 1 772 0 is_stmt 1
 3363 109c 2046     		mov	r0, r4
 3364 109e 0A21     		movs	r1, #10
 3365 10a0 FFF7FEFF 		bl	write_psoc1
 3366              	.LVL268:
 773:.\Protocolo.c **** 						if(dir==lado.a.dir){
 3367              		.loc 1 773 0
 3368 10a4 6D4B     		ldr	r3, .L550+8
 3369 10a6 1B78     		ldrb	r3, [r3]	@ zero_extendqisi2
 3370 10a8 B342     		cmp	r3, r6
 3371 10aa 04D1     		bne	.L238
 774:.\Protocolo.c **** 							leer_eeprom(192,25);
 3372              		.loc 1 774 0
 3373 10ac C020     		movs	r0, #192
 3374 10ae 1921     		movs	r1, #25
 3375 10b0 FFF7FEFF 		bl	leer_eeprom
 3376              	.LVL269:
 3377 10b4 04E0     		b	.L239
 3378              	.L238:
 775:.\Protocolo.c **** 						}
 776:.\Protocolo.c **** 						else{
 777:.\Protocolo.c **** 							leer_eeprom(281,25);
 3379              		.loc 1 777 0
 3380 10b6 40F21910 		movw	r0, #281
 3381 10ba 1921     		movs	r1, #25
 3382 10bc FFF7FEFF 		bl	leer_eeprom
 3383              	.LVL270:
 3384              	.L239:
 778:.\Protocolo.c **** 						}
 779:.\Protocolo.c **** 						print_totales(val);
 3385              		.loc 1 779 0
 3386 10c0 2046     		mov	r0, r4
 3387 10c2 FFF7FEFF 		bl	print_totales
 3388              	.LVL271:
 780:.\Protocolo.c **** 						for(z=1;z<=8;z++){
 3389              		.loc 1 780 0
 3390 10c6 0122     		movs	r2, #1
 3391 10c8 624B     		ldr	r3, .L550
 3392 10ca 1A60     		str	r2, [r3]
 3393 10cc 1946     		mov	r1, r3
 781:.\Protocolo.c **** 							minuendo[z]=rventa.tdinero[z-1];
 3394              		.loc 1 781 0
 3395 10ce DFF898C1 		ldr	ip, .L550+20
 782:.\Protocolo.c **** 							sustraendo[z]=buffer_i2c[z+8];
 3396              		.loc 1 782 0
 3397 10d2 DFF8A4E1 		ldr	lr, .L550+36
 780:.\Protocolo.c **** 						for(z=1;z<=8;z++){
 3398              		.loc 1 780 0
ARM GAS  C:\Users\RECEPC~1\AppData\Local\Temp\ccNG63cQ.s 			page 79


 3399 10d6 0FE0     		b	.L240
 3400              	.L241:
 781:.\Protocolo.c **** 							minuendo[z]=rventa.tdinero[z-1];
 3401              		.loc 1 781 0 discriminator 2
 3402 10d8 0CEB0302 		add	r2, ip, r3
 3403 10dc 92F8C900 		ldrb	r0, [r2, #201]	@ zero_extendqisi2
 3404 10e0 10AA     		add	r2, sp, #64
 3405 10e2 1A44     		add	r2, r2, r3
 3406 10e4 02F82C0C 		strb	r0, [r2, #-44]
 3407              		.loc 1 782 0 discriminator 2
 3408 10e8 03F10800 		add	r0, r3, #8
 3409 10ec 1EF80000 		ldrb	r0, [lr, r0]	@ zero_extendqisi2
 3410 10f0 02F83C0C 		strb	r0, [r2, #-60]
 780:.\Protocolo.c **** 						for(z=1;z<=8;z++){
 3411              		.loc 1 780 0 discriminator 2
 3412 10f4 0133     		adds	r3, r3, #1
 3413 10f6 0B60     		str	r3, [r1]
 3414              	.L240:
 780:.\Protocolo.c **** 						for(z=1;z<=8;z++){
 3415              		.loc 1 780 0 is_stmt 0 discriminator 1
 3416 10f8 0B68     		ldr	r3, [r1]
 3417 10fa 082B     		cmp	r3, #8
 3418 10fc ECD9     		bls	.L241
 783:.\Protocolo.c **** 						}
 784:.\Protocolo.c **** 						minuendo[0]=8;
 3419              		.loc 1 784 0 is_stmt 1
 3420 10fe 10A9     		add	r1, sp, #64
 3421 1100 0823     		movs	r3, #8
 3422 1102 01F82C3D 		strb	r3, [r1, #-44]!
 785:.\Protocolo.c **** 						operacion(2,minuendo,sustraendo);
 3423              		.loc 1 785 0
 3424 1106 0220     		movs	r0, #2
 3425 1108 01AA     		add	r2, sp, #4
 3426 110a FFF7FEFF 		bl	operacion
 3427              	.LVL272:
 786:.\Protocolo.c **** 						for(x=0;x<=17;x++){									
 3428              		.loc 1 786 0
 3429 110e 0023     		movs	r3, #0
 3430 1110 2B60     		str	r3, [r5]
 787:.\Protocolo.c **** 							write_psoc1(val,msn_tventas[x]);				//Total de ventas
 3431              		.loc 1 787 0
 3432 1112 DFF86081 		ldr	r8, .L550+32
 786:.\Protocolo.c **** 						for(x=0;x<=17;x++){									
 3433              		.loc 1 786 0
 3434 1116 08E0     		b	.L242
 3435              	.L243:
 3436              		.loc 1 787 0 discriminator 2
 3437 1118 4344     		add	r3, r3, r8
 3438 111a 2046     		mov	r0, r4
 3439 111c 93F83810 		ldrb	r1, [r3, #56]	@ zero_extendqisi2
 3440 1120 FFF7FEFF 		bl	write_psoc1
 3441              	.LVL273:
 786:.\Protocolo.c **** 						for(x=0;x<=17;x++){									
 3442              		.loc 1 786 0 discriminator 2
 3443 1124 2B68     		ldr	r3, [r5]
 3444 1126 0133     		adds	r3, r3, #1
 3445 1128 2B60     		str	r3, [r5]
ARM GAS  C:\Users\RECEPC~1\AppData\Local\Temp\ccNG63cQ.s 			page 80


 3446              	.L242:
 786:.\Protocolo.c **** 						for(x=0;x<=17;x++){									
 3447              		.loc 1 786 0 is_stmt 0 discriminator 1
 3448 112a 2B68     		ldr	r3, [r5]
 3449 112c 112B     		cmp	r3, #17
 3450 112e F3D9     		bls	.L243
 788:.\Protocolo.c **** 						}
 789:.\Protocolo.c **** 						print_valor(resultado,val);
 3451              		.loc 1 789 0 is_stmt 1
 3452 1130 4C48     		ldr	r0, .L550+16
 3453 1132 2146     		mov	r1, r4
 3454 1134 FFF7FEFF 		bl	print_valor
 3455              	.LVL274:
 790:.\Protocolo.c **** 						if(dir==lado.a.dir){
 3456              		.loc 1 790 0
 3457 1138 484B     		ldr	r3, .L550+8
 3458 113a 1B78     		ldrb	r3, [r3]	@ zero_extendqisi2
 3459 113c B342     		cmp	r3, r6
 3460 113e 09D1     		bne	.L244
 791:.\Protocolo.c **** 							write_eeprom(192,corte);	
 3461              		.loc 1 791 0
 3462 1140 C020     		movs	r0, #192
 3463 1142 09A9     		add	r1, sp, #36
 3464 1144 FFF7FEFF 		bl	write_eeprom
 3465              	.LVL275:
 792:.\Protocolo.c **** 							write_eeprom(512,resultado);
 3466              		.loc 1 792 0
 3467 1148 4FF40070 		mov	r0, #512
 3468 114c 4549     		ldr	r1, .L550+16
 3469 114e FFF7FEFF 		bl	write_eeprom
 3470              	.LVL276:
 3471 1152 09E0     		b	.L231
 3472              	.L244:
 793:.\Protocolo.c **** 						}
 794:.\Protocolo.c **** 						else{
 795:.\Protocolo.c **** 							write_eeprom(281,corte);
 3473              		.loc 1 795 0
 3474 1154 40F21910 		movw	r0, #281
 3475 1158 09A9     		add	r1, sp, #36
 3476 115a FFF7FEFF 		bl	write_eeprom
 3477              	.LVL277:
 796:.\Protocolo.c **** 							write_eeprom(551,resultado);
 3478              		.loc 1 796 0
 3479 115e 40F22720 		movw	r0, #551
 3480 1162 4049     		ldr	r1, .L550+16
 3481 1164 FFF7FEFF 		bl	write_eeprom
 3482              	.LVL278:
 3483              	.L231:
 797:.\Protocolo.c **** 						}
 798:.\Protocolo.c **** 					}
 799:.\Protocolo.c **** 					if(((rventa.manguera==(diesel&0x0F))&&(dir==lado.a.dir))||((rventa.manguera==(diesel2&0x0F))&&
 3484              		.loc 1 799 0
 3485 1168 3F4B     		ldr	r3, .L550+20
 3486 116a 93F8E030 		ldrb	r3, [r3, #224]	@ zero_extendqisi2
 3487 116e 3F4A     		ldr	r2, .L550+24
 3488 1170 1278     		ldrb	r2, [r2]	@ zero_extendqisi2
 3489 1172 02F00F02 		and	r2, r2, #15
ARM GAS  C:\Users\RECEPC~1\AppData\Local\Temp\ccNG63cQ.s 			page 81


 3490 1176 9A42     		cmp	r2, r3
 3491 1178 03D1     		bne	.L245
 3492              		.loc 1 799 0 is_stmt 0 discriminator 1
 3493 117a 384A     		ldr	r2, .L550+8
 3494 117c 1278     		ldrb	r2, [r2]	@ zero_extendqisi2
 3495 117e B242     		cmp	r2, r6
 3496 1180 0BD0     		beq	.L246
 3497              	.L245:
 3498              		.loc 1 799 0 discriminator 2
 3499 1182 3B4A     		ldr	r2, .L550+28
 3500 1184 1278     		ldrb	r2, [r2]	@ zero_extendqisi2
 3501 1186 02F00F02 		and	r2, r2, #15
 3502 118a 9342     		cmp	r3, r2
 3503 118c 40F0BE80 		bne	.L247
 3504              		.loc 1 799 0 discriminator 1
 3505 1190 324B     		ldr	r3, .L550+8
 3506 1192 1B79     		ldrb	r3, [r3, #4]	@ zero_extendqisi2
 3507 1194 B342     		cmp	r3, r6
 3508 1196 40F0B980 		bne	.L247
 3509              	.L246:
 800:.\Protocolo.c **** 						for(x=0;x<=13;x++){									
 3510              		.loc 1 800 0 is_stmt 1
 3511 119a 0023     		movs	r3, #0
 3512 119c 2B60     		str	r3, [r5]
 801:.\Protocolo.c **** 							write_psoc1(val,msn_td[x]);
 3513              		.loc 1 801 0
 3514 119e DFF8D480 		ldr	r8, .L550+32
 800:.\Protocolo.c **** 						for(x=0;x<=13;x++){									
 3515              		.loc 1 800 0
 3516 11a2 08E0     		b	.L248
 3517              	.L249:
 3518              		.loc 1 801 0 discriminator 2
 3519 11a4 4344     		add	r3, r3, r8
 3520 11a6 2046     		mov	r0, r4
 3521 11a8 93F84C10 		ldrb	r1, [r3, #76]	@ zero_extendqisi2
 3522 11ac FFF7FEFF 		bl	write_psoc1
 3523              	.LVL279:
 800:.\Protocolo.c **** 						for(x=0;x<=13;x++){									
 3524              		.loc 1 800 0 discriminator 2
 3525 11b0 2B68     		ldr	r3, [r5]
 3526 11b2 0133     		adds	r3, r3, #1
 3527 11b4 2B60     		str	r3, [r5]
 3528              	.L248:
 800:.\Protocolo.c **** 						for(x=0;x<=13;x++){									
 3529              		.loc 1 800 0 is_stmt 0 discriminator 1
 3530 11b6 2B68     		ldr	r3, [r5]
 3531 11b8 0D2B     		cmp	r3, #13
 3532 11ba F3D9     		bls	.L249
 802:.\Protocolo.c **** 						}
 803:.\Protocolo.c **** 						write_psoc1(val,10);
 3533              		.loc 1 803 0 is_stmt 1
 3534 11bc 2046     		mov	r0, r4
 3535 11be 0A21     		movs	r1, #10
 3536 11c0 FFF7FEFF 		bl	write_psoc1
 3537              	.LVL280:
 804:.\Protocolo.c **** 						for(x=0;x<=14;x++){									
 3538              		.loc 1 804 0
ARM GAS  C:\Users\RECEPC~1\AppData\Local\Temp\ccNG63cQ.s 			page 82


 3539 11c4 0023     		movs	r3, #0
 3540 11c6 2B60     		str	r3, [r5]
 805:.\Protocolo.c **** 							write_psoc1(val,msn_lecact[x]);				//LECTURA ACTUAL
 3541              		.loc 1 805 0
 3542 11c8 DFF8A880 		ldr	r8, .L550+32
 804:.\Protocolo.c **** 						for(x=0;x<=14;x++){									
 3543              		.loc 1 804 0
 3544 11cc 07E0     		b	.L250
 3545              	.L251:
 3546              		.loc 1 805 0 discriminator 2
 3547 11ce 4344     		add	r3, r3, r8
 3548 11d0 2046     		mov	r0, r4
 3549 11d2 197D     		ldrb	r1, [r3, #20]	@ zero_extendqisi2
 3550 11d4 FFF7FEFF 		bl	write_psoc1
 3551              	.LVL281:
 804:.\Protocolo.c **** 						for(x=0;x<=14;x++){									
 3552              		.loc 1 804 0 discriminator 2
 3553 11d8 2B68     		ldr	r3, [r5]
 3554 11da 0133     		adds	r3, r3, #1
 3555 11dc 2B60     		str	r3, [r5]
 3556              	.L250:
 804:.\Protocolo.c **** 						for(x=0;x<=14;x++){									
 3557              		.loc 1 804 0 is_stmt 0 discriminator 1
 3558 11de 2B68     		ldr	r3, [r5]
 3559 11e0 0E2B     		cmp	r3, #14
 3560 11e2 F4D9     		bls	.L251
 806:.\Protocolo.c **** 						}
 807:.\Protocolo.c **** 						write_psoc1(val,10);
 3561              		.loc 1 807 0 is_stmt 1
 3562 11e4 2046     		mov	r0, r4
 3563 11e6 0A21     		movs	r1, #10
 3564 11e8 FFF7FEFF 		bl	write_psoc1
 3565              	.LVL282:
 808:.\Protocolo.c **** 						print_totalesac(8,val);	
 3566              		.loc 1 808 0
 3567 11ec 0820     		movs	r0, #8
 3568 11ee 2146     		mov	r1, r4
 3569 11f0 FFF7FEFF 		bl	print_totalesac
 3570              	.LVL283:
 809:.\Protocolo.c **** 						for(x=0;x<=16;x++){												
 3571              		.loc 1 809 0
 3572 11f4 0023     		movs	r3, #0
 3573 11f6 2B60     		str	r3, [r5]
 810:.\Protocolo.c **** 							write_psoc1(val,msn_lecaan[x]);				//LECTURA ANTERIOR
 3574              		.loc 1 810 0
 3575 11f8 DFF87880 		ldr	r8, .L550+32
 809:.\Protocolo.c **** 						for(x=0;x<=16;x++){												
 3576              		.loc 1 809 0
 3577 11fc 08E0     		b	.L252
 3578              	.L253:
 3579              		.loc 1 810 0 discriminator 2
 3580 11fe 4344     		add	r3, r3, r8
 3581 1200 2046     		mov	r0, r4
 3582 1202 93F82410 		ldrb	r1, [r3, #36]	@ zero_extendqisi2
 3583 1206 FFF7FEFF 		bl	write_psoc1
 3584              	.LVL284:
 809:.\Protocolo.c **** 						for(x=0;x<=16;x++){												
ARM GAS  C:\Users\RECEPC~1\AppData\Local\Temp\ccNG63cQ.s 			page 83


 3585              		.loc 1 809 0 discriminator 2
 3586 120a 2B68     		ldr	r3, [r5]
 3587 120c 0133     		adds	r3, r3, #1
 3588 120e 2B60     		str	r3, [r5]
 3589              	.L252:
 809:.\Protocolo.c **** 						for(x=0;x<=16;x++){												
 3590              		.loc 1 809 0 is_stmt 0 discriminator 1
 3591 1210 2B68     		ldr	r3, [r5]
 3592 1212 102B     		cmp	r3, #16
 3593 1214 F3D9     		bls	.L253
 811:.\Protocolo.c **** 						}
 812:.\Protocolo.c **** 						write_psoc1(val,10);
 3594              		.loc 1 812 0 is_stmt 1
 3595 1216 2046     		mov	r0, r4
 3596 1218 0A21     		movs	r1, #10
 3597 121a FFF7FEFF 		bl	write_psoc1
 3598              	.LVL285:
 813:.\Protocolo.c **** 						if(dir==lado.a.dir){
 3599              		.loc 1 813 0
 3600 121e 0F4B     		ldr	r3, .L550+8
 3601 1220 1B78     		ldrb	r3, [r3]	@ zero_extendqisi2
 3602 1222 B342     		cmp	r3, r6
 3603 1224 04D1     		bne	.L254
 814:.\Protocolo.c **** 							leer_eeprom(217,25);
 3604              		.loc 1 814 0
 3605 1226 D920     		movs	r0, #217
 3606 1228 1921     		movs	r1, #25
 3607 122a FFF7FEFF 		bl	leer_eeprom
 3608              	.LVL286:
 3609 122e 04E0     		b	.L255
 3610              	.L254:
 815:.\Protocolo.c **** 						}
 816:.\Protocolo.c **** 						else{
 817:.\Protocolo.c **** 							leer_eeprom(320,25);
 3611              		.loc 1 817 0
 3612 1230 4FF4A070 		mov	r0, #320
 3613 1234 1921     		movs	r1, #25
 3614 1236 FFF7FEFF 		bl	leer_eeprom
 3615              	.LVL287:
 3616              	.L255:
 818:.\Protocolo.c **** 						}
 819:.\Protocolo.c **** 						print_totales(val);
 3617              		.loc 1 819 0
 3618 123a 2046     		mov	r0, r4
 3619 123c FFF7FEFF 		bl	print_totales
 3620              	.LVL288:
 820:.\Protocolo.c **** 						for(z=1;z<=8;z++){
 3621              		.loc 1 820 0
 3622 1240 0122     		movs	r2, #1
 3623 1242 044B     		ldr	r3, .L550
 3624 1244 1A60     		str	r2, [r3]
 3625 1246 1946     		mov	r1, r3
 821:.\Protocolo.c **** 							minuendo[z]=rventa.tdinero[z-1];
 3626              		.loc 1 821 0
 3627 1248 DFF81CC0 		ldr	ip, .L550+20
 822:.\Protocolo.c **** 							sustraendo[z]=buffer_i2c[z+8];
 3628              		.loc 1 822 0
ARM GAS  C:\Users\RECEPC~1\AppData\Local\Temp\ccNG63cQ.s 			page 84


 3629 124c DFF828E0 		ldr	lr, .L550+36
 820:.\Protocolo.c **** 						for(z=1;z<=8;z++){
 3630              		.loc 1 820 0
 3631 1250 24E0     		b	.L256
 3632              	.L551:
 3633 1252 00BF     		.align	2
 3634              	.L550:
 3635 1254 00000000 		.word	z
 3636 1258 00000000 		.word	corriente
 3637 125c 00000000 		.word	lado
 3638 1260 00000000 		.word	corriente2
 3639 1264 00000000 		.word	resultado
 3640 1268 00000000 		.word	rventa
 3641 126c 00000000 		.word	diesel
 3642 1270 00000000 		.word	diesel2
 3643 1274 00000000 		.word	.LANCHOR1
 3644 1278 00000000 		.word	buffer_i2c
 3645              	.L257:
 821:.\Protocolo.c **** 							minuendo[z]=rventa.tdinero[z-1];
 3646              		.loc 1 821 0 discriminator 2
 3647 127c 0CEB0302 		add	r2, ip, r3
 3648 1280 92F8C900 		ldrb	r0, [r2, #201]	@ zero_extendqisi2
 3649 1284 10AA     		add	r2, sp, #64
 3650 1286 1A44     		add	r2, r2, r3
 3651 1288 02F82C0C 		strb	r0, [r2, #-44]
 3652              		.loc 1 822 0 discriminator 2
 3653 128c 03F10800 		add	r0, r3, #8
 3654 1290 1EF80000 		ldrb	r0, [lr, r0]	@ zero_extendqisi2
 3655 1294 02F83C0C 		strb	r0, [r2, #-60]
 820:.\Protocolo.c **** 						for(z=1;z<=8;z++){
 3656              		.loc 1 820 0 discriminator 2
 3657 1298 0133     		adds	r3, r3, #1
 3658 129a 0B60     		str	r3, [r1]
 3659              	.L256:
 820:.\Protocolo.c **** 						for(z=1;z<=8;z++){
 3660              		.loc 1 820 0 is_stmt 0 discriminator 1
 3661 129c 0B68     		ldr	r3, [r1]
 3662 129e 082B     		cmp	r3, #8
 3663 12a0 ECD9     		bls	.L257
 823:.\Protocolo.c **** 						}
 824:.\Protocolo.c **** 						minuendo[0]=8;
 3664              		.loc 1 824 0 is_stmt 1
 3665 12a2 10A9     		add	r1, sp, #64
 3666 12a4 0823     		movs	r3, #8
 3667 12a6 01F82C3D 		strb	r3, [r1, #-44]!
 825:.\Protocolo.c **** 						operacion(2,minuendo,sustraendo);
 3668              		.loc 1 825 0
 3669 12aa 0220     		movs	r0, #2
 3670 12ac 01AA     		add	r2, sp, #4
 3671 12ae FFF7FEFF 		bl	operacion
 3672              	.LVL289:
 826:.\Protocolo.c **** 						for(x=0;x<=17;x++){									
 3673              		.loc 1 826 0
 3674 12b2 0023     		movs	r3, #0
 3675 12b4 2B60     		str	r3, [r5]
 827:.\Protocolo.c **** 							write_psoc1(val,msn_tventas[x]);				//Total de ventas
 3676              		.loc 1 827 0
ARM GAS  C:\Users\RECEPC~1\AppData\Local\Temp\ccNG63cQ.s 			page 85


 3677 12b6 DFF82083 		ldr	r8, .L552+32
 826:.\Protocolo.c **** 						for(x=0;x<=17;x++){									
 3678              		.loc 1 826 0
 3679 12ba 08E0     		b	.L258
 3680              	.L259:
 3681              		.loc 1 827 0 discriminator 2
 3682 12bc 4344     		add	r3, r3, r8
 3683 12be 2046     		mov	r0, r4
 3684 12c0 93F83810 		ldrb	r1, [r3, #56]	@ zero_extendqisi2
 3685 12c4 FFF7FEFF 		bl	write_psoc1
 3686              	.LVL290:
 826:.\Protocolo.c **** 						for(x=0;x<=17;x++){									
 3687              		.loc 1 826 0 discriminator 2
 3688 12c8 2B68     		ldr	r3, [r5]
 3689 12ca 0133     		adds	r3, r3, #1
 3690 12cc 2B60     		str	r3, [r5]
 3691              	.L258:
 826:.\Protocolo.c **** 						for(x=0;x<=17;x++){									
 3692              		.loc 1 826 0 is_stmt 0 discriminator 1
 3693 12ce 2B68     		ldr	r3, [r5]
 3694 12d0 112B     		cmp	r3, #17
 3695 12d2 F3D9     		bls	.L259
 828:.\Protocolo.c **** 						}
 829:.\Protocolo.c **** 						print_valor(resultado,val);				
 3696              		.loc 1 829 0 is_stmt 1
 3697 12d4 B848     		ldr	r0, .L552
 3698 12d6 2146     		mov	r1, r4
 3699 12d8 FFF7FEFF 		bl	print_valor
 3700              	.LVL291:
 830:.\Protocolo.c **** 						if(dir==lado.a.dir){
 3701              		.loc 1 830 0
 3702 12dc B74B     		ldr	r3, .L552+4
 3703 12de 1B78     		ldrb	r3, [r3]	@ zero_extendqisi2
 3704 12e0 B342     		cmp	r3, r6
 3705 12e2 09D1     		bne	.L260
 831:.\Protocolo.c **** 							write_eeprom(217,corte);
 3706              		.loc 1 831 0
 3707 12e4 D920     		movs	r0, #217
 3708 12e6 09A9     		add	r1, sp, #36
 3709 12e8 FFF7FEFF 		bl	write_eeprom
 3710              	.LVL292:
 832:.\Protocolo.c **** 							write_eeprom(538,resultado);
 3711              		.loc 1 832 0
 3712 12ec 40F21A20 		movw	r0, #538
 3713 12f0 B149     		ldr	r1, .L552
 3714 12f2 FFF7FEFF 		bl	write_eeprom
 3715              	.LVL293:
 3716 12f6 09E0     		b	.L247
 3717              	.L260:
 833:.\Protocolo.c **** 						}
 834:.\Protocolo.c **** 						else{
 835:.\Protocolo.c **** 							write_eeprom(320,corte);
 3718              		.loc 1 835 0
 3719 12f8 4FF4A070 		mov	r0, #320
 3720 12fc 09A9     		add	r1, sp, #36
 3721 12fe FFF7FEFF 		bl	write_eeprom
 3722              	.LVL294:
ARM GAS  C:\Users\RECEPC~1\AppData\Local\Temp\ccNG63cQ.s 			page 86


 836:.\Protocolo.c **** 							write_eeprom(576,resultado);
 3723              		.loc 1 836 0
 3724 1302 4FF41070 		mov	r0, #576
 3725 1306 AC49     		ldr	r1, .L552
 3726 1308 FFF7FEFF 		bl	write_eeprom
 3727              	.LVL295:
 3728              	.L247:
 837:.\Protocolo.c **** 						}				
 838:.\Protocolo.c **** 					}
 839:.\Protocolo.c **** 					if(((rventa.manguera==(extra&0x0F))&&(dir==lado.a.dir))||((rventa.manguera==(extra2&0x0F))&&(d
 3729              		.loc 1 839 0
 3730 130c AC4B     		ldr	r3, .L552+8
 3731 130e 93F8E030 		ldrb	r3, [r3, #224]	@ zero_extendqisi2
 3732 1312 AC4A     		ldr	r2, .L552+12
 3733 1314 1278     		ldrb	r2, [r2]	@ zero_extendqisi2
 3734 1316 02F00F02 		and	r2, r2, #15
 3735 131a 9A42     		cmp	r2, r3
 3736 131c 03D1     		bne	.L261
 3737              		.loc 1 839 0 is_stmt 0 discriminator 1
 3738 131e A74A     		ldr	r2, .L552+4
 3739 1320 1278     		ldrb	r2, [r2]	@ zero_extendqisi2
 3740 1322 B242     		cmp	r2, r6
 3741 1324 0BD0     		beq	.L262
 3742              	.L261:
 3743              		.loc 1 839 0 discriminator 2
 3744 1326 A84A     		ldr	r2, .L552+16
 3745 1328 1278     		ldrb	r2, [r2]	@ zero_extendqisi2
 3746 132a 02F00F02 		and	r2, r2, #15
 3747 132e 9342     		cmp	r3, r2
 3748 1330 40F0AB80 		bne	.L263
 3749              		.loc 1 839 0 discriminator 1
 3750 1334 A14B     		ldr	r3, .L552+4
 3751 1336 1B79     		ldrb	r3, [r3, #4]	@ zero_extendqisi2
 3752 1338 B342     		cmp	r3, r6
 3753 133a 40F0A680 		bne	.L263
 3754              	.L262:
 840:.\Protocolo.c **** 						for(x=0;x<=12;x++){									
 3755              		.loc 1 840 0 is_stmt 1
 3756 133e 0023     		movs	r3, #0
 3757 1340 2B60     		str	r3, [r5]
 841:.\Protocolo.c **** 							write_psoc1(val,msn_te[x]);
 3758              		.loc 1 841 0
 3759 1342 DFF89482 		ldr	r8, .L552+32
 840:.\Protocolo.c **** 						for(x=0;x<=12;x++){									
 3760              		.loc 1 840 0
 3761 1346 08E0     		b	.L264
 3762              	.L265:
 3763              		.loc 1 841 0 discriminator 2
 3764 1348 4344     		add	r3, r3, r8
 3765 134a 2046     		mov	r0, r4
 3766 134c 93F85C10 		ldrb	r1, [r3, #92]	@ zero_extendqisi2
 3767 1350 FFF7FEFF 		bl	write_psoc1
 3768              	.LVL296:
 840:.\Protocolo.c **** 						for(x=0;x<=12;x++){									
 3769              		.loc 1 840 0 discriminator 2
 3770 1354 2B68     		ldr	r3, [r5]
 3771 1356 0133     		adds	r3, r3, #1
ARM GAS  C:\Users\RECEPC~1\AppData\Local\Temp\ccNG63cQ.s 			page 87


 3772 1358 2B60     		str	r3, [r5]
 3773              	.L264:
 840:.\Protocolo.c **** 						for(x=0;x<=12;x++){									
 3774              		.loc 1 840 0 is_stmt 0 discriminator 1
 3775 135a 2B68     		ldr	r3, [r5]
 3776 135c 0C2B     		cmp	r3, #12
 3777 135e F3D9     		bls	.L265
 842:.\Protocolo.c **** 						}
 843:.\Protocolo.c **** 						write_psoc1(val,10);
 3778              		.loc 1 843 0 is_stmt 1
 3779 1360 2046     		mov	r0, r4
 3780 1362 0A21     		movs	r1, #10
 3781 1364 FFF7FEFF 		bl	write_psoc1
 3782              	.LVL297:
 844:.\Protocolo.c **** 						for(x=0;x<=14;x++){									
 3783              		.loc 1 844 0
 3784 1368 0023     		movs	r3, #0
 3785 136a 2B60     		str	r3, [r5]
 845:.\Protocolo.c **** 							write_psoc1(val,msn_lecact[x]);				//LECTURA ACTUAL
 3786              		.loc 1 845 0
 3787 136c DFF86882 		ldr	r8, .L552+32
 844:.\Protocolo.c **** 						for(x=0;x<=14;x++){									
 3788              		.loc 1 844 0
 3789 1370 07E0     		b	.L266
 3790              	.L267:
 3791              		.loc 1 845 0 discriminator 2
 3792 1372 4344     		add	r3, r3, r8
 3793 1374 2046     		mov	r0, r4
 3794 1376 197D     		ldrb	r1, [r3, #20]	@ zero_extendqisi2
 3795 1378 FFF7FEFF 		bl	write_psoc1
 3796              	.LVL298:
 844:.\Protocolo.c **** 						for(x=0;x<=14;x++){									
 3797              		.loc 1 844 0 discriminator 2
 3798 137c 2B68     		ldr	r3, [r5]
 3799 137e 0133     		adds	r3, r3, #1
 3800 1380 2B60     		str	r3, [r5]
 3801              	.L266:
 844:.\Protocolo.c **** 						for(x=0;x<=14;x++){									
 3802              		.loc 1 844 0 is_stmt 0 discriminator 1
 3803 1382 2B68     		ldr	r3, [r5]
 3804 1384 0E2B     		cmp	r3, #14
 3805 1386 F4D9     		bls	.L267
 846:.\Protocolo.c **** 						}
 847:.\Protocolo.c **** 						write_psoc1(val,10);
 3806              		.loc 1 847 0 is_stmt 1
 3807 1388 2046     		mov	r0, r4
 3808 138a 0A21     		movs	r1, #10
 3809 138c FFF7FEFF 		bl	write_psoc1
 3810              	.LVL299:
 848:.\Protocolo.c **** 						print_totalesac(8,val);	
 3811              		.loc 1 848 0
 3812 1390 0820     		movs	r0, #8
 3813 1392 2146     		mov	r1, r4
 3814 1394 FFF7FEFF 		bl	print_totalesac
 3815              	.LVL300:
 849:.\Protocolo.c **** 						for(x=0;x<=16;x++){												
 3816              		.loc 1 849 0
ARM GAS  C:\Users\RECEPC~1\AppData\Local\Temp\ccNG63cQ.s 			page 88


 3817 1398 0023     		movs	r3, #0
 3818 139a 2B60     		str	r3, [r5]
 850:.\Protocolo.c **** 							write_psoc1(val,msn_lecaan[x]);				//LECTURA ANTERIOR
 3819              		.loc 1 850 0
 3820 139c DFF83882 		ldr	r8, .L552+32
 849:.\Protocolo.c **** 						for(x=0;x<=16;x++){												
 3821              		.loc 1 849 0
 3822 13a0 08E0     		b	.L268
 3823              	.L269:
 3824              		.loc 1 850 0 discriminator 2
 3825 13a2 4344     		add	r3, r3, r8
 3826 13a4 2046     		mov	r0, r4
 3827 13a6 93F82410 		ldrb	r1, [r3, #36]	@ zero_extendqisi2
 3828 13aa FFF7FEFF 		bl	write_psoc1
 3829              	.LVL301:
 849:.\Protocolo.c **** 						for(x=0;x<=16;x++){												
 3830              		.loc 1 849 0 discriminator 2
 3831 13ae 2B68     		ldr	r3, [r5]
 3832 13b0 0133     		adds	r3, r3, #1
 3833 13b2 2B60     		str	r3, [r5]
 3834              	.L268:
 849:.\Protocolo.c **** 						for(x=0;x<=16;x++){												
 3835              		.loc 1 849 0 is_stmt 0 discriminator 1
 3836 13b4 2B68     		ldr	r3, [r5]
 3837 13b6 102B     		cmp	r3, #16
 3838 13b8 F3D9     		bls	.L269
 851:.\Protocolo.c **** 						}
 852:.\Protocolo.c **** 						write_psoc1(val,10);
 3839              		.loc 1 852 0 is_stmt 1
 3840 13ba 2046     		mov	r0, r4
 3841 13bc 0A21     		movs	r1, #10
 3842 13be FFF7FEFF 		bl	write_psoc1
 3843              	.LVL302:
 853:.\Protocolo.c **** 						if(dir==lado.a.dir){
 3844              		.loc 1 853 0
 3845 13c2 7E4B     		ldr	r3, .L552+4
 3846 13c4 1B78     		ldrb	r3, [r3]	@ zero_extendqisi2
 3847 13c6 B342     		cmp	r3, r6
 3848 13c8 05D1     		bne	.L270
 854:.\Protocolo.c **** 							leer_eeprom(256,25);
 3849              		.loc 1 854 0
 3850 13ca 4FF48070 		mov	r0, #256
 3851 13ce 1921     		movs	r1, #25
 3852 13d0 FFF7FEFF 		bl	leer_eeprom
 3853              	.LVL303:
 3854 13d4 04E0     		b	.L271
 3855              	.L270:
 855:.\Protocolo.c **** 						}
 856:.\Protocolo.c **** 						else{
 857:.\Protocolo.c **** 							leer_eeprom(345,25);
 3856              		.loc 1 857 0
 3857 13d6 40F25910 		movw	r0, #345
 3858 13da 1921     		movs	r1, #25
 3859 13dc FFF7FEFF 		bl	leer_eeprom
 3860              	.LVL304:
 3861              	.L271:
 858:.\Protocolo.c **** 						}
ARM GAS  C:\Users\RECEPC~1\AppData\Local\Temp\ccNG63cQ.s 			page 89


 859:.\Protocolo.c **** 						print_totales(val);
 3862              		.loc 1 859 0
 3863 13e0 2046     		mov	r0, r4
 3864 13e2 FFF7FEFF 		bl	print_totales
 3865              	.LVL305:
 860:.\Protocolo.c **** 						for(z=1;z<=8;z++){
 3866              		.loc 1 860 0
 3867 13e6 0122     		movs	r2, #1
 3868 13e8 784B     		ldr	r3, .L552+20
 3869 13ea 1A60     		str	r2, [r3]
 3870 13ec 1946     		mov	r1, r3
 861:.\Protocolo.c **** 							minuendo[z]=rventa.tdinero[z-1];
 3871              		.loc 1 861 0
 3872 13ee DFF8D0C1 		ldr	ip, .L552+8
 862:.\Protocolo.c **** 							sustraendo[z]=buffer_i2c[z+8];
 3873              		.loc 1 862 0
 3874 13f2 DFF8E8E1 		ldr	lr, .L552+36
 860:.\Protocolo.c **** 						for(z=1;z<=8;z++){
 3875              		.loc 1 860 0
 3876 13f6 0FE0     		b	.L272
 3877              	.L273:
 861:.\Protocolo.c **** 							minuendo[z]=rventa.tdinero[z-1];
 3878              		.loc 1 861 0 discriminator 2
 3879 13f8 0CEB0302 		add	r2, ip, r3
 3880 13fc 92F8C900 		ldrb	r0, [r2, #201]	@ zero_extendqisi2
 3881 1400 10AA     		add	r2, sp, #64
 3882 1402 1A44     		add	r2, r2, r3
 3883 1404 02F82C0C 		strb	r0, [r2, #-44]
 3884              		.loc 1 862 0 discriminator 2
 3885 1408 03F10800 		add	r0, r3, #8
 3886 140c 1EF80000 		ldrb	r0, [lr, r0]	@ zero_extendqisi2
 3887 1410 02F83C0C 		strb	r0, [r2, #-60]
 860:.\Protocolo.c **** 						for(z=1;z<=8;z++){
 3888              		.loc 1 860 0 discriminator 2
 3889 1414 0133     		adds	r3, r3, #1
 3890 1416 0B60     		str	r3, [r1]
 3891              	.L272:
 860:.\Protocolo.c **** 						for(z=1;z<=8;z++){
 3892              		.loc 1 860 0 is_stmt 0 discriminator 1
 3893 1418 0B68     		ldr	r3, [r1]
 3894 141a 082B     		cmp	r3, #8
 3895 141c ECD9     		bls	.L273
 863:.\Protocolo.c **** 						}
 864:.\Protocolo.c **** 						minuendo[0]=8;
 3896              		.loc 1 864 0 is_stmt 1
 3897 141e 10A9     		add	r1, sp, #64
 3898 1420 0823     		movs	r3, #8
 3899 1422 01F82C3D 		strb	r3, [r1, #-44]!
 865:.\Protocolo.c **** 						operacion(2,minuendo,sustraendo);
 3900              		.loc 1 865 0
 3901 1426 0220     		movs	r0, #2
 3902 1428 01AA     		add	r2, sp, #4
 3903 142a FFF7FEFF 		bl	operacion
 3904              	.LVL306:
 866:.\Protocolo.c **** 						for(x=0;x<=17;x++){									
 3905              		.loc 1 866 0
 3906 142e 0023     		movs	r3, #0
ARM GAS  C:\Users\RECEPC~1\AppData\Local\Temp\ccNG63cQ.s 			page 90


 3907 1430 2B60     		str	r3, [r5]
 867:.\Protocolo.c **** 							write_psoc1(val,msn_tventas[x]);				//Total de ventas
 3908              		.loc 1 867 0
 3909 1432 DFF8A481 		ldr	r8, .L552+32
 866:.\Protocolo.c **** 						for(x=0;x<=17;x++){									
 3910              		.loc 1 866 0
 3911 1436 08E0     		b	.L274
 3912              	.L275:
 3913              		.loc 1 867 0 discriminator 2
 3914 1438 4344     		add	r3, r3, r8
 3915 143a 2046     		mov	r0, r4
 3916 143c 93F83810 		ldrb	r1, [r3, #56]	@ zero_extendqisi2
 3917 1440 FFF7FEFF 		bl	write_psoc1
 3918              	.LVL307:
 866:.\Protocolo.c **** 						for(x=0;x<=17;x++){									
 3919              		.loc 1 866 0 discriminator 2
 3920 1444 2B68     		ldr	r3, [r5]
 3921 1446 0133     		adds	r3, r3, #1
 3922 1448 2B60     		str	r3, [r5]
 3923              	.L274:
 866:.\Protocolo.c **** 						for(x=0;x<=17;x++){									
 3924              		.loc 1 866 0 is_stmt 0 discriminator 1
 3925 144a 2B68     		ldr	r3, [r5]
 3926 144c 112B     		cmp	r3, #17
 3927 144e F3D9     		bls	.L275
 868:.\Protocolo.c **** 						}
 869:.\Protocolo.c **** 						print_valor(resultado,val);							
 3928              		.loc 1 869 0 is_stmt 1
 3929 1450 5948     		ldr	r0, .L552
 3930 1452 2146     		mov	r1, r4
 3931 1454 FFF7FEFF 		bl	print_valor
 3932              	.LVL308:
 870:.\Protocolo.c **** 						if(dir==lado.a.dir){
 3933              		.loc 1 870 0
 3934 1458 584B     		ldr	r3, .L552+4
 3935 145a 1B78     		ldrb	r3, [r3]	@ zero_extendqisi2
 3936 145c B342     		cmp	r3, r6
 3937 145e 0AD1     		bne	.L276
 871:.\Protocolo.c **** 							write_eeprom(256,corte);
 3938              		.loc 1 871 0
 3939 1460 4FF48070 		mov	r0, #256
 3940 1464 09A9     		add	r1, sp, #36
 3941 1466 FFF7FEFF 		bl	write_eeprom
 3942              	.LVL309:
 872:.\Protocolo.c **** 							write_eeprom(525,resultado);
 3943              		.loc 1 872 0
 3944 146a 40F20D20 		movw	r0, #525
 3945 146e 5249     		ldr	r1, .L552
 3946 1470 FFF7FEFF 		bl	write_eeprom
 3947              	.LVL310:
 3948 1474 09E0     		b	.L263
 3949              	.L276:
 873:.\Protocolo.c **** 						}
 874:.\Protocolo.c **** 						else{
 875:.\Protocolo.c **** 							write_eeprom(345,corte);
 3950              		.loc 1 875 0
 3951 1476 40F25910 		movw	r0, #345
ARM GAS  C:\Users\RECEPC~1\AppData\Local\Temp\ccNG63cQ.s 			page 91


 3952 147a 09A9     		add	r1, sp, #36
 3953 147c FFF7FEFF 		bl	write_eeprom
 3954              	.LVL311:
 876:.\Protocolo.c **** 							write_eeprom(589,resultado);
 3955              		.loc 1 876 0
 3956 1480 40F24D20 		movw	r0, #589
 3957 1484 4C49     		ldr	r1, .L552
 3958 1486 FFF7FEFF 		bl	write_eeprom
 3959              	.LVL312:
 3960              	.L263:
 877:.\Protocolo.c **** 						}					
 878:.\Protocolo.c **** 					}
 879:.\Protocolo.c ****                     
 880:.\Protocolo.c ****                     if(((rventa.manguera==(kero&0x0F))&&(dir==lado.a.dir))||((rventa.manguera==(ker
 3961              		.loc 1 880 0
 3962 148a 4D4B     		ldr	r3, .L552+8
 3963 148c 93F8E030 		ldrb	r3, [r3, #224]	@ zero_extendqisi2
 3964 1490 4F4A     		ldr	r2, .L552+24
 3965 1492 1278     		ldrb	r2, [r2]	@ zero_extendqisi2
 3966 1494 02F00F02 		and	r2, r2, #15
 3967 1498 9A42     		cmp	r2, r3
 3968 149a 03D1     		bne	.L277
 3969              		.loc 1 880 0 is_stmt 0 discriminator 1
 3970 149c 474A     		ldr	r2, .L552+4
 3971 149e 1278     		ldrb	r2, [r2]	@ zero_extendqisi2
 3972 14a0 B242     		cmp	r2, r6
 3973 14a2 0BD0     		beq	.L278
 3974              	.L277:
 3975              		.loc 1 880 0 discriminator 2
 3976 14a4 4B4A     		ldr	r2, .L552+28
 3977 14a6 1278     		ldrb	r2, [r2]	@ zero_extendqisi2
 3978 14a8 02F00F02 		and	r2, r2, #15
 3979 14ac 9342     		cmp	r3, r2
 3980 14ae 40F0C080 		bne	.L279
 3981              		.loc 1 880 0 discriminator 1
 3982 14b2 424B     		ldr	r3, .L552+4
 3983 14b4 1B79     		ldrb	r3, [r3, #4]	@ zero_extendqisi2
 3984 14b6 B342     		cmp	r3, r6
 3985 14b8 40F0BB80 		bne	.L279
 3986              	.L278:
 881:.\Protocolo.c **** 						for(x=0;x<=9;x++){									
 3987              		.loc 1 881 0 is_stmt 1
 3988 14bc 0023     		movs	r3, #0
 3989 14be 2B60     		str	r3, [r5]
 882:.\Protocolo.c **** 							write_psoc1(val,msn_tk[x]);
 3990              		.loc 1 882 0
 3991 14c0 DFF81481 		ldr	r8, .L552+32
 881:.\Protocolo.c **** 						for(x=0;x<=9;x++){									
 3992              		.loc 1 881 0
 3993 14c4 08E0     		b	.L280
 3994              	.L281:
 3995              		.loc 1 882 0 discriminator 2
 3996 14c6 4344     		add	r3, r3, r8
 3997 14c8 2046     		mov	r0, r4
 3998 14ca 93F86C10 		ldrb	r1, [r3, #108]	@ zero_extendqisi2
 3999 14ce FFF7FEFF 		bl	write_psoc1
 4000              	.LVL313:
ARM GAS  C:\Users\RECEPC~1\AppData\Local\Temp\ccNG63cQ.s 			page 92


 881:.\Protocolo.c **** 						for(x=0;x<=9;x++){									
 4001              		.loc 1 881 0 discriminator 2
 4002 14d2 2B68     		ldr	r3, [r5]
 4003 14d4 0133     		adds	r3, r3, #1
 4004 14d6 2B60     		str	r3, [r5]
 4005              	.L280:
 881:.\Protocolo.c **** 						for(x=0;x<=9;x++){									
 4006              		.loc 1 881 0 is_stmt 0 discriminator 1
 4007 14d8 2B68     		ldr	r3, [r5]
 4008 14da 092B     		cmp	r3, #9
 4009 14dc F3D9     		bls	.L281
 883:.\Protocolo.c **** 						}
 884:.\Protocolo.c **** 						write_psoc1(val,10);
 4010              		.loc 1 884 0 is_stmt 1
 4011 14de 2046     		mov	r0, r4
 4012 14e0 0A21     		movs	r1, #10
 4013 14e2 FFF7FEFF 		bl	write_psoc1
 4014              	.LVL314:
 885:.\Protocolo.c **** 						for(x=0;x<=14;x++){									
 4015              		.loc 1 885 0
 4016 14e6 0023     		movs	r3, #0
 4017 14e8 2B60     		str	r3, [r5]
 886:.\Protocolo.c **** 							write_psoc1(val,msn_lecact[x]);				//LECTURA ACTUAL
 4018              		.loc 1 886 0
 4019 14ea DFF8EC80 		ldr	r8, .L552+32
 885:.\Protocolo.c **** 						for(x=0;x<=14;x++){									
 4020              		.loc 1 885 0
 4021 14ee 07E0     		b	.L282
 4022              	.L283:
 4023              		.loc 1 886 0 discriminator 2
 4024 14f0 4344     		add	r3, r3, r8
 4025 14f2 2046     		mov	r0, r4
 4026 14f4 197D     		ldrb	r1, [r3, #20]	@ zero_extendqisi2
 4027 14f6 FFF7FEFF 		bl	write_psoc1
 4028              	.LVL315:
 885:.\Protocolo.c **** 						for(x=0;x<=14;x++){									
 4029              		.loc 1 885 0 discriminator 2
 4030 14fa 2B68     		ldr	r3, [r5]
 4031 14fc 0133     		adds	r3, r3, #1
 4032 14fe 2B60     		str	r3, [r5]
 4033              	.L282:
 885:.\Protocolo.c **** 						for(x=0;x<=14;x++){									
 4034              		.loc 1 885 0 is_stmt 0 discriminator 1
 4035 1500 2B68     		ldr	r3, [r5]
 4036 1502 0E2B     		cmp	r3, #14
 4037 1504 F4D9     		bls	.L283
 887:.\Protocolo.c **** 						}
 888:.\Protocolo.c **** 						write_psoc1(val,10);
 4038              		.loc 1 888 0 is_stmt 1
 4039 1506 2046     		mov	r0, r4
 4040 1508 0A21     		movs	r1, #10
 4041 150a FFF7FEFF 		bl	write_psoc1
 4042              	.LVL316:
 889:.\Protocolo.c **** 						print_totalesac(8,val);	
 4043              		.loc 1 889 0
 4044 150e 0820     		movs	r0, #8
 4045 1510 2146     		mov	r1, r4
ARM GAS  C:\Users\RECEPC~1\AppData\Local\Temp\ccNG63cQ.s 			page 93


 4046 1512 FFF7FEFF 		bl	print_totalesac
 4047              	.LVL317:
 890:.\Protocolo.c **** 						for(x=0;x<=16;x++){												
 4048              		.loc 1 890 0
 4049 1516 0023     		movs	r3, #0
 4050 1518 2B60     		str	r3, [r5]
 891:.\Protocolo.c **** 							write_psoc1(val,msn_lecaan[x]);				//LECTURA ANTERIOR
 4051              		.loc 1 891 0
 4052 151a DFF8BC80 		ldr	r8, .L552+32
 890:.\Protocolo.c **** 						for(x=0;x<=16;x++){												
 4053              		.loc 1 890 0
 4054 151e 08E0     		b	.L284
 4055              	.L285:
 4056              		.loc 1 891 0 discriminator 2
 4057 1520 4344     		add	r3, r3, r8
 4058 1522 2046     		mov	r0, r4
 4059 1524 93F82410 		ldrb	r1, [r3, #36]	@ zero_extendqisi2
 4060 1528 FFF7FEFF 		bl	write_psoc1
 4061              	.LVL318:
 890:.\Protocolo.c **** 						for(x=0;x<=16;x++){												
 4062              		.loc 1 890 0 discriminator 2
 4063 152c 2B68     		ldr	r3, [r5]
 4064 152e 0133     		adds	r3, r3, #1
 4065 1530 2B60     		str	r3, [r5]
 4066              	.L284:
 890:.\Protocolo.c **** 						for(x=0;x<=16;x++){												
 4067              		.loc 1 890 0 is_stmt 0 discriminator 1
 4068 1532 2B68     		ldr	r3, [r5]
 4069 1534 102B     		cmp	r3, #16
 4070 1536 F3D9     		bls	.L285
 892:.\Protocolo.c **** 						}
 893:.\Protocolo.c **** 						write_psoc1(val,10);
 4071              		.loc 1 893 0 is_stmt 1
 4072 1538 2046     		mov	r0, r4
 4073 153a 0A21     		movs	r1, #10
 4074 153c FFF7FEFF 		bl	write_psoc1
 4075              	.LVL319:
 894:.\Protocolo.c **** 						if(dir==lado.a.dir){
 4076              		.loc 1 894 0
 4077 1540 1E4B     		ldr	r3, .L552+4
 4078 1542 1B78     		ldrb	r3, [r3]	@ zero_extendqisi2
 4079 1544 B342     		cmp	r3, r6
 4080 1546 05D1     		bne	.L286
 895:.\Protocolo.c **** 							leer_eeprom(1096,25);
 4081              		.loc 1 895 0
 4082 1548 4FF48960 		mov	r0, #1096
 4083 154c 1921     		movs	r1, #25
 4084 154e FFF7FEFF 		bl	leer_eeprom
 4085              	.LVL320:
 4086 1552 04E0     		b	.L287
 4087              	.L286:
 896:.\Protocolo.c **** 						}
 897:.\Protocolo.c **** 						else{
 898:.\Protocolo.c **** 							leer_eeprom(1054,25);
 4088              		.loc 1 898 0
 4089 1554 40F21E40 		movw	r0, #1054
 4090 1558 1921     		movs	r1, #25
ARM GAS  C:\Users\RECEPC~1\AppData\Local\Temp\ccNG63cQ.s 			page 94


 4091 155a FFF7FEFF 		bl	leer_eeprom
 4092              	.LVL321:
 4093              	.L287:
 899:.\Protocolo.c **** 						}
 900:.\Protocolo.c **** 						print_totales(val);
 4094              		.loc 1 900 0
 4095 155e 2046     		mov	r0, r4
 4096 1560 FFF7FEFF 		bl	print_totales
 4097              	.LVL322:
 901:.\Protocolo.c **** 						for(z=1;z<=8;z++){
 4098              		.loc 1 901 0
 4099 1564 0122     		movs	r2, #1
 4100 1566 194B     		ldr	r3, .L552+20
 4101 1568 1A60     		str	r2, [r3]
 4102 156a 1946     		mov	r1, r3
 902:.\Protocolo.c **** 							minuendo[z]=rventa.tdinero[z-1];
 4103              		.loc 1 902 0
 4104 156c DFF850C0 		ldr	ip, .L552+8
 903:.\Protocolo.c **** 							sustraendo[z]=buffer_i2c[z+8];
 4105              		.loc 1 903 0
 4106 1570 DFF868E0 		ldr	lr, .L552+36
 901:.\Protocolo.c **** 						for(z=1;z<=8;z++){
 4107              		.loc 1 901 0
 4108 1574 0FE0     		b	.L288
 4109              	.L289:
 902:.\Protocolo.c **** 							minuendo[z]=rventa.tdinero[z-1];
 4110              		.loc 1 902 0 discriminator 2
 4111 1576 0CEB0302 		add	r2, ip, r3
 4112 157a 92F8C900 		ldrb	r0, [r2, #201]	@ zero_extendqisi2
 4113 157e 10AA     		add	r2, sp, #64
 4114 1580 1A44     		add	r2, r2, r3
 4115 1582 02F82C0C 		strb	r0, [r2, #-44]
 4116              		.loc 1 903 0 discriminator 2
 4117 1586 03F10800 		add	r0, r3, #8
 4118 158a 1EF80000 		ldrb	r0, [lr, r0]	@ zero_extendqisi2
 4119 158e 02F83C0C 		strb	r0, [r2, #-60]
 901:.\Protocolo.c **** 						for(z=1;z<=8;z++){
 4120              		.loc 1 901 0 discriminator 2
 4121 1592 0133     		adds	r3, r3, #1
 4122 1594 0B60     		str	r3, [r1]
 4123              	.L288:
 901:.\Protocolo.c **** 						for(z=1;z<=8;z++){
 4124              		.loc 1 901 0 is_stmt 0 discriminator 1
 4125 1596 0B68     		ldr	r3, [r1]
 4126 1598 082B     		cmp	r3, #8
 4127 159a ECD9     		bls	.L289
 904:.\Protocolo.c **** 						}
 905:.\Protocolo.c **** 						minuendo[0]=8;
 4128              		.loc 1 905 0 is_stmt 1
 4129 159c 10A9     		add	r1, sp, #64
 4130 159e 0823     		movs	r3, #8
 4131 15a0 01F82C3D 		strb	r3, [r1, #-44]!
 906:.\Protocolo.c **** 						operacion(2,minuendo,sustraendo);
 4132              		.loc 1 906 0
 4133 15a4 0220     		movs	r0, #2
 4134 15a6 01AA     		add	r2, sp, #4
 4135 15a8 FFF7FEFF 		bl	operacion
ARM GAS  C:\Users\RECEPC~1\AppData\Local\Temp\ccNG63cQ.s 			page 95


 4136              	.LVL323:
 907:.\Protocolo.c **** 						for(x=0;x<=17;x++){									
 4137              		.loc 1 907 0
 4138 15ac 0023     		movs	r3, #0
 4139 15ae 2B60     		str	r3, [r5]
 908:.\Protocolo.c **** 							write_psoc1(val,msn_tventas[x]);				//Total de ventas
 4140              		.loc 1 908 0
 4141 15b0 DFF82480 		ldr	r8, .L552+32
 907:.\Protocolo.c **** 						for(x=0;x<=17;x++){									
 4142              		.loc 1 907 0
 4143 15b4 1DE0     		b	.L290
 4144              	.L553:
 4145 15b6 00BF     		.align	2
 4146              	.L552:
 4147 15b8 00000000 		.word	resultado
 4148 15bc 00000000 		.word	lado
 4149 15c0 00000000 		.word	rventa
 4150 15c4 00000000 		.word	extra
 4151 15c8 00000000 		.word	extra2
 4152 15cc 00000000 		.word	z
 4153 15d0 00000000 		.word	kero
 4154 15d4 00000000 		.word	kero2
 4155 15d8 00000000 		.word	.LANCHOR1
 4156 15dc 00000000 		.word	buffer_i2c
 4157              	.L291:
 4158              		.loc 1 908 0 discriminator 2
 4159 15e0 4344     		add	r3, r3, r8
 4160 15e2 2046     		mov	r0, r4
 4161 15e4 93F83810 		ldrb	r1, [r3, #56]	@ zero_extendqisi2
 4162 15e8 FFF7FEFF 		bl	write_psoc1
 4163              	.LVL324:
 907:.\Protocolo.c **** 						for(x=0;x<=17;x++){									
 4164              		.loc 1 907 0 discriminator 2
 4165 15ec 2B68     		ldr	r3, [r5]
 4166 15ee 0133     		adds	r3, r3, #1
 4167 15f0 2B60     		str	r3, [r5]
 4168              	.L290:
 907:.\Protocolo.c **** 						for(x=0;x<=17;x++){									
 4169              		.loc 1 907 0 is_stmt 0 discriminator 1
 4170 15f2 2B68     		ldr	r3, [r5]
 4171 15f4 112B     		cmp	r3, #17
 4172 15f6 F3D9     		bls	.L291
 909:.\Protocolo.c **** 						}
 910:.\Protocolo.c **** 						print_valor(resultado,val);							
 4173              		.loc 1 910 0 is_stmt 1
 4174 15f8 A548     		ldr	r0, .L554
 4175 15fa 2146     		mov	r1, r4
 4176 15fc FFF7FEFF 		bl	print_valor
 4177              	.LVL325:
 911:.\Protocolo.c **** 						if(dir==lado.a.dir){
 4178              		.loc 1 911 0
 4179 1600 A44B     		ldr	r3, .L554+4
 4180 1602 1B78     		ldrb	r3, [r3]	@ zero_extendqisi2
 4181 1604 B342     		cmp	r3, r6
 4182 1606 0AD1     		bne	.L292
 912:.\Protocolo.c **** 						    write_eeprom(1096,corte);
 4183              		.loc 1 912 0
ARM GAS  C:\Users\RECEPC~1\AppData\Local\Temp\ccNG63cQ.s 			page 96


 4184 1608 4FF48960 		mov	r0, #1096
 4185 160c 09A9     		add	r1, sp, #36
 4186 160e FFF7FEFF 		bl	write_eeprom
 4187              	.LVL326:
 913:.\Protocolo.c **** 						    write_eeprom(1038,resultado);
 4188              		.loc 1 913 0
 4189 1612 40F20E40 		movw	r0, #1038
 4190 1616 9E49     		ldr	r1, .L554
 4191 1618 FFF7FEFF 		bl	write_eeprom
 4192              	.LVL327:
 4193 161c 09E0     		b	.L279
 4194              	.L292:
 914:.\Protocolo.c **** 					    }
 915:.\Protocolo.c **** 					    else{
 916:.\Protocolo.c **** 						    write_eeprom(1054,corte);
 4195              		.loc 1 916 0
 4196 161e 40F21E40 		movw	r0, #1054
 4197 1622 09A9     		add	r1, sp, #36
 4198 1624 FFF7FEFF 		bl	write_eeprom
 4199              	.LVL328:
 917:.\Protocolo.c **** 						    write_eeprom(1081,resultado);
 4200              		.loc 1 917 0
 4201 1628 40F23940 		movw	r0, #1081
 4202 162c 9849     		ldr	r1, .L554
 4203 162e FFF7FEFF 		bl	write_eeprom
 4204              	.LVL329:
 4205              	.L279:
 744:.\Protocolo.c **** 				for(y=0;y<=60;y+=30){
 4206              		.loc 1 744 0
 4207 1632 3B68     		ldr	r3, [r7]
 4208 1634 1E33     		adds	r3, r3, #30
 4209 1636 3B60     		str	r3, [r7]
 4210              	.L220:
 744:.\Protocolo.c **** 				for(y=0;y<=60;y+=30){
 4211              		.loc 1 744 0 is_stmt 0 discriminator 1
 4212 1638 3A68     		ldr	r2, [r7]
 4213 163a 3C2A     		cmp	r2, #60
 4214 163c 7FF666AC 		bls	.L293
 918:.\Protocolo.c **** 						}					
 919:.\Protocolo.c **** 					}
 920:.\Protocolo.c ****                     
 921:.\Protocolo.c **** 				}
 922:.\Protocolo.c **** 				Surtidor_ClearRxBuffer();
 4215              		.loc 1 922 0 is_stmt 1
 4216 1640 FFF7FEFF 		bl	Surtidor_ClearRxBuffer
 4217              	.LVL330:
 923:.\Protocolo.c **** 				return 3;					
 4218              		.loc 1 923 0
 4219 1644 0320     		movs	r0, #3
 4220 1646 01F03DBB 		b	.L73
 4221              	.L69:
 924:.\Protocolo.c **** 			}			
 925:.\Protocolo.c **** 			else{
 926:.\Protocolo.c **** 				return 0;
 927:.\Protocolo.c **** 			}			
 928:.\Protocolo.c **** 		break;
 929:.\Protocolo.c **** 
ARM GAS  C:\Users\RECEPC~1\AppData\Local\Temp\ccNG63cQ.s 			page 97


 930:.\Protocolo.c **** 		case 46:
 931:.\Protocolo.c **** 			if((Surtidor_rxBuffer[0]==0xFF)&&(Surtidor_rxBuffer[1]==0xF6)&&(Surtidor_rxBuffer[45]==0xF0)&&(S
 4222              		.loc 1 931 0
 4223 164a 934B     		ldr	r3, .L554+8
 4224 164c 1B78     		ldrb	r3, [r3]	@ zero_extendqisi2
 4225 164e DBB2     		uxtb	r3, r3
 4226 1650 FF2B     		cmp	r3, #255
 4227 1652 41F02083 		bne	.L528
 4228              		.loc 1 931 0 is_stmt 0 discriminator 1
 4229 1656 904B     		ldr	r3, .L554+8
 4230 1658 5B78     		ldrb	r3, [r3, #1]	@ zero_extendqisi2
 4231 165a DBB2     		uxtb	r3, r3
 4232 165c F62B     		cmp	r3, #246
 4233 165e 41F01C83 		bne	.L529
 4234 1662 8D4B     		ldr	r3, .L554+8
 4235 1664 93F82D30 		ldrb	r3, [r3, #45]	@ zero_extendqisi2
 4236 1668 DBB2     		uxtb	r3, r3
 4237 166a F02B     		cmp	r3, #240
 4238 166c 41F01783 		bne	.L530
 4239 1670 894B     		ldr	r3, .L554+8
 4240 1672 DB78     		ldrb	r3, [r3, #3]	@ zero_extendqisi2
 4241 1674 DBB2     		uxtb	r3, r3
 4242 1676 F92B     		cmp	r3, #249
 4243 1678 41F01383 		bne	.L531
 932:.\Protocolo.c **** 				rventa.manguera=(Surtidor_rxBuffer[2]&0xF0)+1;
 4244              		.loc 1 932 0 is_stmt 1
 4245 167c 864B     		ldr	r3, .L554+8
 4246 167e 9878     		ldrb	r0, [r3, #2]	@ zero_extendqisi2
 4247 1680 00F0F000 		and	r0, r0, #240
 4248 1684 0130     		adds	r0, r0, #1
 4249 1686 C0B2     		uxtb	r0, r0
 4250 1688 844B     		ldr	r3, .L554+12
 4251 168a 83F8E000 		strb	r0, [r3, #224]
 933:.\Protocolo.c **** 				for(x=0;x<=11;x++){
 4252              		.loc 1 933 0
 4253 168e 0022     		movs	r2, #0
 4254 1690 834B     		ldr	r3, .L554+16
 4255 1692 1A60     		str	r2, [r3]
 4256 1694 1A46     		mov	r2, r3
 934:.\Protocolo.c **** 					rventa.tvolumen[x]=(Surtidor_rxBuffer[x+4]&0x0F);
 4257              		.loc 1 934 0
 4258 1696 DFF800E2 		ldr	lr, .L554+8
 4259 169a 804F     		ldr	r7, .L554+12
 933:.\Protocolo.c **** 				for(x=0;x<=11;x++){
 4260              		.loc 1 933 0
 4261 169c 09E0     		b	.L294
 4262              	.L295:
 4263              		.loc 1 934 0 discriminator 2
 4264 169e 191D     		adds	r1, r3, #4
 4265 16a0 1EF80150 		ldrb	r5, [lr, r1]	@ zero_extendqisi2
 4266 16a4 F918     		adds	r1, r7, r3
 4267 16a6 05F00F05 		and	r5, r5, #15
 4268 16aa 81F8BD50 		strb	r5, [r1, #189]
 933:.\Protocolo.c **** 				for(x=0;x<=11;x++){
 4269              		.loc 1 933 0 discriminator 2
 4270 16ae 0133     		adds	r3, r3, #1
 4271 16b0 1360     		str	r3, [r2]
ARM GAS  C:\Users\RECEPC~1\AppData\Local\Temp\ccNG63cQ.s 			page 98


 4272              	.L294:
 933:.\Protocolo.c **** 				for(x=0;x<=11;x++){
 4273              		.loc 1 933 0 is_stmt 0 discriminator 1
 4274 16b2 1368     		ldr	r3, [r2]
 4275 16b4 0B2B     		cmp	r3, #11
 4276 16b6 F2D9     		bls	.L295
 935:.\Protocolo.c **** 				}
 936:.\Protocolo.c **** 				for(x=0;x<=11;x++){
 4277              		.loc 1 936 0 is_stmt 1
 4278 16b8 0022     		movs	r2, #0
 4279 16ba 794B     		ldr	r3, .L554+16
 4280 16bc 1A60     		str	r2, [r3]
 4281 16be 1A46     		mov	r2, r3
 937:.\Protocolo.c **** 					rventa.tdinero[x]=(Surtidor_rxBuffer[x+17]&0x0F);
 4282              		.loc 1 937 0
 4283 16c0 DFF8D4E1 		ldr	lr, .L554+8
 4284 16c4 754F     		ldr	r7, .L554+12
 936:.\Protocolo.c **** 				for(x=0;x<=11;x++){
 4285              		.loc 1 936 0
 4286 16c6 0AE0     		b	.L296
 4287              	.L297:
 4288              		.loc 1 937 0 discriminator 2
 4289 16c8 03F11101 		add	r1, r3, #17
 4290 16cc 1EF80150 		ldrb	r5, [lr, r1]	@ zero_extendqisi2
 4291 16d0 F918     		adds	r1, r7, r3
 4292 16d2 05F00F05 		and	r5, r5, #15
 4293 16d6 81F8CA50 		strb	r5, [r1, #202]
 936:.\Protocolo.c **** 				for(x=0;x<=11;x++){
 4294              		.loc 1 936 0 discriminator 2
 4295 16da 0133     		adds	r3, r3, #1
 4296 16dc 1360     		str	r3, [r2]
 4297              	.L296:
 936:.\Protocolo.c **** 				for(x=0;x<=11;x++){
 4298              		.loc 1 936 0 is_stmt 0 discriminator 1
 4299 16de 1368     		ldr	r3, [r2]
 4300 16e0 0B2B     		cmp	r3, #11
 4301 16e2 F1D9     		bls	.L297
 938:.\Protocolo.c **** 				}
 939:.\Protocolo.c **** 				for(z=0;z<=11;z++){
 4302              		.loc 1 939 0 is_stmt 1
 4303 16e4 0022     		movs	r2, #0
 4304 16e6 6F4B     		ldr	r3, .L554+20
 4305 16e8 1A60     		str	r2, [r3]
 4306 16ea 1946     		mov	r1, r3
 940:.\Protocolo.c **** 					corte[z+1]=rventa.tvolumen[z];
 4307              		.loc 1 940 0
 4308 16ec 6B4F     		ldr	r7, .L554+12
 939:.\Protocolo.c **** 				for(z=0;z<=11;z++){
 4309              		.loc 1 939 0
 4310 16ee 08E0     		b	.L298
 4311              	.L299:
 4312              		.loc 1 940 0 discriminator 2
 4313 16f0 5A1C     		adds	r2, r3, #1
 4314 16f2 3B44     		add	r3, r3, r7
 4315 16f4 93F8BD50 		ldrb	r5, [r3, #189]	@ zero_extendqisi2
 4316 16f8 10AB     		add	r3, sp, #64
 4317 16fa 1344     		add	r3, r3, r2
ARM GAS  C:\Users\RECEPC~1\AppData\Local\Temp\ccNG63cQ.s 			page 99


 4318 16fc 03F81C5C 		strb	r5, [r3, #-28]
 939:.\Protocolo.c **** 				for(z=0;z<=11;z++){
 4319              		.loc 1 939 0 discriminator 2
 4320 1700 0A60     		str	r2, [r1]
 4321              	.L298:
 939:.\Protocolo.c **** 				for(z=0;z<=11;z++){
 4322              		.loc 1 939 0 is_stmt 0 discriminator 1
 4323 1702 0B68     		ldr	r3, [r1]
 4324 1704 0B2B     		cmp	r3, #11
 4325 1706 F3D9     		bls	.L299
 941:.\Protocolo.c **** 				}
 942:.\Protocolo.c **** 				for(z=13;z<=24;z++){
 4326              		.loc 1 942 0 is_stmt 1
 4327 1708 0D22     		movs	r2, #13
 4328 170a 664B     		ldr	r3, .L554+20
 4329 170c 1A60     		str	r2, [r3]
 4330 170e 1A46     		mov	r2, r3
 943:.\Protocolo.c **** 					corte[z]=rventa.tdinero[z-13];
 4331              		.loc 1 943 0
 4332 1710 624F     		ldr	r7, .L554+12
 942:.\Protocolo.c **** 				for(z=13;z<=24;z++){
 4333              		.loc 1 942 0
 4334 1712 08E0     		b	.L300
 4335              	.L301:
 4336              		.loc 1 943 0 discriminator 2
 4337 1714 F918     		adds	r1, r7, r3
 4338 1716 91F8BD50 		ldrb	r5, [r1, #189]	@ zero_extendqisi2
 4339 171a 10A9     		add	r1, sp, #64
 4340 171c 1944     		add	r1, r1, r3
 4341 171e 01F81C5C 		strb	r5, [r1, #-28]
 942:.\Protocolo.c **** 				for(z=13;z<=24;z++){
 4342              		.loc 1 942 0 discriminator 2
 4343 1722 0133     		adds	r3, r3, #1
 4344 1724 1360     		str	r3, [r2]
 4345              	.L300:
 942:.\Protocolo.c **** 				for(z=13;z<=24;z++){
 4346              		.loc 1 942 0 is_stmt 0 discriminator 1
 4347 1726 1368     		ldr	r3, [r2]
 4348 1728 182B     		cmp	r3, #24
 4349 172a F3D9     		bls	.L301
 944:.\Protocolo.c **** 				}
 945:.\Protocolo.c **** 				corte[0]=24;				
 4350              		.loc 1 945 0 is_stmt 1
 4351 172c 1823     		movs	r3, #24
 4352 172e 8DF82430 		strb	r3, [sp, #36]
 946:.\Protocolo.c **** 				if(((rventa.manguera==(corriente&0x0F))&&(dir==lado.a.dir))||((rventa.manguera==(corriente2&0x0
 4353              		.loc 1 946 0
 4354 1732 5D4B     		ldr	r3, .L554+24
 4355 1734 1B78     		ldrb	r3, [r3]	@ zero_extendqisi2
 4356 1736 03F00F03 		and	r3, r3, #15
 4357 173a 8342     		cmp	r3, r0
 4358 173c 03D1     		bne	.L302
 4359              		.loc 1 946 0 is_stmt 0 discriminator 1
 4360 173e 554B     		ldr	r3, .L554+4
 4361 1740 1B78     		ldrb	r3, [r3]	@ zero_extendqisi2
 4362 1742 B342     		cmp	r3, r6
 4363 1744 0BD0     		beq	.L303
ARM GAS  C:\Users\RECEPC~1\AppData\Local\Temp\ccNG63cQ.s 			page 100


 4364              	.L302:
 4365              		.loc 1 946 0 discriminator 2
 4366 1746 594B     		ldr	r3, .L554+28
 4367 1748 1B78     		ldrb	r3, [r3]	@ zero_extendqisi2
 4368 174a 03F00F03 		and	r3, r3, #15
 4369 174e 9842     		cmp	r0, r3
 4370 1750 40F0BC80 		bne	.L304
 4371              		.loc 1 946 0 discriminator 1
 4372 1754 4F4B     		ldr	r3, .L554+4
 4373 1756 1B79     		ldrb	r3, [r3, #4]	@ zero_extendqisi2
 4374 1758 B342     		cmp	r3, r6
 4375 175a 40F0B780 		bne	.L304
 4376              	.L303:
 947:.\Protocolo.c **** 					for(x=0;x<=16;x++){									
 4377              		.loc 1 947 0 is_stmt 1
 4378 175e 0022     		movs	r2, #0
 4379 1760 4F4B     		ldr	r3, .L554+16
 4380 1762 1A60     		str	r2, [r3]
 4381 1764 1D46     		mov	r5, r3
 948:.\Protocolo.c **** 						write_psoc1(val,msn_tc[x]);
 4382              		.loc 1 948 0
 4383 1766 524F     		ldr	r7, .L554+32
 947:.\Protocolo.c **** 					for(x=0;x<=16;x++){									
 4384              		.loc 1 947 0
 4385 1768 06E0     		b	.L305
 4386              	.L306:
 4387              		.loc 1 948 0 discriminator 2
 4388 176a 2046     		mov	r0, r4
 4389 176c F95C     		ldrb	r1, [r7, r3]	@ zero_extendqisi2
 4390 176e FFF7FEFF 		bl	write_psoc1
 4391              	.LVL331:
 947:.\Protocolo.c **** 					for(x=0;x<=16;x++){									
 4392              		.loc 1 947 0 discriminator 2
 4393 1772 2B68     		ldr	r3, [r5]
 4394 1774 0133     		adds	r3, r3, #1
 4395 1776 2B60     		str	r3, [r5]
 4396              	.L305:
 947:.\Protocolo.c **** 					for(x=0;x<=16;x++){									
 4397              		.loc 1 947 0 is_stmt 0 discriminator 1
 4398 1778 2B68     		ldr	r3, [r5]
 4399 177a 102B     		cmp	r3, #16
 4400 177c F5D9     		bls	.L306
 949:.\Protocolo.c **** 					}
 950:.\Protocolo.c **** 					write_psoc1(val,10);
 4401              		.loc 1 950 0 is_stmt 1
 4402 177e 2046     		mov	r0, r4
 4403 1780 0A21     		movs	r1, #10
 4404 1782 FFF7FEFF 		bl	write_psoc1
 4405              	.LVL332:
 951:.\Protocolo.c **** 					for(x=0;x<=14;x++){									
 4406              		.loc 1 951 0
 4407 1786 0022     		movs	r2, #0
 4408 1788 454B     		ldr	r3, .L554+16
 4409 178a 1A60     		str	r2, [r3]
 4410 178c 1D46     		mov	r5, r3
 952:.\Protocolo.c **** 						write_psoc1(val,msn_lecact[x]);				//LECTURA ACTUAL
 4411              		.loc 1 952 0
ARM GAS  C:\Users\RECEPC~1\AppData\Local\Temp\ccNG63cQ.s 			page 101


 4412 178e 484F     		ldr	r7, .L554+32
 951:.\Protocolo.c **** 					for(x=0;x<=14;x++){									
 4413              		.loc 1 951 0
 4414 1790 07E0     		b	.L307
 4415              	.L308:
 4416              		.loc 1 952 0 discriminator 2
 4417 1792 3B44     		add	r3, r3, r7
 4418 1794 2046     		mov	r0, r4
 4419 1796 197D     		ldrb	r1, [r3, #20]	@ zero_extendqisi2
 4420 1798 FFF7FEFF 		bl	write_psoc1
 4421              	.LVL333:
 951:.\Protocolo.c **** 					for(x=0;x<=14;x++){									
 4422              		.loc 1 951 0 discriminator 2
 4423 179c 2B68     		ldr	r3, [r5]
 4424 179e 0133     		adds	r3, r3, #1
 4425 17a0 2B60     		str	r3, [r5]
 4426              	.L307:
 951:.\Protocolo.c **** 					for(x=0;x<=14;x++){									
 4427              		.loc 1 951 0 is_stmt 0 discriminator 1
 4428 17a2 2B68     		ldr	r3, [r5]
 4429 17a4 0E2B     		cmp	r3, #14
 4430 17a6 F4D9     		bls	.L308
 953:.\Protocolo.c **** 					}
 954:.\Protocolo.c **** 					write_psoc1(val,10);
 4431              		.loc 1 954 0 is_stmt 1
 4432 17a8 2046     		mov	r0, r4
 4433 17aa 0A21     		movs	r1, #10
 4434 17ac FFF7FEFF 		bl	write_psoc1
 4435              	.LVL334:
 955:.\Protocolo.c **** 					print_totalesac(12,val);	
 4436              		.loc 1 955 0
 4437 17b0 0C20     		movs	r0, #12
 4438 17b2 2146     		mov	r1, r4
 4439 17b4 FFF7FEFF 		bl	print_totalesac
 4440              	.LVL335:
 956:.\Protocolo.c **** 					for(x=0;x<=16;x++){												
 4441              		.loc 1 956 0
 4442 17b8 0022     		movs	r2, #0
 4443 17ba 394B     		ldr	r3, .L554+16
 4444 17bc 1A60     		str	r2, [r3]
 4445 17be 1D46     		mov	r5, r3
 957:.\Protocolo.c **** 						write_psoc1(val,msn_lecaan[x]);				//LECTURA ANTERIOR
 4446              		.loc 1 957 0
 4447 17c0 3B4F     		ldr	r7, .L554+32
 956:.\Protocolo.c **** 					for(x=0;x<=16;x++){												
 4448              		.loc 1 956 0
 4449 17c2 08E0     		b	.L309
 4450              	.L310:
 4451              		.loc 1 957 0 discriminator 2
 4452 17c4 3B44     		add	r3, r3, r7
 4453 17c6 2046     		mov	r0, r4
 4454 17c8 93F82410 		ldrb	r1, [r3, #36]	@ zero_extendqisi2
 4455 17cc FFF7FEFF 		bl	write_psoc1
 4456              	.LVL336:
 956:.\Protocolo.c **** 					for(x=0;x<=16;x++){												
 4457              		.loc 1 956 0 discriminator 2
 4458 17d0 2B68     		ldr	r3, [r5]
ARM GAS  C:\Users\RECEPC~1\AppData\Local\Temp\ccNG63cQ.s 			page 102


 4459 17d2 0133     		adds	r3, r3, #1
 4460 17d4 2B60     		str	r3, [r5]
 4461              	.L309:
 956:.\Protocolo.c **** 					for(x=0;x<=16;x++){												
 4462              		.loc 1 956 0 is_stmt 0 discriminator 1
 4463 17d6 2B68     		ldr	r3, [r5]
 4464 17d8 102B     		cmp	r3, #16
 4465 17da F3D9     		bls	.L310
 958:.\Protocolo.c **** 					}
 959:.\Protocolo.c **** 					write_psoc1(val,10);
 4466              		.loc 1 959 0 is_stmt 1
 4467 17dc 2046     		mov	r0, r4
 4468 17de 0A21     		movs	r1, #10
 4469 17e0 FFF7FEFF 		bl	write_psoc1
 4470              	.LVL337:
 960:.\Protocolo.c **** 					if(dir==lado.a.dir){
 4471              		.loc 1 960 0
 4472 17e4 2B4B     		ldr	r3, .L554+4
 4473 17e6 1B78     		ldrb	r3, [r3]	@ zero_extendqisi2
 4474 17e8 B342     		cmp	r3, r6
 4475 17ea 04D1     		bne	.L311
 961:.\Protocolo.c **** 						leer_eeprom(192,25);
 4476              		.loc 1 961 0
 4477 17ec C020     		movs	r0, #192
 4478 17ee 1921     		movs	r1, #25
 4479 17f0 FFF7FEFF 		bl	leer_eeprom
 4480              	.LVL338:
 4481 17f4 04E0     		b	.L312
 4482              	.L311:
 962:.\Protocolo.c **** 					}
 963:.\Protocolo.c **** 					else{
 964:.\Protocolo.c **** 						leer_eeprom(281,25);
 4483              		.loc 1 964 0
 4484 17f6 40F21910 		movw	r0, #281
 4485 17fa 1921     		movs	r1, #25
 4486 17fc FFF7FEFF 		bl	leer_eeprom
 4487              	.LVL339:
 4488              	.L312:
 965:.\Protocolo.c **** 					}
 966:.\Protocolo.c **** 					print_totales(val);
 4489              		.loc 1 966 0
 4490 1800 2046     		mov	r0, r4
 4491 1802 FFF7FEFF 		bl	print_totales
 4492              	.LVL340:
 967:.\Protocolo.c **** 					for(z=1;z<=12;z++){
 4493              		.loc 1 967 0
 4494 1806 0122     		movs	r2, #1
 4495 1808 264B     		ldr	r3, .L554+20
 4496 180a 1A60     		str	r2, [r3]
 4497 180c 1A46     		mov	r2, r3
 968:.\Protocolo.c **** 						minuendo[z]=rventa.tdinero[z-1];
 4498              		.loc 1 968 0
 4499 180e 234F     		ldr	r7, .L554+12
 969:.\Protocolo.c **** 						sustraendo[z]=buffer_i2c[z+12];
 4500              		.loc 1 969 0
 4501 1810 284D     		ldr	r5, .L554+36
 967:.\Protocolo.c **** 					for(z=1;z<=12;z++){
ARM GAS  C:\Users\RECEPC~1\AppData\Local\Temp\ccNG63cQ.s 			page 103


 4502              		.loc 1 967 0
 4503 1812 0DE0     		b	.L313
 4504              	.L314:
 968:.\Protocolo.c **** 						minuendo[z]=rventa.tdinero[z-1];
 4505              		.loc 1 968 0 discriminator 2
 4506 1814 F918     		adds	r1, r7, r3
 4507 1816 91F8C900 		ldrb	r0, [r1, #201]	@ zero_extendqisi2
 4508 181a 10A9     		add	r1, sp, #64
 4509 181c 1944     		add	r1, r1, r3
 4510 181e 01F82C0C 		strb	r0, [r1, #-44]
 4511              		.loc 1 969 0 discriminator 2
 4512 1822 03F10C00 		add	r0, r3, #12
 4513 1826 285C     		ldrb	r0, [r5, r0]	@ zero_extendqisi2
 4514 1828 01F83C0C 		strb	r0, [r1, #-60]
 967:.\Protocolo.c **** 					for(z=1;z<=12;z++){
 4515              		.loc 1 967 0 discriminator 2
 4516 182c 0133     		adds	r3, r3, #1
 4517 182e 1360     		str	r3, [r2]
 4518              	.L313:
 967:.\Protocolo.c **** 					for(z=1;z<=12;z++){
 4519              		.loc 1 967 0 is_stmt 0 discriminator 1
 4520 1830 1368     		ldr	r3, [r2]
 4521 1832 0C2B     		cmp	r3, #12
 4522 1834 EED9     		bls	.L314
 970:.\Protocolo.c **** 					}
 971:.\Protocolo.c **** 					minuendo[0]=12;
 4523              		.loc 1 971 0 is_stmt 1
 4524 1836 10A9     		add	r1, sp, #64
 4525 1838 0C23     		movs	r3, #12
 4526 183a 01F82C3D 		strb	r3, [r1, #-44]!
 972:.\Protocolo.c **** 					operacion(2,minuendo,sustraendo);
 4527              		.loc 1 972 0
 4528 183e 0220     		movs	r0, #2
 4529 1840 01AA     		add	r2, sp, #4
 4530 1842 FFF7FEFF 		bl	operacion
 4531              	.LVL341:
 973:.\Protocolo.c **** 					for(x=0;x<=17;x++){									
 4532              		.loc 1 973 0
 4533 1846 0022     		movs	r2, #0
 4534 1848 154B     		ldr	r3, .L554+16
 4535 184a 1A60     		str	r2, [r3]
 4536 184c 1D46     		mov	r5, r3
 974:.\Protocolo.c **** 						write_psoc1(val,msn_tventas[x]);				//Total de ventas
 4537              		.loc 1 974 0
 4538 184e 184F     		ldr	r7, .L554+32
 973:.\Protocolo.c **** 					for(x=0;x<=17;x++){									
 4539              		.loc 1 973 0
 4540 1850 08E0     		b	.L315
 4541              	.L316:
 4542              		.loc 1 974 0 discriminator 2
 4543 1852 3B44     		add	r3, r3, r7
 4544 1854 2046     		mov	r0, r4
 4545 1856 93F83810 		ldrb	r1, [r3, #56]	@ zero_extendqisi2
 4546 185a FFF7FEFF 		bl	write_psoc1
 4547              	.LVL342:
 973:.\Protocolo.c **** 					for(x=0;x<=17;x++){									
 4548              		.loc 1 973 0 discriminator 2
ARM GAS  C:\Users\RECEPC~1\AppData\Local\Temp\ccNG63cQ.s 			page 104


 4549 185e 2B68     		ldr	r3, [r5]
 4550 1860 0133     		adds	r3, r3, #1
 4551 1862 2B60     		str	r3, [r5]
 4552              	.L315:
 973:.\Protocolo.c **** 					for(x=0;x<=17;x++){									
 4553              		.loc 1 973 0 is_stmt 0 discriminator 1
 4554 1864 2B68     		ldr	r3, [r5]
 4555 1866 112B     		cmp	r3, #17
 4556 1868 F3D9     		bls	.L316
 975:.\Protocolo.c **** 					}
 976:.\Protocolo.c **** 					print_valor(resultado,val);
 4557              		.loc 1 976 0 is_stmt 1
 4558 186a 0948     		ldr	r0, .L554
 4559 186c 2146     		mov	r1, r4
 4560 186e FFF7FEFF 		bl	print_valor
 4561              	.LVL343:
 977:.\Protocolo.c **** 					if(dir==lado.a.dir){
 4562              		.loc 1 977 0
 4563 1872 084B     		ldr	r3, .L554+4
 4564 1874 1B78     		ldrb	r3, [r3]	@ zero_extendqisi2
 4565 1876 B342     		cmp	r3, r6
 4566 1878 1ED1     		bne	.L317
 978:.\Protocolo.c **** 						write_eeprom(192,corte);	
 4567              		.loc 1 978 0
 4568 187a C020     		movs	r0, #192
 4569 187c 09A9     		add	r1, sp, #36
 4570 187e FFF7FEFF 		bl	write_eeprom
 4571              	.LVL344:
 979:.\Protocolo.c **** 						write_eeprom(512,resultado);
 4572              		.loc 1 979 0
 4573 1882 4FF40070 		mov	r0, #512
 4574 1886 0249     		ldr	r1, .L554
 4575 1888 FFF7FEFF 		bl	write_eeprom
 4576              	.LVL345:
 4577 188c 1EE0     		b	.L304
 4578              	.L555:
 4579 188e 00BF     		.align	2
 4580              	.L554:
 4581 1890 00000000 		.word	resultado
 4582 1894 00000000 		.word	lado
 4583 1898 00000000 		.word	Surtidor_rxBuffer
 4584 189c 00000000 		.word	rventa
 4585 18a0 00000000 		.word	x
 4586 18a4 00000000 		.word	z
 4587 18a8 00000000 		.word	corriente
 4588 18ac 00000000 		.word	corriente2
 4589 18b0 00000000 		.word	.LANCHOR1
 4590 18b4 00000000 		.word	buffer_i2c
 4591              	.L317:
 980:.\Protocolo.c **** 					}
 981:.\Protocolo.c **** 					else{
 982:.\Protocolo.c **** 						write_eeprom(281,corte);
 4592              		.loc 1 982 0
 4593 18b8 40F21910 		movw	r0, #281
 4594 18bc 09A9     		add	r1, sp, #36
 4595 18be FFF7FEFF 		bl	write_eeprom
 4596              	.LVL346:
ARM GAS  C:\Users\RECEPC~1\AppData\Local\Temp\ccNG63cQ.s 			page 105


 983:.\Protocolo.c **** 						write_eeprom(551,resultado);
 4597              		.loc 1 983 0
 4598 18c2 40F22720 		movw	r0, #551
 4599 18c6 AB49     		ldr	r1, .L556
 4600 18c8 FFF7FEFF 		bl	write_eeprom
 4601              	.LVL347:
 4602              	.L304:
 984:.\Protocolo.c **** 					}
 985:.\Protocolo.c **** 				}
 986:.\Protocolo.c **** 				if(((rventa.manguera==(diesel&0x0F))&&(dir==lado.a.dir))||((rventa.manguera==(diesel2&0x0F))&&(
 4603              		.loc 1 986 0
 4604 18cc AA4B     		ldr	r3, .L556+4
 4605 18ce 93F8E030 		ldrb	r3, [r3, #224]	@ zero_extendqisi2
 4606 18d2 AA4A     		ldr	r2, .L556+8
 4607 18d4 1278     		ldrb	r2, [r2]	@ zero_extendqisi2
 4608 18d6 02F00F02 		and	r2, r2, #15
 4609 18da 9A42     		cmp	r2, r3
 4610 18dc 03D1     		bne	.L318
 4611              		.loc 1 986 0 is_stmt 0 discriminator 1
 4612 18de A84A     		ldr	r2, .L556+12
 4613 18e0 1278     		ldrb	r2, [r2]	@ zero_extendqisi2
 4614 18e2 B242     		cmp	r2, r6
 4615 18e4 0BD0     		beq	.L319
 4616              	.L318:
 4617              		.loc 1 986 0 discriminator 2
 4618 18e6 A74A     		ldr	r2, .L556+16
 4619 18e8 1278     		ldrb	r2, [r2]	@ zero_extendqisi2
 4620 18ea 02F00F02 		and	r2, r2, #15
 4621 18ee 9342     		cmp	r3, r2
 4622 18f0 40F0A980 		bne	.L320
 4623              		.loc 1 986 0 discriminator 1
 4624 18f4 A24B     		ldr	r3, .L556+12
 4625 18f6 1B79     		ldrb	r3, [r3, #4]	@ zero_extendqisi2
 4626 18f8 B342     		cmp	r3, r6
 4627 18fa 40F0A480 		bne	.L320
 4628              	.L319:
 987:.\Protocolo.c **** 					for(x=0;x<=13;x++){									
 4629              		.loc 1 987 0 is_stmt 1
 4630 18fe 0022     		movs	r2, #0
 4631 1900 A14B     		ldr	r3, .L556+20
 4632 1902 1A60     		str	r2, [r3]
 4633 1904 1D46     		mov	r5, r3
 988:.\Protocolo.c **** 						write_psoc1(val,msn_td[x]);
 4634              		.loc 1 988 0
 4635 1906 A14F     		ldr	r7, .L556+24
 987:.\Protocolo.c **** 					for(x=0;x<=13;x++){									
 4636              		.loc 1 987 0
 4637 1908 08E0     		b	.L321
 4638              	.L322:
 4639              		.loc 1 988 0 discriminator 2
 4640 190a 3B44     		add	r3, r3, r7
 4641 190c 2046     		mov	r0, r4
 4642 190e 93F84C10 		ldrb	r1, [r3, #76]	@ zero_extendqisi2
 4643 1912 FFF7FEFF 		bl	write_psoc1
 4644              	.LVL348:
 987:.\Protocolo.c **** 					for(x=0;x<=13;x++){									
 4645              		.loc 1 987 0 discriminator 2
ARM GAS  C:\Users\RECEPC~1\AppData\Local\Temp\ccNG63cQ.s 			page 106


 4646 1916 2B68     		ldr	r3, [r5]
 4647 1918 0133     		adds	r3, r3, #1
 4648 191a 2B60     		str	r3, [r5]
 4649              	.L321:
 987:.\Protocolo.c **** 					for(x=0;x<=13;x++){									
 4650              		.loc 1 987 0 is_stmt 0 discriminator 1
 4651 191c 2B68     		ldr	r3, [r5]
 4652 191e 0D2B     		cmp	r3, #13
 4653 1920 F3D9     		bls	.L322
 989:.\Protocolo.c **** 					}
 990:.\Protocolo.c **** 					write_psoc1(val,10);
 4654              		.loc 1 990 0 is_stmt 1
 4655 1922 2046     		mov	r0, r4
