ARM GAS  C:\Users\RECEPC~1\AppData\Local\Temp\ccllYUoy.s 			page 1


   1              		.syntax unified
   2              		.cpu cortex-m3
   3              		.fpu softvfp
   4              		.eabi_attribute 20, 1
   5              		.eabi_attribute 21, 1
   6              		.eabi_attribute 23, 3
   7              		.eabi_attribute 24, 1
   8              		.eabi_attribute 25, 1
   9              		.eabi_attribute 26, 1
  10              		.eabi_attribute 30, 1
  11              		.eabi_attribute 34, 1
  12              		.eabi_attribute 18, 4
  13              		.thumb
  14              		.file	"Surtidor.c"
  15              		.text
  16              	.Ltext0:
  17              		.cfi_sections	.debug_frame
  18              		.section	.text.Surtidor_Init,"ax",%progbits
  19              		.align	2
  20              		.global	Surtidor_Init
  21              		.thumb
  22              		.thumb_func
  23              		.type	Surtidor_Init, %function
  24              	Surtidor_Init:
  25              	.LFB1:
  26              		.file 1 ".\\Generated_Source\\PSoC5\\Surtidor.c"
   1:.\Generated_Source\PSoC5/Surtidor.c **** /*******************************************************************************
   2:.\Generated_Source\PSoC5/Surtidor.c **** * File Name: Surtidor.c
   3:.\Generated_Source\PSoC5/Surtidor.c **** * Version 2.30
   4:.\Generated_Source\PSoC5/Surtidor.c **** *
   5:.\Generated_Source\PSoC5/Surtidor.c **** * Description:
   6:.\Generated_Source\PSoC5/Surtidor.c **** *  This file provides all API functionality of the UART component
   7:.\Generated_Source\PSoC5/Surtidor.c **** *
   8:.\Generated_Source\PSoC5/Surtidor.c **** * Note:
   9:.\Generated_Source\PSoC5/Surtidor.c **** *
  10:.\Generated_Source\PSoC5/Surtidor.c **** ********************************************************************************
  11:.\Generated_Source\PSoC5/Surtidor.c **** * Copyright 2008-2012, Cypress Semiconductor Corporation.  All rights reserved.
  12:.\Generated_Source\PSoC5/Surtidor.c **** * You may use this file only in accordance with the license, terms, conditions,
  13:.\Generated_Source\PSoC5/Surtidor.c **** * disclaimers, and limitations in the end user license agreement accompanying
  14:.\Generated_Source\PSoC5/Surtidor.c **** * the software package with which this file was provided.
  15:.\Generated_Source\PSoC5/Surtidor.c **** *******************************************************************************/
  16:.\Generated_Source\PSoC5/Surtidor.c **** 
  17:.\Generated_Source\PSoC5/Surtidor.c **** #include "Surtidor.h"
  18:.\Generated_Source\PSoC5/Surtidor.c **** #include "CyLib.h"
  19:.\Generated_Source\PSoC5/Surtidor.c **** #if(Surtidor_INTERNAL_CLOCK_USED)
  20:.\Generated_Source\PSoC5/Surtidor.c ****     #include "Surtidor_IntClock.h"
  21:.\Generated_Source\PSoC5/Surtidor.c **** #endif /* End Surtidor_INTERNAL_CLOCK_USED */
  22:.\Generated_Source\PSoC5/Surtidor.c **** 
  23:.\Generated_Source\PSoC5/Surtidor.c **** 
  24:.\Generated_Source\PSoC5/Surtidor.c **** /***************************************
  25:.\Generated_Source\PSoC5/Surtidor.c **** * Global data allocation
  26:.\Generated_Source\PSoC5/Surtidor.c **** ***************************************/
  27:.\Generated_Source\PSoC5/Surtidor.c **** 
  28:.\Generated_Source\PSoC5/Surtidor.c **** uint8 Surtidor_initVar = 0u;
  29:.\Generated_Source\PSoC5/Surtidor.c **** #if( Surtidor_TX_ENABLED && (Surtidor_TXBUFFERSIZE > Surtidor_FIFO_LENGTH))
  30:.\Generated_Source\PSoC5/Surtidor.c ****     volatile uint8 Surtidor_txBuffer[Surtidor_TXBUFFERSIZE];
  31:.\Generated_Source\PSoC5/Surtidor.c ****     volatile uint8 Surtidor_txBufferRead = 0u;
ARM GAS  C:\Users\RECEPC~1\AppData\Local\Temp\ccllYUoy.s 			page 2


  32:.\Generated_Source\PSoC5/Surtidor.c ****     uint8 Surtidor_txBufferWrite = 0u;
  33:.\Generated_Source\PSoC5/Surtidor.c **** #endif /* End Surtidor_TX_ENABLED */
  34:.\Generated_Source\PSoC5/Surtidor.c **** #if( ( Surtidor_RX_ENABLED || Surtidor_HD_ENABLED ) && \
  35:.\Generated_Source\PSoC5/Surtidor.c ****      (Surtidor_RXBUFFERSIZE > Surtidor_FIFO_LENGTH) )
  36:.\Generated_Source\PSoC5/Surtidor.c ****     volatile uint8 Surtidor_rxBuffer[Surtidor_RXBUFFERSIZE];
  37:.\Generated_Source\PSoC5/Surtidor.c ****     volatile uint16 Surtidor_rxBufferRead = 0u;
  38:.\Generated_Source\PSoC5/Surtidor.c ****     volatile uint16 Surtidor_rxBufferWrite = 0u;
  39:.\Generated_Source\PSoC5/Surtidor.c ****     volatile uint8 Surtidor_rxBufferLoopDetect = 0u;
  40:.\Generated_Source\PSoC5/Surtidor.c ****     volatile uint8 Surtidor_rxBufferOverflow = 0u;
  41:.\Generated_Source\PSoC5/Surtidor.c ****     #if (Surtidor_RXHW_ADDRESS_ENABLED)
  42:.\Generated_Source\PSoC5/Surtidor.c ****         volatile uint8 Surtidor_rxAddressMode = Surtidor_RXADDRESSMODE;
  43:.\Generated_Source\PSoC5/Surtidor.c ****         volatile uint8 Surtidor_rxAddressDetected = 0u;
  44:.\Generated_Source\PSoC5/Surtidor.c ****     #endif /* End EnableHWAddress */
  45:.\Generated_Source\PSoC5/Surtidor.c **** #endif /* End Surtidor_RX_ENABLED */
  46:.\Generated_Source\PSoC5/Surtidor.c **** 
  47:.\Generated_Source\PSoC5/Surtidor.c **** 
  48:.\Generated_Source\PSoC5/Surtidor.c **** /*******************************************************************************
  49:.\Generated_Source\PSoC5/Surtidor.c **** * Function Name: Surtidor_Start
  50:.\Generated_Source\PSoC5/Surtidor.c **** ********************************************************************************
  51:.\Generated_Source\PSoC5/Surtidor.c **** *
  52:.\Generated_Source\PSoC5/Surtidor.c **** * Summary:
  53:.\Generated_Source\PSoC5/Surtidor.c **** *  Initialize and Enable the UART component.
  54:.\Generated_Source\PSoC5/Surtidor.c **** *  Enable the clock input to enable operation.
  55:.\Generated_Source\PSoC5/Surtidor.c **** *
  56:.\Generated_Source\PSoC5/Surtidor.c **** * Parameters:
  57:.\Generated_Source\PSoC5/Surtidor.c **** *  None.
  58:.\Generated_Source\PSoC5/Surtidor.c **** *
  59:.\Generated_Source\PSoC5/Surtidor.c **** * Return:
  60:.\Generated_Source\PSoC5/Surtidor.c **** *  None.
  61:.\Generated_Source\PSoC5/Surtidor.c **** *
  62:.\Generated_Source\PSoC5/Surtidor.c **** * Global variables:
  63:.\Generated_Source\PSoC5/Surtidor.c **** *  The Surtidor_intiVar variable is used to indicate initial
  64:.\Generated_Source\PSoC5/Surtidor.c **** *  configuration of this component. The variable is initialized to zero (0u)
  65:.\Generated_Source\PSoC5/Surtidor.c **** *  and set to one (1u) the first time UART_Start() is called. This allows for
  66:.\Generated_Source\PSoC5/Surtidor.c **** *  component initialization without re-initialization in all subsequent calls
  67:.\Generated_Source\PSoC5/Surtidor.c **** *  to the Surtidor_Start() routine.
  68:.\Generated_Source\PSoC5/Surtidor.c **** *
  69:.\Generated_Source\PSoC5/Surtidor.c **** * Reentrant:
  70:.\Generated_Source\PSoC5/Surtidor.c **** *  No.
  71:.\Generated_Source\PSoC5/Surtidor.c **** *
  72:.\Generated_Source\PSoC5/Surtidor.c **** *******************************************************************************/
  73:.\Generated_Source\PSoC5/Surtidor.c **** void Surtidor_Start(void) 
  74:.\Generated_Source\PSoC5/Surtidor.c **** {
  75:.\Generated_Source\PSoC5/Surtidor.c ****     /* If not Initialized then initialize all required hardware and software */
  76:.\Generated_Source\PSoC5/Surtidor.c ****     if(Surtidor_initVar == 0u)
  77:.\Generated_Source\PSoC5/Surtidor.c ****     {
  78:.\Generated_Source\PSoC5/Surtidor.c ****         Surtidor_Init();
  79:.\Generated_Source\PSoC5/Surtidor.c ****         Surtidor_initVar = 1u;
  80:.\Generated_Source\PSoC5/Surtidor.c ****     }
  81:.\Generated_Source\PSoC5/Surtidor.c ****     Surtidor_Enable();
  82:.\Generated_Source\PSoC5/Surtidor.c **** }
  83:.\Generated_Source\PSoC5/Surtidor.c **** 
  84:.\Generated_Source\PSoC5/Surtidor.c **** 
  85:.\Generated_Source\PSoC5/Surtidor.c **** /*******************************************************************************
  86:.\Generated_Source\PSoC5/Surtidor.c **** * Function Name: Surtidor_Init
  87:.\Generated_Source\PSoC5/Surtidor.c **** ********************************************************************************
  88:.\Generated_Source\PSoC5/Surtidor.c **** *
ARM GAS  C:\Users\RECEPC~1\AppData\Local\Temp\ccllYUoy.s 			page 3


  89:.\Generated_Source\PSoC5/Surtidor.c **** * Summary:
  90:.\Generated_Source\PSoC5/Surtidor.c **** *  Initialize component's parameters to the parameters set by user in the
  91:.\Generated_Source\PSoC5/Surtidor.c **** *  customizer of the component placed onto schematic. Usually called in
  92:.\Generated_Source\PSoC5/Surtidor.c **** *  Surtidor_Start().
  93:.\Generated_Source\PSoC5/Surtidor.c **** *
  94:.\Generated_Source\PSoC5/Surtidor.c **** * Parameters:
  95:.\Generated_Source\PSoC5/Surtidor.c **** *  None.
  96:.\Generated_Source\PSoC5/Surtidor.c **** *
  97:.\Generated_Source\PSoC5/Surtidor.c **** * Return:
  98:.\Generated_Source\PSoC5/Surtidor.c **** *  None.
  99:.\Generated_Source\PSoC5/Surtidor.c **** *
 100:.\Generated_Source\PSoC5/Surtidor.c **** *******************************************************************************/
 101:.\Generated_Source\PSoC5/Surtidor.c **** void Surtidor_Init(void) 
 102:.\Generated_Source\PSoC5/Surtidor.c **** {
  27              		.loc 1 102 0
  28              		.cfi_startproc
  29              		@ args = 0, pretend = 0, frame = 0
  30              		@ frame_needed = 0, uses_anonymous_args = 0
  31 0000 08B5     		push	{r3, lr}
  32              		.cfi_def_cfa_offset 8
  33              		.cfi_offset 3, -8
  34              		.cfi_offset 14, -4
 103:.\Generated_Source\PSoC5/Surtidor.c ****     #if(Surtidor_RX_ENABLED || Surtidor_HD_ENABLED)
 104:.\Generated_Source\PSoC5/Surtidor.c **** 
 105:.\Generated_Source\PSoC5/Surtidor.c ****         #if(Surtidor_RX_INTERRUPT_ENABLED && (Surtidor_RXBUFFERSIZE > Surtidor_FIFO_LENGTH))
 106:.\Generated_Source\PSoC5/Surtidor.c ****             /* Set the RX Interrupt. */
 107:.\Generated_Source\PSoC5/Surtidor.c ****             (void)CyIntSetVector(Surtidor_RX_VECT_NUM, &Surtidor_RXISR);
  35              		.loc 1 107 0
  36 0002 0420     		movs	r0, #4
  37 0004 0B49     		ldr	r1, .L2
  38 0006 FFF7FEFF 		bl	CyIntSetVector
  39              	.LVL0:
 108:.\Generated_Source\PSoC5/Surtidor.c ****             CyIntSetPriority(Surtidor_RX_VECT_NUM, Surtidor_RX_PRIOR_NUM);
  40              		.loc 1 108 0
  41 000a 0420     		movs	r0, #4
  42 000c 0721     		movs	r1, #7
  43 000e FFF7FEFF 		bl	CyIntSetPriority
  44              	.LVL1:
 109:.\Generated_Source\PSoC5/Surtidor.c ****         #endif /* End Surtidor_RX_INTERRUPT_ENABLED */
 110:.\Generated_Source\PSoC5/Surtidor.c **** 
 111:.\Generated_Source\PSoC5/Surtidor.c ****         #if (Surtidor_RXHW_ADDRESS_ENABLED)
 112:.\Generated_Source\PSoC5/Surtidor.c ****             Surtidor_SetRxAddressMode(Surtidor_RXAddressMode);
 113:.\Generated_Source\PSoC5/Surtidor.c ****             Surtidor_SetRxAddress1(Surtidor_RXHWADDRESS1);
 114:.\Generated_Source\PSoC5/Surtidor.c ****             Surtidor_SetRxAddress2(Surtidor_RXHWADDRESS2);
 115:.\Generated_Source\PSoC5/Surtidor.c ****         #endif /* End Surtidor_RXHW_ADDRESS_ENABLED */
 116:.\Generated_Source\PSoC5/Surtidor.c **** 
 117:.\Generated_Source\PSoC5/Surtidor.c ****         /* Init Count7 period */
 118:.\Generated_Source\PSoC5/Surtidor.c ****         Surtidor_RXBITCTR_PERIOD_REG = Surtidor_RXBITCTR_INIT;
  45              		.loc 1 118 0
  46 0012 7222     		movs	r2, #114
  47 0014 084B     		ldr	r3, .L2+4
  48 0016 1A70     		strb	r2, [r3]
 119:.\Generated_Source\PSoC5/Surtidor.c ****         /* Configure the Initial RX interrupt mask */
 120:.\Generated_Source\PSoC5/Surtidor.c ****         Surtidor_RXSTATUS_MASK_REG  = Surtidor_INIT_RX_INTERRUPTS_MASK;
  49              		.loc 1 120 0
  50 0018 2022     		movs	r2, #32
  51 001a 0833     		adds	r3, r3, #8
ARM GAS  C:\Users\RECEPC~1\AppData\Local\Temp\ccllYUoy.s 			page 4


  52 001c 1A70     		strb	r2, [r3]
 121:.\Generated_Source\PSoC5/Surtidor.c ****     #endif /* End Surtidor_RX_ENABLED || Surtidor_HD_ENABLED*/
 122:.\Generated_Source\PSoC5/Surtidor.c **** 
 123:.\Generated_Source\PSoC5/Surtidor.c ****     #if(Surtidor_TX_ENABLED)
 124:.\Generated_Source\PSoC5/Surtidor.c ****         #if(Surtidor_TX_INTERRUPT_ENABLED && (Surtidor_TXBUFFERSIZE > Surtidor_FIFO_LENGTH))
 125:.\Generated_Source\PSoC5/Surtidor.c ****             /* Set the TX Interrupt. */
 126:.\Generated_Source\PSoC5/Surtidor.c ****             (void)CyIntSetVector(Surtidor_TX_VECT_NUM, &Surtidor_TXISR);
 127:.\Generated_Source\PSoC5/Surtidor.c ****             CyIntSetPriority(Surtidor_TX_VECT_NUM, Surtidor_TX_PRIOR_NUM);
 128:.\Generated_Source\PSoC5/Surtidor.c ****         #endif /* End Surtidor_TX_INTERRUPT_ENABLED */
 129:.\Generated_Source\PSoC5/Surtidor.c **** 
 130:.\Generated_Source\PSoC5/Surtidor.c ****         /* Write Counter Value for TX Bit Clk Generator*/
 131:.\Generated_Source\PSoC5/Surtidor.c ****         #if(Surtidor_TXCLKGEN_DP)
 132:.\Generated_Source\PSoC5/Surtidor.c ****             Surtidor_TXBITCLKGEN_CTR_REG = Surtidor_BIT_CENTER;
  53              		.loc 1 132 0
  54 001e 0722     		movs	r2, #7
  55 0020 9B33     		adds	r3, r3, #155
  56 0022 1A70     		strb	r2, [r3]
 133:.\Generated_Source\PSoC5/Surtidor.c ****             Surtidor_TXBITCLKTX_COMPLETE_REG = (Surtidor_NUMBER_OF_DATA_BITS +
  57              		.loc 1 133 0
  58 0024 4822     		movs	r2, #72
  59 0026 1033     		adds	r3, r3, #16
  60 0028 1A70     		strb	r2, [r3]
 134:.\Generated_Source\PSoC5/Surtidor.c ****                         Surtidor_NUMBER_OF_START_BIT) * Surtidor_OVER_SAMPLE_COUNT;
 135:.\Generated_Source\PSoC5/Surtidor.c ****         #else
 136:.\Generated_Source\PSoC5/Surtidor.c ****             Surtidor_TXBITCTR_PERIOD_REG = ((Surtidor_NUMBER_OF_DATA_BITS +
 137:.\Generated_Source\PSoC5/Surtidor.c ****                         Surtidor_NUMBER_OF_START_BIT) * Surtidor_OVER_SAMPLE_8) - 1u;
 138:.\Generated_Source\PSoC5/Surtidor.c ****         #endif /* End Surtidor_TXCLKGEN_DP */
 139:.\Generated_Source\PSoC5/Surtidor.c **** 
 140:.\Generated_Source\PSoC5/Surtidor.c ****         /* Configure the Initial TX interrupt mask */
 141:.\Generated_Source\PSoC5/Surtidor.c ****         #if(Surtidor_TX_INTERRUPT_ENABLED && (Surtidor_TXBUFFERSIZE > Surtidor_FIFO_LENGTH))
 142:.\Generated_Source\PSoC5/Surtidor.c ****             Surtidor_TXSTATUS_MASK_REG = Surtidor_TX_STS_FIFO_EMPTY;
 143:.\Generated_Source\PSoC5/Surtidor.c ****         #else
 144:.\Generated_Source\PSoC5/Surtidor.c ****             Surtidor_TXSTATUS_MASK_REG = Surtidor_INIT_TX_INTERRUPTS_MASK;
  61              		.loc 1 144 0
  62 002a 0022     		movs	r2, #0
  63 002c 5033     		adds	r3, r3, #80
  64 002e 1A70     		strb	r2, [r3]
  65 0030 08BD     		pop	{r3, pc}
  66              	.L3:
  67 0032 00BF     		.align	2
  68              	.L2:
  69 0034 00000000 		.word	Surtidor_RXISR
  70 0038 83640040 		.word	1073767555
  71              		.cfi_endproc
  72              	.LFE1:
  73              		.size	Surtidor_Init, .-Surtidor_Init
  74              		.section	.text.Surtidor_Enable,"ax",%progbits
  75              		.align	2
  76              		.global	Surtidor_Enable
  77              		.thumb
  78              		.thumb_func
  79              		.type	Surtidor_Enable, %function
  80              	Surtidor_Enable:
  81              	.LFB2:
 145:.\Generated_Source\PSoC5/Surtidor.c ****         #endif /*End Surtidor_TX_INTERRUPT_ENABLED*/
 146:.\Generated_Source\PSoC5/Surtidor.c **** 
 147:.\Generated_Source\PSoC5/Surtidor.c ****     #endif /* End Surtidor_TX_ENABLED */
ARM GAS  C:\Users\RECEPC~1\AppData\Local\Temp\ccllYUoy.s 			page 5


 148:.\Generated_Source\PSoC5/Surtidor.c **** 
 149:.\Generated_Source\PSoC5/Surtidor.c ****     #if(Surtidor_PARITY_TYPE_SW)  /* Write Parity to Control Register */
 150:.\Generated_Source\PSoC5/Surtidor.c ****         Surtidor_WriteControlRegister( \
 151:.\Generated_Source\PSoC5/Surtidor.c ****             (Surtidor_ReadControlRegister() & (uint8)~Surtidor_CTRL_PARITY_TYPE_MASK) | \
 152:.\Generated_Source\PSoC5/Surtidor.c ****             (uint8)(Surtidor_PARITY_TYPE << Surtidor_CTRL_PARITY_TYPE0_SHIFT) );
 153:.\Generated_Source\PSoC5/Surtidor.c ****     #endif /* End Surtidor_PARITY_TYPE_SW */
 154:.\Generated_Source\PSoC5/Surtidor.c **** }
 155:.\Generated_Source\PSoC5/Surtidor.c **** 
 156:.\Generated_Source\PSoC5/Surtidor.c **** 
 157:.\Generated_Source\PSoC5/Surtidor.c **** /*******************************************************************************
 158:.\Generated_Source\PSoC5/Surtidor.c **** * Function Name: Surtidor_Enable
 159:.\Generated_Source\PSoC5/Surtidor.c **** ********************************************************************************
 160:.\Generated_Source\PSoC5/Surtidor.c **** *
 161:.\Generated_Source\PSoC5/Surtidor.c **** * Summary:
 162:.\Generated_Source\PSoC5/Surtidor.c **** *  Enables the UART block operation
 163:.\Generated_Source\PSoC5/Surtidor.c **** *
 164:.\Generated_Source\PSoC5/Surtidor.c **** * Parameters:
 165:.\Generated_Source\PSoC5/Surtidor.c **** *  None.
 166:.\Generated_Source\PSoC5/Surtidor.c **** *
 167:.\Generated_Source\PSoC5/Surtidor.c **** * Return:
 168:.\Generated_Source\PSoC5/Surtidor.c **** *  None.
 169:.\Generated_Source\PSoC5/Surtidor.c **** *
 170:.\Generated_Source\PSoC5/Surtidor.c **** * Global Variables:
 171:.\Generated_Source\PSoC5/Surtidor.c **** *  Surtidor_rxAddressDetected - set to initial state (0).
 172:.\Generated_Source\PSoC5/Surtidor.c **** *
 173:.\Generated_Source\PSoC5/Surtidor.c **** *******************************************************************************/
 174:.\Generated_Source\PSoC5/Surtidor.c **** void Surtidor_Enable(void) 
 175:.\Generated_Source\PSoC5/Surtidor.c **** {
  82              		.loc 1 175 0
  83              		.cfi_startproc
  84              		@ args = 0, pretend = 0, frame = 0
  85              		@ frame_needed = 0, uses_anonymous_args = 0
  86 0000 08B5     		push	{r3, lr}
  87              		.cfi_def_cfa_offset 8
  88              		.cfi_offset 3, -8
  89              		.cfi_offset 14, -4
 176:.\Generated_Source\PSoC5/Surtidor.c ****     uint8 enableInterrupts;
 177:.\Generated_Source\PSoC5/Surtidor.c ****     enableInterrupts = CyEnterCriticalSection();
  90              		.loc 1 177 0
  91 0002 FFF7FEFF 		bl	CyEnterCriticalSection
  92              	.LVL2:
 178:.\Generated_Source\PSoC5/Surtidor.c **** 
 179:.\Generated_Source\PSoC5/Surtidor.c ****     #if(Surtidor_RX_ENABLED || Surtidor_HD_ENABLED)
 180:.\Generated_Source\PSoC5/Surtidor.c ****         /*RX Counter (Count7) Enable */
 181:.\Generated_Source\PSoC5/Surtidor.c ****         Surtidor_RXBITCTR_CONTROL_REG |= Surtidor_CNTR_ENABLE;
  93              		.loc 1 181 0
  94 0006 0A4B     		ldr	r3, .L5
  95 0008 1A78     		ldrb	r2, [r3]	@ zero_extendqisi2
  96 000a 42F02002 		orr	r2, r2, #32
  97 000e 1A70     		strb	r2, [r3]
 182:.\Generated_Source\PSoC5/Surtidor.c ****         /* Enable the RX Interrupt. */
 183:.\Generated_Source\PSoC5/Surtidor.c ****         Surtidor_RXSTATUS_ACTL_REG  |= Surtidor_INT_ENABLE;
  98              		.loc 1 183 0
  99 0010 0833     		adds	r3, r3, #8
 100 0012 1A78     		ldrb	r2, [r3]	@ zero_extendqisi2
 101 0014 42F01002 		orr	r2, r2, #16
 102 0018 1A70     		strb	r2, [r3]
ARM GAS  C:\Users\RECEPC~1\AppData\Local\Temp\ccllYUoy.s 			page 6


 184:.\Generated_Source\PSoC5/Surtidor.c ****         #if(Surtidor_RX_INTERRUPT_ENABLED && (Surtidor_RXBUFFERSIZE > Surtidor_FIFO_LENGTH))
 185:.\Generated_Source\PSoC5/Surtidor.c ****             CyIntEnable(Surtidor_RX_VECT_NUM);
 103              		.loc 1 185 0
 104 001a 1022     		movs	r2, #16
 105 001c 054B     		ldr	r3, .L5+4
 106 001e 1A60     		str	r2, [r3]
 186:.\Generated_Source\PSoC5/Surtidor.c ****             #if (Surtidor_RXHW_ADDRESS_ENABLED)
 187:.\Generated_Source\PSoC5/Surtidor.c ****                 Surtidor_rxAddressDetected = 0u;
 188:.\Generated_Source\PSoC5/Surtidor.c ****             #endif /* End Surtidor_RXHW_ADDRESS_ENABLED */
 189:.\Generated_Source\PSoC5/Surtidor.c ****         #endif /* End Surtidor_RX_INTERRUPT_ENABLED */
 190:.\Generated_Source\PSoC5/Surtidor.c ****     #endif /* End Surtidor_RX_ENABLED || Surtidor_HD_ENABLED*/
 191:.\Generated_Source\PSoC5/Surtidor.c **** 
 192:.\Generated_Source\PSoC5/Surtidor.c ****     #if(Surtidor_TX_ENABLED)
 193:.\Generated_Source\PSoC5/Surtidor.c ****         /*TX Counter (DP/Count7) Enable */
 194:.\Generated_Source\PSoC5/Surtidor.c ****         #if(!Surtidor_TXCLKGEN_DP)
 195:.\Generated_Source\PSoC5/Surtidor.c ****             Surtidor_TXBITCTR_CONTROL_REG |= Surtidor_CNTR_ENABLE;
 196:.\Generated_Source\PSoC5/Surtidor.c ****         #endif /* End Surtidor_TXCLKGEN_DP */
 197:.\Generated_Source\PSoC5/Surtidor.c ****         /* Enable the TX Interrupt. */
 198:.\Generated_Source\PSoC5/Surtidor.c ****         Surtidor_TXSTATUS_ACTL_REG |= Surtidor_INT_ENABLE;
 107              		.loc 1 198 0
 108 0020 054B     		ldr	r3, .L5+8
 109 0022 1A78     		ldrb	r2, [r3]	@ zero_extendqisi2
 110 0024 42F01002 		orr	r2, r2, #16
 111 0028 1A70     		strb	r2, [r3]
 199:.\Generated_Source\PSoC5/Surtidor.c ****         #if(Surtidor_TX_INTERRUPT_ENABLED && (Surtidor_TXBUFFERSIZE > Surtidor_FIFO_LENGTH))
 200:.\Generated_Source\PSoC5/Surtidor.c ****             CyIntEnable(Surtidor_TX_VECT_NUM);
 201:.\Generated_Source\PSoC5/Surtidor.c ****         #endif /* End Surtidor_TX_INTERRUPT_ENABLED*/
 202:.\Generated_Source\PSoC5/Surtidor.c ****      #endif /* End Surtidor_TX_ENABLED */
 203:.\Generated_Source\PSoC5/Surtidor.c **** 
 204:.\Generated_Source\PSoC5/Surtidor.c ****     #if(Surtidor_INTERNAL_CLOCK_USED)
 205:.\Generated_Source\PSoC5/Surtidor.c ****         /* Enable the clock. */
 206:.\Generated_Source\PSoC5/Surtidor.c ****         Surtidor_IntClock_Start();
 207:.\Generated_Source\PSoC5/Surtidor.c ****     #endif /* End Surtidor_INTERNAL_CLOCK_USED */
 208:.\Generated_Source\PSoC5/Surtidor.c **** 
 209:.\Generated_Source\PSoC5/Surtidor.c ****     CyExitCriticalSection(enableInterrupts);
 112              		.loc 1 209 0
 113 002a FFF7FEFF 		bl	CyExitCriticalSection
 114              	.LVL3:
 115 002e 08BD     		pop	{r3, pc}
 116              	.L6:
 117              		.align	2
 118              	.L5:
 119 0030 93640040 		.word	1073767571
 120 0034 00E100E0 		.word	-536813312
 121 0038 96650040 		.word	1073767830
 122              		.cfi_endproc
 123              	.LFE2:
 124              		.size	Surtidor_Enable, .-Surtidor_Enable
 125              		.section	.text.Surtidor_Start,"ax",%progbits
 126              		.align	2
 127              		.global	Surtidor_Start
 128              		.thumb
 129              		.thumb_func
 130              		.type	Surtidor_Start, %function
 131              	Surtidor_Start:
 132              	.LFB0:
  74:.\Generated_Source\PSoC5/Surtidor.c **** {
ARM GAS  C:\Users\RECEPC~1\AppData\Local\Temp\ccllYUoy.s 			page 7


 133              		.loc 1 74 0
 134              		.cfi_startproc
 135              		@ args = 0, pretend = 0, frame = 0
 136              		@ frame_needed = 0, uses_anonymous_args = 0
 137 0000 08B5     		push	{r3, lr}
 138              		.cfi_def_cfa_offset 8
 139              		.cfi_offset 3, -8
 140              		.cfi_offset 14, -4
  76:.\Generated_Source\PSoC5/Surtidor.c ****     if(Surtidor_initVar == 0u)
 141              		.loc 1 76 0
 142 0002 054B     		ldr	r3, .L9
 143 0004 1B78     		ldrb	r3, [r3]	@ zero_extendqisi2
 144 0006 23B9     		cbnz	r3, .L8
  78:.\Generated_Source\PSoC5/Surtidor.c ****         Surtidor_Init();
 145              		.loc 1 78 0
 146 0008 FFF7FEFF 		bl	Surtidor_Init
 147              	.LVL4:
  79:.\Generated_Source\PSoC5/Surtidor.c ****         Surtidor_initVar = 1u;
 148              		.loc 1 79 0
 149 000c 0122     		movs	r2, #1
 150 000e 024B     		ldr	r3, .L9
 151 0010 1A70     		strb	r2, [r3]
 152              	.L8:
  81:.\Generated_Source\PSoC5/Surtidor.c ****     Surtidor_Enable();
 153              		.loc 1 81 0
 154 0012 FFF7FEFF 		bl	Surtidor_Enable
 155              	.LVL5:
 156 0016 08BD     		pop	{r3, pc}
 157              	.L10:
 158              		.align	2
 159              	.L9:
 160 0018 00000000 		.word	.LANCHOR0
 161              		.cfi_endproc
 162              	.LFE0:
 163              		.size	Surtidor_Start, .-Surtidor_Start
 164              		.section	.text.Surtidor_ReadControlRegister,"ax",%progbits
 165              		.align	2
 166              		.global	Surtidor_ReadControlRegister
 167              		.thumb
 168              		.thumb_func
 169              		.type	Surtidor_ReadControlRegister, %function
 170              	Surtidor_ReadControlRegister:
 171              	.LFB4:
 210:.\Generated_Source\PSoC5/Surtidor.c **** }
 211:.\Generated_Source\PSoC5/Surtidor.c **** 
 212:.\Generated_Source\PSoC5/Surtidor.c **** 
 213:.\Generated_Source\PSoC5/Surtidor.c **** /*******************************************************************************
 214:.\Generated_Source\PSoC5/Surtidor.c **** * Function Name: Surtidor_Stop
 215:.\Generated_Source\PSoC5/Surtidor.c **** ********************************************************************************
 216:.\Generated_Source\PSoC5/Surtidor.c **** *
 217:.\Generated_Source\PSoC5/Surtidor.c **** * Summary:
 218:.\Generated_Source\PSoC5/Surtidor.c **** *  Disable the UART component
 219:.\Generated_Source\PSoC5/Surtidor.c **** *
 220:.\Generated_Source\PSoC5/Surtidor.c **** * Parameters:
 221:.\Generated_Source\PSoC5/Surtidor.c **** *  None.
 222:.\Generated_Source\PSoC5/Surtidor.c **** *
 223:.\Generated_Source\PSoC5/Surtidor.c **** * Return:
ARM GAS  C:\Users\RECEPC~1\AppData\Local\Temp\ccllYUoy.s 			page 8


 224:.\Generated_Source\PSoC5/Surtidor.c **** *  None.
 225:.\Generated_Source\PSoC5/Surtidor.c **** *
 226:.\Generated_Source\PSoC5/Surtidor.c **** *******************************************************************************/
 227:.\Generated_Source\PSoC5/Surtidor.c **** void Surtidor_Stop(void) 
 228:.\Generated_Source\PSoC5/Surtidor.c **** {
 229:.\Generated_Source\PSoC5/Surtidor.c ****     uint8 enableInterrupts;
 230:.\Generated_Source\PSoC5/Surtidor.c ****     enableInterrupts = CyEnterCriticalSection();
 231:.\Generated_Source\PSoC5/Surtidor.c **** 
 232:.\Generated_Source\PSoC5/Surtidor.c ****     /* Write Bit Counter Disable */
 233:.\Generated_Source\PSoC5/Surtidor.c ****     #if(Surtidor_RX_ENABLED || Surtidor_HD_ENABLED)
 234:.\Generated_Source\PSoC5/Surtidor.c ****         Surtidor_RXBITCTR_CONTROL_REG &= (uint8)~Surtidor_CNTR_ENABLE;
 235:.\Generated_Source\PSoC5/Surtidor.c ****     #endif /* End Surtidor_RX_ENABLED */
 236:.\Generated_Source\PSoC5/Surtidor.c **** 
 237:.\Generated_Source\PSoC5/Surtidor.c ****     #if(Surtidor_TX_ENABLED)
 238:.\Generated_Source\PSoC5/Surtidor.c ****         #if(!Surtidor_TXCLKGEN_DP)
 239:.\Generated_Source\PSoC5/Surtidor.c ****             Surtidor_TXBITCTR_CONTROL_REG &= (uint8)~Surtidor_CNTR_ENABLE;
 240:.\Generated_Source\PSoC5/Surtidor.c ****         #endif /* End Surtidor_TXCLKGEN_DP */
 241:.\Generated_Source\PSoC5/Surtidor.c ****     #endif /* Surtidor_TX_ENABLED */
 242:.\Generated_Source\PSoC5/Surtidor.c **** 
 243:.\Generated_Source\PSoC5/Surtidor.c ****     #if(Surtidor_INTERNAL_CLOCK_USED)
 244:.\Generated_Source\PSoC5/Surtidor.c ****         /* Disable the clock. */
 245:.\Generated_Source\PSoC5/Surtidor.c ****         Surtidor_IntClock_Stop();
 246:.\Generated_Source\PSoC5/Surtidor.c ****     #endif /* End Surtidor_INTERNAL_CLOCK_USED */
 247:.\Generated_Source\PSoC5/Surtidor.c **** 
 248:.\Generated_Source\PSoC5/Surtidor.c ****     /* Disable internal interrupt component */
 249:.\Generated_Source\PSoC5/Surtidor.c ****     #if(Surtidor_RX_ENABLED || Surtidor_HD_ENABLED)
 250:.\Generated_Source\PSoC5/Surtidor.c ****         Surtidor_RXSTATUS_ACTL_REG  &= (uint8)~Surtidor_INT_ENABLE;
 251:.\Generated_Source\PSoC5/Surtidor.c ****         #if(Surtidor_RX_INTERRUPT_ENABLED && (Surtidor_RXBUFFERSIZE > Surtidor_FIFO_LENGTH))
 252:.\Generated_Source\PSoC5/Surtidor.c ****             Surtidor_DisableRxInt();
 253:.\Generated_Source\PSoC5/Surtidor.c ****         #endif /* End Surtidor_RX_INTERRUPT_ENABLED */
 254:.\Generated_Source\PSoC5/Surtidor.c ****     #endif /* End Surtidor_RX_ENABLED */
 255:.\Generated_Source\PSoC5/Surtidor.c **** 
 256:.\Generated_Source\PSoC5/Surtidor.c ****     #if(Surtidor_TX_ENABLED)
 257:.\Generated_Source\PSoC5/Surtidor.c ****         Surtidor_TXSTATUS_ACTL_REG &= (uint8)~Surtidor_INT_ENABLE;
 258:.\Generated_Source\PSoC5/Surtidor.c ****         #if(Surtidor_TX_INTERRUPT_ENABLED && (Surtidor_TXBUFFERSIZE > Surtidor_FIFO_LENGTH))
 259:.\Generated_Source\PSoC5/Surtidor.c ****             Surtidor_DisableTxInt();
 260:.\Generated_Source\PSoC5/Surtidor.c ****         #endif /* End Surtidor_TX_INTERRUPT_ENABLED */
 261:.\Generated_Source\PSoC5/Surtidor.c ****     #endif /* End Surtidor_TX_ENABLED */
 262:.\Generated_Source\PSoC5/Surtidor.c **** 
 263:.\Generated_Source\PSoC5/Surtidor.c ****     CyExitCriticalSection(enableInterrupts);
 264:.\Generated_Source\PSoC5/Surtidor.c **** }
 265:.\Generated_Source\PSoC5/Surtidor.c **** 
 266:.\Generated_Source\PSoC5/Surtidor.c **** 
 267:.\Generated_Source\PSoC5/Surtidor.c **** /*******************************************************************************
 268:.\Generated_Source\PSoC5/Surtidor.c **** * Function Name: Surtidor_ReadControlRegister
 269:.\Generated_Source\PSoC5/Surtidor.c **** ********************************************************************************
 270:.\Generated_Source\PSoC5/Surtidor.c **** *
 271:.\Generated_Source\PSoC5/Surtidor.c **** * Summary:
 272:.\Generated_Source\PSoC5/Surtidor.c **** *  Read the current state of the control register
 273:.\Generated_Source\PSoC5/Surtidor.c **** *
 274:.\Generated_Source\PSoC5/Surtidor.c **** * Parameters:
 275:.\Generated_Source\PSoC5/Surtidor.c **** *  None.
 276:.\Generated_Source\PSoC5/Surtidor.c **** *
 277:.\Generated_Source\PSoC5/Surtidor.c **** * Return:
 278:.\Generated_Source\PSoC5/Surtidor.c **** *  Current state of the control register.
 279:.\Generated_Source\PSoC5/Surtidor.c **** *
 280:.\Generated_Source\PSoC5/Surtidor.c **** *******************************************************************************/
ARM GAS  C:\Users\RECEPC~1\AppData\Local\Temp\ccllYUoy.s 			page 9


 281:.\Generated_Source\PSoC5/Surtidor.c **** uint8 Surtidor_ReadControlRegister(void) 
 282:.\Generated_Source\PSoC5/Surtidor.c **** {
 172              		.loc 1 282 0
 173              		.cfi_startproc
 174              		@ args = 0, pretend = 0, frame = 0
 175              		@ frame_needed = 0, uses_anonymous_args = 0
 176              		@ link register save eliminated.
 283:.\Generated_Source\PSoC5/Surtidor.c ****     #if( Surtidor_CONTROL_REG_REMOVED )
 284:.\Generated_Source\PSoC5/Surtidor.c ****         return(0u);
 285:.\Generated_Source\PSoC5/Surtidor.c ****     #else
 286:.\Generated_Source\PSoC5/Surtidor.c ****         return(Surtidor_CONTROL_REG);
 287:.\Generated_Source\PSoC5/Surtidor.c ****     #endif /* End Surtidor_CONTROL_REG_REMOVED */
 288:.\Generated_Source\PSoC5/Surtidor.c **** }
 177              		.loc 1 288 0
 178 0000 0020     		movs	r0, #0
 179 0002 7047     		bx	lr
 180              		.cfi_endproc
 181              	.LFE4:
 182              		.size	Surtidor_ReadControlRegister, .-Surtidor_ReadControlRegister
 183              		.section	.text.Surtidor_WriteControlRegister,"ax",%progbits
 184              		.align	2
 185              		.global	Surtidor_WriteControlRegister
 186              		.thumb
 187              		.thumb_func
 188              		.type	Surtidor_WriteControlRegister, %function
 189              	Surtidor_WriteControlRegister:
 190              	.LFB5:
 289:.\Generated_Source\PSoC5/Surtidor.c **** 
 290:.\Generated_Source\PSoC5/Surtidor.c **** 
 291:.\Generated_Source\PSoC5/Surtidor.c **** /*******************************************************************************
 292:.\Generated_Source\PSoC5/Surtidor.c **** * Function Name: Surtidor_WriteControlRegister
 293:.\Generated_Source\PSoC5/Surtidor.c **** ********************************************************************************
 294:.\Generated_Source\PSoC5/Surtidor.c **** *
 295:.\Generated_Source\PSoC5/Surtidor.c **** * Summary:
 296:.\Generated_Source\PSoC5/Surtidor.c **** *  Writes an 8-bit value into the control register
 297:.\Generated_Source\PSoC5/Surtidor.c **** *
 298:.\Generated_Source\PSoC5/Surtidor.c **** * Parameters:
 299:.\Generated_Source\PSoC5/Surtidor.c **** *  control:  control register value
 300:.\Generated_Source\PSoC5/Surtidor.c **** *
 301:.\Generated_Source\PSoC5/Surtidor.c **** * Return:
 302:.\Generated_Source\PSoC5/Surtidor.c **** *  None.
 303:.\Generated_Source\PSoC5/Surtidor.c **** *
 304:.\Generated_Source\PSoC5/Surtidor.c **** *******************************************************************************/
 305:.\Generated_Source\PSoC5/Surtidor.c **** void  Surtidor_WriteControlRegister(uint8 control) 
 306:.\Generated_Source\PSoC5/Surtidor.c **** {
 191              		.loc 1 306 0
 192              		.cfi_startproc
 193              		@ args = 0, pretend = 0, frame = 0
 194              		@ frame_needed = 0, uses_anonymous_args = 0
 195              		@ link register save eliminated.
 196              	.LVL6:
 197 0000 7047     		bx	lr
 198              		.cfi_endproc
 199              	.LFE5:
 200              		.size	Surtidor_WriteControlRegister, .-Surtidor_WriteControlRegister
 201 0002 00BF     		.section	.text.Surtidor_EnableRxInt,"ax",%progbits
 202              		.align	2
ARM GAS  C:\Users\RECEPC~1\AppData\Local\Temp\ccllYUoy.s 			page 10


 203              		.global	Surtidor_EnableRxInt
 204              		.thumb
 205              		.thumb_func
 206              		.type	Surtidor_EnableRxInt, %function
 207              	Surtidor_EnableRxInt:
 208              	.LFB6:
 307:.\Generated_Source\PSoC5/Surtidor.c ****     #if( Surtidor_CONTROL_REG_REMOVED )
 308:.\Generated_Source\PSoC5/Surtidor.c ****         if(control != 0u) { }      /* release compiler warning */
 309:.\Generated_Source\PSoC5/Surtidor.c ****     #else
 310:.\Generated_Source\PSoC5/Surtidor.c ****        Surtidor_CONTROL_REG = control;
 311:.\Generated_Source\PSoC5/Surtidor.c ****     #endif /* End Surtidor_CONTROL_REG_REMOVED */
 312:.\Generated_Source\PSoC5/Surtidor.c **** }
 313:.\Generated_Source\PSoC5/Surtidor.c **** 
 314:.\Generated_Source\PSoC5/Surtidor.c **** 
 315:.\Generated_Source\PSoC5/Surtidor.c **** #if(Surtidor_RX_ENABLED || Surtidor_HD_ENABLED)
 316:.\Generated_Source\PSoC5/Surtidor.c **** 
 317:.\Generated_Source\PSoC5/Surtidor.c ****     #if(Surtidor_RX_INTERRUPT_ENABLED)
 318:.\Generated_Source\PSoC5/Surtidor.c **** 
 319:.\Generated_Source\PSoC5/Surtidor.c ****         /*******************************************************************************
 320:.\Generated_Source\PSoC5/Surtidor.c ****         * Function Name: Surtidor_EnableRxInt
 321:.\Generated_Source\PSoC5/Surtidor.c ****         ********************************************************************************
 322:.\Generated_Source\PSoC5/Surtidor.c ****         *
 323:.\Generated_Source\PSoC5/Surtidor.c ****         * Summary:
 324:.\Generated_Source\PSoC5/Surtidor.c ****         *  Enable RX interrupt generation
 325:.\Generated_Source\PSoC5/Surtidor.c ****         *
 326:.\Generated_Source\PSoC5/Surtidor.c ****         * Parameters:
 327:.\Generated_Source\PSoC5/Surtidor.c ****         *  None.
 328:.\Generated_Source\PSoC5/Surtidor.c ****         *
 329:.\Generated_Source\PSoC5/Surtidor.c ****         * Return:
 330:.\Generated_Source\PSoC5/Surtidor.c ****         *  None.
 331:.\Generated_Source\PSoC5/Surtidor.c ****         *
 332:.\Generated_Source\PSoC5/Surtidor.c ****         * Theory:
 333:.\Generated_Source\PSoC5/Surtidor.c ****         *  Enable the interrupt output -or- the interrupt component itself
 334:.\Generated_Source\PSoC5/Surtidor.c ****         *
 335:.\Generated_Source\PSoC5/Surtidor.c ****         *******************************************************************************/
 336:.\Generated_Source\PSoC5/Surtidor.c ****         void Surtidor_EnableRxInt(void) 
 337:.\Generated_Source\PSoC5/Surtidor.c ****         {
 209              		.loc 1 337 0
 210              		.cfi_startproc
 211              		@ args = 0, pretend = 0, frame = 0
 212              		@ frame_needed = 0, uses_anonymous_args = 0
 213              		@ link register save eliminated.
 338:.\Generated_Source\PSoC5/Surtidor.c ****             CyIntEnable(Surtidor_RX_VECT_NUM);
 214              		.loc 1 338 0
 215 0000 1022     		movs	r2, #16
 216 0002 014B     		ldr	r3, .L14
 217 0004 1A60     		str	r2, [r3]
 218 0006 7047     		bx	lr
 219              	.L15:
 220              		.align	2
 221              	.L14:
 222 0008 00E100E0 		.word	-536813312
 223              		.cfi_endproc
 224              	.LFE6:
 225              		.size	Surtidor_EnableRxInt, .-Surtidor_EnableRxInt
 226              		.section	.text.Surtidor_DisableRxInt,"ax",%progbits
 227              		.align	2
ARM GAS  C:\Users\RECEPC~1\AppData\Local\Temp\ccllYUoy.s 			page 11


 228              		.global	Surtidor_DisableRxInt
 229              		.thumb
 230              		.thumb_func
 231              		.type	Surtidor_DisableRxInt, %function
 232              	Surtidor_DisableRxInt:
 233              	.LFB7:
 339:.\Generated_Source\PSoC5/Surtidor.c ****         }
 340:.\Generated_Source\PSoC5/Surtidor.c **** 
 341:.\Generated_Source\PSoC5/Surtidor.c **** 
 342:.\Generated_Source\PSoC5/Surtidor.c ****         /*******************************************************************************
 343:.\Generated_Source\PSoC5/Surtidor.c ****         * Function Name: Surtidor_DisableRxInt
 344:.\Generated_Source\PSoC5/Surtidor.c ****         ********************************************************************************
 345:.\Generated_Source\PSoC5/Surtidor.c ****         *
 346:.\Generated_Source\PSoC5/Surtidor.c ****         * Summary:
 347:.\Generated_Source\PSoC5/Surtidor.c ****         *  Disable RX interrupt generation
 348:.\Generated_Source\PSoC5/Surtidor.c ****         *
 349:.\Generated_Source\PSoC5/Surtidor.c ****         * Parameters:
 350:.\Generated_Source\PSoC5/Surtidor.c ****         *  None.
 351:.\Generated_Source\PSoC5/Surtidor.c ****         *
 352:.\Generated_Source\PSoC5/Surtidor.c ****         * Return:
 353:.\Generated_Source\PSoC5/Surtidor.c ****         *  None.
 354:.\Generated_Source\PSoC5/Surtidor.c ****         *
 355:.\Generated_Source\PSoC5/Surtidor.c ****         * Theory:
 356:.\Generated_Source\PSoC5/Surtidor.c ****         *  Disable the interrupt output -or- the interrupt component itself
 357:.\Generated_Source\PSoC5/Surtidor.c ****         *
 358:.\Generated_Source\PSoC5/Surtidor.c ****         *******************************************************************************/
 359:.\Generated_Source\PSoC5/Surtidor.c ****         void Surtidor_DisableRxInt(void) 
 360:.\Generated_Source\PSoC5/Surtidor.c ****         {
 234              		.loc 1 360 0
 235              		.cfi_startproc
 236              		@ args = 0, pretend = 0, frame = 0
 237              		@ frame_needed = 0, uses_anonymous_args = 0
 238              		@ link register save eliminated.
 361:.\Generated_Source\PSoC5/Surtidor.c ****             CyIntDisable(Surtidor_RX_VECT_NUM);
 239              		.loc 1 361 0
 240 0000 1022     		movs	r2, #16
 241 0002 014B     		ldr	r3, .L17
 242 0004 1A60     		str	r2, [r3]
 243 0006 7047     		bx	lr
 244              	.L18:
 245              		.align	2
 246              	.L17:
 247 0008 80E100E0 		.word	-536813184
 248              		.cfi_endproc
 249              	.LFE7:
 250              		.size	Surtidor_DisableRxInt, .-Surtidor_DisableRxInt
 251              		.section	.text.Surtidor_Stop,"ax",%progbits
 252              		.align	2
 253              		.global	Surtidor_Stop
 254              		.thumb
 255              		.thumb_func
 256              		.type	Surtidor_Stop, %function
 257              	Surtidor_Stop:
 258              	.LFB3:
 228:.\Generated_Source\PSoC5/Surtidor.c **** {
 259              		.loc 1 228 0
 260              		.cfi_startproc
ARM GAS  C:\Users\RECEPC~1\AppData\Local\Temp\ccllYUoy.s 			page 12


 261              		@ args = 0, pretend = 0, frame = 0
 262              		@ frame_needed = 0, uses_anonymous_args = 0
 263 0000 10B5     		push	{r4, lr}
 264              		.cfi_def_cfa_offset 8
 265              		.cfi_offset 4, -8
 266              		.cfi_offset 14, -4
 230:.\Generated_Source\PSoC5/Surtidor.c ****     enableInterrupts = CyEnterCriticalSection();
 267              		.loc 1 230 0
 268 0002 FFF7FEFF 		bl	CyEnterCriticalSection
 269              	.LVL7:
 270 0006 0446     		mov	r4, r0
 271              	.LVL8:
 234:.\Generated_Source\PSoC5/Surtidor.c ****         Surtidor_RXBITCTR_CONTROL_REG &= (uint8)~Surtidor_CNTR_ENABLE;
 272              		.loc 1 234 0
 273 0008 0A4B     		ldr	r3, .L20
 274 000a 1A78     		ldrb	r2, [r3]	@ zero_extendqisi2
 275 000c 02F0DF02 		and	r2, r2, #223
 276 0010 1A70     		strb	r2, [r3]
 250:.\Generated_Source\PSoC5/Surtidor.c ****         Surtidor_RXSTATUS_ACTL_REG  &= (uint8)~Surtidor_INT_ENABLE;
 277              		.loc 1 250 0
 278 0012 0833     		adds	r3, r3, #8
 279 0014 1A78     		ldrb	r2, [r3]	@ zero_extendqisi2
 280 0016 02F0EF02 		and	r2, r2, #239
 281 001a 1A70     		strb	r2, [r3]
 252:.\Generated_Source\PSoC5/Surtidor.c ****             Surtidor_DisableRxInt();
 282              		.loc 1 252 0
 283 001c FFF7FEFF 		bl	Surtidor_DisableRxInt
 284              	.LVL9:
 257:.\Generated_Source\PSoC5/Surtidor.c ****         Surtidor_TXSTATUS_ACTL_REG &= (uint8)~Surtidor_INT_ENABLE;
 285              		.loc 1 257 0
 286 0020 054B     		ldr	r3, .L20+4
 287 0022 1A78     		ldrb	r2, [r3]	@ zero_extendqisi2
 288 0024 02F0EF02 		and	r2, r2, #239
 289 0028 1A70     		strb	r2, [r3]
 263:.\Generated_Source\PSoC5/Surtidor.c ****     CyExitCriticalSection(enableInterrupts);
 290              		.loc 1 263 0
 291 002a 2046     		mov	r0, r4
 292 002c FFF7FEFF 		bl	CyExitCriticalSection
 293              	.LVL10:
 294 0030 10BD     		pop	{r4, pc}
 295              	.LVL11:
 296              	.L21:
 297 0032 00BF     		.align	2
 298              	.L20:
 299 0034 93640040 		.word	1073767571
 300 0038 96650040 		.word	1073767830
 301              		.cfi_endproc
 302              	.LFE3:
 303              		.size	Surtidor_Stop, .-Surtidor_Stop
 304              		.section	.text.Surtidor_SetRxInterruptMode,"ax",%progbits
 305              		.align	2
 306              		.global	Surtidor_SetRxInterruptMode
 307              		.thumb
 308              		.thumb_func
 309              		.type	Surtidor_SetRxInterruptMode, %function
 310              	Surtidor_SetRxInterruptMode:
 311              	.LFB8:
ARM GAS  C:\Users\RECEPC~1\AppData\Local\Temp\ccllYUoy.s 			page 13


 362:.\Generated_Source\PSoC5/Surtidor.c ****         }
 363:.\Generated_Source\PSoC5/Surtidor.c **** 
 364:.\Generated_Source\PSoC5/Surtidor.c ****     #endif /* Surtidor_RX_INTERRUPT_ENABLED */
 365:.\Generated_Source\PSoC5/Surtidor.c **** 
 366:.\Generated_Source\PSoC5/Surtidor.c **** 
 367:.\Generated_Source\PSoC5/Surtidor.c ****     /*******************************************************************************
 368:.\Generated_Source\PSoC5/Surtidor.c ****     * Function Name: Surtidor_SetRxInterruptMode
 369:.\Generated_Source\PSoC5/Surtidor.c ****     ********************************************************************************
 370:.\Generated_Source\PSoC5/Surtidor.c ****     *
 371:.\Generated_Source\PSoC5/Surtidor.c ****     * Summary:
 372:.\Generated_Source\PSoC5/Surtidor.c ****     *  Configure which status bits trigger an interrupt event
 373:.\Generated_Source\PSoC5/Surtidor.c ****     *
 374:.\Generated_Source\PSoC5/Surtidor.c ****     * Parameters:
 375:.\Generated_Source\PSoC5/Surtidor.c ****     *  IntSrc:  An or'd combination of the desired status bit masks (defined in
 376:.\Generated_Source\PSoC5/Surtidor.c ****     *           the header file)
 377:.\Generated_Source\PSoC5/Surtidor.c ****     *
 378:.\Generated_Source\PSoC5/Surtidor.c ****     * Return:
 379:.\Generated_Source\PSoC5/Surtidor.c ****     *  None.
 380:.\Generated_Source\PSoC5/Surtidor.c ****     *
 381:.\Generated_Source\PSoC5/Surtidor.c ****     * Theory:
 382:.\Generated_Source\PSoC5/Surtidor.c ****     *  Enables the output of specific status bits to the interrupt controller
 383:.\Generated_Source\PSoC5/Surtidor.c ****     *
 384:.\Generated_Source\PSoC5/Surtidor.c ****     *******************************************************************************/
 385:.\Generated_Source\PSoC5/Surtidor.c ****     void Surtidor_SetRxInterruptMode(uint8 intSrc) 
 386:.\Generated_Source\PSoC5/Surtidor.c ****     {
 312              		.loc 1 386 0
 313              		.cfi_startproc
 314              		@ args = 0, pretend = 0, frame = 0
 315              		@ frame_needed = 0, uses_anonymous_args = 0
 316              		@ link register save eliminated.
 317              	.LVL12:
 387:.\Generated_Source\PSoC5/Surtidor.c ****         Surtidor_RXSTATUS_MASK_REG  = intSrc;
 318              		.loc 1 387 0
 319 0000 014B     		ldr	r3, .L23
 320 0002 1870     		strb	r0, [r3]
 321 0004 7047     		bx	lr
 322              	.L24:
 323 0006 00BF     		.align	2
 324              	.L23:
 325 0008 8B640040 		.word	1073767563
 326              		.cfi_endproc
 327              	.LFE8:
 328              		.size	Surtidor_SetRxInterruptMode, .-Surtidor_SetRxInterruptMode
 329              		.section	.text.Surtidor_ReadRxData,"ax",%progbits
 330              		.align	2
 331              		.global	Surtidor_ReadRxData
 332              		.thumb
 333              		.thumb_func
 334              		.type	Surtidor_ReadRxData, %function
 335              	Surtidor_ReadRxData:
 336              	.LFB9:
 388:.\Generated_Source\PSoC5/Surtidor.c ****     }
 389:.\Generated_Source\PSoC5/Surtidor.c **** 
 390:.\Generated_Source\PSoC5/Surtidor.c **** 
 391:.\Generated_Source\PSoC5/Surtidor.c ****     /*******************************************************************************
 392:.\Generated_Source\PSoC5/Surtidor.c ****     * Function Name: Surtidor_ReadRxData
 393:.\Generated_Source\PSoC5/Surtidor.c ****     ********************************************************************************
ARM GAS  C:\Users\RECEPC~1\AppData\Local\Temp\ccllYUoy.s 			page 14


 394:.\Generated_Source\PSoC5/Surtidor.c ****     *
 395:.\Generated_Source\PSoC5/Surtidor.c ****     * Summary:
 396:.\Generated_Source\PSoC5/Surtidor.c ****     *  Returns data in RX Data register without checking status register to
 397:.\Generated_Source\PSoC5/Surtidor.c ****     *  determine if data is valid
 398:.\Generated_Source\PSoC5/Surtidor.c ****     *
 399:.\Generated_Source\PSoC5/Surtidor.c ****     * Parameters:
 400:.\Generated_Source\PSoC5/Surtidor.c ****     *  None.
 401:.\Generated_Source\PSoC5/Surtidor.c ****     *
 402:.\Generated_Source\PSoC5/Surtidor.c ****     * Return:
 403:.\Generated_Source\PSoC5/Surtidor.c ****     *  Received data from RX register
 404:.\Generated_Source\PSoC5/Surtidor.c ****     *
 405:.\Generated_Source\PSoC5/Surtidor.c ****     * Global Variables:
 406:.\Generated_Source\PSoC5/Surtidor.c ****     *  Surtidor_rxBuffer - RAM buffer pointer for save received data.
 407:.\Generated_Source\PSoC5/Surtidor.c ****     *  Surtidor_rxBufferWrite - cyclic index for write to rxBuffer,
 408:.\Generated_Source\PSoC5/Surtidor.c ****     *     checked to identify new data.
 409:.\Generated_Source\PSoC5/Surtidor.c ****     *  Surtidor_rxBufferRead - cyclic index for read from rxBuffer,
 410:.\Generated_Source\PSoC5/Surtidor.c ****     *     incremented after each byte has been read from buffer.
 411:.\Generated_Source\PSoC5/Surtidor.c ****     *  Surtidor_rxBufferLoopDetect - creared if loop condition was detected
 412:.\Generated_Source\PSoC5/Surtidor.c ****     *     in RX ISR.
 413:.\Generated_Source\PSoC5/Surtidor.c ****     *
 414:.\Generated_Source\PSoC5/Surtidor.c ****     * Reentrant:
 415:.\Generated_Source\PSoC5/Surtidor.c ****     *  No.
 416:.\Generated_Source\PSoC5/Surtidor.c ****     *
 417:.\Generated_Source\PSoC5/Surtidor.c ****     *******************************************************************************/
 418:.\Generated_Source\PSoC5/Surtidor.c ****     uint8 Surtidor_ReadRxData(void) 
 419:.\Generated_Source\PSoC5/Surtidor.c ****     {
 337              		.loc 1 419 0
 338              		.cfi_startproc
 339              		@ args = 0, pretend = 0, frame = 0
 340              		@ frame_needed = 0, uses_anonymous_args = 0
 341 0000 10B5     		push	{r4, lr}
 342              		.cfi_def_cfa_offset 8
 343              		.cfi_offset 4, -8
 344              		.cfi_offset 14, -4
 420:.\Generated_Source\PSoC5/Surtidor.c ****         uint8 rxData;
 421:.\Generated_Source\PSoC5/Surtidor.c **** 
 422:.\Generated_Source\PSoC5/Surtidor.c ****         #if(Surtidor_RXBUFFERSIZE > Surtidor_FIFO_LENGTH)
 423:.\Generated_Source\PSoC5/Surtidor.c ****             uint16 loc_rxBufferRead;
 424:.\Generated_Source\PSoC5/Surtidor.c ****             uint16 loc_rxBufferWrite;
 425:.\Generated_Source\PSoC5/Surtidor.c ****             /* Protect variables that could change on interrupt. */
 426:.\Generated_Source\PSoC5/Surtidor.c ****             /* Disable Rx interrupt. */
 427:.\Generated_Source\PSoC5/Surtidor.c ****             #if(Surtidor_RX_INTERRUPT_ENABLED)
 428:.\Generated_Source\PSoC5/Surtidor.c ****                 Surtidor_DisableRxInt();
 345              		.loc 1 428 0
 346 0002 FFF7FEFF 		bl	Surtidor_DisableRxInt
 347              	.LVL13:
 429:.\Generated_Source\PSoC5/Surtidor.c ****             #endif /* Surtidor_RX_INTERRUPT_ENABLED */
 430:.\Generated_Source\PSoC5/Surtidor.c ****             loc_rxBufferRead = Surtidor_rxBufferRead;
 348              		.loc 1 430 0
 349 0006 124B     		ldr	r3, .L31
 350 0008 5A88     		ldrh	r2, [r3, #2]
 351 000a 92B2     		uxth	r2, r2
 352              	.LVL14:
 431:.\Generated_Source\PSoC5/Surtidor.c ****             loc_rxBufferWrite = Surtidor_rxBufferWrite;
 353              		.loc 1 431 0
 354 000c 9988     		ldrh	r1, [r3, #4]
 355 000e 89B2     		uxth	r1, r1
ARM GAS  C:\Users\RECEPC~1\AppData\Local\Temp\ccllYUoy.s 			page 15


 356              	.LVL15:
 432:.\Generated_Source\PSoC5/Surtidor.c **** 
 433:.\Generated_Source\PSoC5/Surtidor.c ****             if( (Surtidor_rxBufferLoopDetect != 0u) || (loc_rxBufferRead != loc_rxBufferWrite) )
 357              		.loc 1 433 0
 358 0010 9B79     		ldrb	r3, [r3, #6]	@ zero_extendqisi2
 359 0012 13F0FF0F 		tst	r3, #255
 360 0016 01D1     		bne	.L26
 361              		.loc 1 433 0 is_stmt 0 discriminator 1
 362 0018 8A42     		cmp	r2, r1
 363 001a 11D0     		beq	.L27
 364              	.L26:
 434:.\Generated_Source\PSoC5/Surtidor.c ****             {
 435:.\Generated_Source\PSoC5/Surtidor.c ****                 rxData = Surtidor_rxBuffer[loc_rxBufferRead];
 365              		.loc 1 435 0 is_stmt 1
 366 001c 0D4B     		ldr	r3, .L31+4
 367 001e 9C5C     		ldrb	r4, [r3, r2]	@ zero_extendqisi2
 368 0020 E4B2     		uxtb	r4, r4
 369              	.LVL16:
 436:.\Generated_Source\PSoC5/Surtidor.c ****                 loc_rxBufferRead++;
 370              		.loc 1 436 0
 371 0022 0132     		adds	r2, r2, #1
 372              	.LVL17:
 373 0024 92B2     		uxth	r2, r2
 374              	.LVL18:
 437:.\Generated_Source\PSoC5/Surtidor.c **** 
 438:.\Generated_Source\PSoC5/Surtidor.c ****                 if(loc_rxBufferRead >= Surtidor_RXBUFFERSIZE)
 375              		.loc 1 438 0
 376 0026 FF2A     		cmp	r2, #255
 377 0028 00D9     		bls	.L28
 439:.\Generated_Source\PSoC5/Surtidor.c ****                 {
 440:.\Generated_Source\PSoC5/Surtidor.c ****                     loc_rxBufferRead = 0u;
 378              		.loc 1 440 0
 379 002a 0022     		movs	r2, #0
 380              	.LVL19:
 381              	.L28:
 441:.\Generated_Source\PSoC5/Surtidor.c ****                 }
 442:.\Generated_Source\PSoC5/Surtidor.c ****                 /* Update the real pointer */
 443:.\Generated_Source\PSoC5/Surtidor.c ****                 Surtidor_rxBufferRead = loc_rxBufferRead;
 382              		.loc 1 443 0
 383 002c 084B     		ldr	r3, .L31
 384 002e 5A80     		strh	r2, [r3, #2]	@ movhi
 444:.\Generated_Source\PSoC5/Surtidor.c **** 
 445:.\Generated_Source\PSoC5/Surtidor.c ****                 if(Surtidor_rxBufferLoopDetect != 0u )
 385              		.loc 1 445 0
 386 0030 9B79     		ldrb	r3, [r3, #6]	@ zero_extendqisi2
 387 0032 13F0FF0F 		tst	r3, #255
 388 0036 06D0     		beq	.L29
 446:.\Generated_Source\PSoC5/Surtidor.c ****                 {
 447:.\Generated_Source\PSoC5/Surtidor.c ****                     Surtidor_rxBufferLoopDetect = 0u;
 389              		.loc 1 447 0
 390 0038 0022     		movs	r2, #0
 391              	.LVL20:
 392 003a 054B     		ldr	r3, .L31
 393 003c 9A71     		strb	r2, [r3, #6]
 394 003e 02E0     		b	.L29
 395              	.LVL21:
 396              	.L27:
ARM GAS  C:\Users\RECEPC~1\AppData\Local\Temp\ccllYUoy.s 			page 16


 448:.\Generated_Source\PSoC5/Surtidor.c ****                     #if( (Surtidor_RX_INTERRUPT_ENABLED) && (Surtidor_FLOW_CONTROL != 0u) && \
 449:.\Generated_Source\PSoC5/Surtidor.c ****                          (Surtidor_RXBUFFERSIZE > Surtidor_FIFO_LENGTH) )
 450:.\Generated_Source\PSoC5/Surtidor.c ****                         /* When Hardware Flow Control selected - return RX mask */
 451:.\Generated_Source\PSoC5/Surtidor.c ****                         #if( Surtidor_HD_ENABLED )
 452:.\Generated_Source\PSoC5/Surtidor.c ****                             if((Surtidor_CONTROL_REG & Surtidor_CTRL_HD_SEND) == 0u)
 453:.\Generated_Source\PSoC5/Surtidor.c ****                             {   /* In Half duplex mode return RX mask only in RX
 454:.\Generated_Source\PSoC5/Surtidor.c ****                                 *  configuration set, otherwise
 455:.\Generated_Source\PSoC5/Surtidor.c ****                                 *  mask will be returned in LoadRxConfig() API.
 456:.\Generated_Source\PSoC5/Surtidor.c ****                                 */
 457:.\Generated_Source\PSoC5/Surtidor.c ****                                 Surtidor_RXSTATUS_MASK_REG  |= Surtidor_RX_STS_FIFO_NOTEMPTY;
 458:.\Generated_Source\PSoC5/Surtidor.c ****                             }
 459:.\Generated_Source\PSoC5/Surtidor.c ****                         #else
 460:.\Generated_Source\PSoC5/Surtidor.c ****                             Surtidor_RXSTATUS_MASK_REG  |= Surtidor_RX_STS_FIFO_NOTEMPTY;
 461:.\Generated_Source\PSoC5/Surtidor.c ****                         #endif /* end Surtidor_HD_ENABLED */
 462:.\Generated_Source\PSoC5/Surtidor.c ****                     #endif /* Surtidor_RX_INTERRUPT_ENABLED and Hardware flow control*/
 463:.\Generated_Source\PSoC5/Surtidor.c ****                 }
 464:.\Generated_Source\PSoC5/Surtidor.c ****             }
 465:.\Generated_Source\PSoC5/Surtidor.c ****             else
 466:.\Generated_Source\PSoC5/Surtidor.c ****             {   /* Needs to check status for RX_STS_FIFO_NOTEMPTY bit*/
 467:.\Generated_Source\PSoC5/Surtidor.c ****                 rxData = Surtidor_RXDATA_REG;
 397              		.loc 1 467 0
 398 0040 054B     		ldr	r3, .L31+8
 399 0042 1C78     		ldrb	r4, [r3]	@ zero_extendqisi2
 400 0044 E4B2     		uxtb	r4, r4
 401              	.LVL22:
 402              	.L29:
 468:.\Generated_Source\PSoC5/Surtidor.c ****             }
 469:.\Generated_Source\PSoC5/Surtidor.c **** 
 470:.\Generated_Source\PSoC5/Surtidor.c ****             /* Enable Rx interrupt. */
 471:.\Generated_Source\PSoC5/Surtidor.c ****             #if(Surtidor_RX_INTERRUPT_ENABLED)
 472:.\Generated_Source\PSoC5/Surtidor.c ****                 Surtidor_EnableRxInt();
 403              		.loc 1 472 0
 404 0046 FFF7FEFF 		bl	Surtidor_EnableRxInt
 405              	.LVL23:
 473:.\Generated_Source\PSoC5/Surtidor.c ****             #endif /* End Surtidor_RX_INTERRUPT_ENABLED */
 474:.\Generated_Source\PSoC5/Surtidor.c **** 
 475:.\Generated_Source\PSoC5/Surtidor.c ****         #else /* Surtidor_RXBUFFERSIZE > Surtidor_FIFO_LENGTH */
 476:.\Generated_Source\PSoC5/Surtidor.c **** 
 477:.\Generated_Source\PSoC5/Surtidor.c ****             /* Needs to check status for RX_STS_FIFO_NOTEMPTY bit*/
 478:.\Generated_Source\PSoC5/Surtidor.c ****             rxData = Surtidor_RXDATA_REG;
 479:.\Generated_Source\PSoC5/Surtidor.c **** 
 480:.\Generated_Source\PSoC5/Surtidor.c ****         #endif /* Surtidor_RXBUFFERSIZE > Surtidor_FIFO_LENGTH */
 481:.\Generated_Source\PSoC5/Surtidor.c **** 
 482:.\Generated_Source\PSoC5/Surtidor.c ****         return(rxData);
 483:.\Generated_Source\PSoC5/Surtidor.c ****     }
 406              		.loc 1 483 0
 407 004a 2046     		mov	r0, r4
 408 004c 10BD     		pop	{r4, pc}
 409              	.LVL24:
 410              	.L32:
 411 004e 00BF     		.align	2
 412              	.L31:
 413 0050 00000000 		.word	.LANCHOR0
 414 0054 00000000 		.word	Surtidor_rxBuffer
 415 0058 4C640040 		.word	1073767500
 416              		.cfi_endproc
 417              	.LFE9:
ARM GAS  C:\Users\RECEPC~1\AppData\Local\Temp\ccllYUoy.s 			page 17


 418              		.size	Surtidor_ReadRxData, .-Surtidor_ReadRxData
 419              		.section	.text.Surtidor_ReadRxStatus,"ax",%progbits
 420              		.align	2
 421              		.global	Surtidor_ReadRxStatus
 422              		.thumb
 423              		.thumb_func
 424              		.type	Surtidor_ReadRxStatus, %function
 425              	Surtidor_ReadRxStatus:
 426              	.LFB10:
 484:.\Generated_Source\PSoC5/Surtidor.c **** 
 485:.\Generated_Source\PSoC5/Surtidor.c **** 
 486:.\Generated_Source\PSoC5/Surtidor.c ****     /*******************************************************************************
 487:.\Generated_Source\PSoC5/Surtidor.c ****     * Function Name: Surtidor_ReadRxStatus
 488:.\Generated_Source\PSoC5/Surtidor.c ****     ********************************************************************************
 489:.\Generated_Source\PSoC5/Surtidor.c ****     *
 490:.\Generated_Source\PSoC5/Surtidor.c ****     * Summary:
 491:.\Generated_Source\PSoC5/Surtidor.c ****     *  Read the current state of the status register
 492:.\Generated_Source\PSoC5/Surtidor.c ****     *  And detect software buffer overflow.
 493:.\Generated_Source\PSoC5/Surtidor.c ****     *
 494:.\Generated_Source\PSoC5/Surtidor.c ****     * Parameters:
 495:.\Generated_Source\PSoC5/Surtidor.c ****     *  None.
 496:.\Generated_Source\PSoC5/Surtidor.c ****     *
 497:.\Generated_Source\PSoC5/Surtidor.c ****     * Return:
 498:.\Generated_Source\PSoC5/Surtidor.c ****     *  Current state of the status register.
 499:.\Generated_Source\PSoC5/Surtidor.c ****     *
 500:.\Generated_Source\PSoC5/Surtidor.c ****     * Global Variables:
 501:.\Generated_Source\PSoC5/Surtidor.c ****     *  Surtidor_rxBufferOverflow - used to indicate overload condition.
 502:.\Generated_Source\PSoC5/Surtidor.c ****     *   It set to one in RX interrupt when there isn?t free space in
 503:.\Generated_Source\PSoC5/Surtidor.c ****     *   Surtidor_rxBufferRead to write new data. This condition returned
 504:.\Generated_Source\PSoC5/Surtidor.c ****     *   and cleared to zero by this API as an
 505:.\Generated_Source\PSoC5/Surtidor.c ****     *   Surtidor_RX_STS_SOFT_BUFF_OVER bit along with RX Status register
 506:.\Generated_Source\PSoC5/Surtidor.c ****     *   bits.
 507:.\Generated_Source\PSoC5/Surtidor.c ****     *
 508:.\Generated_Source\PSoC5/Surtidor.c ****     *******************************************************************************/
 509:.\Generated_Source\PSoC5/Surtidor.c ****     uint8 Surtidor_ReadRxStatus(void) 
 510:.\Generated_Source\PSoC5/Surtidor.c ****     {
 427              		.loc 1 510 0
 428              		.cfi_startproc
 429              		@ args = 0, pretend = 0, frame = 0
 430              		@ frame_needed = 0, uses_anonymous_args = 0
 431              		@ link register save eliminated.
 511:.\Generated_Source\PSoC5/Surtidor.c ****         uint8 status;
 512:.\Generated_Source\PSoC5/Surtidor.c **** 
 513:.\Generated_Source\PSoC5/Surtidor.c ****         status = Surtidor_RXSTATUS_REG & Surtidor_RX_HW_MASK;
 432              		.loc 1 513 0
 433 0000 074B     		ldr	r3, .L35
 434 0002 1878     		ldrb	r0, [r3]	@ zero_extendqisi2
 435 0004 00F07F00 		and	r0, r0, #127
 436              	.LVL25:
 514:.\Generated_Source\PSoC5/Surtidor.c **** 
 515:.\Generated_Source\PSoC5/Surtidor.c ****         #if(Surtidor_RXBUFFERSIZE > Surtidor_FIFO_LENGTH)
 516:.\Generated_Source\PSoC5/Surtidor.c ****             if( Surtidor_rxBufferOverflow != 0u )
 437              		.loc 1 516 0
 438 0008 064B     		ldr	r3, .L35+4
 439 000a DB79     		ldrb	r3, [r3, #7]	@ zero_extendqisi2
 440 000c 13F0FF0F 		tst	r3, #255
 441 0010 04D0     		beq	.L34
ARM GAS  C:\Users\RECEPC~1\AppData\Local\Temp\ccllYUoy.s 			page 18


 517:.\Generated_Source\PSoC5/Surtidor.c ****             {
 518:.\Generated_Source\PSoC5/Surtidor.c ****                 status |= Surtidor_RX_STS_SOFT_BUFF_OVER;
 442              		.loc 1 518 0
 443 0012 40F08000 		orr	r0, r0, #128
 444              	.LVL26:
 519:.\Generated_Source\PSoC5/Surtidor.c ****                 Surtidor_rxBufferOverflow = 0u;
 445              		.loc 1 519 0
 446 0016 0022     		movs	r2, #0
 447 0018 024B     		ldr	r3, .L35+4
 448 001a DA71     		strb	r2, [r3, #7]
 449              	.LVL27:
 450              	.L34:
 520:.\Generated_Source\PSoC5/Surtidor.c ****             }
 521:.\Generated_Source\PSoC5/Surtidor.c ****         #endif /* Surtidor_RXBUFFERSIZE */
 522:.\Generated_Source\PSoC5/Surtidor.c **** 
 523:.\Generated_Source\PSoC5/Surtidor.c ****         return(status);
 524:.\Generated_Source\PSoC5/Surtidor.c ****     }
 451              		.loc 1 524 0
 452 001c 7047     		bx	lr
 453              	.L36:
 454 001e 00BF     		.align	2
 455              	.L35:
 456 0020 6B640040 		.word	1073767531
 457 0024 00000000 		.word	.LANCHOR0
 458              		.cfi_endproc
 459              	.LFE10:
 460              		.size	Surtidor_ReadRxStatus, .-Surtidor_ReadRxStatus
 461              		.section	.text.Surtidor_GetChar,"ax",%progbits
 462              		.align	2
 463              		.global	Surtidor_GetChar
 464              		.thumb
 465              		.thumb_func
 466              		.type	Surtidor_GetChar, %function
 467              	Surtidor_GetChar:
 468              	.LFB11:
 525:.\Generated_Source\PSoC5/Surtidor.c **** 
 526:.\Generated_Source\PSoC5/Surtidor.c **** 
 527:.\Generated_Source\PSoC5/Surtidor.c ****     /*******************************************************************************
 528:.\Generated_Source\PSoC5/Surtidor.c ****     * Function Name: Surtidor_GetChar
 529:.\Generated_Source\PSoC5/Surtidor.c ****     ********************************************************************************
 530:.\Generated_Source\PSoC5/Surtidor.c ****     *
 531:.\Generated_Source\PSoC5/Surtidor.c ****     * Summary:
 532:.\Generated_Source\PSoC5/Surtidor.c ****     *  Reads UART RX buffer immediately, if data is not available or an error
 533:.\Generated_Source\PSoC5/Surtidor.c ****     *  condition exists, zero is returned; otherwise, character is read and
 534:.\Generated_Source\PSoC5/Surtidor.c ****     *  returned.
 535:.\Generated_Source\PSoC5/Surtidor.c ****     *
 536:.\Generated_Source\PSoC5/Surtidor.c ****     * Parameters:
 537:.\Generated_Source\PSoC5/Surtidor.c ****     *  None.
 538:.\Generated_Source\PSoC5/Surtidor.c ****     *
 539:.\Generated_Source\PSoC5/Surtidor.c ****     * Return:
 540:.\Generated_Source\PSoC5/Surtidor.c ****     *  Character read from UART RX buffer. ASCII characters from 1 to 255 are valid.
 541:.\Generated_Source\PSoC5/Surtidor.c ****     *  A returned zero signifies an error condition or no data available.
 542:.\Generated_Source\PSoC5/Surtidor.c ****     *
 543:.\Generated_Source\PSoC5/Surtidor.c ****     * Global Variables:
 544:.\Generated_Source\PSoC5/Surtidor.c ****     *  Surtidor_rxBuffer - RAM buffer pointer for save received data.
 545:.\Generated_Source\PSoC5/Surtidor.c ****     *  Surtidor_rxBufferWrite - cyclic index for write to rxBuffer,
 546:.\Generated_Source\PSoC5/Surtidor.c ****     *     checked to identify new data.
ARM GAS  C:\Users\RECEPC~1\AppData\Local\Temp\ccllYUoy.s 			page 19


 547:.\Generated_Source\PSoC5/Surtidor.c ****     *  Surtidor_rxBufferRead - cyclic index for read from rxBuffer,
 548:.\Generated_Source\PSoC5/Surtidor.c ****     *     incremented after each byte has been read from buffer.
 549:.\Generated_Source\PSoC5/Surtidor.c ****     *  Surtidor_rxBufferLoopDetect - creared if loop condition was detected
 550:.\Generated_Source\PSoC5/Surtidor.c ****     *     in RX ISR.
 551:.\Generated_Source\PSoC5/Surtidor.c ****     *
 552:.\Generated_Source\PSoC5/Surtidor.c ****     * Reentrant:
 553:.\Generated_Source\PSoC5/Surtidor.c ****     *  No.
 554:.\Generated_Source\PSoC5/Surtidor.c ****     *
 555:.\Generated_Source\PSoC5/Surtidor.c ****     *******************************************************************************/
 556:.\Generated_Source\PSoC5/Surtidor.c ****     uint8 Surtidor_GetChar(void) 
 557:.\Generated_Source\PSoC5/Surtidor.c ****     {
 469              		.loc 1 557 0
 470              		.cfi_startproc
 471              		@ args = 0, pretend = 0, frame = 0
 472              		@ frame_needed = 0, uses_anonymous_args = 0
 473 0000 10B5     		push	{r4, lr}
 474              		.cfi_def_cfa_offset 8
 475              		.cfi_offset 4, -8
 476              		.cfi_offset 14, -4
 477              	.LVL28:
 558:.\Generated_Source\PSoC5/Surtidor.c ****         uint8 rxData = 0u;
 559:.\Generated_Source\PSoC5/Surtidor.c ****         uint8 rxStatus;
 560:.\Generated_Source\PSoC5/Surtidor.c **** 
 561:.\Generated_Source\PSoC5/Surtidor.c ****         #if(Surtidor_RXBUFFERSIZE > Surtidor_FIFO_LENGTH)
 562:.\Generated_Source\PSoC5/Surtidor.c ****             uint16 loc_rxBufferRead;
 563:.\Generated_Source\PSoC5/Surtidor.c ****             uint16 loc_rxBufferWrite;
 564:.\Generated_Source\PSoC5/Surtidor.c ****             /* Protect variables that could change on interrupt. */
 565:.\Generated_Source\PSoC5/Surtidor.c ****             /* Disable Rx interrupt. */
 566:.\Generated_Source\PSoC5/Surtidor.c ****             #if(Surtidor_RX_INTERRUPT_ENABLED)
 567:.\Generated_Source\PSoC5/Surtidor.c ****                 Surtidor_DisableRxInt();
 478              		.loc 1 567 0
 479 0002 FFF7FEFF 		bl	Surtidor_DisableRxInt
 480              	.LVL29:
 568:.\Generated_Source\PSoC5/Surtidor.c ****             #endif /* Surtidor_RX_INTERRUPT_ENABLED */
 569:.\Generated_Source\PSoC5/Surtidor.c ****             loc_rxBufferRead = Surtidor_rxBufferRead;
 481              		.loc 1 569 0
 482 0006 184B     		ldr	r3, .L45
 483 0008 5A88     		ldrh	r2, [r3, #2]
 484 000a 92B2     		uxth	r2, r2
 485              	.LVL30:
 570:.\Generated_Source\PSoC5/Surtidor.c ****             loc_rxBufferWrite = Surtidor_rxBufferWrite;
 486              		.loc 1 570 0
 487 000c 9988     		ldrh	r1, [r3, #4]
 488 000e 89B2     		uxth	r1, r1
 489              	.LVL31:
 571:.\Generated_Source\PSoC5/Surtidor.c **** 
 572:.\Generated_Source\PSoC5/Surtidor.c ****             if( (Surtidor_rxBufferLoopDetect != 0u) || (loc_rxBufferRead != loc_rxBufferWrite) )
 490              		.loc 1 572 0
 491 0010 9B79     		ldrb	r3, [r3, #6]	@ zero_extendqisi2
 492 0012 13F0FF0F 		tst	r3, #255
 493 0016 01D1     		bne	.L38
 494              		.loc 1 572 0 is_stmt 0 discriminator 1
 495 0018 8A42     		cmp	r2, r1
 496 001a 11D0     		beq	.L39
 497              	.L38:
 573:.\Generated_Source\PSoC5/Surtidor.c ****             {
 574:.\Generated_Source\PSoC5/Surtidor.c ****                 rxData = Surtidor_rxBuffer[loc_rxBufferRead];
ARM GAS  C:\Users\RECEPC~1\AppData\Local\Temp\ccllYUoy.s 			page 20


 498              		.loc 1 574 0 is_stmt 1
 499 001c 134B     		ldr	r3, .L45+4
 500 001e 9C5C     		ldrb	r4, [r3, r2]	@ zero_extendqisi2
 501 0020 E4B2     		uxtb	r4, r4
 502              	.LVL32:
 575:.\Generated_Source\PSoC5/Surtidor.c ****                 loc_rxBufferRead++;
 503              		.loc 1 575 0
 504 0022 0132     		adds	r2, r2, #1
 505              	.LVL33:
 506 0024 92B2     		uxth	r2, r2
 507              	.LVL34:
 576:.\Generated_Source\PSoC5/Surtidor.c ****                 if(loc_rxBufferRead >= Surtidor_RXBUFFERSIZE)
 508              		.loc 1 576 0
 509 0026 FF2A     		cmp	r2, #255
 510 0028 00D9     		bls	.L40
 577:.\Generated_Source\PSoC5/Surtidor.c ****                 {
 578:.\Generated_Source\PSoC5/Surtidor.c ****                     loc_rxBufferRead = 0u;
 511              		.loc 1 578 0
 512 002a 0022     		movs	r2, #0
 513              	.LVL35:
 514              	.L40:
 579:.\Generated_Source\PSoC5/Surtidor.c ****                 }
 580:.\Generated_Source\PSoC5/Surtidor.c ****                 /* Update the real pointer */
 581:.\Generated_Source\PSoC5/Surtidor.c ****                 Surtidor_rxBufferRead = loc_rxBufferRead;
 515              		.loc 1 581 0
 516 002c 0E4B     		ldr	r3, .L45
 517 002e 5A80     		strh	r2, [r3, #2]	@ movhi
 582:.\Generated_Source\PSoC5/Surtidor.c **** 
 583:.\Generated_Source\PSoC5/Surtidor.c ****                 if(Surtidor_rxBufferLoopDetect > 0u )
 518              		.loc 1 583 0
 519 0030 9B79     		ldrb	r3, [r3, #6]	@ zero_extendqisi2
 520 0032 13F0FF0F 		tst	r3, #255
 521 0036 13D0     		beq	.L41
 584:.\Generated_Source\PSoC5/Surtidor.c ****                 {
 585:.\Generated_Source\PSoC5/Surtidor.c ****                     Surtidor_rxBufferLoopDetect = 0u;
 522              		.loc 1 585 0
 523 0038 0022     		movs	r2, #0
 524              	.LVL36:
 525 003a 0B4B     		ldr	r3, .L45
 526 003c 9A71     		strb	r2, [r3, #6]
 527 003e 0FE0     		b	.L41
 528              	.LVL37:
 529              	.L39:
 586:.\Generated_Source\PSoC5/Surtidor.c ****                     #if( (Surtidor_RX_INTERRUPT_ENABLED) && (Surtidor_FLOW_CONTROL != 0u) )
 587:.\Generated_Source\PSoC5/Surtidor.c ****                         /* When Hardware Flow Control selected - return RX mask */
 588:.\Generated_Source\PSoC5/Surtidor.c ****                         #if( Surtidor_HD_ENABLED )
 589:.\Generated_Source\PSoC5/Surtidor.c ****                             if((Surtidor_CONTROL_REG & Surtidor_CTRL_HD_SEND) == 0u)
 590:.\Generated_Source\PSoC5/Surtidor.c ****                             {   /* In Half duplex mode return RX mask only if
 591:.\Generated_Source\PSoC5/Surtidor.c ****                                 *  RX configuration set, otherwise
 592:.\Generated_Source\PSoC5/Surtidor.c ****                                 *  mask will be returned in LoadRxConfig() API.
 593:.\Generated_Source\PSoC5/Surtidor.c ****                                 */
 594:.\Generated_Source\PSoC5/Surtidor.c ****                                 Surtidor_RXSTATUS_MASK_REG  |= Surtidor_RX_STS_FIFO_NOTEMPTY;
 595:.\Generated_Source\PSoC5/Surtidor.c ****                             }
 596:.\Generated_Source\PSoC5/Surtidor.c ****                         #else
 597:.\Generated_Source\PSoC5/Surtidor.c ****                             Surtidor_RXSTATUS_MASK_REG  |= Surtidor_RX_STS_FIFO_NOTEMPTY;
 598:.\Generated_Source\PSoC5/Surtidor.c ****                         #endif /* end Surtidor_HD_ENABLED */
 599:.\Generated_Source\PSoC5/Surtidor.c ****                     #endif /* Surtidor_RX_INTERRUPT_ENABLED and Hardware flow control*/
ARM GAS  C:\Users\RECEPC~1\AppData\Local\Temp\ccllYUoy.s 			page 21


 600:.\Generated_Source\PSoC5/Surtidor.c ****                 }
 601:.\Generated_Source\PSoC5/Surtidor.c **** 
 602:.\Generated_Source\PSoC5/Surtidor.c ****             }
 603:.\Generated_Source\PSoC5/Surtidor.c ****             else
 604:.\Generated_Source\PSoC5/Surtidor.c ****             {   rxStatus = Surtidor_RXSTATUS_REG;
 530              		.loc 1 604 0
 531 0040 0B4B     		ldr	r3, .L45+8
 532 0042 1B78     		ldrb	r3, [r3]	@ zero_extendqisi2
 533 0044 DBB2     		uxtb	r3, r3
 534              	.LVL38:
 605:.\Generated_Source\PSoC5/Surtidor.c ****                 if((rxStatus & Surtidor_RX_STS_FIFO_NOTEMPTY) != 0u)
 535              		.loc 1 605 0
 536 0046 13F0200F 		tst	r3, #32
 537 004a 06D0     		beq	.L43
 606:.\Generated_Source\PSoC5/Surtidor.c ****                 {   /* Read received data from FIFO*/
 607:.\Generated_Source\PSoC5/Surtidor.c ****                     rxData = Surtidor_RXDATA_REG;
 538              		.loc 1 607 0
 539 004c 094A     		ldr	r2, .L45+12
 540              	.LVL39:
 541 004e 1478     		ldrb	r4, [r2]	@ zero_extendqisi2
 542 0050 E4B2     		uxtb	r4, r4
 543              	.LVL40:
 608:.\Generated_Source\PSoC5/Surtidor.c ****                     /*Check status on error*/
 609:.\Generated_Source\PSoC5/Surtidor.c ****                     if((rxStatus & (Surtidor_RX_STS_BREAK | Surtidor_RX_STS_PAR_ERROR |
 544              		.loc 1 609 0
 545 0052 13F01E0F 		tst	r3, #30
 546 0056 02D1     		bne	.L44
 547 0058 02E0     		b	.L41
 548              	.LVL41:
 549              	.L43:
 558:.\Generated_Source\PSoC5/Surtidor.c ****         uint8 rxData = 0u;
 550              		.loc 1 558 0
 551 005a 0024     		movs	r4, #0
 552 005c 00E0     		b	.L41
 553              	.LVL42:
 554              	.L44:
 610:.\Generated_Source\PSoC5/Surtidor.c ****                                    Surtidor_RX_STS_STOP_ERROR | Surtidor_RX_STS_OVERRUN)) != 0u)
 611:.\Generated_Source\PSoC5/Surtidor.c ****                     {
 612:.\Generated_Source\PSoC5/Surtidor.c ****                         rxData = 0u;
 555              		.loc 1 612 0
 556 005e 0024     		movs	r4, #0
 557              	.LVL43:
 558              	.L41:
 613:.\Generated_Source\PSoC5/Surtidor.c ****                     }
 614:.\Generated_Source\PSoC5/Surtidor.c ****                 }
 615:.\Generated_Source\PSoC5/Surtidor.c ****             }
 616:.\Generated_Source\PSoC5/Surtidor.c **** 
 617:.\Generated_Source\PSoC5/Surtidor.c ****             /* Enable Rx interrupt. */
 618:.\Generated_Source\PSoC5/Surtidor.c ****             #if(Surtidor_RX_INTERRUPT_ENABLED)
 619:.\Generated_Source\PSoC5/Surtidor.c ****                 Surtidor_EnableRxInt();
 559              		.loc 1 619 0
 560 0060 FFF7FEFF 		bl	Surtidor_EnableRxInt
 561              	.LVL44:
 620:.\Generated_Source\PSoC5/Surtidor.c ****             #endif /* Surtidor_RX_INTERRUPT_ENABLED */
 621:.\Generated_Source\PSoC5/Surtidor.c **** 
 622:.\Generated_Source\PSoC5/Surtidor.c ****         #else /* Surtidor_RXBUFFERSIZE > Surtidor_FIFO_LENGTH */
 623:.\Generated_Source\PSoC5/Surtidor.c **** 
ARM GAS  C:\Users\RECEPC~1\AppData\Local\Temp\ccllYUoy.s 			page 22


 624:.\Generated_Source\PSoC5/Surtidor.c ****             rxStatus =Surtidor_RXSTATUS_REG;
 625:.\Generated_Source\PSoC5/Surtidor.c ****             if((rxStatus & Surtidor_RX_STS_FIFO_NOTEMPTY) != 0u)
 626:.\Generated_Source\PSoC5/Surtidor.c ****             {   /* Read received data from FIFO*/
 627:.\Generated_Source\PSoC5/Surtidor.c ****                 rxData = Surtidor_RXDATA_REG;
 628:.\Generated_Source\PSoC5/Surtidor.c ****                 /*Check status on error*/
 629:.\Generated_Source\PSoC5/Surtidor.c ****                 if((rxStatus & (Surtidor_RX_STS_BREAK | Surtidor_RX_STS_PAR_ERROR |
 630:.\Generated_Source\PSoC5/Surtidor.c ****                                Surtidor_RX_STS_STOP_ERROR | Surtidor_RX_STS_OVERRUN)) != 0u)
 631:.\Generated_Source\PSoC5/Surtidor.c ****                 {
 632:.\Generated_Source\PSoC5/Surtidor.c ****                     rxData = 0u;
 633:.\Generated_Source\PSoC5/Surtidor.c ****                 }
 634:.\Generated_Source\PSoC5/Surtidor.c ****             }
 635:.\Generated_Source\PSoC5/Surtidor.c ****         #endif /* Surtidor_RXBUFFERSIZE > Surtidor_FIFO_LENGTH */
 636:.\Generated_Source\PSoC5/Surtidor.c **** 
 637:.\Generated_Source\PSoC5/Surtidor.c ****         return(rxData);
 638:.\Generated_Source\PSoC5/Surtidor.c ****     }
 562              		.loc 1 638 0
 563 0064 2046     		mov	r0, r4
 564 0066 10BD     		pop	{r4, pc}
 565              	.LVL45:
 566              	.L46:
 567              		.align	2
 568              	.L45:
 569 0068 00000000 		.word	.LANCHOR0
 570 006c 00000000 		.word	Surtidor_rxBuffer
 571 0070 6B640040 		.word	1073767531
 572 0074 4C640040 		.word	1073767500
 573              		.cfi_endproc
 574              	.LFE11:
 575              		.size	Surtidor_GetChar, .-Surtidor_GetChar
 576              		.section	.text.Surtidor_GetByte,"ax",%progbits
 577              		.align	2
 578              		.global	Surtidor_GetByte
 579              		.thumb
 580              		.thumb_func
 581              		.type	Surtidor_GetByte, %function
 582              	Surtidor_GetByte:
 583              	.LFB12:
 639:.\Generated_Source\PSoC5/Surtidor.c **** 
 640:.\Generated_Source\PSoC5/Surtidor.c **** 
 641:.\Generated_Source\PSoC5/Surtidor.c ****     /*******************************************************************************
 642:.\Generated_Source\PSoC5/Surtidor.c ****     * Function Name: Surtidor_GetByte
 643:.\Generated_Source\PSoC5/Surtidor.c ****     ********************************************************************************
 644:.\Generated_Source\PSoC5/Surtidor.c ****     *
 645:.\Generated_Source\PSoC5/Surtidor.c ****     * Summary:
 646:.\Generated_Source\PSoC5/Surtidor.c ****     *  Grab the next available byte of data from the recieve FIFO
 647:.\Generated_Source\PSoC5/Surtidor.c ****     *
 648:.\Generated_Source\PSoC5/Surtidor.c ****     * Parameters:
 649:.\Generated_Source\PSoC5/Surtidor.c ****     *  None.
 650:.\Generated_Source\PSoC5/Surtidor.c ****     *
 651:.\Generated_Source\PSoC5/Surtidor.c ****     * Return:
 652:.\Generated_Source\PSoC5/Surtidor.c ****     *  MSB contains Status Register and LSB contains UART RX data
 653:.\Generated_Source\PSoC5/Surtidor.c ****     *
 654:.\Generated_Source\PSoC5/Surtidor.c ****     * Reentrant:
 655:.\Generated_Source\PSoC5/Surtidor.c ****     *  No.
 656:.\Generated_Source\PSoC5/Surtidor.c ****     *
 657:.\Generated_Source\PSoC5/Surtidor.c ****     *******************************************************************************/
 658:.\Generated_Source\PSoC5/Surtidor.c ****     uint16 Surtidor_GetByte(void) 
ARM GAS  C:\Users\RECEPC~1\AppData\Local\Temp\ccllYUoy.s 			page 23


 659:.\Generated_Source\PSoC5/Surtidor.c ****     {
 584              		.loc 1 659 0
 585              		.cfi_startproc
 586              		@ args = 0, pretend = 0, frame = 0
 587              		@ frame_needed = 0, uses_anonymous_args = 0
 588 0000 10B5     		push	{r4, lr}
 589              		.cfi_def_cfa_offset 8
 590              		.cfi_offset 4, -8
 591              		.cfi_offset 14, -4
 660:.\Generated_Source\PSoC5/Surtidor.c ****         return ( ((uint16)Surtidor_ReadRxStatus() << 8u) | Surtidor_ReadRxData() );
 592              		.loc 1 660 0
 593 0002 FFF7FEFF 		bl	Surtidor_ReadRxStatus
 594              	.LVL46:
 595 0006 0402     		lsls	r4, r0, #8
 596 0008 FFF7FEFF 		bl	Surtidor_ReadRxData
 597              	.LVL47:
 598 000c 2043     		orrs	r0, r0, r4
 661:.\Generated_Source\PSoC5/Surtidor.c ****     }
 599              		.loc 1 661 0
 600 000e 80B2     		uxth	r0, r0
 601 0010 10BD     		pop	{r4, pc}
 602              		.cfi_endproc
 603              	.LFE12:
 604              		.size	Surtidor_GetByte, .-Surtidor_GetByte
 605 0012 00BF     		.section	.text.Surtidor_GetRxBufferSize,"ax",%progbits
 606              		.align	2
 607              		.global	Surtidor_GetRxBufferSize
 608              		.thumb
 609              		.thumb_func
 610              		.type	Surtidor_GetRxBufferSize, %function
 611              	Surtidor_GetRxBufferSize:
 612              	.LFB13:
 662:.\Generated_Source\PSoC5/Surtidor.c **** 
 663:.\Generated_Source\PSoC5/Surtidor.c **** 
 664:.\Generated_Source\PSoC5/Surtidor.c ****     /*******************************************************************************
 665:.\Generated_Source\PSoC5/Surtidor.c ****     * Function Name: Surtidor_GetRxBufferSize
 666:.\Generated_Source\PSoC5/Surtidor.c ****     ********************************************************************************
 667:.\Generated_Source\PSoC5/Surtidor.c ****     *
 668:.\Generated_Source\PSoC5/Surtidor.c ****     * Summary:
 669:.\Generated_Source\PSoC5/Surtidor.c ****     *  Determine the amount of bytes left in the RX buffer and return the count in
 670:.\Generated_Source\PSoC5/Surtidor.c ****     *  bytes
 671:.\Generated_Source\PSoC5/Surtidor.c ****     *
 672:.\Generated_Source\PSoC5/Surtidor.c ****     * Parameters:
 673:.\Generated_Source\PSoC5/Surtidor.c ****     *  None.
 674:.\Generated_Source\PSoC5/Surtidor.c ****     *
 675:.\Generated_Source\PSoC5/Surtidor.c ****     * Return:
 676:.\Generated_Source\PSoC5/Surtidor.c ****     *  uint16: Integer count of the number of bytes left
 677:.\Generated_Source\PSoC5/Surtidor.c ****     *  in the RX buffer
 678:.\Generated_Source\PSoC5/Surtidor.c ****     *
 679:.\Generated_Source\PSoC5/Surtidor.c ****     * Global Variables:
 680:.\Generated_Source\PSoC5/Surtidor.c ****     *  Surtidor_rxBufferWrite - used to calculate left bytes.
 681:.\Generated_Source\PSoC5/Surtidor.c ****     *  Surtidor_rxBufferRead - used to calculate left bytes.
 682:.\Generated_Source\PSoC5/Surtidor.c ****     *  Surtidor_rxBufferLoopDetect - checked to decide left bytes amount.
 683:.\Generated_Source\PSoC5/Surtidor.c ****     *
 684:.\Generated_Source\PSoC5/Surtidor.c ****     * Reentrant:
 685:.\Generated_Source\PSoC5/Surtidor.c ****     *  No.
 686:.\Generated_Source\PSoC5/Surtidor.c ****     *
ARM GAS  C:\Users\RECEPC~1\AppData\Local\Temp\ccllYUoy.s 			page 24


 687:.\Generated_Source\PSoC5/Surtidor.c ****     * Theory:
 688:.\Generated_Source\PSoC5/Surtidor.c ****     *  Allows the user to find out how full the RX Buffer is.
 689:.\Generated_Source\PSoC5/Surtidor.c ****     *
 690:.\Generated_Source\PSoC5/Surtidor.c ****     *******************************************************************************/
 691:.\Generated_Source\PSoC5/Surtidor.c ****     uint16 Surtidor_GetRxBufferSize(void)
 692:.\Generated_Source\PSoC5/Surtidor.c ****                                                             
 693:.\Generated_Source\PSoC5/Surtidor.c ****     {
 613              		.loc 1 693 0
 614              		.cfi_startproc
 615              		@ args = 0, pretend = 0, frame = 0
 616              		@ frame_needed = 0, uses_anonymous_args = 0
 617 0000 10B5     		push	{r4, lr}
 618              		.cfi_def_cfa_offset 8
 619              		.cfi_offset 4, -8
 620              		.cfi_offset 14, -4
 694:.\Generated_Source\PSoC5/Surtidor.c ****         uint16 size;
 695:.\Generated_Source\PSoC5/Surtidor.c **** 
 696:.\Generated_Source\PSoC5/Surtidor.c ****         #if(Surtidor_RXBUFFERSIZE > Surtidor_FIFO_LENGTH)
 697:.\Generated_Source\PSoC5/Surtidor.c **** 
 698:.\Generated_Source\PSoC5/Surtidor.c ****             /* Disable Rx interrupt. */
 699:.\Generated_Source\PSoC5/Surtidor.c ****             /* Protect variables that could change on interrupt. */
 700:.\Generated_Source\PSoC5/Surtidor.c ****             #if(Surtidor_RX_INTERRUPT_ENABLED)
 701:.\Generated_Source\PSoC5/Surtidor.c ****                 Surtidor_DisableRxInt();
 621              		.loc 1 701 0
 622 0002 FFF7FEFF 		bl	Surtidor_DisableRxInt
 623              	.LVL48:
 702:.\Generated_Source\PSoC5/Surtidor.c ****             #endif /* Surtidor_RX_INTERRUPT_ENABLED */
 703:.\Generated_Source\PSoC5/Surtidor.c **** 
 704:.\Generated_Source\PSoC5/Surtidor.c ****             if(Surtidor_rxBufferRead == Surtidor_rxBufferWrite)
 624              		.loc 1 704 0
 625 0006 154B     		ldr	r3, .L53
 626 0008 5A88     		ldrh	r2, [r3, #2]
 627 000a 92B2     		uxth	r2, r2
 628 000c 9B88     		ldrh	r3, [r3, #4]
 629 000e 9BB2     		uxth	r3, r3
 630 0010 9A42     		cmp	r2, r3
 631 0012 07D1     		bne	.L49
 705:.\Generated_Source\PSoC5/Surtidor.c ****             {
 706:.\Generated_Source\PSoC5/Surtidor.c ****                 if(Surtidor_rxBufferLoopDetect > 0u)
 632              		.loc 1 706 0
 633 0014 114B     		ldr	r3, .L53
 634 0016 9B79     		ldrb	r3, [r3, #6]	@ zero_extendqisi2
 635 0018 13F0FF0F 		tst	r3, #255
 636 001c 19D0     		beq	.L52
 707:.\Generated_Source\PSoC5/Surtidor.c ****                 {
 708:.\Generated_Source\PSoC5/Surtidor.c ****                     size = Surtidor_RXBUFFERSIZE;
 637              		.loc 1 708 0
 638 001e 4FF48074 		mov	r4, #256
 639 0022 17E0     		b	.L50
 640              	.L49:
 709:.\Generated_Source\PSoC5/Surtidor.c ****                 }
 710:.\Generated_Source\PSoC5/Surtidor.c ****                 else
 711:.\Generated_Source\PSoC5/Surtidor.c ****                 {
 712:.\Generated_Source\PSoC5/Surtidor.c ****                     size = 0u;
 713:.\Generated_Source\PSoC5/Surtidor.c ****                 }
 714:.\Generated_Source\PSoC5/Surtidor.c ****             }
 715:.\Generated_Source\PSoC5/Surtidor.c ****             else if(Surtidor_rxBufferRead < Surtidor_rxBufferWrite)
ARM GAS  C:\Users\RECEPC~1\AppData\Local\Temp\ccllYUoy.s 			page 25


 641              		.loc 1 715 0
 642 0024 0D4B     		ldr	r3, .L53
 643 0026 5A88     		ldrh	r2, [r3, #2]
 644 0028 92B2     		uxth	r2, r2
 645 002a 9B88     		ldrh	r3, [r3, #4]
 646 002c 9BB2     		uxth	r3, r3
 647 002e 9A42     		cmp	r2, r3
 648 0030 05D2     		bcs	.L51
 716:.\Generated_Source\PSoC5/Surtidor.c ****             {
 717:.\Generated_Source\PSoC5/Surtidor.c ****                 size = (Surtidor_rxBufferWrite - Surtidor_rxBufferRead);
 649              		.loc 1 717 0
 650 0032 0A4B     		ldr	r3, .L53
 651 0034 9C88     		ldrh	r4, [r3, #4]
 652 0036 5B88     		ldrh	r3, [r3, #2]
 653 0038 E41A     		subs	r4, r4, r3
 654 003a A4B2     		uxth	r4, r4
 655              	.LVL49:
 656 003c 0AE0     		b	.L50
 657              	.LVL50:
 658              	.L51:
 718:.\Generated_Source\PSoC5/Surtidor.c ****             }
 719:.\Generated_Source\PSoC5/Surtidor.c ****             else
 720:.\Generated_Source\PSoC5/Surtidor.c ****             {
 721:.\Generated_Source\PSoC5/Surtidor.c ****                 size = (Surtidor_RXBUFFERSIZE - Surtidor_rxBufferRead) + Surtidor_rxBufferWrite;
 659              		.loc 1 721 0
 660 003e 074B     		ldr	r3, .L53
 661 0040 9C88     		ldrh	r4, [r3, #4]
 662 0042 A4B2     		uxth	r4, r4
 663 0044 5B88     		ldrh	r3, [r3, #2]
 664 0046 9BB2     		uxth	r3, r3
 665 0048 E41A     		subs	r4, r4, r3
 666 004a 04F58074 		add	r4, r4, #256
 667 004e A4B2     		uxth	r4, r4
 668              	.LVL51:
 669 0050 00E0     		b	.L50
 670              	.LVL52:
 671              	.L52:
 712:.\Generated_Source\PSoC5/Surtidor.c ****                     size = 0u;
 672              		.loc 1 712 0
 673 0052 0024     		movs	r4, #0
 674              	.L50:
 675              	.LVL53:
 722:.\Generated_Source\PSoC5/Surtidor.c ****             }
 723:.\Generated_Source\PSoC5/Surtidor.c **** 
 724:.\Generated_Source\PSoC5/Surtidor.c ****             /* Enable Rx interrupt. */
 725:.\Generated_Source\PSoC5/Surtidor.c ****             #if(Surtidor_RX_INTERRUPT_ENABLED)
 726:.\Generated_Source\PSoC5/Surtidor.c ****                 Surtidor_EnableRxInt();
 676              		.loc 1 726 0
 677 0054 FFF7FEFF 		bl	Surtidor_EnableRxInt
 678              	.LVL54:
 727:.\Generated_Source\PSoC5/Surtidor.c ****             #endif /* End Surtidor_RX_INTERRUPT_ENABLED */
 728:.\Generated_Source\PSoC5/Surtidor.c **** 
 729:.\Generated_Source\PSoC5/Surtidor.c ****         #else /* Surtidor_RXBUFFERSIZE > Surtidor_FIFO_LENGTH */
 730:.\Generated_Source\PSoC5/Surtidor.c **** 
 731:.\Generated_Source\PSoC5/Surtidor.c ****             /* We can only know if there is data in the fifo. */
 732:.\Generated_Source\PSoC5/Surtidor.c ****             size = ((Surtidor_RXSTATUS_REG & Surtidor_RX_STS_FIFO_NOTEMPTY) != 0u) ? 1u : 0u;
 733:.\Generated_Source\PSoC5/Surtidor.c **** 
ARM GAS  C:\Users\RECEPC~1\AppData\Local\Temp\ccllYUoy.s 			page 26


 734:.\Generated_Source\PSoC5/Surtidor.c ****         #endif /* End Surtidor_RXBUFFERSIZE > Surtidor_FIFO_LENGTH */
 735:.\Generated_Source\PSoC5/Surtidor.c **** 
 736:.\Generated_Source\PSoC5/Surtidor.c ****         return(size);
 737:.\Generated_Source\PSoC5/Surtidor.c ****     }
 679              		.loc 1 737 0
 680 0058 2046     		mov	r0, r4
 681 005a 10BD     		pop	{r4, pc}
 682              	.LVL55:
 683              	.L54:
 684              		.align	2
 685              	.L53:
 686 005c 00000000 		.word	.LANCHOR0
 687              		.cfi_endproc
 688              	.LFE13:
 689              		.size	Surtidor_GetRxBufferSize, .-Surtidor_GetRxBufferSize
 690              		.section	.text.Surtidor_ClearRxBuffer,"ax",%progbits
 691              		.align	2
 692              		.global	Surtidor_ClearRxBuffer
 693              		.thumb
 694              		.thumb_func
 695              		.type	Surtidor_ClearRxBuffer, %function
 696              	Surtidor_ClearRxBuffer:
 697              	.LFB14:
 738:.\Generated_Source\PSoC5/Surtidor.c **** 
 739:.\Generated_Source\PSoC5/Surtidor.c **** 
 740:.\Generated_Source\PSoC5/Surtidor.c ****     /*******************************************************************************
 741:.\Generated_Source\PSoC5/Surtidor.c ****     * Function Name: Surtidor_ClearRxBuffer
 742:.\Generated_Source\PSoC5/Surtidor.c ****     ********************************************************************************
 743:.\Generated_Source\PSoC5/Surtidor.c ****     *
 744:.\Generated_Source\PSoC5/Surtidor.c ****     * Summary:
 745:.\Generated_Source\PSoC5/Surtidor.c ****     *  Clears the RX RAM buffer by setting the read and write pointers both to zero.
 746:.\Generated_Source\PSoC5/Surtidor.c ****     *  Clears hardware RX FIFO.
 747:.\Generated_Source\PSoC5/Surtidor.c ****     *
 748:.\Generated_Source\PSoC5/Surtidor.c ****     * Parameters:
 749:.\Generated_Source\PSoC5/Surtidor.c ****     *  None.
 750:.\Generated_Source\PSoC5/Surtidor.c ****     *
 751:.\Generated_Source\PSoC5/Surtidor.c ****     * Return:
 752:.\Generated_Source\PSoC5/Surtidor.c ****     *  None.
 753:.\Generated_Source\PSoC5/Surtidor.c ****     *
 754:.\Generated_Source\PSoC5/Surtidor.c ****     * Global Variables:
 755:.\Generated_Source\PSoC5/Surtidor.c ****     *  Surtidor_rxBufferWrite - cleared to zero.
 756:.\Generated_Source\PSoC5/Surtidor.c ****     *  Surtidor_rxBufferRead - cleared to zero.
 757:.\Generated_Source\PSoC5/Surtidor.c ****     *  Surtidor_rxBufferLoopDetect - cleared to zero.
 758:.\Generated_Source\PSoC5/Surtidor.c ****     *  Surtidor_rxBufferOverflow - cleared to zero.
 759:.\Generated_Source\PSoC5/Surtidor.c ****     *
 760:.\Generated_Source\PSoC5/Surtidor.c ****     * Reentrant:
 761:.\Generated_Source\PSoC5/Surtidor.c ****     *  No.
 762:.\Generated_Source\PSoC5/Surtidor.c ****     *
 763:.\Generated_Source\PSoC5/Surtidor.c ****     * Theory:
 764:.\Generated_Source\PSoC5/Surtidor.c ****     *  Setting the pointers to zero makes the system believe there is no data to
 765:.\Generated_Source\PSoC5/Surtidor.c ****     *  read and writing will resume at address 0 overwriting any data that may
 766:.\Generated_Source\PSoC5/Surtidor.c ****     *  have remained in the RAM.
 767:.\Generated_Source\PSoC5/Surtidor.c ****     *
 768:.\Generated_Source\PSoC5/Surtidor.c ****     * Side Effects:
 769:.\Generated_Source\PSoC5/Surtidor.c ****     *  Any received data not read from the RAM or FIFO buffer will be lost.
 770:.\Generated_Source\PSoC5/Surtidor.c ****     *******************************************************************************/
 771:.\Generated_Source\PSoC5/Surtidor.c ****     void Surtidor_ClearRxBuffer(void) 
ARM GAS  C:\Users\RECEPC~1\AppData\Local\Temp\ccllYUoy.s 			page 27


 772:.\Generated_Source\PSoC5/Surtidor.c ****     {
 698              		.loc 1 772 0
 699              		.cfi_startproc
 700              		@ args = 0, pretend = 0, frame = 0
 701              		@ frame_needed = 0, uses_anonymous_args = 0
 702 0000 08B5     		push	{r3, lr}
 703              		.cfi_def_cfa_offset 8
 704              		.cfi_offset 3, -8
 705              		.cfi_offset 14, -4
 773:.\Generated_Source\PSoC5/Surtidor.c ****         uint8 enableInterrupts;
 774:.\Generated_Source\PSoC5/Surtidor.c **** 
 775:.\Generated_Source\PSoC5/Surtidor.c ****         /* clear the HW FIFO */
 776:.\Generated_Source\PSoC5/Surtidor.c ****         /* Enter critical section */
 777:.\Generated_Source\PSoC5/Surtidor.c ****         enableInterrupts = CyEnterCriticalSection();
 706              		.loc 1 777 0
 707 0002 FFF7FEFF 		bl	CyEnterCriticalSection
 708              	.LVL56:
 778:.\Generated_Source\PSoC5/Surtidor.c ****         Surtidor_RXDATA_AUX_CTL_REG |=  Surtidor_RX_FIFO_CLR;
 709              		.loc 1 778 0
 710 0006 0B4B     		ldr	r3, .L56
 711 0008 1A78     		ldrb	r2, [r3]	@ zero_extendqisi2
 712 000a 42F00102 		orr	r2, r2, #1
 713 000e 1A70     		strb	r2, [r3]
 779:.\Generated_Source\PSoC5/Surtidor.c ****         Surtidor_RXDATA_AUX_CTL_REG &= (uint8)~Surtidor_RX_FIFO_CLR;
 714              		.loc 1 779 0
 715 0010 1A78     		ldrb	r2, [r3]	@ zero_extendqisi2
 716 0012 02F0FE02 		and	r2, r2, #254
 717 0016 1A70     		strb	r2, [r3]
 780:.\Generated_Source\PSoC5/Surtidor.c ****         /* Exit critical section */
 781:.\Generated_Source\PSoC5/Surtidor.c ****         CyExitCriticalSection(enableInterrupts);
 718              		.loc 1 781 0
 719 0018 FFF7FEFF 		bl	CyExitCriticalSection
 720              	.LVL57:
 782:.\Generated_Source\PSoC5/Surtidor.c **** 
 783:.\Generated_Source\PSoC5/Surtidor.c ****         #if(Surtidor_RXBUFFERSIZE > Surtidor_FIFO_LENGTH)
 784:.\Generated_Source\PSoC5/Surtidor.c ****             /* Disable Rx interrupt. */
 785:.\Generated_Source\PSoC5/Surtidor.c ****             /* Protect variables that could change on interrupt. */
 786:.\Generated_Source\PSoC5/Surtidor.c ****             #if(Surtidor_RX_INTERRUPT_ENABLED)
 787:.\Generated_Source\PSoC5/Surtidor.c ****                 Surtidor_DisableRxInt();
 721              		.loc 1 787 0
 722 001c FFF7FEFF 		bl	Surtidor_DisableRxInt
 723              	.LVL58:
 788:.\Generated_Source\PSoC5/Surtidor.c ****             #endif /* End Surtidor_RX_INTERRUPT_ENABLED */
 789:.\Generated_Source\PSoC5/Surtidor.c **** 
 790:.\Generated_Source\PSoC5/Surtidor.c ****             Surtidor_rxBufferRead = 0u;
 724              		.loc 1 790 0
 725 0020 054B     		ldr	r3, .L56+4
 726 0022 0022     		movs	r2, #0
 727 0024 5A80     		strh	r2, [r3, #2]	@ movhi
 791:.\Generated_Source\PSoC5/Surtidor.c ****             Surtidor_rxBufferWrite = 0u;
 728              		.loc 1 791 0
 729 0026 9A80     		strh	r2, [r3, #4]	@ movhi
 792:.\Generated_Source\PSoC5/Surtidor.c ****             Surtidor_rxBufferLoopDetect = 0u;
 730              		.loc 1 792 0
 731 0028 9A71     		strb	r2, [r3, #6]
 793:.\Generated_Source\PSoC5/Surtidor.c ****             Surtidor_rxBufferOverflow = 0u;
 732              		.loc 1 793 0
ARM GAS  C:\Users\RECEPC~1\AppData\Local\Temp\ccllYUoy.s 			page 28


 733 002a DA71     		strb	r2, [r3, #7]
 794:.\Generated_Source\PSoC5/Surtidor.c **** 
 795:.\Generated_Source\PSoC5/Surtidor.c ****             /* Enable Rx interrupt. */
 796:.\Generated_Source\PSoC5/Surtidor.c ****             #if(Surtidor_RX_INTERRUPT_ENABLED)
 797:.\Generated_Source\PSoC5/Surtidor.c ****                 Surtidor_EnableRxInt();
 734              		.loc 1 797 0
 735 002c FFF7FEFF 		bl	Surtidor_EnableRxInt
 736              	.LVL59:
 737 0030 08BD     		pop	{r3, pc}
 738              	.L57:
 739 0032 00BF     		.align	2
 740              	.L56:
 741 0034 9C640040 		.word	1073767580
 742 0038 00000000 		.word	.LANCHOR0
 743              		.cfi_endproc
 744              	.LFE14:
 745              		.size	Surtidor_ClearRxBuffer, .-Surtidor_ClearRxBuffer
 746              		.section	.text.Surtidor_SetRxAddressMode,"ax",%progbits
 747              		.align	2
 748              		.global	Surtidor_SetRxAddressMode
 749              		.thumb
 750              		.thumb_func
 751              		.type	Surtidor_SetRxAddressMode, %function
 752              	Surtidor_SetRxAddressMode:
 753              	.LFB15:
 798:.\Generated_Source\PSoC5/Surtidor.c ****             #endif /* End Surtidor_RX_INTERRUPT_ENABLED */
 799:.\Generated_Source\PSoC5/Surtidor.c ****         #endif /* End Surtidor_RXBUFFERSIZE > Surtidor_FIFO_LENGTH */
 800:.\Generated_Source\PSoC5/Surtidor.c **** 
 801:.\Generated_Source\PSoC5/Surtidor.c ****     }
 802:.\Generated_Source\PSoC5/Surtidor.c **** 
 803:.\Generated_Source\PSoC5/Surtidor.c **** 
 804:.\Generated_Source\PSoC5/Surtidor.c ****     /*******************************************************************************
 805:.\Generated_Source\PSoC5/Surtidor.c ****     * Function Name: Surtidor_SetRxAddressMode
 806:.\Generated_Source\PSoC5/Surtidor.c ****     ********************************************************************************
 807:.\Generated_Source\PSoC5/Surtidor.c ****     *
 808:.\Generated_Source\PSoC5/Surtidor.c ****     * Summary:
 809:.\Generated_Source\PSoC5/Surtidor.c ****     *  Set the receive addressing mode
 810:.\Generated_Source\PSoC5/Surtidor.c ****     *
 811:.\Generated_Source\PSoC5/Surtidor.c ****     * Parameters:
 812:.\Generated_Source\PSoC5/Surtidor.c ****     *  addressMode: Enumerated value indicating the mode of RX addressing
 813:.\Generated_Source\PSoC5/Surtidor.c ****     *  Surtidor__B_UART__AM_SW_BYTE_BYTE -  Software Byte-by-Byte address
 814:.\Generated_Source\PSoC5/Surtidor.c ****     *                                               detection
 815:.\Generated_Source\PSoC5/Surtidor.c ****     *  Surtidor__B_UART__AM_SW_DETECT_TO_BUFFER - Software Detect to Buffer
 816:.\Generated_Source\PSoC5/Surtidor.c ****     *                                               address detection
 817:.\Generated_Source\PSoC5/Surtidor.c ****     *  Surtidor__B_UART__AM_HW_BYTE_BY_BYTE - Hardware Byte-by-Byte address
 818:.\Generated_Source\PSoC5/Surtidor.c ****     *                                               detection
 819:.\Generated_Source\PSoC5/Surtidor.c ****     *  Surtidor__B_UART__AM_HW_DETECT_TO_BUFFER - Hardware Detect to Buffer
 820:.\Generated_Source\PSoC5/Surtidor.c ****     *                                               address detection
 821:.\Generated_Source\PSoC5/Surtidor.c ****     *  Surtidor__B_UART__AM_NONE - No address detection
 822:.\Generated_Source\PSoC5/Surtidor.c ****     *
 823:.\Generated_Source\PSoC5/Surtidor.c ****     * Return:
 824:.\Generated_Source\PSoC5/Surtidor.c ****     *  None.
 825:.\Generated_Source\PSoC5/Surtidor.c ****     *
 826:.\Generated_Source\PSoC5/Surtidor.c ****     * Global Variables:
 827:.\Generated_Source\PSoC5/Surtidor.c ****     *  Surtidor_rxAddressMode - the parameter stored in this variable for
 828:.\Generated_Source\PSoC5/Surtidor.c ****     *   the farther usage in RX ISR.
 829:.\Generated_Source\PSoC5/Surtidor.c ****     *  Surtidor_rxAddressDetected - set to initial state (0).
ARM GAS  C:\Users\RECEPC~1\AppData\Local\Temp\ccllYUoy.s 			page 29


 830:.\Generated_Source\PSoC5/Surtidor.c ****     *
 831:.\Generated_Source\PSoC5/Surtidor.c ****     *******************************************************************************/
 832:.\Generated_Source\PSoC5/Surtidor.c ****     void Surtidor_SetRxAddressMode(uint8 addressMode)
 833:.\Generated_Source\PSoC5/Surtidor.c ****                                                         
 834:.\Generated_Source\PSoC5/Surtidor.c ****     {
 754              		.loc 1 834 0
 755              		.cfi_startproc
 756              		@ args = 0, pretend = 0, frame = 0
 757              		@ frame_needed = 0, uses_anonymous_args = 0
 758              		@ link register save eliminated.
 759              	.LVL60:
 760 0000 7047     		bx	lr
 761              		.cfi_endproc
 762              	.LFE15:
 763              		.size	Surtidor_SetRxAddressMode, .-Surtidor_SetRxAddressMode
 764 0002 00BF     		.section	.text.Surtidor_SetRxAddress1,"ax",%progbits
 765              		.align	2
 766              		.global	Surtidor_SetRxAddress1
 767              		.thumb
 768              		.thumb_func
 769              		.type	Surtidor_SetRxAddress1, %function
 770              	Surtidor_SetRxAddress1:
 771              	.LFB16:
 835:.\Generated_Source\PSoC5/Surtidor.c ****         #if(Surtidor_RXHW_ADDRESS_ENABLED)
 836:.\Generated_Source\PSoC5/Surtidor.c ****             #if(Surtidor_CONTROL_REG_REMOVED)
 837:.\Generated_Source\PSoC5/Surtidor.c ****                 if(addressMode != 0u) { }     /* release compiler warning */
 838:.\Generated_Source\PSoC5/Surtidor.c ****             #else /* Surtidor_CONTROL_REG_REMOVED */
 839:.\Generated_Source\PSoC5/Surtidor.c ****                 uint8 tmpCtrl;
 840:.\Generated_Source\PSoC5/Surtidor.c ****                 tmpCtrl = Surtidor_CONTROL_REG & (uint8)~Surtidor_CTRL_RXADDR_MODE_MASK;
 841:.\Generated_Source\PSoC5/Surtidor.c ****                 tmpCtrl |= (uint8)(addressMode << Surtidor_CTRL_RXADDR_MODE0_SHIFT);
 842:.\Generated_Source\PSoC5/Surtidor.c ****                 Surtidor_CONTROL_REG = tmpCtrl;
 843:.\Generated_Source\PSoC5/Surtidor.c ****                 #if(Surtidor_RX_INTERRUPT_ENABLED && \
 844:.\Generated_Source\PSoC5/Surtidor.c ****                    (Surtidor_RXBUFFERSIZE > Surtidor_FIFO_LENGTH) )
 845:.\Generated_Source\PSoC5/Surtidor.c ****                     Surtidor_rxAddressMode = addressMode;
 846:.\Generated_Source\PSoC5/Surtidor.c ****                     Surtidor_rxAddressDetected = 0u;
 847:.\Generated_Source\PSoC5/Surtidor.c ****                 #endif /* End Surtidor_RXBUFFERSIZE > Surtidor_FIFO_LENGTH*/
 848:.\Generated_Source\PSoC5/Surtidor.c ****             #endif /* End Surtidor_CONTROL_REG_REMOVED */
 849:.\Generated_Source\PSoC5/Surtidor.c ****         #else /* Surtidor_RXHW_ADDRESS_ENABLED */
 850:.\Generated_Source\PSoC5/Surtidor.c ****             if(addressMode != 0u) { }     /* release compiler warning */
 851:.\Generated_Source\PSoC5/Surtidor.c ****         #endif /* End Surtidor_RXHW_ADDRESS_ENABLED */
 852:.\Generated_Source\PSoC5/Surtidor.c ****     }
 853:.\Generated_Source\PSoC5/Surtidor.c **** 
 854:.\Generated_Source\PSoC5/Surtidor.c **** 
 855:.\Generated_Source\PSoC5/Surtidor.c ****     /*******************************************************************************
 856:.\Generated_Source\PSoC5/Surtidor.c ****     * Function Name: Surtidor_SetRxAddress1
 857:.\Generated_Source\PSoC5/Surtidor.c ****     ********************************************************************************
 858:.\Generated_Source\PSoC5/Surtidor.c ****     *
 859:.\Generated_Source\PSoC5/Surtidor.c ****     * Summary:
 860:.\Generated_Source\PSoC5/Surtidor.c ****     *  Set the first hardware address compare value
 861:.\Generated_Source\PSoC5/Surtidor.c ****     *
 862:.\Generated_Source\PSoC5/Surtidor.c ****     * Parameters:
 863:.\Generated_Source\PSoC5/Surtidor.c ****     *  address
 864:.\Generated_Source\PSoC5/Surtidor.c ****     *
 865:.\Generated_Source\PSoC5/Surtidor.c ****     * Return:
 866:.\Generated_Source\PSoC5/Surtidor.c ****     *  None.
 867:.\Generated_Source\PSoC5/Surtidor.c ****     *
 868:.\Generated_Source\PSoC5/Surtidor.c ****     *******************************************************************************/
ARM GAS  C:\Users\RECEPC~1\AppData\Local\Temp\ccllYUoy.s 			page 30


 869:.\Generated_Source\PSoC5/Surtidor.c ****     void Surtidor_SetRxAddress1(uint8 address) 
 870:.\Generated_Source\PSoC5/Surtidor.c **** 
 871:.\Generated_Source\PSoC5/Surtidor.c ****     {
 772              		.loc 1 871 0
 773              		.cfi_startproc
 774              		@ args = 0, pretend = 0, frame = 0
 775              		@ frame_needed = 0, uses_anonymous_args = 0
 776              		@ link register save eliminated.
 777              	.LVL61:
 872:.\Generated_Source\PSoC5/Surtidor.c ****         Surtidor_RXADDRESS1_REG = address;
 778              		.loc 1 872 0
 779 0000 014B     		ldr	r3, .L60
 780 0002 1870     		strb	r0, [r3]
 781 0004 7047     		bx	lr
 782              	.L61:
 783 0006 00BF     		.align	2
 784              	.L60:
 785 0008 2C640040 		.word	1073767468
 786              		.cfi_endproc
 787              	.LFE16:
 788              		.size	Surtidor_SetRxAddress1, .-Surtidor_SetRxAddress1
 789              		.section	.text.Surtidor_SetRxAddress2,"ax",%progbits
 790              		.align	2
 791              		.global	Surtidor_SetRxAddress2
 792              		.thumb
 793              		.thumb_func
 794              		.type	Surtidor_SetRxAddress2, %function
 795              	Surtidor_SetRxAddress2:
 796              	.LFB17:
 873:.\Generated_Source\PSoC5/Surtidor.c ****     }
 874:.\Generated_Source\PSoC5/Surtidor.c **** 
 875:.\Generated_Source\PSoC5/Surtidor.c **** 
 876:.\Generated_Source\PSoC5/Surtidor.c ****     /*******************************************************************************
 877:.\Generated_Source\PSoC5/Surtidor.c ****     * Function Name: Surtidor_SetRxAddress2
 878:.\Generated_Source\PSoC5/Surtidor.c ****     ********************************************************************************
 879:.\Generated_Source\PSoC5/Surtidor.c ****     *
 880:.\Generated_Source\PSoC5/Surtidor.c ****     * Summary:
 881:.\Generated_Source\PSoC5/Surtidor.c ****     *  Set the second hardware address compare value
 882:.\Generated_Source\PSoC5/Surtidor.c ****     *
 883:.\Generated_Source\PSoC5/Surtidor.c ****     * Parameters:
 884:.\Generated_Source\PSoC5/Surtidor.c ****     *  address
 885:.\Generated_Source\PSoC5/Surtidor.c ****     *
 886:.\Generated_Source\PSoC5/Surtidor.c ****     * Return:
 887:.\Generated_Source\PSoC5/Surtidor.c ****     *  None.
 888:.\Generated_Source\PSoC5/Surtidor.c ****     *
 889:.\Generated_Source\PSoC5/Surtidor.c ****     *******************************************************************************/
 890:.\Generated_Source\PSoC5/Surtidor.c ****     void Surtidor_SetRxAddress2(uint8 address) 
 891:.\Generated_Source\PSoC5/Surtidor.c ****     {
 797              		.loc 1 891 0
 798              		.cfi_startproc
 799              		@ args = 0, pretend = 0, frame = 0
 800              		@ frame_needed = 0, uses_anonymous_args = 0
 801              		@ link register save eliminated.
 802              	.LVL62:
 892:.\Generated_Source\PSoC5/Surtidor.c ****         Surtidor_RXADDRESS2_REG = address;
 803              		.loc 1 892 0
 804 0000 014B     		ldr	r3, .L63
ARM GAS  C:\Users\RECEPC~1\AppData\Local\Temp\ccllYUoy.s 			page 31


 805 0002 1870     		strb	r0, [r3]
 806 0004 7047     		bx	lr
 807              	.L64:
 808 0006 00BF     		.align	2
 809              	.L63:
 810 0008 3C640040 		.word	1073767484
 811              		.cfi_endproc
 812              	.LFE17:
 813              		.size	Surtidor_SetRxAddress2, .-Surtidor_SetRxAddress2
 814              		.section	.text.Surtidor_SetTxInterruptMode,"ax",%progbits
 815              		.align	2
 816              		.global	Surtidor_SetTxInterruptMode
 817              		.thumb
 818              		.thumb_func
 819              		.type	Surtidor_SetTxInterruptMode, %function
 820              	Surtidor_SetTxInterruptMode:
 821              	.LFB18:
 893:.\Generated_Source\PSoC5/Surtidor.c ****     }
 894:.\Generated_Source\PSoC5/Surtidor.c **** 
 895:.\Generated_Source\PSoC5/Surtidor.c **** #endif  /* Surtidor_RX_ENABLED || Surtidor_HD_ENABLED*/
 896:.\Generated_Source\PSoC5/Surtidor.c **** 
 897:.\Generated_Source\PSoC5/Surtidor.c **** 
 898:.\Generated_Source\PSoC5/Surtidor.c **** #if( (Surtidor_TX_ENABLED) || (Surtidor_HD_ENABLED) )
 899:.\Generated_Source\PSoC5/Surtidor.c **** 
 900:.\Generated_Source\PSoC5/Surtidor.c ****     #if(Surtidor_TX_INTERRUPT_ENABLED)
 901:.\Generated_Source\PSoC5/Surtidor.c **** 
 902:.\Generated_Source\PSoC5/Surtidor.c ****         /*******************************************************************************
 903:.\Generated_Source\PSoC5/Surtidor.c ****         * Function Name: Surtidor_EnableTxInt
 904:.\Generated_Source\PSoC5/Surtidor.c ****         ********************************************************************************
 905:.\Generated_Source\PSoC5/Surtidor.c ****         *
 906:.\Generated_Source\PSoC5/Surtidor.c ****         * Summary:
 907:.\Generated_Source\PSoC5/Surtidor.c ****         *  Enable TX interrupt generation
 908:.\Generated_Source\PSoC5/Surtidor.c ****         *
 909:.\Generated_Source\PSoC5/Surtidor.c ****         * Parameters:
 910:.\Generated_Source\PSoC5/Surtidor.c ****         *  None.
 911:.\Generated_Source\PSoC5/Surtidor.c ****         *
 912:.\Generated_Source\PSoC5/Surtidor.c ****         * Return:
 913:.\Generated_Source\PSoC5/Surtidor.c ****         *  None.
 914:.\Generated_Source\PSoC5/Surtidor.c ****         *
 915:.\Generated_Source\PSoC5/Surtidor.c ****         * Theory:
 916:.\Generated_Source\PSoC5/Surtidor.c ****         *  Enable the interrupt output -or- the interrupt component itself
 917:.\Generated_Source\PSoC5/Surtidor.c ****         *
 918:.\Generated_Source\PSoC5/Surtidor.c ****         *******************************************************************************/
 919:.\Generated_Source\PSoC5/Surtidor.c ****         void Surtidor_EnableTxInt(void) 
 920:.\Generated_Source\PSoC5/Surtidor.c ****         {
 921:.\Generated_Source\PSoC5/Surtidor.c ****             CyIntEnable(Surtidor_TX_VECT_NUM);
 922:.\Generated_Source\PSoC5/Surtidor.c ****         }
 923:.\Generated_Source\PSoC5/Surtidor.c **** 
 924:.\Generated_Source\PSoC5/Surtidor.c **** 
 925:.\Generated_Source\PSoC5/Surtidor.c ****         /*******************************************************************************
 926:.\Generated_Source\PSoC5/Surtidor.c ****         * Function Name: Surtidor_DisableTxInt
 927:.\Generated_Source\PSoC5/Surtidor.c ****         ********************************************************************************
 928:.\Generated_Source\PSoC5/Surtidor.c ****         *
 929:.\Generated_Source\PSoC5/Surtidor.c ****         * Summary:
 930:.\Generated_Source\PSoC5/Surtidor.c ****         *  Disable TX interrupt generation
 931:.\Generated_Source\PSoC5/Surtidor.c ****         *
 932:.\Generated_Source\PSoC5/Surtidor.c ****         * Parameters:
ARM GAS  C:\Users\RECEPC~1\AppData\Local\Temp\ccllYUoy.s 			page 32


 933:.\Generated_Source\PSoC5/Surtidor.c ****         *  None.
 934:.\Generated_Source\PSoC5/Surtidor.c ****         *
 935:.\Generated_Source\PSoC5/Surtidor.c ****         * Return:
 936:.\Generated_Source\PSoC5/Surtidor.c ****         *  None.
 937:.\Generated_Source\PSoC5/Surtidor.c ****         *
 938:.\Generated_Source\PSoC5/Surtidor.c ****         * Theory:
 939:.\Generated_Source\PSoC5/Surtidor.c ****         *  Disable the interrupt output -or- the interrupt component itself
 940:.\Generated_Source\PSoC5/Surtidor.c ****         *
 941:.\Generated_Source\PSoC5/Surtidor.c ****         *******************************************************************************/
 942:.\Generated_Source\PSoC5/Surtidor.c ****         void Surtidor_DisableTxInt(void) 
 943:.\Generated_Source\PSoC5/Surtidor.c ****         {
 944:.\Generated_Source\PSoC5/Surtidor.c ****             CyIntDisable(Surtidor_TX_VECT_NUM);
 945:.\Generated_Source\PSoC5/Surtidor.c ****         }
 946:.\Generated_Source\PSoC5/Surtidor.c **** 
 947:.\Generated_Source\PSoC5/Surtidor.c ****     #endif /* Surtidor_TX_INTERRUPT_ENABLED */
 948:.\Generated_Source\PSoC5/Surtidor.c **** 
 949:.\Generated_Source\PSoC5/Surtidor.c **** 
 950:.\Generated_Source\PSoC5/Surtidor.c ****     /*******************************************************************************
 951:.\Generated_Source\PSoC5/Surtidor.c ****     * Function Name: Surtidor_SetTxInterruptMode
 952:.\Generated_Source\PSoC5/Surtidor.c ****     ********************************************************************************
 953:.\Generated_Source\PSoC5/Surtidor.c ****     *
 954:.\Generated_Source\PSoC5/Surtidor.c ****     * Summary:
 955:.\Generated_Source\PSoC5/Surtidor.c ****     *  Configure which status bits trigger an interrupt event
 956:.\Generated_Source\PSoC5/Surtidor.c ****     *
 957:.\Generated_Source\PSoC5/Surtidor.c ****     * Parameters:
 958:.\Generated_Source\PSoC5/Surtidor.c ****     *  intSrc: An or'd combination of the desired status bit masks (defined in
 959:.\Generated_Source\PSoC5/Surtidor.c ****     *          the header file)
 960:.\Generated_Source\PSoC5/Surtidor.c ****     *
 961:.\Generated_Source\PSoC5/Surtidor.c ****     * Return:
 962:.\Generated_Source\PSoC5/Surtidor.c ****     *  None.
 963:.\Generated_Source\PSoC5/Surtidor.c ****     *
 964:.\Generated_Source\PSoC5/Surtidor.c ****     * Theory:
 965:.\Generated_Source\PSoC5/Surtidor.c ****     *  Enables the output of specific status bits to the interrupt controller
 966:.\Generated_Source\PSoC5/Surtidor.c ****     *
 967:.\Generated_Source\PSoC5/Surtidor.c ****     *******************************************************************************/
 968:.\Generated_Source\PSoC5/Surtidor.c ****     void Surtidor_SetTxInterruptMode(uint8 intSrc) 
 969:.\Generated_Source\PSoC5/Surtidor.c ****     {
 822              		.loc 1 969 0
 823              		.cfi_startproc
 824              		@ args = 0, pretend = 0, frame = 0
 825              		@ frame_needed = 0, uses_anonymous_args = 0
 826              		@ link register save eliminated.
 827              	.LVL63:
 970:.\Generated_Source\PSoC5/Surtidor.c ****         Surtidor_TXSTATUS_MASK_REG = intSrc;
 828              		.loc 1 970 0
 829 0000 014B     		ldr	r3, .L66
 830 0002 1870     		strb	r0, [r3]
 831 0004 7047     		bx	lr
 832              	.L67:
 833 0006 00BF     		.align	2
 834              	.L66:
 835 0008 86650040 		.word	1073767814
 836              		.cfi_endproc
 837              	.LFE18:
 838              		.size	Surtidor_SetTxInterruptMode, .-Surtidor_SetTxInterruptMode
 839              		.section	.text.Surtidor_WriteTxData,"ax",%progbits
 840              		.align	2
ARM GAS  C:\Users\RECEPC~1\AppData\Local\Temp\ccllYUoy.s 			page 33


 841              		.global	Surtidor_WriteTxData
 842              		.thumb
 843              		.thumb_func
 844              		.type	Surtidor_WriteTxData, %function
 845              	Surtidor_WriteTxData:
 846              	.LFB19:
 971:.\Generated_Source\PSoC5/Surtidor.c ****     }
 972:.\Generated_Source\PSoC5/Surtidor.c **** 
 973:.\Generated_Source\PSoC5/Surtidor.c **** 
 974:.\Generated_Source\PSoC5/Surtidor.c ****     /*******************************************************************************
 975:.\Generated_Source\PSoC5/Surtidor.c ****     * Function Name: Surtidor_WriteTxData
 976:.\Generated_Source\PSoC5/Surtidor.c ****     ********************************************************************************
 977:.\Generated_Source\PSoC5/Surtidor.c ****     *
 978:.\Generated_Source\PSoC5/Surtidor.c ****     * Summary:
 979:.\Generated_Source\PSoC5/Surtidor.c ****     *  Write a byte of data to the Transmit FIFO or TX buffer to be sent when the
 980:.\Generated_Source\PSoC5/Surtidor.c ****     *  bus is available. WriteTxData sends a byte without checking for buffer room
 981:.\Generated_Source\PSoC5/Surtidor.c ****     *  or status. It is up to the user to separately check status.
 982:.\Generated_Source\PSoC5/Surtidor.c ****     *
 983:.\Generated_Source\PSoC5/Surtidor.c ****     * Parameters:
 984:.\Generated_Source\PSoC5/Surtidor.c ****     *  TXDataByte: byte of data to place in the transmit FIFO
 985:.\Generated_Source\PSoC5/Surtidor.c ****     *
 986:.\Generated_Source\PSoC5/Surtidor.c ****     * Return:
 987:.\Generated_Source\PSoC5/Surtidor.c ****     * void
 988:.\Generated_Source\PSoC5/Surtidor.c ****     *
 989:.\Generated_Source\PSoC5/Surtidor.c ****     * Global Variables:
 990:.\Generated_Source\PSoC5/Surtidor.c ****     *  Surtidor_txBuffer - RAM buffer pointer for save data for transmission
 991:.\Generated_Source\PSoC5/Surtidor.c ****     *  Surtidor_txBufferWrite - cyclic index for write to txBuffer,
 992:.\Generated_Source\PSoC5/Surtidor.c ****     *    incremented after each byte saved to buffer.
 993:.\Generated_Source\PSoC5/Surtidor.c ****     *  Surtidor_txBufferRead - cyclic index for read from txBuffer,
 994:.\Generated_Source\PSoC5/Surtidor.c ****     *    checked to identify the condition to write to FIFO directly or to TX buffer
 995:.\Generated_Source\PSoC5/Surtidor.c ****     *  Surtidor_initVar - checked to identify that the component has been
 996:.\Generated_Source\PSoC5/Surtidor.c ****     *    initialized.
 997:.\Generated_Source\PSoC5/Surtidor.c ****     *
 998:.\Generated_Source\PSoC5/Surtidor.c ****     * Reentrant:
 999:.\Generated_Source\PSoC5/Surtidor.c ****     *  No.
1000:.\Generated_Source\PSoC5/Surtidor.c ****     *
1001:.\Generated_Source\PSoC5/Surtidor.c ****     *******************************************************************************/
1002:.\Generated_Source\PSoC5/Surtidor.c ****     void Surtidor_WriteTxData(uint8 txDataByte) 
1003:.\Generated_Source\PSoC5/Surtidor.c ****     {
 847              		.loc 1 1003 0
 848              		.cfi_startproc
 849              		@ args = 0, pretend = 0, frame = 0
 850              		@ frame_needed = 0, uses_anonymous_args = 0
 851              		@ link register save eliminated.
 852              	.LVL64:
1004:.\Generated_Source\PSoC5/Surtidor.c ****         /* If not Initialized then skip this function*/
1005:.\Generated_Source\PSoC5/Surtidor.c ****         if(Surtidor_initVar != 0u)
 853              		.loc 1 1005 0
 854 0000 024B     		ldr	r3, .L70
 855 0002 1B78     		ldrb	r3, [r3]	@ zero_extendqisi2
 856 0004 0BB1     		cbz	r3, .L68
1006:.\Generated_Source\PSoC5/Surtidor.c ****         {
1007:.\Generated_Source\PSoC5/Surtidor.c ****             #if(Surtidor_TXBUFFERSIZE > Surtidor_FIFO_LENGTH)
1008:.\Generated_Source\PSoC5/Surtidor.c **** 
1009:.\Generated_Source\PSoC5/Surtidor.c ****                 /* Disable Tx interrupt. */
1010:.\Generated_Source\PSoC5/Surtidor.c ****                 /* Protect variables that could change on interrupt. */
1011:.\Generated_Source\PSoC5/Surtidor.c ****                 #if(Surtidor_TX_INTERRUPT_ENABLED)
ARM GAS  C:\Users\RECEPC~1\AppData\Local\Temp\ccllYUoy.s 			page 34


1012:.\Generated_Source\PSoC5/Surtidor.c ****                     Surtidor_DisableTxInt();
1013:.\Generated_Source\PSoC5/Surtidor.c ****                 #endif /* End Surtidor_TX_INTERRUPT_ENABLED */
1014:.\Generated_Source\PSoC5/Surtidor.c **** 
1015:.\Generated_Source\PSoC5/Surtidor.c ****                 if( (Surtidor_txBufferRead == Surtidor_txBufferWrite) &&
1016:.\Generated_Source\PSoC5/Surtidor.c ****                     ((Surtidor_TXSTATUS_REG & Surtidor_TX_STS_FIFO_FULL) == 0u) )
1017:.\Generated_Source\PSoC5/Surtidor.c ****                 {
1018:.\Generated_Source\PSoC5/Surtidor.c ****                     /* Add directly to the FIFO. */
1019:.\Generated_Source\PSoC5/Surtidor.c ****                     Surtidor_TXDATA_REG = txDataByte;
1020:.\Generated_Source\PSoC5/Surtidor.c ****                 }
1021:.\Generated_Source\PSoC5/Surtidor.c ****                 else
1022:.\Generated_Source\PSoC5/Surtidor.c ****                 {
1023:.\Generated_Source\PSoC5/Surtidor.c ****                     if(Surtidor_txBufferWrite >= Surtidor_TXBUFFERSIZE)
1024:.\Generated_Source\PSoC5/Surtidor.c ****                     {
1025:.\Generated_Source\PSoC5/Surtidor.c ****                         Surtidor_txBufferWrite = 0u;
1026:.\Generated_Source\PSoC5/Surtidor.c ****                     }
1027:.\Generated_Source\PSoC5/Surtidor.c **** 
1028:.\Generated_Source\PSoC5/Surtidor.c ****                     Surtidor_txBuffer[Surtidor_txBufferWrite] = txDataByte;
1029:.\Generated_Source\PSoC5/Surtidor.c **** 
1030:.\Generated_Source\PSoC5/Surtidor.c ****                     /* Add to the software buffer. */
1031:.\Generated_Source\PSoC5/Surtidor.c ****                     Surtidor_txBufferWrite++;
1032:.\Generated_Source\PSoC5/Surtidor.c **** 
1033:.\Generated_Source\PSoC5/Surtidor.c ****                 }
1034:.\Generated_Source\PSoC5/Surtidor.c **** 
1035:.\Generated_Source\PSoC5/Surtidor.c ****                 /* Enable Tx interrupt. */
1036:.\Generated_Source\PSoC5/Surtidor.c ****                 #if(Surtidor_TX_INTERRUPT_ENABLED)
1037:.\Generated_Source\PSoC5/Surtidor.c ****                     Surtidor_EnableTxInt();
1038:.\Generated_Source\PSoC5/Surtidor.c ****                 #endif /* End Surtidor_TX_INTERRUPT_ENABLED */
1039:.\Generated_Source\PSoC5/Surtidor.c **** 
1040:.\Generated_Source\PSoC5/Surtidor.c ****             #else /* Surtidor_TXBUFFERSIZE > Surtidor_FIFO_LENGTH */
1041:.\Generated_Source\PSoC5/Surtidor.c **** 
1042:.\Generated_Source\PSoC5/Surtidor.c ****                 /* Add directly to the FIFO. */
1043:.\Generated_Source\PSoC5/Surtidor.c ****                 Surtidor_TXDATA_REG = txDataByte;
 857              		.loc 1 1043 0
 858 0006 024B     		ldr	r3, .L70+4
 859 0008 1870     		strb	r0, [r3]
 860              	.L68:
 861 000a 7047     		bx	lr
 862              	.L71:
 863              		.align	2
 864              	.L70:
 865 000c 00000000 		.word	.LANCHOR0
 866 0010 45650040 		.word	1073767749
 867              		.cfi_endproc
 868              	.LFE19:
 869              		.size	Surtidor_WriteTxData, .-Surtidor_WriteTxData
 870              		.section	.text.Surtidor_ReadTxStatus,"ax",%progbits
 871              		.align	2
 872              		.global	Surtidor_ReadTxStatus
 873              		.thumb
 874              		.thumb_func
 875              		.type	Surtidor_ReadTxStatus, %function
 876              	Surtidor_ReadTxStatus:
 877              	.LFB20:
1044:.\Generated_Source\PSoC5/Surtidor.c **** 
1045:.\Generated_Source\PSoC5/Surtidor.c ****             #endif /* End Surtidor_TXBUFFERSIZE > Surtidor_FIFO_LENGTH */
1046:.\Generated_Source\PSoC5/Surtidor.c ****         }
1047:.\Generated_Source\PSoC5/Surtidor.c ****     }
ARM GAS  C:\Users\RECEPC~1\AppData\Local\Temp\ccllYUoy.s 			page 35


1048:.\Generated_Source\PSoC5/Surtidor.c **** 
1049:.\Generated_Source\PSoC5/Surtidor.c **** 
1050:.\Generated_Source\PSoC5/Surtidor.c ****     /*******************************************************************************
1051:.\Generated_Source\PSoC5/Surtidor.c ****     * Function Name: Surtidor_ReadTxStatus
1052:.\Generated_Source\PSoC5/Surtidor.c ****     ********************************************************************************
1053:.\Generated_Source\PSoC5/Surtidor.c ****     *
1054:.\Generated_Source\PSoC5/Surtidor.c ****     * Summary:
1055:.\Generated_Source\PSoC5/Surtidor.c ****     *  Read the status register for the component
1056:.\Generated_Source\PSoC5/Surtidor.c ****     *
1057:.\Generated_Source\PSoC5/Surtidor.c ****     * Parameters:
1058:.\Generated_Source\PSoC5/Surtidor.c ****     *  None.
1059:.\Generated_Source\PSoC5/Surtidor.c ****     *
1060:.\Generated_Source\PSoC5/Surtidor.c ****     * Return:
1061:.\Generated_Source\PSoC5/Surtidor.c ****     *  Contents of the status register
1062:.\Generated_Source\PSoC5/Surtidor.c ****     *
1063:.\Generated_Source\PSoC5/Surtidor.c ****     * Theory:
1064:.\Generated_Source\PSoC5/Surtidor.c ****     *  This function reads the status register which is clear on read. It is up to
1065:.\Generated_Source\PSoC5/Surtidor.c ****     *  the user to handle all bits in this return value accordingly, even if the bit
1066:.\Generated_Source\PSoC5/Surtidor.c ****     *  was not enabled as an interrupt source the event happened and must be handled
1067:.\Generated_Source\PSoC5/Surtidor.c ****     *  accordingly.
1068:.\Generated_Source\PSoC5/Surtidor.c ****     *
1069:.\Generated_Source\PSoC5/Surtidor.c ****     *******************************************************************************/
1070:.\Generated_Source\PSoC5/Surtidor.c ****     uint8 Surtidor_ReadTxStatus(void) 
1071:.\Generated_Source\PSoC5/Surtidor.c ****     {
 878              		.loc 1 1071 0
 879              		.cfi_startproc
 880              		@ args = 0, pretend = 0, frame = 0
 881              		@ frame_needed = 0, uses_anonymous_args = 0
 882              		@ link register save eliminated.
1072:.\Generated_Source\PSoC5/Surtidor.c ****         return(Surtidor_TXSTATUS_REG);
 883              		.loc 1 1072 0
 884 0000 014B     		ldr	r3, .L73
 885 0002 1878     		ldrb	r0, [r3]	@ zero_extendqisi2
1073:.\Generated_Source\PSoC5/Surtidor.c ****     }
 886              		.loc 1 1073 0
 887 0004 7047     		bx	lr
 888              	.L74:
 889 0006 00BF     		.align	2
 890              	.L73:
 891 0008 66650040 		.word	1073767782
 892              		.cfi_endproc
 893              	.LFE20:
 894              		.size	Surtidor_ReadTxStatus, .-Surtidor_ReadTxStatus
 895              		.section	.text.Surtidor_PutChar,"ax",%progbits
 896              		.align	2
 897              		.global	Surtidor_PutChar
 898              		.thumb
 899              		.thumb_func
 900              		.type	Surtidor_PutChar, %function
 901              	Surtidor_PutChar:
 902              	.LFB21:
1074:.\Generated_Source\PSoC5/Surtidor.c **** 
1075:.\Generated_Source\PSoC5/Surtidor.c **** 
1076:.\Generated_Source\PSoC5/Surtidor.c ****     /*******************************************************************************
1077:.\Generated_Source\PSoC5/Surtidor.c ****     * Function Name: Surtidor_PutChar
1078:.\Generated_Source\PSoC5/Surtidor.c ****     ********************************************************************************
1079:.\Generated_Source\PSoC5/Surtidor.c ****     *
ARM GAS  C:\Users\RECEPC~1\AppData\Local\Temp\ccllYUoy.s 			page 36


1080:.\Generated_Source\PSoC5/Surtidor.c ****     * Summary:
1081:.\Generated_Source\PSoC5/Surtidor.c ****     *  Wait to send byte until TX register or buffer has room.
1082:.\Generated_Source\PSoC5/Surtidor.c ****     *
1083:.\Generated_Source\PSoC5/Surtidor.c ****     * Parameters:
1084:.\Generated_Source\PSoC5/Surtidor.c ****     *  txDataByte: The 8-bit data value to send across the UART.
1085:.\Generated_Source\PSoC5/Surtidor.c ****     *
1086:.\Generated_Source\PSoC5/Surtidor.c ****     * Return:
1087:.\Generated_Source\PSoC5/Surtidor.c ****     *  None.
1088:.\Generated_Source\PSoC5/Surtidor.c ****     *
1089:.\Generated_Source\PSoC5/Surtidor.c ****     * Global Variables:
1090:.\Generated_Source\PSoC5/Surtidor.c ****     *  Surtidor_txBuffer - RAM buffer pointer for save data for transmission
1091:.\Generated_Source\PSoC5/Surtidor.c ****     *  Surtidor_txBufferWrite - cyclic index for write to txBuffer,
1092:.\Generated_Source\PSoC5/Surtidor.c ****     *     checked to identify free space in txBuffer and incremented after each byte
1093:.\Generated_Source\PSoC5/Surtidor.c ****     *     saved to buffer.
1094:.\Generated_Source\PSoC5/Surtidor.c ****     *  Surtidor_txBufferRead - cyclic index for read from txBuffer,
1095:.\Generated_Source\PSoC5/Surtidor.c ****     *     checked to identify free space in txBuffer.
1096:.\Generated_Source\PSoC5/Surtidor.c ****     *  Surtidor_initVar - checked to identify that the component has been
1097:.\Generated_Source\PSoC5/Surtidor.c ****     *     initialized.
1098:.\Generated_Source\PSoC5/Surtidor.c ****     *
1099:.\Generated_Source\PSoC5/Surtidor.c ****     * Reentrant:
1100:.\Generated_Source\PSoC5/Surtidor.c ****     *  No.
1101:.\Generated_Source\PSoC5/Surtidor.c ****     *
1102:.\Generated_Source\PSoC5/Surtidor.c ****     * Theory:
1103:.\Generated_Source\PSoC5/Surtidor.c ****     *  Allows the user to transmit any byte of data in a single transfer
1104:.\Generated_Source\PSoC5/Surtidor.c ****     *
1105:.\Generated_Source\PSoC5/Surtidor.c ****     *******************************************************************************/
1106:.\Generated_Source\PSoC5/Surtidor.c ****     void Surtidor_PutChar(uint8 txDataByte) 
1107:.\Generated_Source\PSoC5/Surtidor.c ****     {
 903              		.loc 1 1107 0
 904              		.cfi_startproc
 905              		@ args = 0, pretend = 0, frame = 0
 906              		@ frame_needed = 0, uses_anonymous_args = 0
 907              		@ link register save eliminated.
 908              	.LVL65:
1108:.\Generated_Source\PSoC5/Surtidor.c ****             #if(Surtidor_TXBUFFERSIZE > Surtidor_FIFO_LENGTH)
1109:.\Generated_Source\PSoC5/Surtidor.c ****                 /* The temporary output pointer is used since it takes two instructions
1110:.\Generated_Source\PSoC5/Surtidor.c ****                 *  to increment with a wrap, and we can't risk doing that with the real
1111:.\Generated_Source\PSoC5/Surtidor.c ****                 *  pointer and getting an interrupt in between instructions.
1112:.\Generated_Source\PSoC5/Surtidor.c ****                 */
1113:.\Generated_Source\PSoC5/Surtidor.c ****                 uint8 loc_txBufferWrite;
1114:.\Generated_Source\PSoC5/Surtidor.c ****                 uint8 loc_txBufferRead;
1115:.\Generated_Source\PSoC5/Surtidor.c **** 
1116:.\Generated_Source\PSoC5/Surtidor.c ****                 do{
1117:.\Generated_Source\PSoC5/Surtidor.c ****                     /* Block if software buffer is full, so we don't overwrite. */
1118:.\Generated_Source\PSoC5/Surtidor.c ****                     #if ((Surtidor_TXBUFFERSIZE > Surtidor_MAX_BYTE_VALUE) && (CY_PSOC3))
1119:.\Generated_Source\PSoC5/Surtidor.c ****                         /* Disable TX interrupt to protect variables that could change on interrupt
1120:.\Generated_Source\PSoC5/Surtidor.c ****                         CyIntDisable(Surtidor_TX_VECT_NUM);
1121:.\Generated_Source\PSoC5/Surtidor.c ****                     #endif /* End TXBUFFERSIZE > 255 */
1122:.\Generated_Source\PSoC5/Surtidor.c ****                     loc_txBufferWrite = Surtidor_txBufferWrite;
1123:.\Generated_Source\PSoC5/Surtidor.c ****                     loc_txBufferRead = Surtidor_txBufferRead;
1124:.\Generated_Source\PSoC5/Surtidor.c ****                     #if ((Surtidor_TXBUFFERSIZE > Surtidor_MAX_BYTE_VALUE) && (CY_PSOC3))
1125:.\Generated_Source\PSoC5/Surtidor.c ****                         /* Enable interrupt to continue transmission */
1126:.\Generated_Source\PSoC5/Surtidor.c ****                         CyIntEnable(Surtidor_TX_VECT_NUM);
1127:.\Generated_Source\PSoC5/Surtidor.c ****                     #endif /* End TXBUFFERSIZE > 255 */
1128:.\Generated_Source\PSoC5/Surtidor.c ****                 }while( (loc_txBufferWrite < loc_txBufferRead) ? (loc_txBufferWrite == (loc_txBuffe
1129:.\Generated_Source\PSoC5/Surtidor.c ****                                         ((loc_txBufferWrite - loc_txBufferRead) ==
1130:.\Generated_Source\PSoC5/Surtidor.c ****                                         (uint8)(Surtidor_TXBUFFERSIZE - 1u)) );
ARM GAS  C:\Users\RECEPC~1\AppData\Local\Temp\ccllYUoy.s 			page 37


1131:.\Generated_Source\PSoC5/Surtidor.c **** 
1132:.\Generated_Source\PSoC5/Surtidor.c ****                 if( (loc_txBufferRead == loc_txBufferWrite) &&
1133:.\Generated_Source\PSoC5/Surtidor.c ****                     ((Surtidor_TXSTATUS_REG & Surtidor_TX_STS_FIFO_FULL) == 0u) )
1134:.\Generated_Source\PSoC5/Surtidor.c ****                 {
1135:.\Generated_Source\PSoC5/Surtidor.c ****                     /* Add directly to the FIFO. */
1136:.\Generated_Source\PSoC5/Surtidor.c ****                     Surtidor_TXDATA_REG = txDataByte;
1137:.\Generated_Source\PSoC5/Surtidor.c ****                 }
1138:.\Generated_Source\PSoC5/Surtidor.c ****                 else
1139:.\Generated_Source\PSoC5/Surtidor.c ****                 {
1140:.\Generated_Source\PSoC5/Surtidor.c ****                     if(loc_txBufferWrite >= Surtidor_TXBUFFERSIZE)
1141:.\Generated_Source\PSoC5/Surtidor.c ****                     {
1142:.\Generated_Source\PSoC5/Surtidor.c ****                         loc_txBufferWrite = 0u;
1143:.\Generated_Source\PSoC5/Surtidor.c ****                     }
1144:.\Generated_Source\PSoC5/Surtidor.c ****                     /* Add to the software buffer. */
1145:.\Generated_Source\PSoC5/Surtidor.c ****                     Surtidor_txBuffer[loc_txBufferWrite] = txDataByte;
1146:.\Generated_Source\PSoC5/Surtidor.c ****                     loc_txBufferWrite++;
1147:.\Generated_Source\PSoC5/Surtidor.c **** 
1148:.\Generated_Source\PSoC5/Surtidor.c ****                     /* Finally, update the real output pointer */
1149:.\Generated_Source\PSoC5/Surtidor.c ****                     #if ((Surtidor_TXBUFFERSIZE > Surtidor_MAX_BYTE_VALUE) && (CY_PSOC3))
1150:.\Generated_Source\PSoC5/Surtidor.c ****                         CyIntDisable(Surtidor_TX_VECT_NUM);
1151:.\Generated_Source\PSoC5/Surtidor.c ****                     #endif /* End TXBUFFERSIZE > 255 */
1152:.\Generated_Source\PSoC5/Surtidor.c ****                     Surtidor_txBufferWrite = loc_txBufferWrite;
1153:.\Generated_Source\PSoC5/Surtidor.c ****                     #if ((Surtidor_TXBUFFERSIZE > Surtidor_MAX_BYTE_VALUE) && (CY_PSOC3))
1154:.\Generated_Source\PSoC5/Surtidor.c ****                         CyIntEnable(Surtidor_TX_VECT_NUM);
1155:.\Generated_Source\PSoC5/Surtidor.c ****                     #endif /* End TXBUFFERSIZE > 255 */
1156:.\Generated_Source\PSoC5/Surtidor.c ****                 }
1157:.\Generated_Source\PSoC5/Surtidor.c **** 
1158:.\Generated_Source\PSoC5/Surtidor.c ****             #else /* Surtidor_TXBUFFERSIZE > Surtidor_FIFO_LENGTH */
1159:.\Generated_Source\PSoC5/Surtidor.c **** 
1160:.\Generated_Source\PSoC5/Surtidor.c ****                 while((Surtidor_TXSTATUS_REG & Surtidor_TX_STS_FIFO_FULL) != 0u)
 909              		.loc 1 1160 0
 910 0000 034A     		ldr	r2, .L78
 911              	.L76:
 912              		.loc 1 1160 0 is_stmt 0 discriminator 1
 913 0002 1378     		ldrb	r3, [r2]	@ zero_extendqisi2
 914 0004 13F0040F 		tst	r3, #4
 915 0008 FBD1     		bne	.L76
1161:.\Generated_Source\PSoC5/Surtidor.c ****                 {
1162:.\Generated_Source\PSoC5/Surtidor.c ****                     ; /* Wait for room in the FIFO. */
1163:.\Generated_Source\PSoC5/Surtidor.c ****                 }
1164:.\Generated_Source\PSoC5/Surtidor.c **** 
1165:.\Generated_Source\PSoC5/Surtidor.c ****                 /* Add directly to the FIFO. */
1166:.\Generated_Source\PSoC5/Surtidor.c ****                 Surtidor_TXDATA_REG = txDataByte;
 916              		.loc 1 1166 0 is_stmt 1
 917 000a 024B     		ldr	r3, .L78+4
 918 000c 1870     		strb	r0, [r3]
 919 000e 7047     		bx	lr
 920              	.L79:
 921              		.align	2
 922              	.L78:
 923 0010 66650040 		.word	1073767782
 924 0014 45650040 		.word	1073767749
 925              		.cfi_endproc
 926              	.LFE21:
 927              		.size	Surtidor_PutChar, .-Surtidor_PutChar
 928              		.section	.text.Surtidor_PutString,"ax",%progbits
 929              		.align	2
ARM GAS  C:\Users\RECEPC~1\AppData\Local\Temp\ccllYUoy.s 			page 38


 930              		.global	Surtidor_PutString
 931              		.thumb
 932              		.thumb_func
 933              		.type	Surtidor_PutString, %function
 934              	Surtidor_PutString:
 935              	.LFB22:
1167:.\Generated_Source\PSoC5/Surtidor.c **** 
1168:.\Generated_Source\PSoC5/Surtidor.c ****             #endif /* End Surtidor_TXBUFFERSIZE > Surtidor_FIFO_LENGTH */
1169:.\Generated_Source\PSoC5/Surtidor.c ****     }
1170:.\Generated_Source\PSoC5/Surtidor.c **** 
1171:.\Generated_Source\PSoC5/Surtidor.c **** 
1172:.\Generated_Source\PSoC5/Surtidor.c ****     /*******************************************************************************
1173:.\Generated_Source\PSoC5/Surtidor.c ****     * Function Name: Surtidor_PutString
1174:.\Generated_Source\PSoC5/Surtidor.c ****     ********************************************************************************
1175:.\Generated_Source\PSoC5/Surtidor.c ****     *
1176:.\Generated_Source\PSoC5/Surtidor.c ****     * Summary:
1177:.\Generated_Source\PSoC5/Surtidor.c ****     *  Write a Sequence of bytes on the Transmit line. Data comes from RAM or ROM.
1178:.\Generated_Source\PSoC5/Surtidor.c ****     *
1179:.\Generated_Source\PSoC5/Surtidor.c ****     * Parameters:
1180:.\Generated_Source\PSoC5/Surtidor.c ****     *  string: char pointer to character string of Data to Send.
1181:.\Generated_Source\PSoC5/Surtidor.c ****     *
1182:.\Generated_Source\PSoC5/Surtidor.c ****     * Return:
1183:.\Generated_Source\PSoC5/Surtidor.c ****     *  None.
1184:.\Generated_Source\PSoC5/Surtidor.c ****     *
1185:.\Generated_Source\PSoC5/Surtidor.c ****     * Global Variables:
1186:.\Generated_Source\PSoC5/Surtidor.c ****     *  Surtidor_initVar - checked to identify that the component has been
1187:.\Generated_Source\PSoC5/Surtidor.c ****     *     initialized.
1188:.\Generated_Source\PSoC5/Surtidor.c ****     *
1189:.\Generated_Source\PSoC5/Surtidor.c ****     * Reentrant:
1190:.\Generated_Source\PSoC5/Surtidor.c ****     *  No.
1191:.\Generated_Source\PSoC5/Surtidor.c ****     *
1192:.\Generated_Source\PSoC5/Surtidor.c ****     * Theory:
1193:.\Generated_Source\PSoC5/Surtidor.c ****     *  This function will block if there is not enough memory to place the whole
1194:.\Generated_Source\PSoC5/Surtidor.c ****     *  string, it will block until the entire string has been written to the
1195:.\Generated_Source\PSoC5/Surtidor.c ****     *  transmit buffer.
1196:.\Generated_Source\PSoC5/Surtidor.c ****     *
1197:.\Generated_Source\PSoC5/Surtidor.c ****     *******************************************************************************/
1198:.\Generated_Source\PSoC5/Surtidor.c ****     void Surtidor_PutString(const char8 string[]) 
1199:.\Generated_Source\PSoC5/Surtidor.c ****     {
 936              		.loc 1 1199 0
 937              		.cfi_startproc
 938              		@ args = 0, pretend = 0, frame = 0
 939              		@ frame_needed = 0, uses_anonymous_args = 0
 940              	.LVL66:
 941 0000 38B5     		push	{r3, r4, r5, lr}
 942              		.cfi_def_cfa_offset 16
 943              		.cfi_offset 3, -16
 944              		.cfi_offset 4, -12
 945              		.cfi_offset 5, -8
 946              		.cfi_offset 14, -4
 947 0002 0546     		mov	r5, r0
 948              	.LVL67:
1200:.\Generated_Source\PSoC5/Surtidor.c ****         uint16 buf_index = 0u;
1201:.\Generated_Source\PSoC5/Surtidor.c ****         /* If not Initialized then skip this function*/
1202:.\Generated_Source\PSoC5/Surtidor.c ****         if(Surtidor_initVar != 0u)
 949              		.loc 1 1202 0
 950 0004 064B     		ldr	r3, .L85
ARM GAS  C:\Users\RECEPC~1\AppData\Local\Temp\ccllYUoy.s 			page 39


 951 0006 1B78     		ldrb	r3, [r3]	@ zero_extendqisi2
 952 0008 2BB9     		cbnz	r3, .L84
 953 000a 38BD     		pop	{r3, r4, r5, pc}
 954              	.LVL68:
 955              	.L83:
1203:.\Generated_Source\PSoC5/Surtidor.c ****         {
1204:.\Generated_Source\PSoC5/Surtidor.c ****             /* This is a blocking function, it will not exit until all data is sent*/
1205:.\Generated_Source\PSoC5/Surtidor.c ****             while(string[buf_index] != (char8)0)
1206:.\Generated_Source\PSoC5/Surtidor.c ****             {
1207:.\Generated_Source\PSoC5/Surtidor.c ****                 Surtidor_PutChar((uint8)string[buf_index]);
 956              		.loc 1 1207 0
 957 000c FFF7FEFF 		bl	Surtidor_PutChar
 958              	.LVL69:
1208:.\Generated_Source\PSoC5/Surtidor.c ****                 buf_index++;
 959              		.loc 1 1208 0
 960 0010 0134     		adds	r4, r4, #1
 961              	.LVL70:
 962 0012 A4B2     		uxth	r4, r4
 963              	.LVL71:
 964 0014 00E0     		b	.L81
 965              	.LVL72:
 966              	.L84:
 967 0016 0024     		movs	r4, #0
 968              	.LVL73:
 969              	.L81:
1205:.\Generated_Source\PSoC5/Surtidor.c ****             while(string[buf_index] != (char8)0)
 970              		.loc 1 1205 0 discriminator 1
 971 0018 285D     		ldrb	r0, [r5, r4]	@ zero_extendqisi2
 972 001a 0028     		cmp	r0, #0
 973 001c F6D1     		bne	.L83
 974 001e 38BD     		pop	{r3, r4, r5, pc}
 975              	.LVL74:
 976              	.L86:
 977              		.align	2
 978              	.L85:
 979 0020 00000000 		.word	.LANCHOR0
 980              		.cfi_endproc
 981              	.LFE22:
 982              		.size	Surtidor_PutString, .-Surtidor_PutString
 983              		.section	.text.Surtidor_PutArray,"ax",%progbits
 984              		.align	2
 985              		.global	Surtidor_PutArray
 986              		.thumb
 987              		.thumb_func
 988              		.type	Surtidor_PutArray, %function
 989              	Surtidor_PutArray:
 990              	.LFB23:
1209:.\Generated_Source\PSoC5/Surtidor.c ****             }
1210:.\Generated_Source\PSoC5/Surtidor.c ****         }
1211:.\Generated_Source\PSoC5/Surtidor.c ****     }
1212:.\Generated_Source\PSoC5/Surtidor.c **** 
1213:.\Generated_Source\PSoC5/Surtidor.c **** 
1214:.\Generated_Source\PSoC5/Surtidor.c ****     /*******************************************************************************
1215:.\Generated_Source\PSoC5/Surtidor.c ****     * Function Name: Surtidor_PutArray
1216:.\Generated_Source\PSoC5/Surtidor.c ****     ********************************************************************************
1217:.\Generated_Source\PSoC5/Surtidor.c ****     *
1218:.\Generated_Source\PSoC5/Surtidor.c ****     * Summary:
ARM GAS  C:\Users\RECEPC~1\AppData\Local\Temp\ccllYUoy.s 			page 40


1219:.\Generated_Source\PSoC5/Surtidor.c ****     *  Write a Sequence of bytes on the Transmit line. Data comes from RAM or ROM.
1220:.\Generated_Source\PSoC5/Surtidor.c ****     *
1221:.\Generated_Source\PSoC5/Surtidor.c ****     * Parameters:
1222:.\Generated_Source\PSoC5/Surtidor.c ****     *  string: Address of the memory array residing in RAM or ROM.
1223:.\Generated_Source\PSoC5/Surtidor.c ****     *  byteCount: Number of Bytes to be transmitted.
1224:.\Generated_Source\PSoC5/Surtidor.c ****     *
1225:.\Generated_Source\PSoC5/Surtidor.c ****     * Return:
1226:.\Generated_Source\PSoC5/Surtidor.c ****     *  None.
1227:.\Generated_Source\PSoC5/Surtidor.c ****     *
1228:.\Generated_Source\PSoC5/Surtidor.c ****     * Global Variables:
1229:.\Generated_Source\PSoC5/Surtidor.c ****     *  Surtidor_initVar - checked to identify that the component has been
1230:.\Generated_Source\PSoC5/Surtidor.c ****     *     initialized.
1231:.\Generated_Source\PSoC5/Surtidor.c ****     *
1232:.\Generated_Source\PSoC5/Surtidor.c ****     * Reentrant:
1233:.\Generated_Source\PSoC5/Surtidor.c ****     *  No.
1234:.\Generated_Source\PSoC5/Surtidor.c ****     *
1235:.\Generated_Source\PSoC5/Surtidor.c ****     *******************************************************************************/
1236:.\Generated_Source\PSoC5/Surtidor.c ****     void Surtidor_PutArray(const uint8 string[], uint8 byteCount)
1237:.\Generated_Source\PSoC5/Surtidor.c ****                                                                     
1238:.\Generated_Source\PSoC5/Surtidor.c ****     {
 991              		.loc 1 1238 0
 992              		.cfi_startproc
 993              		@ args = 0, pretend = 0, frame = 0
 994              		@ frame_needed = 0, uses_anonymous_args = 0
 995              	.LVL75:
 996 0000 70B5     		push	{r4, r5, r6, lr}
 997              		.cfi_def_cfa_offset 16
 998              		.cfi_offset 4, -16
 999              		.cfi_offset 5, -12
 1000              		.cfi_offset 6, -8
 1001              		.cfi_offset 14, -4
 1002 0002 0546     		mov	r5, r0
 1003 0004 0E46     		mov	r6, r1
 1004              	.LVL76:
1239:.\Generated_Source\PSoC5/Surtidor.c ****         uint8 buf_index = 0u;
1240:.\Generated_Source\PSoC5/Surtidor.c ****         /* If not Initialized then skip this function*/
1241:.\Generated_Source\PSoC5/Surtidor.c ****         if(Surtidor_initVar != 0u)
 1005              		.loc 1 1241 0
 1006 0006 064B     		ldr	r3, .L91
 1007 0008 1B78     		ldrb	r3, [r3]	@ zero_extendqisi2
 1008 000a 3BB1     		cbz	r3, .L87
 1009 000c 0024     		movs	r4, #0
 1010              	.LVL77:
 1011              	.L89:
1242:.\Generated_Source\PSoC5/Surtidor.c ****         {
1243:.\Generated_Source\PSoC5/Surtidor.c ****             do
1244:.\Generated_Source\PSoC5/Surtidor.c ****             {
1245:.\Generated_Source\PSoC5/Surtidor.c ****                 Surtidor_PutChar(string[buf_index]);
 1012              		.loc 1 1245 0 discriminator 1
 1013 000e 285D     		ldrb	r0, [r5, r4]	@ zero_extendqisi2
 1014 0010 FFF7FEFF 		bl	Surtidor_PutChar
 1015              	.LVL78:
1246:.\Generated_Source\PSoC5/Surtidor.c ****                 buf_index++;
 1016              		.loc 1 1246 0 discriminator 1
 1017 0014 0134     		adds	r4, r4, #1
 1018              	.LVL79:
 1019 0016 E4B2     		uxtb	r4, r4
ARM GAS  C:\Users\RECEPC~1\AppData\Local\Temp\ccllYUoy.s 			page 41


 1020              	.LVL80:
1247:.\Generated_Source\PSoC5/Surtidor.c ****             }while(buf_index < byteCount);
 1021              		.loc 1 1247 0 discriminator 1
 1022 0018 B442     		cmp	r4, r6
 1023 001a F8D3     		bcc	.L89
 1024              	.LVL81:
 1025              	.L87:
 1026 001c 70BD     		pop	{r4, r5, r6, pc}
 1027              	.LVL82:
 1028              	.L92:
 1029 001e 00BF     		.align	2
 1030              	.L91:
 1031 0020 00000000 		.word	.LANCHOR0
 1032              		.cfi_endproc
 1033              	.LFE23:
 1034              		.size	Surtidor_PutArray, .-Surtidor_PutArray
 1035              		.section	.text.Surtidor_PutCRLF,"ax",%progbits
 1036              		.align	2
 1037              		.global	Surtidor_PutCRLF
 1038              		.thumb
 1039              		.thumb_func
 1040              		.type	Surtidor_PutCRLF, %function
 1041              	Surtidor_PutCRLF:
 1042              	.LFB24:
1248:.\Generated_Source\PSoC5/Surtidor.c ****         }
1249:.\Generated_Source\PSoC5/Surtidor.c ****     }
1250:.\Generated_Source\PSoC5/Surtidor.c **** 
1251:.\Generated_Source\PSoC5/Surtidor.c **** 
1252:.\Generated_Source\PSoC5/Surtidor.c ****     /*******************************************************************************
1253:.\Generated_Source\PSoC5/Surtidor.c ****     * Function Name: Surtidor_PutCRLF
1254:.\Generated_Source\PSoC5/Surtidor.c ****     ********************************************************************************
1255:.\Generated_Source\PSoC5/Surtidor.c ****     *
1256:.\Generated_Source\PSoC5/Surtidor.c ****     * Summary:
1257:.\Generated_Source\PSoC5/Surtidor.c ****     *  Write a character and then carriage return and line feed.
1258:.\Generated_Source\PSoC5/Surtidor.c ****     *
1259:.\Generated_Source\PSoC5/Surtidor.c ****     * Parameters:
1260:.\Generated_Source\PSoC5/Surtidor.c ****     *  txDataByte: uint8 Character to send.
1261:.\Generated_Source\PSoC5/Surtidor.c ****     *
1262:.\Generated_Source\PSoC5/Surtidor.c ****     * Return:
1263:.\Generated_Source\PSoC5/Surtidor.c ****     *  None.
1264:.\Generated_Source\PSoC5/Surtidor.c ****     *
1265:.\Generated_Source\PSoC5/Surtidor.c ****     * Global Variables:
1266:.\Generated_Source\PSoC5/Surtidor.c ****     *  Surtidor_initVar - checked to identify that the component has been
1267:.\Generated_Source\PSoC5/Surtidor.c ****     *     initialized.
1268:.\Generated_Source\PSoC5/Surtidor.c ****     *
1269:.\Generated_Source\PSoC5/Surtidor.c ****     * Reentrant:
1270:.\Generated_Source\PSoC5/Surtidor.c ****     *  No.
1271:.\Generated_Source\PSoC5/Surtidor.c ****     *
1272:.\Generated_Source\PSoC5/Surtidor.c ****     *******************************************************************************/
1273:.\Generated_Source\PSoC5/Surtidor.c ****     void Surtidor_PutCRLF(uint8 txDataByte) 
1274:.\Generated_Source\PSoC5/Surtidor.c ****     {
 1043              		.loc 1 1274 0
 1044              		.cfi_startproc
 1045              		@ args = 0, pretend = 0, frame = 0
 1046              		@ frame_needed = 0, uses_anonymous_args = 0
 1047              	.LVL83:
 1048 0000 08B5     		push	{r3, lr}
ARM GAS  C:\Users\RECEPC~1\AppData\Local\Temp\ccllYUoy.s 			page 42


 1049              		.cfi_def_cfa_offset 8
 1050              		.cfi_offset 3, -8
 1051              		.cfi_offset 14, -4
1275:.\Generated_Source\PSoC5/Surtidor.c ****         /* If not Initialized then skip this function*/
1276:.\Generated_Source\PSoC5/Surtidor.c ****         if(Surtidor_initVar != 0u)
 1052              		.loc 1 1276 0
 1053 0002 064B     		ldr	r3, .L95
 1054 0004 1B78     		ldrb	r3, [r3]	@ zero_extendqisi2
 1055 0006 3BB1     		cbz	r3, .L93
1277:.\Generated_Source\PSoC5/Surtidor.c ****         {
1278:.\Generated_Source\PSoC5/Surtidor.c ****             Surtidor_PutChar(txDataByte);
 1056              		.loc 1 1278 0
 1057 0008 FFF7FEFF 		bl	Surtidor_PutChar
 1058              	.LVL84:
1279:.\Generated_Source\PSoC5/Surtidor.c ****             Surtidor_PutChar(0x0Du);
 1059              		.loc 1 1279 0
 1060 000c 0D20     		movs	r0, #13
 1061 000e FFF7FEFF 		bl	Surtidor_PutChar
 1062              	.LVL85:
1280:.\Generated_Source\PSoC5/Surtidor.c ****             Surtidor_PutChar(0x0Au);
 1063              		.loc 1 1280 0
 1064 0012 0A20     		movs	r0, #10
 1065 0014 FFF7FEFF 		bl	Surtidor_PutChar
 1066              	.LVL86:
 1067              	.L93:
 1068 0018 08BD     		pop	{r3, pc}
 1069              	.L96:
 1070 001a 00BF     		.align	2
 1071              	.L95:
 1072 001c 00000000 		.word	.LANCHOR0
 1073              		.cfi_endproc
 1074              	.LFE24:
 1075              		.size	Surtidor_PutCRLF, .-Surtidor_PutCRLF
 1076              		.section	.text.Surtidor_GetTxBufferSize,"ax",%progbits
 1077              		.align	2
 1078              		.global	Surtidor_GetTxBufferSize
 1079              		.thumb
 1080              		.thumb_func
 1081              		.type	Surtidor_GetTxBufferSize, %function
 1082              	Surtidor_GetTxBufferSize:
 1083              	.LFB25:
1281:.\Generated_Source\PSoC5/Surtidor.c ****         }
1282:.\Generated_Source\PSoC5/Surtidor.c ****     }
1283:.\Generated_Source\PSoC5/Surtidor.c **** 
1284:.\Generated_Source\PSoC5/Surtidor.c **** 
1285:.\Generated_Source\PSoC5/Surtidor.c ****     /*******************************************************************************
1286:.\Generated_Source\PSoC5/Surtidor.c ****     * Function Name: Surtidor_GetTxBufferSize
1287:.\Generated_Source\PSoC5/Surtidor.c ****     ********************************************************************************
1288:.\Generated_Source\PSoC5/Surtidor.c ****     *
1289:.\Generated_Source\PSoC5/Surtidor.c ****     * Summary:
1290:.\Generated_Source\PSoC5/Surtidor.c ****     *  Determine the amount of space left in the TX buffer and return the count in
1291:.\Generated_Source\PSoC5/Surtidor.c ****     *  bytes
1292:.\Generated_Source\PSoC5/Surtidor.c ****     *
1293:.\Generated_Source\PSoC5/Surtidor.c ****     * Parameters:
1294:.\Generated_Source\PSoC5/Surtidor.c ****     *  None.
1295:.\Generated_Source\PSoC5/Surtidor.c ****     *
1296:.\Generated_Source\PSoC5/Surtidor.c ****     * Return:
ARM GAS  C:\Users\RECEPC~1\AppData\Local\Temp\ccllYUoy.s 			page 43


1297:.\Generated_Source\PSoC5/Surtidor.c ****     *  Integer count of the number of bytes left in the TX buffer
1298:.\Generated_Source\PSoC5/Surtidor.c ****     *
1299:.\Generated_Source\PSoC5/Surtidor.c ****     * Global Variables:
1300:.\Generated_Source\PSoC5/Surtidor.c ****     *  Surtidor_txBufferWrite - used to calculate left space.
1301:.\Generated_Source\PSoC5/Surtidor.c ****     *  Surtidor_txBufferRead - used to calculate left space.
1302:.\Generated_Source\PSoC5/Surtidor.c ****     *
1303:.\Generated_Source\PSoC5/Surtidor.c ****     * Reentrant:
1304:.\Generated_Source\PSoC5/Surtidor.c ****     *  No.
1305:.\Generated_Source\PSoC5/Surtidor.c ****     *
1306:.\Generated_Source\PSoC5/Surtidor.c ****     * Theory:
1307:.\Generated_Source\PSoC5/Surtidor.c ****     *  Allows the user to find out how full the TX Buffer is.
1308:.\Generated_Source\PSoC5/Surtidor.c ****     *
1309:.\Generated_Source\PSoC5/Surtidor.c ****     *******************************************************************************/
1310:.\Generated_Source\PSoC5/Surtidor.c ****     uint8 Surtidor_GetTxBufferSize(void)
1311:.\Generated_Source\PSoC5/Surtidor.c ****                                                             
1312:.\Generated_Source\PSoC5/Surtidor.c ****     {
 1084              		.loc 1 1312 0
 1085              		.cfi_startproc
 1086              		@ args = 0, pretend = 0, frame = 0
 1087              		@ frame_needed = 0, uses_anonymous_args = 0
 1088              		@ link register save eliminated.
1313:.\Generated_Source\PSoC5/Surtidor.c ****         uint8 size;
1314:.\Generated_Source\PSoC5/Surtidor.c **** 
1315:.\Generated_Source\PSoC5/Surtidor.c ****         #if(Surtidor_TXBUFFERSIZE > Surtidor_FIFO_LENGTH)
1316:.\Generated_Source\PSoC5/Surtidor.c **** 
1317:.\Generated_Source\PSoC5/Surtidor.c ****             /* Disable Tx interrupt. */
1318:.\Generated_Source\PSoC5/Surtidor.c ****             /* Protect variables that could change on interrupt. */
1319:.\Generated_Source\PSoC5/Surtidor.c ****             #if(Surtidor_TX_INTERRUPT_ENABLED)
1320:.\Generated_Source\PSoC5/Surtidor.c ****                 Surtidor_DisableTxInt();
1321:.\Generated_Source\PSoC5/Surtidor.c ****             #endif /* End Surtidor_TX_INTERRUPT_ENABLED */
1322:.\Generated_Source\PSoC5/Surtidor.c **** 
1323:.\Generated_Source\PSoC5/Surtidor.c ****             if(Surtidor_txBufferRead == Surtidor_txBufferWrite)
1324:.\Generated_Source\PSoC5/Surtidor.c ****             {
1325:.\Generated_Source\PSoC5/Surtidor.c ****                 size = 0u;
1326:.\Generated_Source\PSoC5/Surtidor.c ****             }
1327:.\Generated_Source\PSoC5/Surtidor.c ****             else if(Surtidor_txBufferRead < Surtidor_txBufferWrite)
1328:.\Generated_Source\PSoC5/Surtidor.c ****             {
1329:.\Generated_Source\PSoC5/Surtidor.c ****                 size = (Surtidor_txBufferWrite - Surtidor_txBufferRead);
1330:.\Generated_Source\PSoC5/Surtidor.c ****             }
1331:.\Generated_Source\PSoC5/Surtidor.c ****             else
1332:.\Generated_Source\PSoC5/Surtidor.c ****             {
1333:.\Generated_Source\PSoC5/Surtidor.c ****                 size = (Surtidor_TXBUFFERSIZE - Surtidor_txBufferRead) + Surtidor_txBufferWrite;
1334:.\Generated_Source\PSoC5/Surtidor.c ****             }
1335:.\Generated_Source\PSoC5/Surtidor.c **** 
1336:.\Generated_Source\PSoC5/Surtidor.c ****             /* Enable Tx interrupt. */
1337:.\Generated_Source\PSoC5/Surtidor.c ****             #if(Surtidor_TX_INTERRUPT_ENABLED)
1338:.\Generated_Source\PSoC5/Surtidor.c ****                 Surtidor_EnableTxInt();
1339:.\Generated_Source\PSoC5/Surtidor.c ****             #endif /* End Surtidor_TX_INTERRUPT_ENABLED */
1340:.\Generated_Source\PSoC5/Surtidor.c **** 
1341:.\Generated_Source\PSoC5/Surtidor.c ****         #else /* Surtidor_TXBUFFERSIZE > Surtidor_FIFO_LENGTH */
1342:.\Generated_Source\PSoC5/Surtidor.c **** 
1343:.\Generated_Source\PSoC5/Surtidor.c ****             size = Surtidor_TXSTATUS_REG;
 1089              		.loc 1 1343 0
 1090 0000 074B     		ldr	r3, .L101
 1091 0002 1B78     		ldrb	r3, [r3]	@ zero_extendqisi2
 1092 0004 DBB2     		uxtb	r3, r3
 1093              	.LVL87:
ARM GAS  C:\Users\RECEPC~1\AppData\Local\Temp\ccllYUoy.s 			page 44


1344:.\Generated_Source\PSoC5/Surtidor.c **** 
1345:.\Generated_Source\PSoC5/Surtidor.c ****             /* Is the fifo is full. */
1346:.\Generated_Source\PSoC5/Surtidor.c ****             if((size & Surtidor_TX_STS_FIFO_FULL) != 0u)
 1094              		.loc 1 1346 0
 1095 0006 13F0040F 		tst	r3, #4
 1096 000a 04D1     		bne	.L99
1347:.\Generated_Source\PSoC5/Surtidor.c ****             {
1348:.\Generated_Source\PSoC5/Surtidor.c ****                 size = Surtidor_FIFO_LENGTH;
1349:.\Generated_Source\PSoC5/Surtidor.c ****             }
1350:.\Generated_Source\PSoC5/Surtidor.c ****             else if((size & Surtidor_TX_STS_FIFO_EMPTY) != 0u)
 1097              		.loc 1 1350 0
 1098 000c 13F0020F 		tst	r3, #2
 1099 0010 03D0     		beq	.L100
1351:.\Generated_Source\PSoC5/Surtidor.c ****             {
1352:.\Generated_Source\PSoC5/Surtidor.c ****                 size = 0u;
 1100              		.loc 1 1352 0
 1101 0012 0020     		movs	r0, #0
 1102 0014 7047     		bx	lr
 1103              	.L99:
1348:.\Generated_Source\PSoC5/Surtidor.c ****                 size = Surtidor_FIFO_LENGTH;
 1104              		.loc 1 1348 0
 1105 0016 0420     		movs	r0, #4
 1106 0018 7047     		bx	lr
 1107              	.L100:
1353:.\Generated_Source\PSoC5/Surtidor.c ****             }
1354:.\Generated_Source\PSoC5/Surtidor.c ****             else
1355:.\Generated_Source\PSoC5/Surtidor.c ****             {
1356:.\Generated_Source\PSoC5/Surtidor.c ****                 /* We only know there is data in the fifo. */
1357:.\Generated_Source\PSoC5/Surtidor.c ****                 size = 1u;
 1108              		.loc 1 1357 0
 1109 001a 0120     		movs	r0, #1
 1110              	.LVL88:
1358:.\Generated_Source\PSoC5/Surtidor.c ****             }
1359:.\Generated_Source\PSoC5/Surtidor.c **** 
1360:.\Generated_Source\PSoC5/Surtidor.c ****         #endif /* End Surtidor_TXBUFFERSIZE > Surtidor_FIFO_LENGTH */
1361:.\Generated_Source\PSoC5/Surtidor.c **** 
1362:.\Generated_Source\PSoC5/Surtidor.c ****         return(size);
1363:.\Generated_Source\PSoC5/Surtidor.c ****     }
 1111              		.loc 1 1363 0
 1112 001c 7047     		bx	lr
 1113              	.L102:
 1114 001e 00BF     		.align	2
 1115              	.L101:
 1116 0020 66650040 		.word	1073767782
 1117              		.cfi_endproc
 1118              	.LFE25:
 1119              		.size	Surtidor_GetTxBufferSize, .-Surtidor_GetTxBufferSize
 1120              		.section	.text.Surtidor_ClearTxBuffer,"ax",%progbits
 1121              		.align	2
 1122              		.global	Surtidor_ClearTxBuffer
 1123              		.thumb
 1124              		.thumb_func
 1125              		.type	Surtidor_ClearTxBuffer, %function
 1126              	Surtidor_ClearTxBuffer:
 1127              	.LFB26:
1364:.\Generated_Source\PSoC5/Surtidor.c **** 
1365:.\Generated_Source\PSoC5/Surtidor.c **** 
ARM GAS  C:\Users\RECEPC~1\AppData\Local\Temp\ccllYUoy.s 			page 45


1366:.\Generated_Source\PSoC5/Surtidor.c ****     /*******************************************************************************
1367:.\Generated_Source\PSoC5/Surtidor.c ****     * Function Name: Surtidor_ClearTxBuffer
1368:.\Generated_Source\PSoC5/Surtidor.c ****     ********************************************************************************
1369:.\Generated_Source\PSoC5/Surtidor.c ****     *
1370:.\Generated_Source\PSoC5/Surtidor.c ****     * Summary:
1371:.\Generated_Source\PSoC5/Surtidor.c ****     *  Clears the TX RAM buffer by setting the read and write pointers both to zero.
1372:.\Generated_Source\PSoC5/Surtidor.c ****     *  Clears the hardware TX FIFO.  Any data present in the FIFO will not be sent.
1373:.\Generated_Source\PSoC5/Surtidor.c ****     *
1374:.\Generated_Source\PSoC5/Surtidor.c ****     * Parameters:
1375:.\Generated_Source\PSoC5/Surtidor.c ****     *  None.
1376:.\Generated_Source\PSoC5/Surtidor.c ****     *
1377:.\Generated_Source\PSoC5/Surtidor.c ****     * Return:
1378:.\Generated_Source\PSoC5/Surtidor.c ****     *  None.
1379:.\Generated_Source\PSoC5/Surtidor.c ****     *
1380:.\Generated_Source\PSoC5/Surtidor.c ****     * Global Variables:
1381:.\Generated_Source\PSoC5/Surtidor.c ****     *  Surtidor_txBufferWrite - cleared to zero.
1382:.\Generated_Source\PSoC5/Surtidor.c ****     *  Surtidor_txBufferRead - cleared to zero.
1383:.\Generated_Source\PSoC5/Surtidor.c ****     *
1384:.\Generated_Source\PSoC5/Surtidor.c ****     * Reentrant:
1385:.\Generated_Source\PSoC5/Surtidor.c ****     *  No.
1386:.\Generated_Source\PSoC5/Surtidor.c ****     *
1387:.\Generated_Source\PSoC5/Surtidor.c ****     * Theory:
1388:.\Generated_Source\PSoC5/Surtidor.c ****     *  Setting the pointers to zero makes the system believe there is no data to
1389:.\Generated_Source\PSoC5/Surtidor.c ****     *  read and writing will resume at address 0 overwriting any data that may have
1390:.\Generated_Source\PSoC5/Surtidor.c ****     *  remained in the RAM.
1391:.\Generated_Source\PSoC5/Surtidor.c ****     *
1392:.\Generated_Source\PSoC5/Surtidor.c ****     * Side Effects:
1393:.\Generated_Source\PSoC5/Surtidor.c ****     *  Any received data not read from the RAM buffer will be lost when overwritten.
1394:.\Generated_Source\PSoC5/Surtidor.c ****     *
1395:.\Generated_Source\PSoC5/Surtidor.c ****     *******************************************************************************/
1396:.\Generated_Source\PSoC5/Surtidor.c ****     void Surtidor_ClearTxBuffer(void) 
1397:.\Generated_Source\PSoC5/Surtidor.c ****     {
 1128              		.loc 1 1397 0
 1129              		.cfi_startproc
 1130              		@ args = 0, pretend = 0, frame = 0
 1131              		@ frame_needed = 0, uses_anonymous_args = 0
 1132 0000 08B5     		push	{r3, lr}
 1133              		.cfi_def_cfa_offset 8
 1134              		.cfi_offset 3, -8
 1135              		.cfi_offset 14, -4
1398:.\Generated_Source\PSoC5/Surtidor.c ****         uint8 enableInterrupts;
1399:.\Generated_Source\PSoC5/Surtidor.c **** 
1400:.\Generated_Source\PSoC5/Surtidor.c ****         /* Enter critical section */
1401:.\Generated_Source\PSoC5/Surtidor.c ****         enableInterrupts = CyEnterCriticalSection();
 1136              		.loc 1 1401 0
 1137 0002 FFF7FEFF 		bl	CyEnterCriticalSection
 1138              	.LVL89:
1402:.\Generated_Source\PSoC5/Surtidor.c ****         /* clear the HW FIFO */
1403:.\Generated_Source\PSoC5/Surtidor.c ****         Surtidor_TXDATA_AUX_CTL_REG |=  Surtidor_TX_FIFO_CLR;
 1139              		.loc 1 1403 0
 1140 0006 064B     		ldr	r3, .L104
 1141 0008 1A78     		ldrb	r2, [r3]	@ zero_extendqisi2
 1142 000a 42F00102 		orr	r2, r2, #1
 1143 000e 1A70     		strb	r2, [r3]
1404:.\Generated_Source\PSoC5/Surtidor.c ****         Surtidor_TXDATA_AUX_CTL_REG &= (uint8)~Surtidor_TX_FIFO_CLR;
 1144              		.loc 1 1404 0
 1145 0010 1A78     		ldrb	r2, [r3]	@ zero_extendqisi2
ARM GAS  C:\Users\RECEPC~1\AppData\Local\Temp\ccllYUoy.s 			page 46


 1146 0012 02F0FE02 		and	r2, r2, #254
 1147 0016 1A70     		strb	r2, [r3]
1405:.\Generated_Source\PSoC5/Surtidor.c ****         /* Exit critical section */
1406:.\Generated_Source\PSoC5/Surtidor.c ****         CyExitCriticalSection(enableInterrupts);
 1148              		.loc 1 1406 0
 1149 0018 FFF7FEFF 		bl	CyExitCriticalSection
 1150              	.LVL90:
 1151 001c 08BD     		pop	{r3, pc}
 1152              	.L105:
 1153 001e 00BF     		.align	2
 1154              	.L104:
 1155 0020 95650040 		.word	1073767829
 1156              		.cfi_endproc
 1157              	.LFE26:
 1158              		.size	Surtidor_ClearTxBuffer, .-Surtidor_ClearTxBuffer
 1159              		.section	.text.Surtidor_SendBreak,"ax",%progbits
 1160              		.align	2
 1161              		.global	Surtidor_SendBreak
 1162              		.thumb
 1163              		.thumb_func
 1164              		.type	Surtidor_SendBreak, %function
 1165              	Surtidor_SendBreak:
 1166              	.LFB27:
1407:.\Generated_Source\PSoC5/Surtidor.c **** 
1408:.\Generated_Source\PSoC5/Surtidor.c ****         #if(Surtidor_TXBUFFERSIZE > Surtidor_FIFO_LENGTH)
1409:.\Generated_Source\PSoC5/Surtidor.c **** 
1410:.\Generated_Source\PSoC5/Surtidor.c ****             /* Disable Tx interrupt. */
1411:.\Generated_Source\PSoC5/Surtidor.c ****             /* Protect variables that could change on interrupt. */
1412:.\Generated_Source\PSoC5/Surtidor.c ****             #if(Surtidor_TX_INTERRUPT_ENABLED)
1413:.\Generated_Source\PSoC5/Surtidor.c ****                 Surtidor_DisableTxInt();
1414:.\Generated_Source\PSoC5/Surtidor.c ****             #endif /* End Surtidor_TX_INTERRUPT_ENABLED */
1415:.\Generated_Source\PSoC5/Surtidor.c **** 
1416:.\Generated_Source\PSoC5/Surtidor.c ****             Surtidor_txBufferRead = 0u;
1417:.\Generated_Source\PSoC5/Surtidor.c ****             Surtidor_txBufferWrite = 0u;
1418:.\Generated_Source\PSoC5/Surtidor.c **** 
1419:.\Generated_Source\PSoC5/Surtidor.c ****             /* Enable Tx interrupt. */
1420:.\Generated_Source\PSoC5/Surtidor.c ****             #if(Surtidor_TX_INTERRUPT_ENABLED)
1421:.\Generated_Source\PSoC5/Surtidor.c ****                 Surtidor_EnableTxInt();
1422:.\Generated_Source\PSoC5/Surtidor.c ****             #endif /* End Surtidor_TX_INTERRUPT_ENABLED */
1423:.\Generated_Source\PSoC5/Surtidor.c **** 
1424:.\Generated_Source\PSoC5/Surtidor.c ****         #endif /* End Surtidor_TXBUFFERSIZE > Surtidor_FIFO_LENGTH */
1425:.\Generated_Source\PSoC5/Surtidor.c ****     }
1426:.\Generated_Source\PSoC5/Surtidor.c **** 
1427:.\Generated_Source\PSoC5/Surtidor.c **** 
1428:.\Generated_Source\PSoC5/Surtidor.c ****     /*******************************************************************************
1429:.\Generated_Source\PSoC5/Surtidor.c ****     * Function Name: Surtidor_SendBreak
1430:.\Generated_Source\PSoC5/Surtidor.c ****     ********************************************************************************
1431:.\Generated_Source\PSoC5/Surtidor.c ****     *
1432:.\Generated_Source\PSoC5/Surtidor.c ****     * Summary:
1433:.\Generated_Source\PSoC5/Surtidor.c ****     *  Write a Break command to the UART
1434:.\Generated_Source\PSoC5/Surtidor.c ****     *
1435:.\Generated_Source\PSoC5/Surtidor.c ****     * Parameters:
1436:.\Generated_Source\PSoC5/Surtidor.c ****     *  uint8 retMode:  Wait mode,
1437:.\Generated_Source\PSoC5/Surtidor.c ****     *   0 - Initialize registers for Break, sends the Break signal and return
1438:.\Generated_Source\PSoC5/Surtidor.c ****     *       imediately.
1439:.\Generated_Source\PSoC5/Surtidor.c ****     *   1 - Wait until Break sending is complete, reinitialize registers to normal
1440:.\Generated_Source\PSoC5/Surtidor.c ****     *       transmission mode then return.
ARM GAS  C:\Users\RECEPC~1\AppData\Local\Temp\ccllYUoy.s 			page 47


1441:.\Generated_Source\PSoC5/Surtidor.c ****     *   2 - Reinitialize registers to normal transmission mode then return.
1442:.\Generated_Source\PSoC5/Surtidor.c ****     *   3 - both steps: 0 and 1
1443:.\Generated_Source\PSoC5/Surtidor.c ****     *       init registers for Break, send Break signal
1444:.\Generated_Source\PSoC5/Surtidor.c ****     *       wait until Break sending is complete, reinit registers to normal
1445:.\Generated_Source\PSoC5/Surtidor.c ****     *       transmission mode then return.
1446:.\Generated_Source\PSoC5/Surtidor.c ****     *
1447:.\Generated_Source\PSoC5/Surtidor.c ****     * Return:
1448:.\Generated_Source\PSoC5/Surtidor.c ****     *  None.
1449:.\Generated_Source\PSoC5/Surtidor.c ****     *
1450:.\Generated_Source\PSoC5/Surtidor.c ****     * Global Variables:
1451:.\Generated_Source\PSoC5/Surtidor.c ****     *  Surtidor_initVar - checked to identify that the component has been
1452:.\Generated_Source\PSoC5/Surtidor.c ****     *     initialized.
1453:.\Generated_Source\PSoC5/Surtidor.c ****     *  tx_period - static variable, used for keeping TX period configuration.
1454:.\Generated_Source\PSoC5/Surtidor.c ****     *
1455:.\Generated_Source\PSoC5/Surtidor.c ****     * Reentrant:
1456:.\Generated_Source\PSoC5/Surtidor.c ****     *  No.
1457:.\Generated_Source\PSoC5/Surtidor.c ****     *
1458:.\Generated_Source\PSoC5/Surtidor.c ****     * Theory:
1459:.\Generated_Source\PSoC5/Surtidor.c ****     *  SendBreak function initializes registers to send 13-bit break signal. It is
1460:.\Generated_Source\PSoC5/Surtidor.c ****     *  important to return the registers configuration to normal for continue 8-bit
1461:.\Generated_Source\PSoC5/Surtidor.c ****     *  operation.
1462:.\Generated_Source\PSoC5/Surtidor.c ****     *  Trere are 3 variants for this API usage:
1463:.\Generated_Source\PSoC5/Surtidor.c ****     *  1) SendBreak(3) - function will send the Break signal and take care on the
1464:.\Generated_Source\PSoC5/Surtidor.c ****     *     configuration returning. Funcition will block CPU untill transmition
1465:.\Generated_Source\PSoC5/Surtidor.c ****     *     complete.
1466:.\Generated_Source\PSoC5/Surtidor.c ****     *  2) User may want to use bloking time if UART configured to the low speed
1467:.\Generated_Source\PSoC5/Surtidor.c ****     *     operation
1468:.\Generated_Source\PSoC5/Surtidor.c ****     *     Emample for this case:
1469:.\Generated_Source\PSoC5/Surtidor.c ****     *     SendBreak(0);     - init Break signal transmition
1470:.\Generated_Source\PSoC5/Surtidor.c ****     *         Add your code here to use CPU time
1471:.\Generated_Source\PSoC5/Surtidor.c ****     *     SendBreak(1);     - complete Break operation
1472:.\Generated_Source\PSoC5/Surtidor.c ****     *  3) Same to 2) but user may want to init and use the interrupt for complete
1473:.\Generated_Source\PSoC5/Surtidor.c ****     *     break operation.
1474:.\Generated_Source\PSoC5/Surtidor.c ****     *     Example for this case:
1475:.\Generated_Source\PSoC5/Surtidor.c ****     *     Init TX interrupt whith "TX - On TX Complete" parameter
1476:.\Generated_Source\PSoC5/Surtidor.c ****     *     SendBreak(0);     - init Break signal transmition
1477:.\Generated_Source\PSoC5/Surtidor.c ****     *         Add your code here to use CPU time
1478:.\Generated_Source\PSoC5/Surtidor.c ****     *     When interrupt appear with UART_TX_STS_COMPLETE status:
1479:.\Generated_Source\PSoC5/Surtidor.c ****     *     SendBreak(2);     - complete Break operation
1480:.\Generated_Source\PSoC5/Surtidor.c ****     *
1481:.\Generated_Source\PSoC5/Surtidor.c ****     * Side Effects:
1482:.\Generated_Source\PSoC5/Surtidor.c ****     *   Uses static variable to keep registers configuration.
1483:.\Generated_Source\PSoC5/Surtidor.c ****     *
1484:.\Generated_Source\PSoC5/Surtidor.c ****     *******************************************************************************/
1485:.\Generated_Source\PSoC5/Surtidor.c ****     void Surtidor_SendBreak(uint8 retMode) 
1486:.\Generated_Source\PSoC5/Surtidor.c ****     {
 1167              		.loc 1 1486 0
 1168              		.cfi_startproc
 1169              		@ args = 0, pretend = 0, frame = 0
 1170              		@ frame_needed = 0, uses_anonymous_args = 0
 1171              		@ link register save eliminated.
 1172              	.LVL91:
1487:.\Generated_Source\PSoC5/Surtidor.c **** 
1488:.\Generated_Source\PSoC5/Surtidor.c ****         /* If not Initialized then skip this function*/
1489:.\Generated_Source\PSoC5/Surtidor.c ****         if(Surtidor_initVar != 0u)
 1173              		.loc 1 1489 0
 1174 0000 124B     		ldr	r3, .L116
ARM GAS  C:\Users\RECEPC~1\AppData\Local\Temp\ccllYUoy.s 			page 48


 1175 0002 1B78     		ldrb	r3, [r3]	@ zero_extendqisi2
 1176 0004 0BB3     		cbz	r3, .L106
 1177              	.LBB2:
1490:.\Generated_Source\PSoC5/Surtidor.c ****         {
1491:.\Generated_Source\PSoC5/Surtidor.c ****             /*Set the Counter to 13-bits and transmit a 00 byte*/
1492:.\Generated_Source\PSoC5/Surtidor.c ****             /*When that is done then reset the counter value back*/
1493:.\Generated_Source\PSoC5/Surtidor.c ****             uint8 tmpStat;
1494:.\Generated_Source\PSoC5/Surtidor.c **** 
1495:.\Generated_Source\PSoC5/Surtidor.c ****             #if(Surtidor_HD_ENABLED) /* Half Duplex mode*/
1496:.\Generated_Source\PSoC5/Surtidor.c **** 
1497:.\Generated_Source\PSoC5/Surtidor.c ****                 if( (retMode == Surtidor_SEND_BREAK) ||
1498:.\Generated_Source\PSoC5/Surtidor.c ****                     (retMode == Surtidor_SEND_WAIT_REINIT ) )
1499:.\Generated_Source\PSoC5/Surtidor.c ****                 {
1500:.\Generated_Source\PSoC5/Surtidor.c ****                     /* CTRL_HD_SEND_BREAK - sends break bits in HD mode*/
1501:.\Generated_Source\PSoC5/Surtidor.c ****                     Surtidor_WriteControlRegister(Surtidor_ReadControlRegister() |
1502:.\Generated_Source\PSoC5/Surtidor.c ****                                                           Surtidor_CTRL_HD_SEND_BREAK);
1503:.\Generated_Source\PSoC5/Surtidor.c ****                     /* Send zeros*/
1504:.\Generated_Source\PSoC5/Surtidor.c ****                     Surtidor_TXDATA_REG = 0u;
1505:.\Generated_Source\PSoC5/Surtidor.c **** 
1506:.\Generated_Source\PSoC5/Surtidor.c ****                     do /*wait until transmit starts*/
1507:.\Generated_Source\PSoC5/Surtidor.c ****                     {
1508:.\Generated_Source\PSoC5/Surtidor.c ****                         tmpStat = Surtidor_TXSTATUS_REG;
1509:.\Generated_Source\PSoC5/Surtidor.c ****                     }while((tmpStat & Surtidor_TX_STS_FIFO_EMPTY) != 0u);
1510:.\Generated_Source\PSoC5/Surtidor.c ****                 }
1511:.\Generated_Source\PSoC5/Surtidor.c **** 
1512:.\Generated_Source\PSoC5/Surtidor.c ****                 if( (retMode == Surtidor_WAIT_FOR_COMPLETE_REINIT) ||
1513:.\Generated_Source\PSoC5/Surtidor.c ****                     (retMode == Surtidor_SEND_WAIT_REINIT) )
1514:.\Generated_Source\PSoC5/Surtidor.c ****                 {
1515:.\Generated_Source\PSoC5/Surtidor.c ****                     do /*wait until transmit complete*/
1516:.\Generated_Source\PSoC5/Surtidor.c ****                     {
1517:.\Generated_Source\PSoC5/Surtidor.c ****                         tmpStat = Surtidor_TXSTATUS_REG;
1518:.\Generated_Source\PSoC5/Surtidor.c ****                     }while(((uint8)~tmpStat & Surtidor_TX_STS_COMPLETE) != 0u);
1519:.\Generated_Source\PSoC5/Surtidor.c ****                 }
1520:.\Generated_Source\PSoC5/Surtidor.c **** 
1521:.\Generated_Source\PSoC5/Surtidor.c ****                 if( (retMode == Surtidor_WAIT_FOR_COMPLETE_REINIT) ||
1522:.\Generated_Source\PSoC5/Surtidor.c ****                     (retMode == Surtidor_REINIT) ||
1523:.\Generated_Source\PSoC5/Surtidor.c ****                     (retMode == Surtidor_SEND_WAIT_REINIT) )
1524:.\Generated_Source\PSoC5/Surtidor.c ****                 {
1525:.\Generated_Source\PSoC5/Surtidor.c ****                     Surtidor_WriteControlRegister(Surtidor_ReadControlRegister() &
1526:.\Generated_Source\PSoC5/Surtidor.c ****                                                   (uint8)~Surtidor_CTRL_HD_SEND_BREAK);
1527:.\Generated_Source\PSoC5/Surtidor.c ****                 }
1528:.\Generated_Source\PSoC5/Surtidor.c **** 
1529:.\Generated_Source\PSoC5/Surtidor.c ****             #else /* Surtidor_HD_ENABLED Full Duplex mode */
1530:.\Generated_Source\PSoC5/Surtidor.c **** 
1531:.\Generated_Source\PSoC5/Surtidor.c ****                 static uint8 tx_period;
1532:.\Generated_Source\PSoC5/Surtidor.c **** 
1533:.\Generated_Source\PSoC5/Surtidor.c ****                 if( (retMode == Surtidor_SEND_BREAK) ||
 1178              		.loc 1 1533 0
 1179 0006 08B1     		cbz	r0, .L108
 1180              		.loc 1 1533 0 is_stmt 0 discriminator 1
 1181 0008 0328     		cmp	r0, #3
 1182 000a 0DD1     		bne	.L109
 1183              	.L108:
1534:.\Generated_Source\PSoC5/Surtidor.c ****                     (retMode == Surtidor_SEND_WAIT_REINIT) )
1535:.\Generated_Source\PSoC5/Surtidor.c ****                 {
1536:.\Generated_Source\PSoC5/Surtidor.c ****                     /* CTRL_HD_SEND_BREAK - skip to send parity bit at Break signal in Full Duplex 
1537:.\Generated_Source\PSoC5/Surtidor.c ****                     #if( (Surtidor_PARITY_TYPE != Surtidor__B_UART__NONE_REVB) || \
ARM GAS  C:\Users\RECEPC~1\AppData\Local\Temp\ccllYUoy.s 			page 49


1538:.\Generated_Source\PSoC5/Surtidor.c ****                                         (Surtidor_PARITY_TYPE_SW != 0u) )
1539:.\Generated_Source\PSoC5/Surtidor.c ****                         Surtidor_WriteControlRegister(Surtidor_ReadControlRegister() |
1540:.\Generated_Source\PSoC5/Surtidor.c ****                                                               Surtidor_CTRL_HD_SEND_BREAK);
1541:.\Generated_Source\PSoC5/Surtidor.c ****                     #endif /* End Surtidor_PARITY_TYPE != Surtidor__B_UART__NONE_REVB  */
1542:.\Generated_Source\PSoC5/Surtidor.c **** 
1543:.\Generated_Source\PSoC5/Surtidor.c ****                     #if(Surtidor_TXCLKGEN_DP)
1544:.\Generated_Source\PSoC5/Surtidor.c ****                         tx_period = Surtidor_TXBITCLKTX_COMPLETE_REG;
 1184              		.loc 1 1544 0 is_stmt 1
 1185 000c 104B     		ldr	r3, .L116+4
 1186 000e 1978     		ldrb	r1, [r3]	@ zero_extendqisi2
 1187 0010 0E4A     		ldr	r2, .L116
 1188 0012 1172     		strb	r1, [r2, #8]
1545:.\Generated_Source\PSoC5/Surtidor.c ****                         Surtidor_TXBITCLKTX_COMPLETE_REG = Surtidor_TXBITCTR_BREAKBITS;
 1189              		.loc 1 1545 0
 1190 0014 6722     		movs	r2, #103
 1191 0016 1A70     		strb	r2, [r3]
1546:.\Generated_Source\PSoC5/Surtidor.c ****                     #else
1547:.\Generated_Source\PSoC5/Surtidor.c ****                         tx_period = Surtidor_TXBITCTR_PERIOD_REG;
1548:.\Generated_Source\PSoC5/Surtidor.c ****                         Surtidor_TXBITCTR_PERIOD_REG = Surtidor_TXBITCTR_BREAKBITS8X;
1549:.\Generated_Source\PSoC5/Surtidor.c ****                     #endif /* End Surtidor_TXCLKGEN_DP */
1550:.\Generated_Source\PSoC5/Surtidor.c **** 
1551:.\Generated_Source\PSoC5/Surtidor.c ****                     /* Send zeros*/
1552:.\Generated_Source\PSoC5/Surtidor.c ****                     Surtidor_TXDATA_REG = 0u;
 1192              		.loc 1 1552 0
 1193 0018 0022     		movs	r2, #0
 1194 001a 0F33     		adds	r3, r3, #15
 1195 001c 1A70     		strb	r2, [r3]
1553:.\Generated_Source\PSoC5/Surtidor.c **** 
1554:.\Generated_Source\PSoC5/Surtidor.c ****                     do /* wait until transmit starts */
1555:.\Generated_Source\PSoC5/Surtidor.c ****                     {
1556:.\Generated_Source\PSoC5/Surtidor.c ****                         tmpStat = Surtidor_TXSTATUS_REG;
 1196              		.loc 1 1556 0
 1197 001e 0D4A     		ldr	r2, .L116+8
 1198              	.L110:
 1199              		.loc 1 1556 0 is_stmt 0 discriminator 1
 1200 0020 1378     		ldrb	r3, [r2]	@ zero_extendqisi2
 1201              	.LVL92:
1557:.\Generated_Source\PSoC5/Surtidor.c ****                     }while((tmpStat & Surtidor_TX_STS_FIFO_EMPTY) != 0u);
 1202              		.loc 1 1557 0 is_stmt 1 discriminator 1
 1203 0022 13F0020F 		tst	r3, #2
 1204 0026 FBD1     		bne	.L110
 1205              	.LVL93:
 1206              	.L109:
1558:.\Generated_Source\PSoC5/Surtidor.c ****                 }
1559:.\Generated_Source\PSoC5/Surtidor.c **** 
1560:.\Generated_Source\PSoC5/Surtidor.c ****                 if( (retMode == Surtidor_WAIT_FOR_COMPLETE_REINIT) ||
 1207              		.loc 1 1560 0
 1208 0028 0128     		cmp	r0, #1
 1209 002a 01D0     		beq	.L111
 1210              		.loc 1 1560 0 is_stmt 0 discriminator 1
 1211 002c 0328     		cmp	r0, #3
 1212 002e 04D1     		bne	.L112
 1213              	.L111:
1561:.\Generated_Source\PSoC5/Surtidor.c ****                     (retMode == Surtidor_SEND_WAIT_REINIT) )
1562:.\Generated_Source\PSoC5/Surtidor.c ****                 {
1563:.\Generated_Source\PSoC5/Surtidor.c ****                     do /*wait until transmit complete*/
1564:.\Generated_Source\PSoC5/Surtidor.c ****                     {
ARM GAS  C:\Users\RECEPC~1\AppData\Local\Temp\ccllYUoy.s 			page 50


1565:.\Generated_Source\PSoC5/Surtidor.c ****                         tmpStat = Surtidor_TXSTATUS_REG;
 1214              		.loc 1 1565 0 is_stmt 1 discriminator 1
 1215 0030 084A     		ldr	r2, .L116+8
 1216              	.L113:
 1217 0032 1378     		ldrb	r3, [r2]	@ zero_extendqisi2
 1218              	.LVL94:
1566:.\Generated_Source\PSoC5/Surtidor.c ****                     }while(((uint8)~tmpStat & Surtidor_TX_STS_COMPLETE) != 0u);
 1219              		.loc 1 1566 0 discriminator 1
 1220 0034 13F0010F 		tst	r3, #1
 1221 0038 FBD0     		beq	.L113
 1222              	.LVL95:
 1223              	.L112:
1567:.\Generated_Source\PSoC5/Surtidor.c ****                 }
1568:.\Generated_Source\PSoC5/Surtidor.c **** 
1569:.\Generated_Source\PSoC5/Surtidor.c ****                 if( (retMode == Surtidor_WAIT_FOR_COMPLETE_REINIT) ||
1570:.\Generated_Source\PSoC5/Surtidor.c ****                     (retMode == Surtidor_REINIT) ||
 1224              		.loc 1 1570 0
 1225 003a 0138     		subs	r0, r0, #1
 1226              	.LVL96:
 1227 003c C0B2     		uxtb	r0, r0
1569:.\Generated_Source\PSoC5/Surtidor.c ****                 if( (retMode == Surtidor_WAIT_FOR_COMPLETE_REINIT) ||
 1228              		.loc 1 1569 0
 1229 003e 0228     		cmp	r0, #2
 1230 0040 03D8     		bhi	.L106
1571:.\Generated_Source\PSoC5/Surtidor.c ****                     (retMode == Surtidor_SEND_WAIT_REINIT) )
1572:.\Generated_Source\PSoC5/Surtidor.c ****                 {
1573:.\Generated_Source\PSoC5/Surtidor.c **** 
1574:.\Generated_Source\PSoC5/Surtidor.c ****                     #if(Surtidor_TXCLKGEN_DP)
1575:.\Generated_Source\PSoC5/Surtidor.c ****                         Surtidor_TXBITCLKTX_COMPLETE_REG = tx_period;
 1231              		.loc 1 1575 0
 1232 0042 024B     		ldr	r3, .L116
 1233 0044 1A7A     		ldrb	r2, [r3, #8]	@ zero_extendqisi2
 1234 0046 024B     		ldr	r3, .L116+4
 1235 0048 1A70     		strb	r2, [r3]
 1236              	.L106:
 1237 004a 7047     		bx	lr
 1238              	.L117:
 1239              		.align	2
 1240              	.L116:
 1241 004c 00000000 		.word	.LANCHOR0
 1242 0050 36650040 		.word	1073767734
 1243 0054 66650040 		.word	1073767782
 1244              	.LBE2:
 1245              		.cfi_endproc
 1246              	.LFE27:
 1247              		.size	Surtidor_SendBreak, .-Surtidor_SendBreak
 1248              		.section	.text.Surtidor_SetTxAddressMode,"ax",%progbits
 1249              		.align	2
 1250              		.global	Surtidor_SetTxAddressMode
 1251              		.thumb
 1252              		.thumb_func
 1253              		.type	Surtidor_SetTxAddressMode, %function
 1254              	Surtidor_SetTxAddressMode:
 1255              	.LFB28:
1576:.\Generated_Source\PSoC5/Surtidor.c ****                     #else
1577:.\Generated_Source\PSoC5/Surtidor.c ****                         Surtidor_TXBITCTR_PERIOD_REG = tx_period;
1578:.\Generated_Source\PSoC5/Surtidor.c ****                     #endif /* End Surtidor_TXCLKGEN_DP */
ARM GAS  C:\Users\RECEPC~1\AppData\Local\Temp\ccllYUoy.s 			page 51


1579:.\Generated_Source\PSoC5/Surtidor.c **** 
1580:.\Generated_Source\PSoC5/Surtidor.c ****                     #if( (Surtidor_PARITY_TYPE != Surtidor__B_UART__NONE_REVB) || \
1581:.\Generated_Source\PSoC5/Surtidor.c ****                          (Surtidor_PARITY_TYPE_SW != 0u) )
1582:.\Generated_Source\PSoC5/Surtidor.c ****                         Surtidor_WriteControlRegister(Surtidor_ReadControlRegister() &
1583:.\Generated_Source\PSoC5/Surtidor.c ****                                                       (uint8)~Surtidor_CTRL_HD_SEND_BREAK);
1584:.\Generated_Source\PSoC5/Surtidor.c ****                     #endif /* End Surtidor_PARITY_TYPE != NONE */
1585:.\Generated_Source\PSoC5/Surtidor.c ****                 }
1586:.\Generated_Source\PSoC5/Surtidor.c ****             #endif    /* End Surtidor_HD_ENABLED */
1587:.\Generated_Source\PSoC5/Surtidor.c ****         }
1588:.\Generated_Source\PSoC5/Surtidor.c ****     }
1589:.\Generated_Source\PSoC5/Surtidor.c **** 
1590:.\Generated_Source\PSoC5/Surtidor.c **** 
1591:.\Generated_Source\PSoC5/Surtidor.c ****     /*******************************************************************************
1592:.\Generated_Source\PSoC5/Surtidor.c ****     * Function Name: Surtidor_SetTxAddressMode
1593:.\Generated_Source\PSoC5/Surtidor.c ****     ********************************************************************************
1594:.\Generated_Source\PSoC5/Surtidor.c ****     *
1595:.\Generated_Source\PSoC5/Surtidor.c ****     * Summary:
1596:.\Generated_Source\PSoC5/Surtidor.c ****     *  Set the transmit addressing mode
1597:.\Generated_Source\PSoC5/Surtidor.c ****     *
1598:.\Generated_Source\PSoC5/Surtidor.c ****     * Parameters:
1599:.\Generated_Source\PSoC5/Surtidor.c ****     *  addressMode: 0 -> Space
1600:.\Generated_Source\PSoC5/Surtidor.c ****     *               1 -> Mark
1601:.\Generated_Source\PSoC5/Surtidor.c ****     *
1602:.\Generated_Source\PSoC5/Surtidor.c ****     * Return:
1603:.\Generated_Source\PSoC5/Surtidor.c ****     *  None.
1604:.\Generated_Source\PSoC5/Surtidor.c ****     *
1605:.\Generated_Source\PSoC5/Surtidor.c ****     *******************************************************************************/
1606:.\Generated_Source\PSoC5/Surtidor.c ****     void Surtidor_SetTxAddressMode(uint8 addressMode) 
1607:.\Generated_Source\PSoC5/Surtidor.c ****     {
 1256              		.loc 1 1607 0
 1257              		.cfi_startproc
 1258              		@ args = 0, pretend = 0, frame = 0
 1259              		@ frame_needed = 0, uses_anonymous_args = 0
 1260              		@ link register save eliminated.
 1261              	.LVL97:
 1262 0000 7047     		bx	lr
 1263              		.cfi_endproc
 1264              	.LFE28:
 1265              		.size	Surtidor_SetTxAddressMode, .-Surtidor_SetTxAddressMode
 1266              		.global	Surtidor_rxBufferOverflow
 1267              		.global	Surtidor_rxBufferLoopDetect
 1268              		.global	Surtidor_rxBufferWrite
 1269              		.global	Surtidor_rxBufferRead
 1270              		.comm	Surtidor_rxBuffer,256,4
 1271              		.global	Surtidor_initVar
 1272 0002 00BF     		.bss
 1273              		.align	1
 1274              		.set	.LANCHOR0,. + 0
 1275              		.type	Surtidor_initVar, %object
 1276              		.size	Surtidor_initVar, 1
 1277              	Surtidor_initVar:
 1278 0000 00       		.space	1
 1279 0001 00       		.space	1
 1280              		.type	Surtidor_rxBufferRead, %object
 1281              		.size	Surtidor_rxBufferRead, 2
 1282              	Surtidor_rxBufferRead:
 1283 0002 0000     		.space	2
ARM GAS  C:\Users\RECEPC~1\AppData\Local\Temp\ccllYUoy.s 			page 52


 1284              		.type	Surtidor_rxBufferWrite, %object
 1285              		.size	Surtidor_rxBufferWrite, 2
 1286              	Surtidor_rxBufferWrite:
 1287 0004 0000     		.space	2
 1288              		.type	Surtidor_rxBufferLoopDetect, %object
 1289              		.size	Surtidor_rxBufferLoopDetect, 1
 1290              	Surtidor_rxBufferLoopDetect:
 1291 0006 00       		.space	1
 1292              		.type	Surtidor_rxBufferOverflow, %object
 1293              		.size	Surtidor_rxBufferOverflow, 1
 1294              	Surtidor_rxBufferOverflow:
 1295 0007 00       		.space	1
 1296              		.type	tx_period.4996, %object
 1297              		.size	tx_period.4996, 1
 1298              	tx_period.4996:
 1299 0008 00       		.space	1
 1300 0009 00       		.text
 1301              	.Letext0:
 1302              		.file 2 ".\\Generated_Source\\PSoC5\\cytypes.h"
 1303              		.file 3 ".\\Generated_Source\\PSoC5\\CyLib.h"
 1304              		.section	.debug_info,"",%progbits
 1305              	.Ldebug_info0:
 1306 0000 84070000 		.4byte	0x784
 1307 0004 0400     		.2byte	0x4
 1308 0006 00000000 		.4byte	.Ldebug_abbrev0
 1309 000a 04       		.byte	0x4
 1310 000b 01       		.uleb128 0x1
 1311 000c 59000000 		.4byte	.LASF73
 1312 0010 01       		.byte	0x1
 1313 0011 4B020000 		.4byte	.LASF74
 1314 0015 B4020000 		.4byte	.LASF75
 1315 0019 00000000 		.4byte	.Ldebug_ranges0+0
 1316 001d 00000000 		.4byte	0
 1317 0021 00000000 		.4byte	.Ldebug_line0
 1318 0025 02       		.uleb128 0x2
 1319 0026 01       		.byte	0x1
 1320 0027 06       		.byte	0x6
 1321 0028 4B010000 		.4byte	.LASF0
 1322 002c 02       		.uleb128 0x2
 1323 002d 01       		.byte	0x1
 1324 002e 08       		.byte	0x8
 1325 002f 23040000 		.4byte	.LASF1
 1326 0033 02       		.uleb128 0x2
 1327 0034 02       		.byte	0x2
 1328 0035 05       		.byte	0x5
 1329 0036 31040000 		.4byte	.LASF2
 1330 003a 02       		.uleb128 0x2
 1331 003b 02       		.byte	0x2
 1332 003c 07       		.byte	0x7
 1333 003d 26030000 		.4byte	.LASF3
 1334 0041 02       		.uleb128 0x2
 1335 0042 04       		.byte	0x4
 1336 0043 05       		.byte	0x5
 1337 0044 84010000 		.4byte	.LASF4
 1338 0048 02       		.uleb128 0x2
 1339 0049 04       		.byte	0x4
 1340 004a 07       		.byte	0x7
ARM GAS  C:\Users\RECEPC~1\AppData\Local\Temp\ccllYUoy.s 			page 53


 1341 004b A2020000 		.4byte	.LASF5
 1342 004f 02       		.uleb128 0x2
 1343 0050 08       		.byte	0x8
 1344 0051 05       		.byte	0x5
 1345 0052 3D010000 		.4byte	.LASF6
 1346 0056 02       		.uleb128 0x2
 1347 0057 08       		.byte	0x8
 1348 0058 07       		.byte	0x7
 1349 0059 F9000000 		.4byte	.LASF7
 1350 005d 03       		.uleb128 0x3
 1351 005e 04       		.byte	0x4
 1352 005f 05       		.byte	0x5
 1353 0060 696E7400 		.ascii	"int\000"
 1354 0064 02       		.uleb128 0x2
 1355 0065 04       		.byte	0x4
 1356 0066 07       		.byte	0x7
 1357 0067 6F020000 		.4byte	.LASF8
 1358 006b 04       		.uleb128 0x4
 1359 006c 8D010000 		.4byte	.LASF9
 1360 0070 02       		.byte	0x2
 1361 0071 B4       		.byte	0xb4
 1362 0072 2C000000 		.4byte	0x2c
 1363 0076 04       		.uleb128 0x4
 1364 0077 11000000 		.4byte	.LASF10
 1365 007b 02       		.byte	0x2
 1366 007c B5       		.byte	0xb5
 1367 007d 3A000000 		.4byte	0x3a
 1368 0081 04       		.uleb128 0x4
 1369 0082 EA010000 		.4byte	.LASF11
 1370 0086 02       		.byte	0x2
 1371 0087 B6       		.byte	0xb6
 1372 0088 48000000 		.4byte	0x48
 1373 008c 02       		.uleb128 0x2
 1374 008d 04       		.byte	0x4
 1375 008e 04       		.byte	0x4
 1376 008f 18040000 		.4byte	.LASF12
 1377 0093 02       		.uleb128 0x2
 1378 0094 08       		.byte	0x8
 1379 0095 04       		.byte	0x4
 1380 0096 A4010000 		.4byte	.LASF13
 1381 009a 04       		.uleb128 0x4
 1382 009b E8040000 		.4byte	.LASF14
 1383 009f 02       		.byte	0x2
 1384 00a0 C5       		.byte	0xc5
 1385 00a1 A5000000 		.4byte	0xa5
 1386 00a5 02       		.uleb128 0x2
 1387 00a6 01       		.byte	0x1
 1388 00a7 08       		.byte	0x8
 1389 00a8 B0040000 		.4byte	.LASF15
 1390 00ac 05       		.uleb128 0x5
 1391 00ad 1E040000 		.4byte	.LASF16
 1392 00b1 02       		.byte	0x2
 1393 00b2 5E01     		.2byte	0x15e
 1394 00b4 B8000000 		.4byte	0xb8
 1395 00b8 06       		.uleb128 0x6
 1396 00b9 6B000000 		.4byte	0x6b
 1397 00bd 06       		.uleb128 0x6
ARM GAS  C:\Users\RECEPC~1\AppData\Local\Temp\ccllYUoy.s 			page 54


 1398 00be 76000000 		.4byte	0x76
 1399 00c2 05       		.uleb128 0x5
 1400 00c3 6A030000 		.4byte	.LASF17
 1401 00c7 02       		.byte	0x2
 1402 00c8 6001     		.2byte	0x160
 1403 00ca CE000000 		.4byte	0xce
 1404 00ce 06       		.uleb128 0x6
 1405 00cf 81000000 		.4byte	0x81
 1406 00d3 05       		.uleb128 0x5
 1407 00d4 CB040000 		.4byte	.LASF18
 1408 00d8 02       		.byte	0x2
 1409 00d9 7001     		.2byte	0x170
 1410 00db DF000000 		.4byte	0xdf
 1411 00df 07       		.uleb128 0x7
 1412 00e0 04       		.byte	0x4
 1413 00e1 E5000000 		.4byte	0xe5
 1414 00e5 08       		.uleb128 0x8
 1415 00e6 02       		.uleb128 0x2
 1416 00e7 04       		.byte	0x4
 1417 00e8 07       		.byte	0x7
 1418 00e9 8E030000 		.4byte	.LASF19
 1419 00ed 09       		.uleb128 0x9
 1420 00ee 80050000 		.4byte	.LASF20
 1421 00f2 01       		.byte	0x1
 1422 00f3 65       		.byte	0x65
 1423 00f4 00000000 		.4byte	.LFB1
 1424 00f8 3C000000 		.4byte	.LFE1-.LFB1
 1425 00fc 01       		.uleb128 0x1
 1426 00fd 9C       		.byte	0x9c
 1427 00fe 2A010000 		.4byte	0x12a
 1428 0102 0A       		.uleb128 0xa
 1429 0103 0A000000 		.4byte	.LVL0
 1430 0107 3F070000 		.4byte	0x73f
 1431 010b 15010000 		.4byte	0x115
 1432 010f 0B       		.uleb128 0xb
 1433 0110 01       		.uleb128 0x1
 1434 0111 50       		.byte	0x50
 1435 0112 01       		.uleb128 0x1
 1436 0113 34       		.byte	0x34
 1437 0114 00       		.byte	0
 1438 0115 0C       		.uleb128 0xc
 1439 0116 12000000 		.4byte	.LVL1
 1440 011a 59070000 		.4byte	0x759
 1441 011e 0B       		.uleb128 0xb
 1442 011f 01       		.uleb128 0x1
 1443 0120 51       		.byte	0x51
 1444 0121 01       		.uleb128 0x1
 1445 0122 37       		.byte	0x37
 1446 0123 0B       		.uleb128 0xb
 1447 0124 01       		.uleb128 0x1
 1448 0125 50       		.byte	0x50
 1449 0126 01       		.uleb128 0x1
 1450 0127 34       		.byte	0x34
 1451 0128 00       		.byte	0
 1452 0129 00       		.byte	0
 1453 012a 09       		.uleb128 0x9
 1454 012b D8040000 		.4byte	.LASF21
ARM GAS  C:\Users\RECEPC~1\AppData\Local\Temp\ccllYUoy.s 			page 55


 1455 012f 01       		.byte	0x1
 1456 0130 AE       		.byte	0xae
 1457 0131 00000000 		.4byte	.LFB2
 1458 0135 3C000000 		.4byte	.LFE2-.LFB2
 1459 0139 01       		.uleb128 0x1
 1460 013a 9C       		.byte	0x9c
 1461 013b 61010000 		.4byte	0x161
 1462 013f 0D       		.uleb128 0xd
 1463 0140 1F050000 		.4byte	.LASF27
 1464 0144 01       		.byte	0x1
 1465 0145 B0       		.byte	0xb0
 1466 0146 6B000000 		.4byte	0x6b
 1467 014a 00000000 		.4byte	.LLST0
 1468 014e 0E       		.uleb128 0xe
 1469 014f 06000000 		.4byte	.LVL2
 1470 0153 6F070000 		.4byte	0x76f
 1471 0157 0E       		.uleb128 0xe
 1472 0158 2E000000 		.4byte	.LVL3
 1473 015c 7A070000 		.4byte	0x77a
 1474 0160 00       		.byte	0
 1475 0161 09       		.uleb128 0x9
 1476 0162 3B040000 		.4byte	.LASF22
 1477 0166 01       		.byte	0x1
 1478 0167 49       		.byte	0x49
 1479 0168 00000000 		.4byte	.LFB0
 1480 016c 1C000000 		.4byte	.LFE0-.LFB0
 1481 0170 01       		.uleb128 0x1
 1482 0171 9C       		.byte	0x9c
 1483 0172 89010000 		.4byte	0x189
 1484 0176 0E       		.uleb128 0xe
 1485 0177 0C000000 		.4byte	.LVL4
 1486 017b ED000000 		.4byte	0xed
 1487 017f 0E       		.uleb128 0xe
 1488 0180 16000000 		.4byte	.LVL5
 1489 0184 2A010000 		.4byte	0x12a
 1490 0188 00       		.byte	0
 1491 0189 0F       		.uleb128 0xf
 1492 018a CD010000 		.4byte	.LASF51
 1493 018e 01       		.byte	0x1
 1494 018f 1901     		.2byte	0x119
 1495 0191 6B000000 		.4byte	0x6b
 1496 0195 00000000 		.4byte	.LFB4
 1497 0199 04000000 		.4byte	.LFE4-.LFB4
 1498 019d 01       		.uleb128 0x1
 1499 019e 9C       		.byte	0x9c
 1500 019f 10       		.uleb128 0x10
 1501 01a0 37050000 		.4byte	.LASF23
 1502 01a4 01       		.byte	0x1
 1503 01a5 3101     		.2byte	0x131
 1504 01a7 00000000 		.4byte	.LFB5
 1505 01ab 02000000 		.4byte	.LFE5-.LFB5
 1506 01af 01       		.uleb128 0x1
 1507 01b0 9C       		.byte	0x9c
 1508 01b1 C4010000 		.4byte	0x1c4
 1509 01b5 11       		.uleb128 0x11
 1510 01b6 F1010000 		.4byte	.LASF29
 1511 01ba 01       		.byte	0x1
ARM GAS  C:\Users\RECEPC~1\AppData\Local\Temp\ccllYUoy.s 			page 56


 1512 01bb 3101     		.2byte	0x131
 1513 01bd 6B000000 		.4byte	0x6b
 1514 01c1 01       		.uleb128 0x1
 1515 01c2 50       		.byte	0x50
 1516 01c3 00       		.byte	0
 1517 01c4 12       		.uleb128 0x12
 1518 01c5 BF030000 		.4byte	.LASF24
 1519 01c9 01       		.byte	0x1
 1520 01ca 5001     		.2byte	0x150
 1521 01cc 00000000 		.4byte	.LFB6
 1522 01d0 0C000000 		.4byte	.LFE6-.LFB6
 1523 01d4 01       		.uleb128 0x1
 1524 01d5 9C       		.byte	0x9c
 1525 01d6 12       		.uleb128 0x12
 1526 01d7 B7010000 		.4byte	.LASF25
 1527 01db 01       		.byte	0x1
 1528 01dc 6701     		.2byte	0x167
 1529 01de 00000000 		.4byte	.LFB7
 1530 01e2 0C000000 		.4byte	.LFE7-.LFB7
 1531 01e6 01       		.uleb128 0x1
 1532 01e7 9C       		.byte	0x9c
 1533 01e8 09       		.uleb128 0x9
 1534 01e9 F9030000 		.4byte	.LASF26
 1535 01ed 01       		.byte	0x1
 1536 01ee E3       		.byte	0xe3
 1537 01ef 00000000 		.4byte	.LFB3
 1538 01f3 3C000000 		.4byte	.LFE3-.LFB3
 1539 01f7 01       		.uleb128 0x1
 1540 01f8 9C       		.byte	0x9c
 1541 01f9 2F020000 		.4byte	0x22f
 1542 01fd 0D       		.uleb128 0xd
 1543 01fe 1F050000 		.4byte	.LASF27
 1544 0202 01       		.byte	0x1
 1545 0203 E5       		.byte	0xe5
 1546 0204 6B000000 		.4byte	0x6b
 1547 0208 13000000 		.4byte	.LLST1
 1548 020c 0E       		.uleb128 0xe
 1549 020d 06000000 		.4byte	.LVL7
 1550 0211 6F070000 		.4byte	0x76f
 1551 0215 0E       		.uleb128 0xe
 1552 0216 20000000 		.4byte	.LVL9
 1553 021a D6010000 		.4byte	0x1d6
 1554 021e 0C       		.uleb128 0xc
 1555 021f 30000000 		.4byte	.LVL10
 1556 0223 7A070000 		.4byte	0x77a
 1557 0227 0B       		.uleb128 0xb
 1558 0228 01       		.uleb128 0x1
 1559 0229 50       		.byte	0x50
 1560 022a 02       		.uleb128 0x2
 1561 022b 74       		.byte	0x74
 1562 022c 00       		.sleb128 0
 1563 022d 00       		.byte	0
 1564 022e 00       		.byte	0
 1565 022f 10       		.uleb128 0x10
 1566 0230 15020000 		.4byte	.LASF28
 1567 0234 01       		.byte	0x1
 1568 0235 8101     		.2byte	0x181
ARM GAS  C:\Users\RECEPC~1\AppData\Local\Temp\ccllYUoy.s 			page 57


 1569 0237 00000000 		.4byte	.LFB8
 1570 023b 0C000000 		.4byte	.LFE8-.LFB8
 1571 023f 01       		.uleb128 0x1
 1572 0240 9C       		.byte	0x9c
 1573 0241 54020000 		.4byte	0x254
 1574 0245 11       		.uleb128 0x11
 1575 0246 63030000 		.4byte	.LASF30
 1576 024a 01       		.byte	0x1
 1577 024b 8101     		.2byte	0x181
 1578 024d 6B000000 		.4byte	0x6b
 1579 0251 01       		.uleb128 0x1
 1580 0252 50       		.byte	0x50
 1581 0253 00       		.byte	0
 1582 0254 13       		.uleb128 0x13
 1583 0255 9C040000 		.4byte	.LASF34
 1584 0259 01       		.byte	0x1
 1585 025a A201     		.2byte	0x1a2
 1586 025c 6B000000 		.4byte	0x6b
 1587 0260 00000000 		.4byte	.LFB9
 1588 0264 5C000000 		.4byte	.LFE9-.LFB9
 1589 0268 01       		.uleb128 0x1
 1590 0269 9C       		.byte	0x9c
 1591 026a B1020000 		.4byte	0x2b1
 1592 026e 14       		.uleb128 0x14
 1593 026f 95040000 		.4byte	.LASF31
 1594 0273 01       		.byte	0x1
 1595 0274 A401     		.2byte	0x1a4
 1596 0276 6B000000 		.4byte	0x6b
 1597 027a 31000000 		.4byte	.LLST2
 1598 027e 14       		.uleb128 0x14
 1599 027f 48030000 		.4byte	.LASF32
 1600 0283 01       		.byte	0x1
 1601 0284 A701     		.2byte	0x1a7
 1602 0286 76000000 		.4byte	0x76
 1603 028a 5A000000 		.4byte	.LLST3
 1604 028e 14       		.uleb128 0x14
 1605 028f 18000000 		.4byte	.LASF33
 1606 0293 01       		.byte	0x1
 1607 0294 A801     		.2byte	0x1a8
 1608 0296 76000000 		.4byte	0x76
 1609 029a 90000000 		.4byte	.LLST4
 1610 029e 0E       		.uleb128 0xe
 1611 029f 06000000 		.4byte	.LVL13
 1612 02a3 D6010000 		.4byte	0x1d6
 1613 02a7 0E       		.uleb128 0xe
 1614 02a8 4A000000 		.4byte	.LVL23
 1615 02ac C4010000 		.4byte	0x1c4
 1616 02b0 00       		.byte	0
 1617 02b1 13       		.uleb128 0x13
 1618 02b2 10010000 		.4byte	.LASF35
 1619 02b6 01       		.byte	0x1
 1620 02b7 FD01     		.2byte	0x1fd
 1621 02b9 6B000000 		.4byte	0x6b
 1622 02bd 00000000 		.4byte	.LFB10
 1623 02c1 28000000 		.4byte	.LFE10-.LFB10
 1624 02c5 01       		.uleb128 0x1
 1625 02c6 9C       		.byte	0x9c
ARM GAS  C:\Users\RECEPC~1\AppData\Local\Temp\ccllYUoy.s 			page 58


 1626 02c7 DA020000 		.4byte	0x2da
 1627 02cb 15       		.uleb128 0x15
 1628 02cc 30050000 		.4byte	.LASF36
 1629 02d0 01       		.byte	0x1
 1630 02d1 FF01     		.2byte	0x1ff
 1631 02d3 6B000000 		.4byte	0x6b
 1632 02d7 01       		.uleb128 0x1
 1633 02d8 50       		.byte	0x50
 1634 02d9 00       		.byte	0
 1635 02da 13       		.uleb128 0x13
 1636 02db 00000000 		.4byte	.LASF37
 1637 02df 01       		.byte	0x1
 1638 02e0 2C02     		.2byte	0x22c
 1639 02e2 6B000000 		.4byte	0x6b
 1640 02e6 00000000 		.4byte	.LFB11
 1641 02ea 78000000 		.4byte	.LFE11-.LFB11
 1642 02ee 01       		.uleb128 0x1
 1643 02ef 9C       		.byte	0x9c
 1644 02f0 47030000 		.4byte	0x347
 1645 02f4 14       		.uleb128 0x14
 1646 02f5 95040000 		.4byte	.LASF31
 1647 02f9 01       		.byte	0x1
 1648 02fa 2E02     		.2byte	0x22e
 1649 02fc 6B000000 		.4byte	0x6b
 1650 0300 A3000000 		.4byte	.LLST5
 1651 0304 14       		.uleb128 0x14
 1652 0305 F0030000 		.4byte	.LASF38
 1653 0309 01       		.byte	0x1
 1654 030a 2F02     		.2byte	0x22f
 1655 030c 6B000000 		.4byte	0x6b
 1656 0310 FB000000 		.4byte	.LLST6
 1657 0314 14       		.uleb128 0x14
 1658 0315 48030000 		.4byte	.LASF32
 1659 0319 01       		.byte	0x1
 1660 031a 3202     		.2byte	0x232
 1661 031c 76000000 		.4byte	0x76
 1662 0320 0E010000 		.4byte	.LLST7
 1663 0324 14       		.uleb128 0x14
 1664 0325 18000000 		.4byte	.LASF33
 1665 0329 01       		.byte	0x1
 1666 032a 3302     		.2byte	0x233
 1667 032c 76000000 		.4byte	0x76
 1668 0330 4F010000 		.4byte	.LLST8
 1669 0334 0E       		.uleb128 0xe
 1670 0335 06000000 		.4byte	.LVL29
 1671 0339 D6010000 		.4byte	0x1d6
 1672 033d 0E       		.uleb128 0xe
 1673 033e 64000000 		.4byte	.LVL44
 1674 0342 C4010000 		.4byte	0x1c4
 1675 0346 00       		.byte	0
 1676 0347 13       		.uleb128 0x13
 1677 0348 AE030000 		.4byte	.LASF39
 1678 034c 01       		.byte	0x1
 1679 034d 9202     		.2byte	0x292
 1680 034f 76000000 		.4byte	0x76
 1681 0353 00000000 		.4byte	.LFB12
 1682 0357 12000000 		.4byte	.LFE12-.LFB12
ARM GAS  C:\Users\RECEPC~1\AppData\Local\Temp\ccllYUoy.s 			page 59


 1683 035b 01       		.uleb128 0x1
 1684 035c 9C       		.byte	0x9c
 1685 035d 74030000 		.4byte	0x374
 1686 0361 0E       		.uleb128 0xe
 1687 0362 06000000 		.4byte	.LVL46
 1688 0366 B1020000 		.4byte	0x2b1
 1689 036a 0E       		.uleb128 0xe
 1690 036b 0C000000 		.4byte	.LVL47
 1691 036f 54020000 		.4byte	0x254
 1692 0373 00       		.byte	0
 1693 0374 13       		.uleb128 0x13
 1694 0375 5D050000 		.4byte	.LASF40
 1695 0379 01       		.byte	0x1
 1696 037a B302     		.2byte	0x2b3
 1697 037c 76000000 		.4byte	0x76
 1698 0380 00000000 		.4byte	.LFB13
 1699 0384 60000000 		.4byte	.LFE13-.LFB13
 1700 0388 01       		.uleb128 0x1
 1701 0389 9C       		.byte	0x9c
 1702 038a B1030000 		.4byte	0x3b1
 1703 038e 14       		.uleb128 0x14
 1704 038f 21030000 		.4byte	.LASF41
 1705 0393 01       		.byte	0x1
 1706 0394 B602     		.2byte	0x2b6
 1707 0396 76000000 		.4byte	0x76
 1708 039a 62010000 		.4byte	.LLST9
 1709 039e 0E       		.uleb128 0xe
 1710 039f 06000000 		.4byte	.LVL48
 1711 03a3 D6010000 		.4byte	0x1d6
 1712 03a7 0E       		.uleb128 0xe
 1713 03a8 58000000 		.4byte	.LVL54
 1714 03ac C4010000 		.4byte	0x1c4
 1715 03b0 00       		.byte	0
 1716 03b1 10       		.uleb128 0x10
 1717 03b2 EE040000 		.4byte	.LASF42
 1718 03b6 01       		.byte	0x1
 1719 03b7 0303     		.2byte	0x303
 1720 03b9 00000000 		.4byte	.LFB14
 1721 03bd 3C000000 		.4byte	.LFE14-.LFB14
 1722 03c1 01       		.uleb128 0x1
 1723 03c2 9C       		.byte	0x9c
 1724 03c3 FC030000 		.4byte	0x3fc
 1725 03c7 14       		.uleb128 0x14
 1726 03c8 1F050000 		.4byte	.LASF27
 1727 03cc 01       		.byte	0x1
 1728 03cd 0503     		.2byte	0x305
 1729 03cf 6B000000 		.4byte	0x6b
 1730 03d3 96010000 		.4byte	.LLST10
 1731 03d7 0E       		.uleb128 0xe
 1732 03d8 06000000 		.4byte	.LVL56
 1733 03dc 6F070000 		.4byte	0x76f
 1734 03e0 0E       		.uleb128 0xe
 1735 03e1 1C000000 		.4byte	.LVL57
 1736 03e5 7A070000 		.4byte	0x77a
 1737 03e9 0E       		.uleb128 0xe
 1738 03ea 20000000 		.4byte	.LVL58
 1739 03ee D6010000 		.4byte	0x1d6
ARM GAS  C:\Users\RECEPC~1\AppData\Local\Temp\ccllYUoy.s 			page 60


 1740 03f2 0E       		.uleb128 0xe
 1741 03f3 30000000 		.4byte	.LVL59
 1742 03f7 C4010000 		.4byte	0x1c4
 1743 03fb 00       		.byte	0
 1744 03fc 10       		.uleb128 0x10
 1745 03fd 07030000 		.4byte	.LASF43
 1746 0401 01       		.byte	0x1
 1747 0402 4003     		.2byte	0x340
 1748 0404 00000000 		.4byte	.LFB15
 1749 0408 02000000 		.4byte	.LFE15-.LFB15
 1750 040c 01       		.uleb128 0x1
 1751 040d 9C       		.byte	0x9c
 1752 040e 21040000 		.4byte	0x421
 1753 0412 11       		.uleb128 0x11
 1754 0413 AB010000 		.4byte	.LASF44
 1755 0417 01       		.byte	0x1
 1756 0418 4003     		.2byte	0x340
 1757 041a 6B000000 		.4byte	0x6b
 1758 041e 01       		.uleb128 0x1
 1759 041f 50       		.byte	0x50
 1760 0420 00       		.byte	0
 1761 0421 10       		.uleb128 0x10
 1762 0422 54040000 		.4byte	.LASF45
 1763 0426 01       		.byte	0x1
 1764 0427 6503     		.2byte	0x365
 1765 0429 00000000 		.4byte	.LFB16
 1766 042d 0C000000 		.4byte	.LFE16-.LFB16
 1767 0431 01       		.uleb128 0x1
 1768 0432 9C       		.byte	0x9c
 1769 0433 46040000 		.4byte	0x446
 1770 0437 11       		.uleb128 0x11
 1771 0438 55050000 		.4byte	.LASF46
 1772 043c 01       		.byte	0x1
 1773 043d 6503     		.2byte	0x365
 1774 043f 6B000000 		.4byte	0x6b
 1775 0443 01       		.uleb128 0x1
 1776 0444 50       		.byte	0x50
 1777 0445 00       		.byte	0
 1778 0446 10       		.uleb128 0x10
 1779 0447 6B040000 		.4byte	.LASF47
 1780 044b 01       		.byte	0x1
 1781 044c 7A03     		.2byte	0x37a
 1782 044e 00000000 		.4byte	.LFB17
 1783 0452 0C000000 		.4byte	.LFE17-.LFB17
 1784 0456 01       		.uleb128 0x1
 1785 0457 9C       		.byte	0x9c
 1786 0458 6B040000 		.4byte	0x46b
 1787 045c 11       		.uleb128 0x11
 1788 045d 55050000 		.4byte	.LASF46
 1789 0461 01       		.byte	0x1
 1790 0462 7A03     		.2byte	0x37a
 1791 0464 6B000000 		.4byte	0x6b
 1792 0468 01       		.uleb128 0x1
 1793 0469 50       		.byte	0x50
 1794 046a 00       		.byte	0
 1795 046b 10       		.uleb128 0x10
 1796 046c F9010000 		.4byte	.LASF48
ARM GAS  C:\Users\RECEPC~1\AppData\Local\Temp\ccllYUoy.s 			page 61


 1797 0470 01       		.byte	0x1
 1798 0471 C803     		.2byte	0x3c8
 1799 0473 00000000 		.4byte	.LFB18
 1800 0477 0C000000 		.4byte	.LFE18-.LFB18
 1801 047b 01       		.uleb128 0x1
 1802 047c 9C       		.byte	0x9c
 1803 047d 90040000 		.4byte	0x490
 1804 0481 11       		.uleb128 0x11
 1805 0482 63030000 		.4byte	.LASF30
 1806 0486 01       		.byte	0x1
 1807 0487 C803     		.2byte	0x3c8
 1808 0489 6B000000 		.4byte	0x6b
 1809 048d 01       		.uleb128 0x1
 1810 048e 50       		.byte	0x50
 1811 048f 00       		.byte	0
 1812 0490 10       		.uleb128 0x10
 1813 0491 7C020000 		.4byte	.LASF49
 1814 0495 01       		.byte	0x1
 1815 0496 EA03     		.2byte	0x3ea
 1816 0498 00000000 		.4byte	.LFB19
 1817 049c 14000000 		.4byte	.LFE19-.LFB19
 1818 04a0 01       		.uleb128 0x1
 1819 04a1 9C       		.byte	0x9c
 1820 04a2 B5040000 		.4byte	0x4b5
 1821 04a6 11       		.uleb128 0x11
 1822 04a7 D5000000 		.4byte	.LASF50
 1823 04ab 01       		.byte	0x1
 1824 04ac EA03     		.2byte	0x3ea
 1825 04ae 6B000000 		.4byte	0x6b
 1826 04b2 01       		.uleb128 0x1
 1827 04b3 50       		.byte	0x50
 1828 04b4 00       		.byte	0
 1829 04b5 0F       		.uleb128 0xf
 1830 04b6 78030000 		.4byte	.LASF52
 1831 04ba 01       		.byte	0x1
 1832 04bb 2E04     		.2byte	0x42e
 1833 04bd 6B000000 		.4byte	0x6b
 1834 04c1 00000000 		.4byte	.LFB20
 1835 04c5 0C000000 		.4byte	.LFE20-.LFB20
 1836 04c9 01       		.uleb128 0x1
 1837 04ca 9C       		.byte	0x9c
 1838 04cb 10       		.uleb128 0x10
 1839 04cc 91020000 		.4byte	.LASF53
 1840 04d0 01       		.byte	0x1
 1841 04d1 5204     		.2byte	0x452
 1842 04d3 00000000 		.4byte	.LFB21
 1843 04d7 18000000 		.4byte	.LFE21-.LFB21
 1844 04db 01       		.uleb128 0x1
 1845 04dc 9C       		.byte	0x9c
 1846 04dd F0040000 		.4byte	0x4f0
 1847 04e1 11       		.uleb128 0x11
 1848 04e2 D5000000 		.4byte	.LASF50
 1849 04e6 01       		.byte	0x1
 1850 04e7 5204     		.2byte	0x452
 1851 04e9 6B000000 		.4byte	0x6b
 1852 04ed 01       		.uleb128 0x1
 1853 04ee 50       		.byte	0x50
ARM GAS  C:\Users\RECEPC~1\AppData\Local\Temp\ccllYUoy.s 			page 62


 1854 04ef 00       		.byte	0
 1855 04f0 10       		.uleb128 0x10
 1856 04f1 82040000 		.4byte	.LASF54
 1857 04f5 01       		.byte	0x1
 1858 04f6 AE04     		.2byte	0x4ae
 1859 04f8 00000000 		.4byte	.LFB22
 1860 04fc 24000000 		.4byte	.LFE22-.LFB22
 1861 0500 01       		.uleb128 0x1
 1862 0501 9C       		.byte	0x9c
 1863 0502 30050000 		.4byte	0x530
 1864 0506 16       		.uleb128 0x16
 1865 0507 E0000000 		.4byte	.LASF55
 1866 050b 01       		.byte	0x1
 1867 050c AE04     		.2byte	0x4ae
 1868 050e 30050000 		.4byte	0x530
 1869 0512 A9010000 		.4byte	.LLST11
 1870 0516 14       		.uleb128 0x14
 1871 0517 76050000 		.4byte	.LASF56
 1872 051b 01       		.byte	0x1
 1873 051c B004     		.2byte	0x4b0
 1874 051e 76000000 		.4byte	0x76
 1875 0522 EB010000 		.4byte	.LLST12
 1876 0526 0E       		.uleb128 0xe
 1877 0527 10000000 		.4byte	.LVL69
 1878 052b CB040000 		.4byte	0x4cb
 1879 052f 00       		.byte	0
 1880 0530 07       		.uleb128 0x7
 1881 0531 04       		.byte	0x4
 1882 0532 36050000 		.4byte	0x536
 1883 0536 17       		.uleb128 0x17
 1884 0537 9A000000 		.4byte	0x9a
 1885 053b 10       		.uleb128 0x10
 1886 053c E7000000 		.4byte	.LASF57
 1887 0540 01       		.byte	0x1
 1888 0541 D404     		.2byte	0x4d4
 1889 0543 00000000 		.4byte	.LFB23
 1890 0547 24000000 		.4byte	.LFE23-.LFB23
 1891 054b 01       		.uleb128 0x1
 1892 054c 9C       		.byte	0x9c
 1893 054d 8B050000 		.4byte	0x58b
 1894 0551 16       		.uleb128 0x16
 1895 0552 E0000000 		.4byte	.LASF55
 1896 0556 01       		.byte	0x1
 1897 0557 D404     		.2byte	0x4d4
 1898 0559 8B050000 		.4byte	0x58b
 1899 055d 39020000 		.4byte	.LLST13
 1900 0561 16       		.uleb128 0x16
 1901 0562 4A040000 		.4byte	.LASF58
 1902 0566 01       		.byte	0x1
 1903 0567 D404     		.2byte	0x4d4
 1904 0569 6B000000 		.4byte	0x6b
 1905 056d 65020000 		.4byte	.LLST14
 1906 0571 14       		.uleb128 0x14
 1907 0572 76050000 		.4byte	.LASF56
 1908 0576 01       		.byte	0x1
 1909 0577 D704     		.2byte	0x4d7
 1910 0579 6B000000 		.4byte	0x6b
ARM GAS  C:\Users\RECEPC~1\AppData\Local\Temp\ccllYUoy.s 			page 63


 1911 057d 86020000 		.4byte	.LLST15
 1912 0581 0E       		.uleb128 0xe
 1913 0582 14000000 		.4byte	.LVL78
 1914 0586 CB040000 		.4byte	0x4cb
 1915 058a 00       		.byte	0
 1916 058b 07       		.uleb128 0x7
 1917 058c 04       		.byte	0x4
 1918 058d 91050000 		.4byte	0x591
 1919 0591 17       		.uleb128 0x17
 1920 0592 6B000000 		.4byte	0x6b
 1921 0596 10       		.uleb128 0x10
 1922 0597 93010000 		.4byte	.LASF59
 1923 059b 01       		.byte	0x1
 1924 059c F904     		.2byte	0x4f9
 1925 059e 00000000 		.4byte	.LFB24
 1926 05a2 20000000 		.4byte	.LFE24-.LFB24
 1927 05a6 01       		.uleb128 0x1
 1928 05a7 9C       		.byte	0x9c
 1929 05a8 E8050000 		.4byte	0x5e8
 1930 05ac 16       		.uleb128 0x16
 1931 05ad D5000000 		.4byte	.LASF50
 1932 05b1 01       		.byte	0x1
 1933 05b2 F904     		.2byte	0x4f9
 1934 05b4 6B000000 		.4byte	0x6b
 1935 05b8 BD020000 		.4byte	.LLST16
 1936 05bc 0E       		.uleb128 0xe
 1937 05bd 0C000000 		.4byte	.LVL84
 1938 05c1 CB040000 		.4byte	0x4cb
 1939 05c5 0A       		.uleb128 0xa
 1940 05c6 12000000 		.4byte	.LVL85
 1941 05ca CB040000 		.4byte	0x4cb
 1942 05ce D8050000 		.4byte	0x5d8
 1943 05d2 0B       		.uleb128 0xb
 1944 05d3 01       		.uleb128 0x1
 1945 05d4 50       		.byte	0x50
 1946 05d5 01       		.uleb128 0x1
 1947 05d6 3D       		.byte	0x3d
 1948 05d7 00       		.byte	0
 1949 05d8 0C       		.uleb128 0xc
 1950 05d9 18000000 		.4byte	.LVL86
 1951 05dd CB040000 		.4byte	0x4cb
 1952 05e1 0B       		.uleb128 0xb
 1953 05e2 01       		.uleb128 0x1
 1954 05e3 50       		.byte	0x50
 1955 05e4 01       		.uleb128 0x1
 1956 05e5 3A       		.byte	0x3a
 1957 05e6 00       		.byte	0
 1958 05e7 00       		.byte	0
 1959 05e8 13       		.uleb128 0x13
 1960 05e9 2A000000 		.4byte	.LASF60
 1961 05ed 01       		.byte	0x1
 1962 05ee 1E05     		.2byte	0x51e
 1963 05f0 6B000000 		.4byte	0x6b
 1964 05f4 00000000 		.4byte	.LFB25
 1965 05f8 24000000 		.4byte	.LFE25-.LFB25
 1966 05fc 01       		.uleb128 0x1
 1967 05fd 9C       		.byte	0x9c
ARM GAS  C:\Users\RECEPC~1\AppData\Local\Temp\ccllYUoy.s 			page 64


 1968 05fe 13060000 		.4byte	0x613
 1969 0602 14       		.uleb128 0x14
 1970 0603 21030000 		.4byte	.LASF41
 1971 0607 01       		.byte	0x1
 1972 0608 2105     		.2byte	0x521
 1973 060a 6B000000 		.4byte	0x6b
 1974 060e DE020000 		.4byte	.LLST17
 1975 0612 00       		.byte	0
 1976 0613 10       		.uleb128 0x10
 1977 0614 97030000 		.4byte	.LASF61
 1978 0618 01       		.byte	0x1
 1979 0619 7405     		.2byte	0x574
 1980 061b 00000000 		.4byte	.LFB26
 1981 061f 24000000 		.4byte	.LFE26-.LFB26
 1982 0623 01       		.uleb128 0x1
 1983 0624 9C       		.byte	0x9c
 1984 0625 4C060000 		.4byte	0x64c
 1985 0629 14       		.uleb128 0x14
 1986 062a 1F050000 		.4byte	.LASF27
 1987 062e 01       		.byte	0x1
 1988 062f 7605     		.2byte	0x576
 1989 0631 6B000000 		.4byte	0x6b
 1990 0635 FC020000 		.4byte	.LLST18
 1991 0639 0E       		.uleb128 0xe
 1992 063a 06000000 		.4byte	.LVL89
 1993 063e 6F070000 		.4byte	0x76f
 1994 0642 0E       		.uleb128 0xe
 1995 0643 1C000000 		.4byte	.LVL90
 1996 0647 7A070000 		.4byte	0x77a
 1997 064b 00       		.byte	0
 1998 064c 10       		.uleb128 0x10
 1999 064d 71010000 		.4byte	.LASF62
 2000 0651 01       		.byte	0x1
 2001 0652 CD05     		.2byte	0x5cd
 2002 0654 00000000 		.4byte	.LFB27
 2003 0658 58000000 		.4byte	.LFE27-.LFB27
 2004 065c 01       		.uleb128 0x1
 2005 065d 9C       		.byte	0x9c
 2006 065e 9F060000 		.4byte	0x69f
 2007 0662 16       		.uleb128 0x16
 2008 0663 43020000 		.4byte	.LASF63
 2009 0667 01       		.byte	0x1
 2010 0668 CD05     		.2byte	0x5cd
 2011 066a 6B000000 		.4byte	0x6b
 2012 066e 0F030000 		.4byte	.LLST19
 2013 0672 18       		.uleb128 0x18
 2014 0673 06000000 		.4byte	.LBB2
 2015 0677 52000000 		.4byte	.LBE2-.LBB2
 2016 067b 14       		.uleb128 0x14
 2017 067c 70030000 		.4byte	.LASF64
 2018 0680 01       		.byte	0x1
 2019 0681 D505     		.2byte	0x5d5
 2020 0683 6B000000 		.4byte	0x6b
 2021 0687 30030000 		.4byte	.LLST20
 2022 068b 15       		.uleb128 0x15
 2023 068c 59030000 		.4byte	.LASF65
 2024 0690 01       		.byte	0x1
ARM GAS  C:\Users\RECEPC~1\AppData\Local\Temp\ccllYUoy.s 			page 65


 2025 0691 FB05     		.2byte	0x5fb
 2026 0693 6B000000 		.4byte	0x6b
 2027 0697 05       		.uleb128 0x5
 2028 0698 03       		.byte	0x3
 2029 0699 08000000 		.4byte	tx_period.4996
 2030 069d 00       		.byte	0
 2031 069e 00       		.byte	0
 2032 069f 10       		.uleb128 0x10
 2033 06a0 57010000 		.4byte	.LASF66
 2034 06a4 01       		.byte	0x1
 2035 06a5 4606     		.2byte	0x646
 2036 06a7 00000000 		.4byte	.LFB28
 2037 06ab 02000000 		.4byte	.LFE28-.LFB28
 2038 06af 01       		.uleb128 0x1
 2039 06b0 9C       		.byte	0x9c
 2040 06b1 C4060000 		.4byte	0x6c4
 2041 06b5 11       		.uleb128 0x11
 2042 06b6 AB010000 		.4byte	.LASF44
 2043 06ba 01       		.byte	0x1
 2044 06bb 4606     		.2byte	0x646
 2045 06bd 6B000000 		.4byte	0x6b
 2046 06c1 01       		.uleb128 0x1
 2047 06c2 50       		.byte	0x50
 2048 06c3 00       		.byte	0
 2049 06c4 19       		.uleb128 0x19
 2050 06c5 8E050000 		.4byte	.LASF67
 2051 06c9 01       		.byte	0x1
 2052 06ca 1C       		.byte	0x1c
 2053 06cb 6B000000 		.4byte	0x6b
 2054 06cf 05       		.uleb128 0x5
 2055 06d0 03       		.byte	0x3
 2056 06d1 00000000 		.4byte	Surtidor_initVar
 2057 06d5 1A       		.uleb128 0x1a
 2058 06d6 6B000000 		.4byte	0x6b
 2059 06da E5060000 		.4byte	0x6e5
 2060 06de 1B       		.uleb128 0x1b
 2061 06df E6000000 		.4byte	0xe6
 2062 06e3 FF       		.byte	0xff
 2063 06e4 00       		.byte	0
 2064 06e5 19       		.uleb128 0x19
 2065 06e6 31020000 		.4byte	.LASF68
 2066 06ea 01       		.byte	0x1
 2067 06eb 24       		.byte	0x24
 2068 06ec F6060000 		.4byte	0x6f6
 2069 06f0 05       		.uleb128 0x5
 2070 06f1 03       		.byte	0x3
 2071 06f2 00000000 		.4byte	Surtidor_rxBuffer
 2072 06f6 06       		.uleb128 0x6
 2073 06f7 D5060000 		.4byte	0x6d5
 2074 06fb 19       		.uleb128 0x19
 2075 06fc B5040000 		.4byte	.LASF69
 2076 0700 01       		.byte	0x1
 2077 0701 25       		.byte	0x25
 2078 0702 BD000000 		.4byte	0xbd
 2079 0706 05       		.uleb128 0x5
 2080 0707 03       		.byte	0x3
 2081 0708 00000000 		.4byte	Surtidor_rxBufferRead
ARM GAS  C:\Users\RECEPC~1\AppData\Local\Temp\ccllYUoy.s 			page 66


 2082 070c 19       		.uleb128 0x19
 2083 070d 26010000 		.4byte	.LASF70
 2084 0711 01       		.byte	0x1
 2085 0712 26       		.byte	0x26
 2086 0713 BD000000 		.4byte	0xbd
 2087 0717 05       		.uleb128 0x5
 2088 0718 03       		.byte	0x3
 2089 0719 00000000 		.4byte	Surtidor_rxBufferWrite
 2090 071d 19       		.uleb128 0x19
 2091 071e D4030000 		.4byte	.LASF71
 2092 0722 01       		.byte	0x1
 2093 0723 27       		.byte	0x27
 2094 0724 B8000000 		.4byte	0xb8
 2095 0728 05       		.uleb128 0x5
 2096 0729 03       		.byte	0x3
 2097 072a 00000000 		.4byte	Surtidor_rxBufferLoopDetect
 2098 072e 19       		.uleb128 0x19
 2099 072f 05050000 		.4byte	.LASF72
 2100 0733 01       		.byte	0x1
 2101 0734 28       		.byte	0x28
 2102 0735 B8000000 		.4byte	0xb8
 2103 0739 05       		.uleb128 0x5
 2104 073a 03       		.byte	0x3
 2105 073b 00000000 		.4byte	Surtidor_rxBufferOverflow
 2106 073f 1C       		.uleb128 0x1c
 2107 0740 39030000 		.4byte	.LASF76
 2108 0744 03       		.byte	0x3
 2109 0745 89       		.byte	0x89
 2110 0746 D3000000 		.4byte	0xd3
 2111 074a 59070000 		.4byte	0x759
 2112 074e 1D       		.uleb128 0x1d
 2113 074f 6B000000 		.4byte	0x6b
 2114 0753 1D       		.uleb128 0x1d
 2115 0754 D3000000 		.4byte	0xd3
 2116 0758 00       		.byte	0
 2117 0759 1E       		.uleb128 0x1e
 2118 075a 07040000 		.4byte	.LASF77
 2119 075e 03       		.byte	0x3
 2120 075f 8C       		.byte	0x8c
 2121 0760 6F070000 		.4byte	0x76f
 2122 0764 1D       		.uleb128 0x1d
 2123 0765 6B000000 		.4byte	0x6b
 2124 0769 1D       		.uleb128 0x1d
 2125 076a 6B000000 		.4byte	0x6b
 2126 076e 00       		.byte	0
 2127 076f 1F       		.uleb128 0x1f
 2128 0770 F0020000 		.4byte	.LASF78
 2129 0774 03       		.byte	0x3
 2130 0775 7E       		.byte	0x7e
 2131 0776 6B000000 		.4byte	0x6b
 2132 077a 20       		.uleb128 0x20
 2133 077b 43000000 		.4byte	.LASF79
 2134 077f 03       		.byte	0x3
 2135 0780 7F       		.byte	0x7f
 2136 0781 1D       		.uleb128 0x1d
 2137 0782 6B000000 		.4byte	0x6b
 2138 0786 00       		.byte	0
ARM GAS  C:\Users\RECEPC~1\AppData\Local\Temp\ccllYUoy.s 			page 67


 2139 0787 00       		.byte	0
 2140              		.section	.debug_abbrev,"",%progbits
 2141              	.Ldebug_abbrev0:
 2142 0000 01       		.uleb128 0x1
 2143 0001 11       		.uleb128 0x11
 2144 0002 01       		.byte	0x1
 2145 0003 25       		.uleb128 0x25
 2146 0004 0E       		.uleb128 0xe
 2147 0005 13       		.uleb128 0x13
 2148 0006 0B       		.uleb128 0xb
 2149 0007 03       		.uleb128 0x3
 2150 0008 0E       		.uleb128 0xe
 2151 0009 1B       		.uleb128 0x1b
 2152 000a 0E       		.uleb128 0xe
 2153 000b 55       		.uleb128 0x55
 2154 000c 17       		.uleb128 0x17
 2155 000d 11       		.uleb128 0x11
 2156 000e 01       		.uleb128 0x1
 2157 000f 10       		.uleb128 0x10
 2158 0010 17       		.uleb128 0x17
 2159 0011 00       		.byte	0
 2160 0012 00       		.byte	0
 2161 0013 02       		.uleb128 0x2
 2162 0014 24       		.uleb128 0x24
 2163 0015 00       		.byte	0
 2164 0016 0B       		.uleb128 0xb
 2165 0017 0B       		.uleb128 0xb
 2166 0018 3E       		.uleb128 0x3e
 2167 0019 0B       		.uleb128 0xb
 2168 001a 03       		.uleb128 0x3
 2169 001b 0E       		.uleb128 0xe
 2170 001c 00       		.byte	0
 2171 001d 00       		.byte	0
 2172 001e 03       		.uleb128 0x3
 2173 001f 24       		.uleb128 0x24
 2174 0020 00       		.byte	0
 2175 0021 0B       		.uleb128 0xb
 2176 0022 0B       		.uleb128 0xb
 2177 0023 3E       		.uleb128 0x3e
 2178 0024 0B       		.uleb128 0xb
 2179 0025 03       		.uleb128 0x3
 2180 0026 08       		.uleb128 0x8
 2181 0027 00       		.byte	0
 2182 0028 00       		.byte	0
 2183 0029 04       		.uleb128 0x4
 2184 002a 16       		.uleb128 0x16
 2185 002b 00       		.byte	0
 2186 002c 03       		.uleb128 0x3
 2187 002d 0E       		.uleb128 0xe
 2188 002e 3A       		.uleb128 0x3a
 2189 002f 0B       		.uleb128 0xb
 2190 0030 3B       		.uleb128 0x3b
 2191 0031 0B       		.uleb128 0xb
 2192 0032 49       		.uleb128 0x49
 2193 0033 13       		.uleb128 0x13
 2194 0034 00       		.byte	0
 2195 0035 00       		.byte	0
ARM GAS  C:\Users\RECEPC~1\AppData\Local\Temp\ccllYUoy.s 			page 68


 2196 0036 05       		.uleb128 0x5
 2197 0037 16       		.uleb128 0x16
 2198 0038 00       		.byte	0
 2199 0039 03       		.uleb128 0x3
 2200 003a 0E       		.uleb128 0xe
 2201 003b 3A       		.uleb128 0x3a
 2202 003c 0B       		.uleb128 0xb
 2203 003d 3B       		.uleb128 0x3b
 2204 003e 05       		.uleb128 0x5
 2205 003f 49       		.uleb128 0x49
 2206 0040 13       		.uleb128 0x13
 2207 0041 00       		.byte	0
 2208 0042 00       		.byte	0
 2209 0043 06       		.uleb128 0x6
 2210 0044 35       		.uleb128 0x35
 2211 0045 00       		.byte	0
 2212 0046 49       		.uleb128 0x49
 2213 0047 13       		.uleb128 0x13
 2214 0048 00       		.byte	0
 2215 0049 00       		.byte	0
 2216 004a 07       		.uleb128 0x7
 2217 004b 0F       		.uleb128 0xf
 2218 004c 00       		.byte	0
 2219 004d 0B       		.uleb128 0xb
 2220 004e 0B       		.uleb128 0xb
 2221 004f 49       		.uleb128 0x49
 2222 0050 13       		.uleb128 0x13
 2223 0051 00       		.byte	0
 2224 0052 00       		.byte	0
 2225 0053 08       		.uleb128 0x8
 2226 0054 15       		.uleb128 0x15
 2227 0055 00       		.byte	0
 2228 0056 27       		.uleb128 0x27
 2229 0057 19       		.uleb128 0x19
 2230 0058 00       		.byte	0
 2231 0059 00       		.byte	0
 2232 005a 09       		.uleb128 0x9
 2233 005b 2E       		.uleb128 0x2e
 2234 005c 01       		.byte	0x1
 2235 005d 3F       		.uleb128 0x3f
 2236 005e 19       		.uleb128 0x19
 2237 005f 03       		.uleb128 0x3
 2238 0060 0E       		.uleb128 0xe
 2239 0061 3A       		.uleb128 0x3a
 2240 0062 0B       		.uleb128 0xb
 2241 0063 3B       		.uleb128 0x3b
 2242 0064 0B       		.uleb128 0xb
 2243 0065 27       		.uleb128 0x27
 2244 0066 19       		.uleb128 0x19
 2245 0067 11       		.uleb128 0x11
 2246 0068 01       		.uleb128 0x1
 2247 0069 12       		.uleb128 0x12
 2248 006a 06       		.uleb128 0x6
 2249 006b 40       		.uleb128 0x40
 2250 006c 18       		.uleb128 0x18
 2251 006d 9742     		.uleb128 0x2117
 2252 006f 19       		.uleb128 0x19
ARM GAS  C:\Users\RECEPC~1\AppData\Local\Temp\ccllYUoy.s 			page 69


 2253 0070 01       		.uleb128 0x1
 2254 0071 13       		.uleb128 0x13
 2255 0072 00       		.byte	0
 2256 0073 00       		.byte	0
 2257 0074 0A       		.uleb128 0xa
 2258 0075 898201   		.uleb128 0x4109
 2259 0078 01       		.byte	0x1
 2260 0079 11       		.uleb128 0x11
 2261 007a 01       		.uleb128 0x1
 2262 007b 31       		.uleb128 0x31
 2263 007c 13       		.uleb128 0x13
 2264 007d 01       		.uleb128 0x1
 2265 007e 13       		.uleb128 0x13
 2266 007f 00       		.byte	0
 2267 0080 00       		.byte	0
 2268 0081 0B       		.uleb128 0xb
 2269 0082 8A8201   		.uleb128 0x410a
 2270 0085 00       		.byte	0
 2271 0086 02       		.uleb128 0x2
 2272 0087 18       		.uleb128 0x18
 2273 0088 9142     		.uleb128 0x2111
 2274 008a 18       		.uleb128 0x18
 2275 008b 00       		.byte	0
 2276 008c 00       		.byte	0
 2277 008d 0C       		.uleb128 0xc
 2278 008e 898201   		.uleb128 0x4109
 2279 0091 01       		.byte	0x1
 2280 0092 11       		.uleb128 0x11
 2281 0093 01       		.uleb128 0x1
 2282 0094 31       		.uleb128 0x31
 2283 0095 13       		.uleb128 0x13
 2284 0096 00       		.byte	0
 2285 0097 00       		.byte	0
 2286 0098 0D       		.uleb128 0xd
 2287 0099 34       		.uleb128 0x34
 2288 009a 00       		.byte	0
 2289 009b 03       		.uleb128 0x3
 2290 009c 0E       		.uleb128 0xe
 2291 009d 3A       		.uleb128 0x3a
 2292 009e 0B       		.uleb128 0xb
 2293 009f 3B       		.uleb128 0x3b
 2294 00a0 0B       		.uleb128 0xb
 2295 00a1 49       		.uleb128 0x49
 2296 00a2 13       		.uleb128 0x13
 2297 00a3 02       		.uleb128 0x2
 2298 00a4 17       		.uleb128 0x17
 2299 00a5 00       		.byte	0
 2300 00a6 00       		.byte	0
 2301 00a7 0E       		.uleb128 0xe
 2302 00a8 898201   		.uleb128 0x4109
 2303 00ab 00       		.byte	0
 2304 00ac 11       		.uleb128 0x11
 2305 00ad 01       		.uleb128 0x1
 2306 00ae 31       		.uleb128 0x31
 2307 00af 13       		.uleb128 0x13
 2308 00b0 00       		.byte	0
 2309 00b1 00       		.byte	0
ARM GAS  C:\Users\RECEPC~1\AppData\Local\Temp\ccllYUoy.s 			page 70


 2310 00b2 0F       		.uleb128 0xf
 2311 00b3 2E       		.uleb128 0x2e
 2312 00b4 00       		.byte	0
 2313 00b5 3F       		.uleb128 0x3f
 2314 00b6 19       		.uleb128 0x19
 2315 00b7 03       		.uleb128 0x3
 2316 00b8 0E       		.uleb128 0xe
 2317 00b9 3A       		.uleb128 0x3a
 2318 00ba 0B       		.uleb128 0xb
 2319 00bb 3B       		.uleb128 0x3b
 2320 00bc 05       		.uleb128 0x5
 2321 00bd 27       		.uleb128 0x27
 2322 00be 19       		.uleb128 0x19
 2323 00bf 49       		.uleb128 0x49
 2324 00c0 13       		.uleb128 0x13
 2325 00c1 11       		.uleb128 0x11
 2326 00c2 01       		.uleb128 0x1
 2327 00c3 12       		.uleb128 0x12
 2328 00c4 06       		.uleb128 0x6
 2329 00c5 40       		.uleb128 0x40
 2330 00c6 18       		.uleb128 0x18
 2331 00c7 9742     		.uleb128 0x2117
 2332 00c9 19       		.uleb128 0x19
 2333 00ca 00       		.byte	0
 2334 00cb 00       		.byte	0
 2335 00cc 10       		.uleb128 0x10
 2336 00cd 2E       		.uleb128 0x2e
 2337 00ce 01       		.byte	0x1
 2338 00cf 3F       		.uleb128 0x3f
 2339 00d0 19       		.uleb128 0x19
 2340 00d1 03       		.uleb128 0x3
 2341 00d2 0E       		.uleb128 0xe
 2342 00d3 3A       		.uleb128 0x3a
 2343 00d4 0B       		.uleb128 0xb
 2344 00d5 3B       		.uleb128 0x3b
 2345 00d6 05       		.uleb128 0x5
 2346 00d7 27       		.uleb128 0x27
 2347 00d8 19       		.uleb128 0x19
 2348 00d9 11       		.uleb128 0x11
 2349 00da 01       		.uleb128 0x1
 2350 00db 12       		.uleb128 0x12
 2351 00dc 06       		.uleb128 0x6
 2352 00dd 40       		.uleb128 0x40
 2353 00de 18       		.uleb128 0x18
 2354 00df 9742     		.uleb128 0x2117
 2355 00e1 19       		.uleb128 0x19
 2356 00e2 01       		.uleb128 0x1
 2357 00e3 13       		.uleb128 0x13
 2358 00e4 00       		.byte	0
 2359 00e5 00       		.byte	0
 2360 00e6 11       		.uleb128 0x11
 2361 00e7 05       		.uleb128 0x5
 2362 00e8 00       		.byte	0
 2363 00e9 03       		.uleb128 0x3
 2364 00ea 0E       		.uleb128 0xe
 2365 00eb 3A       		.uleb128 0x3a
 2366 00ec 0B       		.uleb128 0xb
ARM GAS  C:\Users\RECEPC~1\AppData\Local\Temp\ccllYUoy.s 			page 71


 2367 00ed 3B       		.uleb128 0x3b
 2368 00ee 05       		.uleb128 0x5
 2369 00ef 49       		.uleb128 0x49
 2370 00f0 13       		.uleb128 0x13
 2371 00f1 02       		.uleb128 0x2
 2372 00f2 18       		.uleb128 0x18
 2373 00f3 00       		.byte	0
 2374 00f4 00       		.byte	0
 2375 00f5 12       		.uleb128 0x12
 2376 00f6 2E       		.uleb128 0x2e
 2377 00f7 00       		.byte	0
 2378 00f8 3F       		.uleb128 0x3f
 2379 00f9 19       		.uleb128 0x19
 2380 00fa 03       		.uleb128 0x3
 2381 00fb 0E       		.uleb128 0xe
 2382 00fc 3A       		.uleb128 0x3a
 2383 00fd 0B       		.uleb128 0xb
 2384 00fe 3B       		.uleb128 0x3b
 2385 00ff 05       		.uleb128 0x5
 2386 0100 27       		.uleb128 0x27
 2387 0101 19       		.uleb128 0x19
 2388 0102 11       		.uleb128 0x11
 2389 0103 01       		.uleb128 0x1
 2390 0104 12       		.uleb128 0x12
 2391 0105 06       		.uleb128 0x6
 2392 0106 40       		.uleb128 0x40
 2393 0107 18       		.uleb128 0x18
 2394 0108 9742     		.uleb128 0x2117
 2395 010a 19       		.uleb128 0x19
 2396 010b 00       		.byte	0
 2397 010c 00       		.byte	0
 2398 010d 13       		.uleb128 0x13
 2399 010e 2E       		.uleb128 0x2e
 2400 010f 01       		.byte	0x1
 2401 0110 3F       		.uleb128 0x3f
 2402 0111 19       		.uleb128 0x19
 2403 0112 03       		.uleb128 0x3
 2404 0113 0E       		.uleb128 0xe
 2405 0114 3A       		.uleb128 0x3a
 2406 0115 0B       		.uleb128 0xb
 2407 0116 3B       		.uleb128 0x3b
 2408 0117 05       		.uleb128 0x5
 2409 0118 27       		.uleb128 0x27
 2410 0119 19       		.uleb128 0x19
 2411 011a 49       		.uleb128 0x49
 2412 011b 13       		.uleb128 0x13
 2413 011c 11       		.uleb128 0x11
 2414 011d 01       		.uleb128 0x1
 2415 011e 12       		.uleb128 0x12
 2416 011f 06       		.uleb128 0x6
 2417 0120 40       		.uleb128 0x40
 2418 0121 18       		.uleb128 0x18
 2419 0122 9742     		.uleb128 0x2117
 2420 0124 19       		.uleb128 0x19
 2421 0125 01       		.uleb128 0x1
 2422 0126 13       		.uleb128 0x13
 2423 0127 00       		.byte	0
ARM GAS  C:\Users\RECEPC~1\AppData\Local\Temp\ccllYUoy.s 			page 72


 2424 0128 00       		.byte	0
 2425 0129 14       		.uleb128 0x14
 2426 012a 34       		.uleb128 0x34
 2427 012b 00       		.byte	0
 2428 012c 03       		.uleb128 0x3
 2429 012d 0E       		.uleb128 0xe
 2430 012e 3A       		.uleb128 0x3a
 2431 012f 0B       		.uleb128 0xb
 2432 0130 3B       		.uleb128 0x3b
 2433 0131 05       		.uleb128 0x5
 2434 0132 49       		.uleb128 0x49
 2435 0133 13       		.uleb128 0x13
 2436 0134 02       		.uleb128 0x2
 2437 0135 17       		.uleb128 0x17
 2438 0136 00       		.byte	0
 2439 0137 00       		.byte	0
 2440 0138 15       		.uleb128 0x15
 2441 0139 34       		.uleb128 0x34
 2442 013a 00       		.byte	0
 2443 013b 03       		.uleb128 0x3
 2444 013c 0E       		.uleb128 0xe
 2445 013d 3A       		.uleb128 0x3a
 2446 013e 0B       		.uleb128 0xb
 2447 013f 3B       		.uleb128 0x3b
 2448 0140 05       		.uleb128 0x5
 2449 0141 49       		.uleb128 0x49
 2450 0142 13       		.uleb128 0x13
 2451 0143 02       		.uleb128 0x2
 2452 0144 18       		.uleb128 0x18
 2453 0145 00       		.byte	0
 2454 0146 00       		.byte	0
 2455 0147 16       		.uleb128 0x16
 2456 0148 05       		.uleb128 0x5
 2457 0149 00       		.byte	0
 2458 014a 03       		.uleb128 0x3
 2459 014b 0E       		.uleb128 0xe
 2460 014c 3A       		.uleb128 0x3a
 2461 014d 0B       		.uleb128 0xb
 2462 014e 3B       		.uleb128 0x3b
 2463 014f 05       		.uleb128 0x5
 2464 0150 49       		.uleb128 0x49
 2465 0151 13       		.uleb128 0x13
 2466 0152 02       		.uleb128 0x2
 2467 0153 17       		.uleb128 0x17
 2468 0154 00       		.byte	0
 2469 0155 00       		.byte	0
 2470 0156 17       		.uleb128 0x17
 2471 0157 26       		.uleb128 0x26
 2472 0158 00       		.byte	0
 2473 0159 49       		.uleb128 0x49
 2474 015a 13       		.uleb128 0x13
 2475 015b 00       		.byte	0
 2476 015c 00       		.byte	0
 2477 015d 18       		.uleb128 0x18
 2478 015e 0B       		.uleb128 0xb
 2479 015f 01       		.byte	0x1
 2480 0160 11       		.uleb128 0x11
ARM GAS  C:\Users\RECEPC~1\AppData\Local\Temp\ccllYUoy.s 			page 73


 2481 0161 01       		.uleb128 0x1
 2482 0162 12       		.uleb128 0x12
 2483 0163 06       		.uleb128 0x6
 2484 0164 00       		.byte	0
 2485 0165 00       		.byte	0
 2486 0166 19       		.uleb128 0x19
 2487 0167 34       		.uleb128 0x34
 2488 0168 00       		.byte	0
 2489 0169 03       		.uleb128 0x3
 2490 016a 0E       		.uleb128 0xe
 2491 016b 3A       		.uleb128 0x3a
 2492 016c 0B       		.uleb128 0xb
 2493 016d 3B       		.uleb128 0x3b
 2494 016e 0B       		.uleb128 0xb
 2495 016f 49       		.uleb128 0x49
 2496 0170 13       		.uleb128 0x13
 2497 0171 3F       		.uleb128 0x3f
 2498 0172 19       		.uleb128 0x19
 2499 0173 02       		.uleb128 0x2
 2500 0174 18       		.uleb128 0x18
 2501 0175 00       		.byte	0
 2502 0176 00       		.byte	0
 2503 0177 1A       		.uleb128 0x1a
 2504 0178 01       		.uleb128 0x1
 2505 0179 01       		.byte	0x1
 2506 017a 49       		.uleb128 0x49
 2507 017b 13       		.uleb128 0x13
 2508 017c 01       		.uleb128 0x1
 2509 017d 13       		.uleb128 0x13
 2510 017e 00       		.byte	0
 2511 017f 00       		.byte	0
 2512 0180 1B       		.uleb128 0x1b
 2513 0181 21       		.uleb128 0x21
 2514 0182 00       		.byte	0
 2515 0183 49       		.uleb128 0x49
 2516 0184 13       		.uleb128 0x13
 2517 0185 2F       		.uleb128 0x2f
 2518 0186 0B       		.uleb128 0xb
 2519 0187 00       		.byte	0
 2520 0188 00       		.byte	0
 2521 0189 1C       		.uleb128 0x1c
 2522 018a 2E       		.uleb128 0x2e
 2523 018b 01       		.byte	0x1
 2524 018c 3F       		.uleb128 0x3f
 2525 018d 19       		.uleb128 0x19
 2526 018e 03       		.uleb128 0x3
 2527 018f 0E       		.uleb128 0xe
 2528 0190 3A       		.uleb128 0x3a
 2529 0191 0B       		.uleb128 0xb
 2530 0192 3B       		.uleb128 0x3b
 2531 0193 0B       		.uleb128 0xb
 2532 0194 27       		.uleb128 0x27
 2533 0195 19       		.uleb128 0x19
 2534 0196 49       		.uleb128 0x49
 2535 0197 13       		.uleb128 0x13
 2536 0198 3C       		.uleb128 0x3c
 2537 0199 19       		.uleb128 0x19
ARM GAS  C:\Users\RECEPC~1\AppData\Local\Temp\ccllYUoy.s 			page 74


 2538 019a 01       		.uleb128 0x1
 2539 019b 13       		.uleb128 0x13
 2540 019c 00       		.byte	0
 2541 019d 00       		.byte	0
 2542 019e 1D       		.uleb128 0x1d
 2543 019f 05       		.uleb128 0x5
 2544 01a0 00       		.byte	0
 2545 01a1 49       		.uleb128 0x49
 2546 01a2 13       		.uleb128 0x13
 2547 01a3 00       		.byte	0
 2548 01a4 00       		.byte	0
 2549 01a5 1E       		.uleb128 0x1e
 2550 01a6 2E       		.uleb128 0x2e
 2551 01a7 01       		.byte	0x1
 2552 01a8 3F       		.uleb128 0x3f
 2553 01a9 19       		.uleb128 0x19
 2554 01aa 03       		.uleb128 0x3
 2555 01ab 0E       		.uleb128 0xe
 2556 01ac 3A       		.uleb128 0x3a
 2557 01ad 0B       		.uleb128 0xb
 2558 01ae 3B       		.uleb128 0x3b
 2559 01af 0B       		.uleb128 0xb
 2560 01b0 27       		.uleb128 0x27
 2561 01b1 19       		.uleb128 0x19
 2562 01b2 3C       		.uleb128 0x3c
 2563 01b3 19       		.uleb128 0x19
 2564 01b4 01       		.uleb128 0x1
 2565 01b5 13       		.uleb128 0x13
 2566 01b6 00       		.byte	0
 2567 01b7 00       		.byte	0
 2568 01b8 1F       		.uleb128 0x1f
 2569 01b9 2E       		.uleb128 0x2e
 2570 01ba 00       		.byte	0
 2571 01bb 3F       		.uleb128 0x3f
 2572 01bc 19       		.uleb128 0x19
 2573 01bd 03       		.uleb128 0x3
 2574 01be 0E       		.uleb128 0xe
 2575 01bf 3A       		.uleb128 0x3a
 2576 01c0 0B       		.uleb128 0xb
 2577 01c1 3B       		.uleb128 0x3b
 2578 01c2 0B       		.uleb128 0xb
 2579 01c3 27       		.uleb128 0x27
 2580 01c4 19       		.uleb128 0x19
 2581 01c5 49       		.uleb128 0x49
 2582 01c6 13       		.uleb128 0x13
 2583 01c7 3C       		.uleb128 0x3c
 2584 01c8 19       		.uleb128 0x19
 2585 01c9 00       		.byte	0
 2586 01ca 00       		.byte	0
 2587 01cb 20       		.uleb128 0x20
 2588 01cc 2E       		.uleb128 0x2e
 2589 01cd 01       		.byte	0x1
 2590 01ce 3F       		.uleb128 0x3f
 2591 01cf 19       		.uleb128 0x19
 2592 01d0 03       		.uleb128 0x3
 2593 01d1 0E       		.uleb128 0xe
 2594 01d2 3A       		.uleb128 0x3a
ARM GAS  C:\Users\RECEPC~1\AppData\Local\Temp\ccllYUoy.s 			page 75


 2595 01d3 0B       		.uleb128 0xb
 2596 01d4 3B       		.uleb128 0x3b
 2597 01d5 0B       		.uleb128 0xb
 2598 01d6 27       		.uleb128 0x27
 2599 01d7 19       		.uleb128 0x19
 2600 01d8 3C       		.uleb128 0x3c
 2601 01d9 19       		.uleb128 0x19
 2602 01da 00       		.byte	0
 2603 01db 00       		.byte	0
 2604 01dc 00       		.byte	0
 2605              		.section	.debug_loc,"",%progbits
 2606              	.Ldebug_loc0:
 2607              	.LLST0:
 2608 0000 06000000 		.4byte	.LVL2
 2609 0004 2D000000 		.4byte	.LVL3-1
 2610 0008 0100     		.2byte	0x1
 2611 000a 50       		.byte	0x50
 2612 000b 00000000 		.4byte	0
 2613 000f 00000000 		.4byte	0
 2614              	.LLST1:
 2615 0013 08000000 		.4byte	.LVL8
 2616 0017 1F000000 		.4byte	.LVL9-1
 2617 001b 0100     		.2byte	0x1
 2618 001d 50       		.byte	0x50
 2619 001e 1F000000 		.4byte	.LVL9-1
 2620 0022 32000000 		.4byte	.LVL11
 2621 0026 0100     		.2byte	0x1
 2622 0028 54       		.byte	0x54
 2623 0029 00000000 		.4byte	0
 2624 002d 00000000 		.4byte	0
 2625              	.LLST2:
 2626 0031 22000000 		.4byte	.LVL16
 2627 0035 40000000 		.4byte	.LVL21
 2628 0039 0100     		.2byte	0x1
 2629 003b 54       		.byte	0x54
 2630 003c 46000000 		.4byte	.LVL22
 2631 0040 4E000000 		.4byte	.LVL24
 2632 0044 0100     		.2byte	0x1
 2633 0046 54       		.byte	0x54
 2634 0047 4E000000 		.4byte	.LVL24
 2635 004b 5C000000 		.4byte	.LFE9
 2636 004f 0100     		.2byte	0x1
 2637 0051 50       		.byte	0x50
 2638 0052 00000000 		.4byte	0
 2639 0056 00000000 		.4byte	0
 2640              	.LLST3:
 2641 005a 0C000000 		.4byte	.LVL14
 2642 005e 24000000 		.4byte	.LVL17
 2643 0062 0100     		.2byte	0x1
 2644 0064 52       		.byte	0x52
 2645 0065 24000000 		.4byte	.LVL17
 2646 0069 26000000 		.4byte	.LVL18
 2647 006d 0300     		.2byte	0x3
 2648 006f 72       		.byte	0x72
 2649 0070 7F       		.sleb128 -1
 2650 0071 9F       		.byte	0x9f
 2651 0072 26000000 		.4byte	.LVL18
ARM GAS  C:\Users\RECEPC~1\AppData\Local\Temp\ccllYUoy.s 			page 76


 2652 0076 3A000000 		.4byte	.LVL20
 2653 007a 0100     		.2byte	0x1
 2654 007c 52       		.byte	0x52
 2655 007d 40000000 		.4byte	.LVL21
 2656 0081 46000000 		.4byte	.LVL22
 2657 0085 0100     		.2byte	0x1
 2658 0087 52       		.byte	0x52
 2659 0088 00000000 		.4byte	0
 2660 008c 00000000 		.4byte	0
 2661              	.LLST4:
 2662 0090 10000000 		.4byte	.LVL15
 2663 0094 49000000 		.4byte	.LVL23-1
 2664 0098 0100     		.2byte	0x1
 2665 009a 51       		.byte	0x51
 2666 009b 00000000 		.4byte	0
 2667 009f 00000000 		.4byte	0
 2668              	.LLST5:
 2669 00a3 02000000 		.4byte	.LVL28
 2670 00a7 22000000 		.4byte	.LVL32
 2671 00ab 0200     		.2byte	0x2
 2672 00ad 30       		.byte	0x30
 2673 00ae 9F       		.byte	0x9f
 2674 00af 22000000 		.4byte	.LVL32
 2675 00b3 40000000 		.4byte	.LVL37
 2676 00b7 0100     		.2byte	0x1
 2677 00b9 54       		.byte	0x54
 2678 00ba 40000000 		.4byte	.LVL37
 2679 00be 52000000 		.4byte	.LVL40
 2680 00c2 0200     		.2byte	0x2
 2681 00c4 30       		.byte	0x30
 2682 00c5 9F       		.byte	0x9f
 2683 00c6 52000000 		.4byte	.LVL40
 2684 00ca 5A000000 		.4byte	.LVL41
 2685 00ce 0100     		.2byte	0x1
 2686 00d0 54       		.byte	0x54
 2687 00d1 5A000000 		.4byte	.LVL41
 2688 00d5 5E000000 		.4byte	.LVL42
 2689 00d9 0200     		.2byte	0x2
 2690 00db 30       		.byte	0x30
 2691 00dc 9F       		.byte	0x9f
 2692 00dd 5E000000 		.4byte	.LVL42
 2693 00e1 68000000 		.4byte	.LVL45
 2694 00e5 0100     		.2byte	0x1
 2695 00e7 54       		.byte	0x54
 2696 00e8 68000000 		.4byte	.LVL45
 2697 00ec 78000000 		.4byte	.LFE11
 2698 00f0 0100     		.2byte	0x1
 2699 00f2 50       		.byte	0x50
 2700 00f3 00000000 		.4byte	0
 2701 00f7 00000000 		.4byte	0
 2702              	.LLST6:
 2703 00fb 46000000 		.4byte	.LVL38
 2704 00ff 60000000 		.4byte	.LVL43
 2705 0103 0100     		.2byte	0x1
 2706 0105 53       		.byte	0x53
 2707 0106 00000000 		.4byte	0
 2708 010a 00000000 		.4byte	0
ARM GAS  C:\Users\RECEPC~1\AppData\Local\Temp\ccllYUoy.s 			page 77


 2709              	.LLST7:
 2710 010e 0C000000 		.4byte	.LVL30
 2711 0112 24000000 		.4byte	.LVL33
 2712 0116 0100     		.2byte	0x1
 2713 0118 52       		.byte	0x52
 2714 0119 24000000 		.4byte	.LVL33
 2715 011d 26000000 		.4byte	.LVL34
 2716 0121 0300     		.2byte	0x3
 2717 0123 72       		.byte	0x72
 2718 0124 7F       		.sleb128 -1
 2719 0125 9F       		.byte	0x9f
 2720 0126 26000000 		.4byte	.LVL34
 2721 012a 3A000000 		.4byte	.LVL36
 2722 012e 0100     		.2byte	0x1
 2723 0130 52       		.byte	0x52
 2724 0131 40000000 		.4byte	.LVL37
 2725 0135 4E000000 		.4byte	.LVL39
 2726 0139 0100     		.2byte	0x1
 2727 013b 52       		.byte	0x52
 2728 013c 5A000000 		.4byte	.LVL41
 2729 0140 5E000000 		.4byte	.LVL42
 2730 0144 0100     		.2byte	0x1
 2731 0146 52       		.byte	0x52
 2732 0147 00000000 		.4byte	0
 2733 014b 00000000 		.4byte	0
 2734              	.LLST8:
 2735 014f 10000000 		.4byte	.LVL31
 2736 0153 63000000 		.4byte	.LVL44-1
 2737 0157 0100     		.2byte	0x1
 2738 0159 51       		.byte	0x51
 2739 015a 00000000 		.4byte	0
 2740 015e 00000000 		.4byte	0
 2741              	.LLST9:
 2742 0162 3C000000 		.4byte	.LVL49
 2743 0166 3E000000 		.4byte	.LVL50
 2744 016a 0100     		.2byte	0x1
 2745 016c 54       		.byte	0x54
 2746 016d 50000000 		.4byte	.LVL51
 2747 0171 52000000 		.4byte	.LVL52
 2748 0175 0100     		.2byte	0x1
 2749 0177 54       		.byte	0x54
 2750 0178 54000000 		.4byte	.LVL53
 2751 017c 5C000000 		.4byte	.LVL55
 2752 0180 0100     		.2byte	0x1
 2753 0182 54       		.byte	0x54
 2754 0183 5C000000 		.4byte	.LVL55
 2755 0187 60000000 		.4byte	.LFE13
 2756 018b 0100     		.2byte	0x1
 2757 018d 50       		.byte	0x50
 2758 018e 00000000 		.4byte	0
 2759 0192 00000000 		.4byte	0
 2760              	.LLST10:
 2761 0196 06000000 		.4byte	.LVL56
 2762 019a 1B000000 		.4byte	.LVL57-1
 2763 019e 0100     		.2byte	0x1
 2764 01a0 50       		.byte	0x50
 2765 01a1 00000000 		.4byte	0
ARM GAS  C:\Users\RECEPC~1\AppData\Local\Temp\ccllYUoy.s 			page 78


 2766 01a5 00000000 		.4byte	0
 2767              	.LLST11:
 2768 01a9 00000000 		.4byte	.LVL66
 2769 01ad 0C000000 		.4byte	.LVL68
 2770 01b1 0100     		.2byte	0x1
 2771 01b3 50       		.byte	0x50
 2772 01b4 0C000000 		.4byte	.LVL68
 2773 01b8 16000000 		.4byte	.LVL72
 2774 01bc 0100     		.2byte	0x1
 2775 01be 55       		.byte	0x55
 2776 01bf 16000000 		.4byte	.LVL72
 2777 01c3 18000000 		.4byte	.LVL73
 2778 01c7 0100     		.2byte	0x1
 2779 01c9 50       		.byte	0x50
 2780 01ca 18000000 		.4byte	.LVL73
 2781 01ce 20000000 		.4byte	.LVL74
 2782 01d2 0100     		.2byte	0x1
 2783 01d4 55       		.byte	0x55
 2784 01d5 20000000 		.4byte	.LVL74
 2785 01d9 24000000 		.4byte	.LFE22
 2786 01dd 0400     		.2byte	0x4
 2787 01df F3       		.byte	0xf3
 2788 01e0 01       		.uleb128 0x1
 2789 01e1 50       		.byte	0x50
 2790 01e2 9F       		.byte	0x9f
 2791 01e3 00000000 		.4byte	0
 2792 01e7 00000000 		.4byte	0
 2793              	.LLST12:
 2794 01eb 04000000 		.4byte	.LVL67
 2795 01ef 0C000000 		.4byte	.LVL68
 2796 01f3 0200     		.2byte	0x2
 2797 01f5 30       		.byte	0x30
 2798 01f6 9F       		.byte	0x9f
 2799 01f7 0C000000 		.4byte	.LVL68
 2800 01fb 12000000 		.4byte	.LVL70
 2801 01ff 0100     		.2byte	0x1
 2802 0201 54       		.byte	0x54
 2803 0202 12000000 		.4byte	.LVL70
 2804 0206 14000000 		.4byte	.LVL71
 2805 020a 0300     		.2byte	0x3
 2806 020c 74       		.byte	0x74
 2807 020d 7F       		.sleb128 -1
 2808 020e 9F       		.byte	0x9f
 2809 020f 14000000 		.4byte	.LVL71
 2810 0213 16000000 		.4byte	.LVL72
 2811 0217 0100     		.2byte	0x1
 2812 0219 54       		.byte	0x54
 2813 021a 16000000 		.4byte	.LVL72
 2814 021e 18000000 		.4byte	.LVL73
 2815 0222 0200     		.2byte	0x2
 2816 0224 30       		.byte	0x30
 2817 0225 9F       		.byte	0x9f
 2818 0226 18000000 		.4byte	.LVL73
 2819 022a 20000000 		.4byte	.LVL74
 2820 022e 0100     		.2byte	0x1
 2821 0230 54       		.byte	0x54
 2822 0231 00000000 		.4byte	0
ARM GAS  C:\Users\RECEPC~1\AppData\Local\Temp\ccllYUoy.s 			page 79


 2823 0235 00000000 		.4byte	0
 2824              	.LLST13:
 2825 0239 00000000 		.4byte	.LVL75
 2826 023d 0E000000 		.4byte	.LVL77
 2827 0241 0100     		.2byte	0x1
 2828 0243 50       		.byte	0x50
 2829 0244 0E000000 		.4byte	.LVL77
 2830 0248 1E000000 		.4byte	.LVL82
 2831 024c 0100     		.2byte	0x1
 2832 024e 55       		.byte	0x55
 2833 024f 1E000000 		.4byte	.LVL82
 2834 0253 24000000 		.4byte	.LFE23
 2835 0257 0400     		.2byte	0x4
 2836 0259 F3       		.byte	0xf3
 2837 025a 01       		.uleb128 0x1
 2838 025b 50       		.byte	0x50
 2839 025c 9F       		.byte	0x9f
 2840 025d 00000000 		.4byte	0
 2841 0261 00000000 		.4byte	0
 2842              	.LLST14:
 2843 0265 00000000 		.4byte	.LVL75
 2844 0269 0E000000 		.4byte	.LVL77
 2845 026d 0100     		.2byte	0x1
 2846 026f 51       		.byte	0x51
 2847 0270 0E000000 		.4byte	.LVL77
 2848 0274 24000000 		.4byte	.LFE23
 2849 0278 0400     		.2byte	0x4
 2850 027a F3       		.byte	0xf3
 2851 027b 01       		.uleb128 0x1
 2852 027c 51       		.byte	0x51
 2853 027d 9F       		.byte	0x9f
 2854 027e 00000000 		.4byte	0
 2855 0282 00000000 		.4byte	0
 2856              	.LLST15:
 2857 0286 06000000 		.4byte	.LVL76
 2858 028a 0E000000 		.4byte	.LVL77
 2859 028e 0200     		.2byte	0x2
 2860 0290 30       		.byte	0x30
 2861 0291 9F       		.byte	0x9f
 2862 0292 0E000000 		.4byte	.LVL77
 2863 0296 16000000 		.4byte	.LVL79
 2864 029a 0100     		.2byte	0x1
 2865 029c 54       		.byte	0x54
 2866 029d 16000000 		.4byte	.LVL79
 2867 02a1 18000000 		.4byte	.LVL80
 2868 02a5 0300     		.2byte	0x3
 2869 02a7 74       		.byte	0x74
 2870 02a8 7F       		.sleb128 -1
 2871 02a9 9F       		.byte	0x9f
 2872 02aa 18000000 		.4byte	.LVL80
 2873 02ae 1C000000 		.4byte	.LVL81
 2874 02b2 0100     		.2byte	0x1
 2875 02b4 54       		.byte	0x54
 2876 02b5 00000000 		.4byte	0
 2877 02b9 00000000 		.4byte	0
 2878              	.LLST16:
 2879 02bd 00000000 		.4byte	.LVL83
ARM GAS  C:\Users\RECEPC~1\AppData\Local\Temp\ccllYUoy.s 			page 80


 2880 02c1 0B000000 		.4byte	.LVL84-1
 2881 02c5 0100     		.2byte	0x1
 2882 02c7 50       		.byte	0x50
 2883 02c8 0B000000 		.4byte	.LVL84-1
 2884 02cc 20000000 		.4byte	.LFE24
 2885 02d0 0400     		.2byte	0x4
 2886 02d2 F3       		.byte	0xf3
 2887 02d3 01       		.uleb128 0x1
 2888 02d4 50       		.byte	0x50
 2889 02d5 9F       		.byte	0x9f
 2890 02d6 00000000 		.4byte	0
 2891 02da 00000000 		.4byte	0
 2892              	.LLST17:
 2893 02de 06000000 		.4byte	.LVL87
 2894 02e2 1C000000 		.4byte	.LVL88
 2895 02e6 0100     		.2byte	0x1
 2896 02e8 53       		.byte	0x53
 2897 02e9 1C000000 		.4byte	.LVL88
 2898 02ed 24000000 		.4byte	.LFE25
 2899 02f1 0100     		.2byte	0x1
 2900 02f3 50       		.byte	0x50
 2901 02f4 00000000 		.4byte	0
 2902 02f8 00000000 		.4byte	0
 2903              	.LLST18:
 2904 02fc 06000000 		.4byte	.LVL89
 2905 0300 1B000000 		.4byte	.LVL90-1
 2906 0304 0100     		.2byte	0x1
 2907 0306 50       		.byte	0x50
 2908 0307 00000000 		.4byte	0
 2909 030b 00000000 		.4byte	0
 2910              	.LLST19:
 2911 030f 00000000 		.4byte	.LVL91
 2912 0313 3C000000 		.4byte	.LVL96
 2913 0317 0100     		.2byte	0x1
 2914 0319 50       		.byte	0x50
 2915 031a 3C000000 		.4byte	.LVL96
 2916 031e 58000000 		.4byte	.LFE27
 2917 0322 0400     		.2byte	0x4
 2918 0324 F3       		.byte	0xf3
 2919 0325 01       		.uleb128 0x1
 2920 0326 50       		.byte	0x50
 2921 0327 9F       		.byte	0x9f
 2922 0328 00000000 		.4byte	0
 2923 032c 00000000 		.4byte	0
 2924              	.LLST20:
 2925 0330 22000000 		.4byte	.LVL92
 2926 0334 28000000 		.4byte	.LVL93
 2927 0338 0100     		.2byte	0x1
 2928 033a 53       		.byte	0x53
 2929 033b 34000000 		.4byte	.LVL94
 2930 033f 3A000000 		.4byte	.LVL95
 2931 0343 0100     		.2byte	0x1
 2932 0345 53       		.byte	0x53
 2933 0346 00000000 		.4byte	0
 2934 034a 00000000 		.4byte	0
 2935              		.section	.debug_aranges,"",%progbits
 2936 0000 FC000000 		.4byte	0xfc
ARM GAS  C:\Users\RECEPC~1\AppData\Local\Temp\ccllYUoy.s 			page 81


 2937 0004 0200     		.2byte	0x2
 2938 0006 00000000 		.4byte	.Ldebug_info0
 2939 000a 04       		.byte	0x4
 2940 000b 00       		.byte	0
 2941 000c 0000     		.2byte	0
 2942 000e 0000     		.2byte	0
 2943 0010 00000000 		.4byte	.LFB1
 2944 0014 3C000000 		.4byte	.LFE1-.LFB1
 2945 0018 00000000 		.4byte	.LFB2
 2946 001c 3C000000 		.4byte	.LFE2-.LFB2
 2947 0020 00000000 		.4byte	.LFB0
 2948 0024 1C000000 		.4byte	.LFE0-.LFB0
 2949 0028 00000000 		.4byte	.LFB4
 2950 002c 04000000 		.4byte	.LFE4-.LFB4
 2951 0030 00000000 		.4byte	.LFB5
 2952 0034 02000000 		.4byte	.LFE5-.LFB5
 2953 0038 00000000 		.4byte	.LFB6
 2954 003c 0C000000 		.4byte	.LFE6-.LFB6
 2955 0040 00000000 		.4byte	.LFB7
 2956 0044 0C000000 		.4byte	.LFE7-.LFB7
 2957 0048 00000000 		.4byte	.LFB3
 2958 004c 3C000000 		.4byte	.LFE3-.LFB3
 2959 0050 00000000 		.4byte	.LFB8
 2960 0054 0C000000 		.4byte	.LFE8-.LFB8
 2961 0058 00000000 		.4byte	.LFB9
 2962 005c 5C000000 		.4byte	.LFE9-.LFB9
 2963 0060 00000000 		.4byte	.LFB10
 2964 0064 28000000 		.4byte	.LFE10-.LFB10
 2965 0068 00000000 		.4byte	.LFB11
 2966 006c 78000000 		.4byte	.LFE11-.LFB11
 2967 0070 00000000 		.4byte	.LFB12
 2968 0074 12000000 		.4byte	.LFE12-.LFB12
 2969 0078 00000000 		.4byte	.LFB13
 2970 007c 60000000 		.4byte	.LFE13-.LFB13
 2971 0080 00000000 		.4byte	.LFB14
 2972 0084 3C000000 		.4byte	.LFE14-.LFB14
 2973 0088 00000000 		.4byte	.LFB15
 2974 008c 02000000 		.4byte	.LFE15-.LFB15
 2975 0090 00000000 		.4byte	.LFB16
 2976 0094 0C000000 		.4byte	.LFE16-.LFB16
 2977 0098 00000000 		.4byte	.LFB17
 2978 009c 0C000000 		.4byte	.LFE17-.LFB17
 2979 00a0 00000000 		.4byte	.LFB18
 2980 00a4 0C000000 		.4byte	.LFE18-.LFB18
 2981 00a8 00000000 		.4byte	.LFB19
 2982 00ac 14000000 		.4byte	.LFE19-.LFB19
 2983 00b0 00000000 		.4byte	.LFB20
 2984 00b4 0C000000 		.4byte	.LFE20-.LFB20
 2985 00b8 00000000 		.4byte	.LFB21
 2986 00bc 18000000 		.4byte	.LFE21-.LFB21
 2987 00c0 00000000 		.4byte	.LFB22
 2988 00c4 24000000 		.4byte	.LFE22-.LFB22
 2989 00c8 00000000 		.4byte	.LFB23
 2990 00cc 24000000 		.4byte	.LFE23-.LFB23
 2991 00d0 00000000 		.4byte	.LFB24
 2992 00d4 20000000 		.4byte	.LFE24-.LFB24
 2993 00d8 00000000 		.4byte	.LFB25
ARM GAS  C:\Users\RECEPC~1\AppData\Local\Temp\ccllYUoy.s 			page 82


 2994 00dc 24000000 		.4byte	.LFE25-.LFB25
 2995 00e0 00000000 		.4byte	.LFB26
 2996 00e4 24000000 		.4byte	.LFE26-.LFB26
 2997 00e8 00000000 		.4byte	.LFB27
 2998 00ec 58000000 		.4byte	.LFE27-.LFB27
 2999 00f0 00000000 		.4byte	.LFB28
 3000 00f4 02000000 		.4byte	.LFE28-.LFB28
 3001 00f8 00000000 		.4byte	0
 3002 00fc 00000000 		.4byte	0
 3003              		.section	.debug_ranges,"",%progbits
 3004              	.Ldebug_ranges0:
 3005 0000 00000000 		.4byte	.LFB1
 3006 0004 3C000000 		.4byte	.LFE1
 3007 0008 00000000 		.4byte	.LFB2
 3008 000c 3C000000 		.4byte	.LFE2
 3009 0010 00000000 		.4byte	.LFB0
 3010 0014 1C000000 		.4byte	.LFE0
 3011 0018 00000000 		.4byte	.LFB4
 3012 001c 04000000 		.4byte	.LFE4
 3013 0020 00000000 		.4byte	.LFB5
 3014 0024 02000000 		.4byte	.LFE5
 3015 0028 00000000 		.4byte	.LFB6
 3016 002c 0C000000 		.4byte	.LFE6
 3017 0030 00000000 		.4byte	.LFB7
 3018 0034 0C000000 		.4byte	.LFE7
 3019 0038 00000000 		.4byte	.LFB3
 3020 003c 3C000000 		.4byte	.LFE3
 3021 0040 00000000 		.4byte	.LFB8
 3022 0044 0C000000 		.4byte	.LFE8
 3023 0048 00000000 		.4byte	.LFB9
 3024 004c 5C000000 		.4byte	.LFE9
 3025 0050 00000000 		.4byte	.LFB10
 3026 0054 28000000 		.4byte	.LFE10
 3027 0058 00000000 		.4byte	.LFB11
 3028 005c 78000000 		.4byte	.LFE11
 3029 0060 00000000 		.4byte	.LFB12
 3030 0064 12000000 		.4byte	.LFE12
 3031 0068 00000000 		.4byte	.LFB13
 3032 006c 60000000 		.4byte	.LFE13
 3033 0070 00000000 		.4byte	.LFB14
 3034 0074 3C000000 		.4byte	.LFE14
 3035 0078 00000000 		.4byte	.LFB15
 3036 007c 02000000 		.4byte	.LFE15
 3037 0080 00000000 		.4byte	.LFB16
 3038 0084 0C000000 		.4byte	.LFE16
 3039 0088 00000000 		.4byte	.LFB17
 3040 008c 0C000000 		.4byte	.LFE17
 3041 0090 00000000 		.4byte	.LFB18
 3042 0094 0C000000 		.4byte	.LFE18
 3043 0098 00000000 		.4byte	.LFB19
 3044 009c 14000000 		.4byte	.LFE19
 3045 00a0 00000000 		.4byte	.LFB20
 3046 00a4 0C000000 		.4byte	.LFE20
 3047 00a8 00000000 		.4byte	.LFB21
 3048 00ac 18000000 		.4byte	.LFE21
 3049 00b0 00000000 		.4byte	.LFB22
 3050 00b4 24000000 		.4byte	.LFE22
ARM GAS  C:\Users\RECEPC~1\AppData\Local\Temp\ccllYUoy.s 			page 83


 3051 00b8 00000000 		.4byte	.LFB23
 3052 00bc 24000000 		.4byte	.LFE23
 3053 00c0 00000000 		.4byte	.LFB24
 3054 00c4 20000000 		.4byte	.LFE24
 3055 00c8 00000000 		.4byte	.LFB25
 3056 00cc 24000000 		.4byte	.LFE25
 3057 00d0 00000000 		.4byte	.LFB26
 3058 00d4 24000000 		.4byte	.LFE26
 3059 00d8 00000000 		.4byte	.LFB27
 3060 00dc 58000000 		.4byte	.LFE27
 3061 00e0 00000000 		.4byte	.LFB28
 3062 00e4 02000000 		.4byte	.LFE28
 3063 00e8 00000000 		.4byte	0
 3064 00ec 00000000 		.4byte	0
 3065              		.section	.debug_line,"",%progbits
 3066              	.Ldebug_line0:
 3067 0000 20030000 		.section	.debug_str,"MS",%progbits,1
 3067      02005200 
 3067      00000201 
 3067      FB0E0D00 
 3067      01010101 
 3068              	.LASF37:
 3069 0000 53757274 		.ascii	"Surtidor_GetChar\000"
 3069      69646F72 
 3069      5F476574 
 3069      43686172 
 3069      00
 3070              	.LASF10:
 3071 0011 75696E74 		.ascii	"uint16\000"
 3071      313600
 3072              	.LASF33:
 3073 0018 6C6F635F 		.ascii	"loc_rxBufferWrite\000"
 3073      72784275 
 3073      66666572 
 3073      57726974 
 3073      6500
 3074              	.LASF60:
 3075 002a 53757274 		.ascii	"Surtidor_GetTxBufferSize\000"
 3075      69646F72 
 3075      5F476574 
 3075      54784275 
 3075      66666572 
 3076              	.LASF79:
 3077 0043 43794578 		.ascii	"CyExitCriticalSection\000"
 3077      69744372 
 3077      69746963 
 3077      616C5365 
 3077      6374696F 
 3078              	.LASF73:
 3079 0059 474E5520 		.ascii	"GNU C 4.8.4 20140526 (release) [ARM/embedded-4_8-br"
 3079      4320342E 
 3079      382E3420 
 3079      32303134 
 3079      30353236 
 3080 008c 616E6368 		.ascii	"anch revision 211358] -mcpu=cortex-m3 -mthumb -g -O"
 3080      20726576 
 3080      6973696F 
ARM GAS  C:\Users\RECEPC~1\AppData\Local\Temp\ccllYUoy.s 			page 84


 3080      6E203231 
 3080      31333538 
 3081 00bf 67202D66 		.ascii	"g -ffunction-sections\000"
 3081      66756E63 
 3081      74696F6E 
 3081      2D736563 
 3081      74696F6E 
 3082              	.LASF50:
 3083 00d5 74784461 		.ascii	"txDataByte\000"
 3083      74614279 
 3083      746500
 3084              	.LASF55:
 3085 00e0 73747269 		.ascii	"string\000"
 3085      6E6700
 3086              	.LASF57:
 3087 00e7 53757274 		.ascii	"Surtidor_PutArray\000"
 3087      69646F72 
 3087      5F507574 
 3087      41727261 
 3087      7900
 3088              	.LASF7:
 3089 00f9 6C6F6E67 		.ascii	"long long unsigned int\000"
 3089      206C6F6E 
 3089      6720756E 
 3089      7369676E 
 3089      65642069 
 3090              	.LASF35:
 3091 0110 53757274 		.ascii	"Surtidor_ReadRxStatus\000"
 3091      69646F72 
 3091      5F526561 
 3091      64527853 
 3091      74617475 
 3092              	.LASF70:
 3093 0126 53757274 		.ascii	"Surtidor_rxBufferWrite\000"
 3093      69646F72 
 3093      5F727842 
 3093      75666665 
 3093      72577269 
 3094              	.LASF6:
 3095 013d 6C6F6E67 		.ascii	"long long int\000"
 3095      206C6F6E 
 3095      6720696E 
 3095      7400
 3096              	.LASF0:
 3097 014b 7369676E 		.ascii	"signed char\000"
 3097      65642063 
 3097      68617200 
 3098              	.LASF66:
 3099 0157 53757274 		.ascii	"Surtidor_SetTxAddressMode\000"
 3099      69646F72 
 3099      5F536574 
 3099      54784164 
 3099      64726573 
 3100              	.LASF62:
 3101 0171 53757274 		.ascii	"Surtidor_SendBreak\000"
 3101      69646F72 
 3101      5F53656E 
ARM GAS  C:\Users\RECEPC~1\AppData\Local\Temp\ccllYUoy.s 			page 85


 3101      64427265 
 3101      616B00
 3102              	.LASF4:
 3103 0184 6C6F6E67 		.ascii	"long int\000"
 3103      20696E74 
 3103      00
 3104              	.LASF9:
 3105 018d 75696E74 		.ascii	"uint8\000"
 3105      3800
 3106              	.LASF59:
 3107 0193 53757274 		.ascii	"Surtidor_PutCRLF\000"
 3107      69646F72 
 3107      5F507574 
 3107      43524C46 
 3107      00
 3108              	.LASF13:
 3109 01a4 646F7562 		.ascii	"double\000"
 3109      6C6500
 3110              	.LASF44:
 3111 01ab 61646472 		.ascii	"addressMode\000"
 3111      6573734D 
 3111      6F646500 
 3112              	.LASF25:
 3113 01b7 53757274 		.ascii	"Surtidor_DisableRxInt\000"
 3113      69646F72 
 3113      5F446973 
 3113      61626C65 
 3113      5278496E 
 3114              	.LASF51:
 3115 01cd 53757274 		.ascii	"Surtidor_ReadControlRegister\000"
 3115      69646F72 
 3115      5F526561 
 3115      64436F6E 
 3115      74726F6C 
 3116              	.LASF11:
 3117 01ea 75696E74 		.ascii	"uint32\000"
 3117      333200
 3118              	.LASF29:
 3119 01f1 636F6E74 		.ascii	"control\000"
 3119      726F6C00 
 3120              	.LASF48:
 3121 01f9 53757274 		.ascii	"Surtidor_SetTxInterruptMode\000"
 3121      69646F72 
 3121      5F536574 
 3121      5478496E 
 3121      74657272 
 3122              	.LASF28:
 3123 0215 53757274 		.ascii	"Surtidor_SetRxInterruptMode\000"
 3123      69646F72 
 3123      5F536574 
 3123      5278496E 
 3123      74657272 
 3124              	.LASF68:
 3125 0231 53757274 		.ascii	"Surtidor_rxBuffer\000"
 3125      69646F72 
 3125      5F727842 
 3125      75666665 
ARM GAS  C:\Users\RECEPC~1\AppData\Local\Temp\ccllYUoy.s 			page 86


 3125      7200
 3126              	.LASF63:
 3127 0243 7265744D 		.ascii	"retMode\000"
 3127      6F646500 
 3128              	.LASF74:
 3129 024b 2E5C4765 		.ascii	".\\Generated_Source\\PSoC5\\Surtidor.c\000"
 3129      6E657261 
 3129      7465645F 
 3129      536F7572 
 3129      63655C50 
 3130              	.LASF8:
 3131 026f 756E7369 		.ascii	"unsigned int\000"
 3131      676E6564 
 3131      20696E74 
 3131      00
 3132              	.LASF49:
 3133 027c 53757274 		.ascii	"Surtidor_WriteTxData\000"
 3133      69646F72 
 3133      5F577269 
 3133      74655478 
 3133      44617461 
 3134              	.LASF53:
 3135 0291 53757274 		.ascii	"Surtidor_PutChar\000"
 3135      69646F72 
 3135      5F507574 
 3135      43686172 
 3135      00
 3136              	.LASF5:
 3137 02a2 6C6F6E67 		.ascii	"long unsigned int\000"
 3137      20756E73 
 3137      69676E65 
 3137      6420696E 
 3137      7400
 3138              	.LASF75:
 3139 02b4 433A5C55 		.ascii	"C:\\Users\\Recepcion\\Documents\\NMUX\\Unificada\\U"
 3139      73657273 
 3139      5C526563 
 3139      65706369 
 3139      6F6E5C44 
 3140 02e1 6E696669 		.ascii	"nificada.cydsn\000"
 3140      63616461 
 3140      2E637964 
 3140      736E00
 3141              	.LASF78:
 3142 02f0 4379456E 		.ascii	"CyEnterCriticalSection\000"
 3142      74657243 
 3142      72697469 
 3142      63616C53 
 3142      65637469 
 3143              	.LASF43:
 3144 0307 53757274 		.ascii	"Surtidor_SetRxAddressMode\000"
 3144      69646F72 
 3144      5F536574 
 3144      52784164 
 3144      64726573 
 3145              	.LASF41:
 3146 0321 73697A65 		.ascii	"size\000"
ARM GAS  C:\Users\RECEPC~1\AppData\Local\Temp\ccllYUoy.s 			page 87


 3146      00
 3147              	.LASF3:
 3148 0326 73686F72 		.ascii	"short unsigned int\000"
 3148      7420756E 
 3148      7369676E 
 3148      65642069 
 3148      6E7400
 3149              	.LASF76:
 3150 0339 4379496E 		.ascii	"CyIntSetVector\000"
 3150      74536574 
 3150      56656374 
 3150      6F7200
 3151              	.LASF32:
 3152 0348 6C6F635F 		.ascii	"loc_rxBufferRead\000"
 3152      72784275 
 3152      66666572 
 3152      52656164 
 3152      00
 3153              	.LASF65:
 3154 0359 74785F70 		.ascii	"tx_period\000"
 3154      6572696F 
 3154      6400
 3155              	.LASF30:
 3156 0363 696E7453 		.ascii	"intSrc\000"
 3156      726300
 3157              	.LASF17:
 3158 036a 72656733 		.ascii	"reg32\000"
 3158      3200
 3159              	.LASF64:
 3160 0370 746D7053 		.ascii	"tmpStat\000"
 3160      74617400 
 3161              	.LASF52:
 3162 0378 53757274 		.ascii	"Surtidor_ReadTxStatus\000"
 3162      69646F72 
 3162      5F526561 
 3162      64547853 
 3162      74617475 
 3163              	.LASF19:
 3164 038e 73697A65 		.ascii	"sizetype\000"
 3164      74797065 
 3164      00
 3165              	.LASF61:
 3166 0397 53757274 		.ascii	"Surtidor_ClearTxBuffer\000"
 3166      69646F72 
 3166      5F436C65 
 3166      61725478 
 3166      42756666 
 3167              	.LASF39:
 3168 03ae 53757274 		.ascii	"Surtidor_GetByte\000"
 3168      69646F72 
 3168      5F476574 
 3168      42797465 
 3168      00
 3169              	.LASF24:
 3170 03bf 53757274 		.ascii	"Surtidor_EnableRxInt\000"
 3170      69646F72 
 3170      5F456E61 
ARM GAS  C:\Users\RECEPC~1\AppData\Local\Temp\ccllYUoy.s 			page 88


 3170      626C6552 
 3170      78496E74 
 3171              	.LASF71:
 3172 03d4 53757274 		.ascii	"Surtidor_rxBufferLoopDetect\000"
 3172      69646F72 
 3172      5F727842 
 3172      75666665 
 3172      724C6F6F 
 3173              	.LASF38:
 3174 03f0 72785374 		.ascii	"rxStatus\000"
 3174      61747573 
 3174      00
 3175              	.LASF26:
 3176 03f9 53757274 		.ascii	"Surtidor_Stop\000"
 3176      69646F72 
 3176      5F53746F 
 3176      7000
 3177              	.LASF77:
 3178 0407 4379496E 		.ascii	"CyIntSetPriority\000"
 3178      74536574 
 3178      5072696F 
 3178      72697479 
 3178      00
 3179              	.LASF12:
 3180 0418 666C6F61 		.ascii	"float\000"
 3180      7400
 3181              	.LASF16:
 3182 041e 72656738 		.ascii	"reg8\000"
 3182      00
 3183              	.LASF1:
 3184 0423 756E7369 		.ascii	"unsigned char\000"
 3184      676E6564 
 3184      20636861 
 3184      7200
 3185              	.LASF2:
 3186 0431 73686F72 		.ascii	"short int\000"
 3186      7420696E 
 3186      7400
 3187              	.LASF22:
 3188 043b 53757274 		.ascii	"Surtidor_Start\000"
 3188      69646F72 
 3188      5F537461 
 3188      727400
 3189              	.LASF58:
 3190 044a 62797465 		.ascii	"byteCount\000"
 3190      436F756E 
 3190      7400
 3191              	.LASF45:
 3192 0454 53757274 		.ascii	"Surtidor_SetRxAddress1\000"
 3192      69646F72 
 3192      5F536574 
 3192      52784164 
 3192      64726573 
 3193              	.LASF47:
 3194 046b 53757274 		.ascii	"Surtidor_SetRxAddress2\000"
 3194      69646F72 
 3194      5F536574 
ARM GAS  C:\Users\RECEPC~1\AppData\Local\Temp\ccllYUoy.s 			page 89


 3194      52784164 
 3194      64726573 
 3195              	.LASF54:
 3196 0482 53757274 		.ascii	"Surtidor_PutString\000"
 3196      69646F72 
 3196      5F507574 
 3196      53747269 
 3196      6E6700
 3197              	.LASF31:
 3198 0495 72784461 		.ascii	"rxData\000"
 3198      746100
 3199              	.LASF34:
 3200 049c 53757274 		.ascii	"Surtidor_ReadRxData\000"
 3200      69646F72 
 3200      5F526561 
 3200      64527844 
 3200      61746100 
 3201              	.LASF15:
 3202 04b0 63686172 		.ascii	"char\000"
 3202      00
 3203              	.LASF69:
 3204 04b5 53757274 		.ascii	"Surtidor_rxBufferRead\000"
 3204      69646F72 
 3204      5F727842 
 3204      75666665 
 3204      72526561 
 3205              	.LASF18:
 3206 04cb 63796973 		.ascii	"cyisraddress\000"
 3206      72616464 
 3206      72657373 
 3206      00
 3207              	.LASF21:
 3208 04d8 53757274 		.ascii	"Surtidor_Enable\000"
 3208      69646F72 
 3208      5F456E61 
 3208      626C6500 
 3209              	.LASF14:
 3210 04e8 63686172 		.ascii	"char8\000"
 3210      3800
 3211              	.LASF42:
 3212 04ee 53757274 		.ascii	"Surtidor_ClearRxBuffer\000"
 3212      69646F72 
 3212      5F436C65 
 3212      61725278 
 3212      42756666 
 3213              	.LASF72:
 3214 0505 53757274 		.ascii	"Surtidor_rxBufferOverflow\000"
 3214      69646F72 
 3214      5F727842 
 3214      75666665 
 3214      724F7665 
 3215              	.LASF27:
 3216 051f 656E6162 		.ascii	"enableInterrupts\000"
 3216      6C65496E 
 3216      74657272 
 3216      75707473 
 3216      00
ARM GAS  C:\Users\RECEPC~1\AppData\Local\Temp\ccllYUoy.s 			page 90


 3217              	.LASF36:
 3218 0530 73746174 		.ascii	"status\000"
 3218      757300
 3219              	.LASF23:
 3220 0537 53757274 		.ascii	"Surtidor_WriteControlRegister\000"
 3220      69646F72 
 3220      5F577269 
 3220      7465436F 
 3220      6E74726F 
 3221              	.LASF46:
 3222 0555 61646472 		.ascii	"address\000"
 3222      65737300 
 3223              	.LASF40:
 3224 055d 53757274 		.ascii	"Surtidor_GetRxBufferSize\000"
 3224      69646F72 
 3224      5F476574 
 3224      52784275 
 3224      66666572 
 3225              	.LASF56:
 3226 0576 6275665F 		.ascii	"buf_index\000"
 3226      696E6465 
 3226      7800
 3227              	.LASF20:
 3228 0580 53757274 		.ascii	"Surtidor_Init\000"
 3228      69646F72 
 3228      5F496E69 
 3228      7400
 3229              	.LASF67:
 3230 058e 53757274 		.ascii	"Surtidor_initVar\000"
 3230      69646F72 
 3230      5F696E69 
 3230      74566172 
 3230      00
 3231              		.ident	"GCC: (GNU Tools for ARM Embedded Processors) 4.8.4 20140526 (release) [ARM/embedded-4_8-br
