ARM GAS  C:\Users\RECEPC~1\AppData\Local\Temp\ccllYUoy.s 			page 1


   1              		.syntax unified
   2              		.cpu cortex-m3
   3              		.fpu softvfp
   4              		.eabi_attribute 20, 1
   5              		.eabi_attribute 21, 1
   6              		.eabi_attribute 23, 3
   7              		.eabi_attribute 24, 1
   8              		.eabi_attribute 25, 1
   9              		.eabi_attribute 26, 1
  10              		.eabi_attribute 30, 1
  11              		.eabi_attribute 34, 1
  12              		.eabi_attribute 18, 4
  13              		.thumb
  14              		.file	"Surtidor.c"
  15              		.text
  16              	.Ltext0:
  17              		.cfi_sections	.debug_frame
  18              		.section	.text.Surtidor_Init,"ax",%progbits
  19              		.align	2
  20              		.global	Surtidor_Init
  21              		.thumb
  22              		.thumb_func
  23              		.type	Surtidor_Init, %function
  24              	Surtidor_Init:
  25              	.LFB1:
  26              		.file 1 ".\\Generated_Source\\PSoC5\\Surtidor.c"
   1:.\Generated_Source\PSoC5/Surtidor.c **** /*******************************************************************************
   2:.\Generated_Source\PSoC5/Surtidor.c **** * File Name: Surtidor.c
   3:.\Generated_Source\PSoC5/Surtidor.c **** * Version 2.30
   4:.\Generated_Source\PSoC5/Surtidor.c **** *
   5:.\Generated_Source\PSoC5/Surtidor.c **** * Description:
   6:.\Generated_Source\PSoC5/Surtidor.c **** *  This file provides all API functionality of the UART component
   7:.\Generated_Source\PSoC5/Surtidor.c **** *
   8:.\Generated_Source\PSoC5/Surtidor.c **** * Note:
   9:.\Generated_Source\PSoC5/Surtidor.c **** *
  10:.\Generated_Source\PSoC5/Surtidor.c **** ********************************************************************************
  11:.\Generated_Source\PSoC5/Surtidor.c **** * Copyright 2008-2012, Cypress Semiconductor Corporation.  All rights reserved.
  12:.\Generated_Source\PSoC5/Surtidor.c **** * You may use this file only in accordance with the license, terms, conditions,
  13:.\Generated_Source\PSoC5/Surtidor.c **** * disclaimers, and limitations in the end user license agreement accompanying
  14:.\Generated_Source\PSoC5/Surtidor.c **** * the software package with which this file was provided.
  15:.\Generated_Source\PSoC5/Surtidor.c **** *******************************************************************************/
  16:.\Generated_Source\PSoC5/Surtidor.c **** 
  17:.\Generated_Source\PSoC5/Surtidor.c **** #include "Surtidor.h"
  18:.\Generated_Source\PSoC5/Surtidor.c **** #include "CyLib.h"
  19:.\Generated_Source\PSoC5/Surtidor.c **** #if(Surtidor_INTERNAL_CLOCK_USED)
  20:.\Generated_Source\PSoC5/Surtidor.c ****     #include "Surtidor_IntClock.h"
  21:.\Generated_Source\PSoC5/Surtidor.c **** #endif /* End Surtidor_INTERNAL_CLOCK_USED */
  22:.\Generated_Source\PSoC5/Surtidor.c **** 
  23:.\Generated_Source\PSoC5/Surtidor.c **** 
  24:.\Generated_Source\PSoC5/Surtidor.c **** /***************************************
  25:.\Generated_Source\PSoC5/Surtidor.c **** * Global data allocation
  26:.\Generated_Source\PSoC5/Surtidor.c **** ***************************************/
  27:.\Generated_Source\PSoC5/Surtidor.c **** 
  28:.\Generated_Source\PSoC5/Surtidor.c **** uint8 Surtidor_initVar = 0u;
  29:.\Generated_Source\PSoC5/Surtidor.c **** #if( Surtidor_TX_ENABLED && (Surtidor_TXBUFFERSIZE > Surtidor_FIFO_LENGTH))
  30:.\Generated_Source\PSoC5/Surtidor.c ****     volatile uint8 Surtidor_txBuffer[Surtidor_TXBUFFERSIZE];
  31:.\Generated_Source\PSoC5/Surtidor.c ****     volatile uint8 Surtidor_txBufferRead = 0u;
ARM GAS  C:\Users\RECEPC~1\AppData\Local\Temp\ccllYUoy.s 			page 2


  32:.\Generated_Source\PSoC5/Surtidor.c ****     uint8 Surtidor_txBufferWrite = 0u;
  33:.\Generated_Source\PSoC5/Surtidor.c **** #endif /* End Surtidor_TX_ENABLED */
  34:.\Generated_Source\PSoC5/Surtidor.c **** #if( ( Surtidor_RX_ENABLED || Surtidor_HD_ENABLED ) && \
  35:.\Generated_Source\PSoC5/Surtidor.c ****      (Surtidor_RXBUFFERSIZE > Surtidor_FIFO_LENGTH) )
  36:.\Generated_Source\PSoC5/Surtidor.c ****     volatile uint8 Surtidor_rxBuffer[Surtidor_RXBUFFERSIZE];
  37:.\Generated_Source\PSoC5/Surtidor.c ****     volatile uint16 Surtidor_rxBufferRead = 0u;
  38:.\Generated_Source\PSoC5/Surtidor.c ****     volatile uint16 Surtidor_rxBufferWrite = 0u;
  39:.\Generated_Source\PSoC5/Surtidor.c ****     volatile uint8 Surtidor_rxBufferLoopDetect = 0u;
  40:.\Generated_Source\PSoC5/Surtidor.c ****     volatile uint8 Surtidor_rxBufferOverflow = 0u;
  41:.\Generated_Source\PSoC5/Surtidor.c ****     #if (Surtidor_RXHW_ADDRESS_ENABLED)
  42:.\Generated_Source\PSoC5/Surtidor.c ****         volatile uint8 Surtidor_rxAddressMode = Surtidor_RXADDRESSMODE;
  43:.\Generated_Source\PSoC5/Surtidor.c ****         volatile uint8 Surtidor_rxAddressDetected = 0u;
  44:.\Generated_Source\PSoC5/Surtidor.c ****     #endif /* End EnableHWAddress */
  45:.\Generated_Source\PSoC5/Surtidor.c **** #endif /* End Surtidor_RX_ENABLED */
  46:.\Generated_Source\PSoC5/Surtidor.c **** 
  47:.\Generated_Source\PSoC5/Surtidor.c **** 
  48:.\Generated_Source\PSoC5/Surtidor.c **** /*******************************************************************************
  49:.\Generated_Source\PSoC5/Surtidor.c **** * Function Name: Surtidor_Start
  50:.\Generated_Source\PSoC5/Surtidor.c **** ********************************************************************************
  51:.\Generated_Source\PSoC5/Surtidor.c **** *
  52:.\Generated_Source\PSoC5/Surtidor.c **** * Summary:
  53:.\Generated_Source\PSoC5/Surtidor.c **** *  Initialize and Enable the UART component.
  54:.\Generated_Source\PSoC5/Surtidor.c **** *  Enable the clock input to enable operation.
  55:.\Generated_Source\PSoC5/Surtidor.c **** *
  56:.\Generated_Source\PSoC5/Surtidor.c **** * Parameters:
  57:.\Generated_Source\PSoC5/Surtidor.c **** *  None.
  58:.\Generated_Source\PSoC5/Surtidor.c **** *
  59:.\Generated_Source\PSoC5/Surtidor.c **** * Return:
  60:.\Generated_Source\PSoC5/Surtidor.c **** *  None.
  61:.\Generated_Source\PSoC5/Surtidor.c **** *
  62:.\Generated_Source\PSoC5/Surtidor.c **** * Global variables:
  63:.\Generated_Source\PSoC5/Surtidor.c **** *  The Surtidor_intiVar variable is used to indicate initial
  64:.\Generated_Source\PSoC5/Surtidor.c **** *  configuration of this component. The variable is initialized to zero (0u)
  65:.\Generated_Source\PSoC5/Surtidor.c **** *  and set to one (1u) the first time UART_Start() is called. This allows for
  66:.\Generated_Source\PSoC5/Surtidor.c **** *  component initialization without re-initialization in all subsequent calls
  67:.\Generated_Source\PSoC5/Surtidor.c **** *  to the Surtidor_Start() routine.
  68:.\Generated_Source\PSoC5/Surtidor.c **** *
  69:.\Generated_Source\PSoC5/Surtidor.c **** * Reentrant:
  70:.\Generated_Source\PSoC5/Surtidor.c **** *  No.
  71:.\Generated_Source\PSoC5/Surtidor.c **** *
  72:.\Generated_Source\PSoC5/Surtidor.c **** *******************************************************************************/
  73:.\Generated_Source\PSoC5/Surtidor.c **** void Surtidor_Start(void) 
  74:.\Generated_Source\PSoC5/Surtidor.c **** {
  75:.\Generated_Source\PSoC5/Surtidor.c ****     /* If not Initialized then initialize all required hardware and software */
  76:.\Generated_Source\PSoC5/Surtidor.c ****     if(Surtidor_initVar == 0u)
  77:.\Generated_Source\PSoC5/Surtidor.c ****     {
  78:.\Generated_Source\PSoC5/Surtidor.c ****         Surtidor_Init();
  79:.\Generated_Source\PSoC5/Surtidor.c ****         Surtidor_initVar = 1u;
  80:.\Generated_Source\PSoC5/Surtidor.c ****     }
  81:.\Generated_Source\PSoC5/Surtidor.c ****     Surtidor_Enable();
  82:.\Generated_Source\PSoC5/Surtidor.c **** }
  83:.\Generated_Source\PSoC5/Surtidor.c **** 
  84:.\Generated_Source\PSoC5/Surtidor.c **** 
  85:.\Generated_Source\PSoC5/Surtidor.c **** /*******************************************************************************
  86:.\Generated_Source\PSoC5/Surtidor.c **** * Function Name: Surtidor_Init
  87:.\Generated_Source\PSoC5/Surtidor.c **** ********************************************************************************
  88:.\Generated_Source\PSoC5/Surtidor.c **** *
ARM GAS  C:\Users\RECEPC~1\AppData\Local\Temp\ccllYUoy.s 			page 3


  89:.\Generated_Source\PSoC5/Surtidor.c **** * Summary:
  90:.\Generated_Source\PSoC5/Surtidor.c **** *  Initialize component's parameters to the parameters set by user in the
  91:.\Generated_Source\PSoC5/Surtidor.c **** *  customizer of the component placed onto schematic. Usually called in
  92:.\Generated_Source\PSoC5/Surtidor.c **** *  Surtidor_Start().
  93:.\Generated_Source\PSoC5/Surtidor.c **** *
  94:.\Generated_Source\PSoC5/Surtidor.c **** * Parameters:
  95:.\Generated_Source\PSoC5/Surtidor.c **** *  None.
  96:.\Generated_Source\PSoC5/Surtidor.c **** *
  97:.\Generated_Source\PSoC5/Surtidor.c **** * Return:
  98:.\Generated_Source\PSoC5/Surtidor.c **** *  None.
  99:.\Generated_Source\PSoC5/Surtidor.c **** *
 100:.\Generated_Source\PSoC5/Surtidor.c **** *******************************************************************************/
 101:.\Generated_Source\PSoC5/Surtidor.c **** void Surtidor_Init(void) 
 102:.\Generated_Source\PSoC5/Surtidor.c **** {
  27              		.loc 1 102 0
  28              		.cfi_startproc
  29              		@ args = 0, pretend = 0, frame = 0
  30              		@ frame_needed = 0, uses_anonymous_args = 0
  31 0000 08B5     		push	{r3, lr}
  32              		.cfi_def_cfa_offset 8
  33              		.cfi_offset 3, -8
  34              		.cfi_offset 14, -4
 103:.\Generated_Source\PSoC5/Surtidor.c ****     #if(Surtidor_RX_ENABLED || Surtidor_HD_ENABLED)
 104:.\Generated_Source\PSoC5/Surtidor.c **** 
 105:.\Generated_Source\PSoC5/Surtidor.c ****         #if(Surtidor_RX_INTERRUPT_ENABLED && (Surtidor_RXBUFFERSIZE > Surtidor_FIFO_LENGTH))
 106:.\Generated_Source\PSoC5/Surtidor.c ****             /* Set the RX Interrupt. */
 107:.\Generated_Source\PSoC5/Surtidor.c ****             (void)CyIntSetVector(Surtidor_RX_VECT_NUM, &Surtidor_RXISR);
  35              		.loc 1 107 0
  36 0002 0420     		movs	r0, #4
  37 0004 0B49     		ldr	r1, .L2
  38 0006 FFF7FEFF 		bl	CyIntSetVector
  39              	.LVL0:
 108:.\Generated_Source\PSoC5/Surtidor.c ****             CyIntSetPriority(Surtidor_RX_VECT_NUM, Surtidor_RX_PRIOR_NUM);
  40              		.loc 1 108 0
  41 000a 0420     		movs	r0, #4
  42 000c 0721     		movs	r1, #7
  43 000e FFF7FEFF 		bl	CyIntSetPriority
  44              	.LVL1:
 109:.\Generated_Source\PSoC5/Surtidor.c ****         #endif /* End Surtidor_RX_INTERRUPT_ENABLED */
 110:.\Generated_Source\PSoC5/Surtidor.c **** 
 111:.\Generated_Source\PSoC5/Surtidor.c ****         #if (Surtidor_RXHW_ADDRESS_ENABLED)
 112:.\Generated_Source\PSoC5/Surtidor.c ****             Surtidor_SetRxAddressMode(Surtidor_RXAddressMode);
 113:.\Generated_Source\PSoC5/Surtidor.c ****             Surtidor_SetRxAddress1(Surtidor_RXHWADDRESS1);
 114:.\Generated_Source\PSoC5/Surtidor.c ****             Surtidor_SetRxAddress2(Surtidor_RXHWADDRESS2);
 115:.\Generated_Source\PSoC5/Surtidor.c ****         #endif /* End Surtidor_RXHW_ADDRESS_ENABLED */
 116:.\Generated_Source\PSoC5/Surtidor.c **** 
 117:.\Generated_Source\PSoC5/Surtidor.c ****         /* Init Count7 period */
 118:.\Generated_Source\PSoC5/Surtidor.c ****         Surtidor_RXBITCTR_PERIOD_REG = Surtidor_RXBITCTR_INIT;
  45              		.loc 1 118 0
  46 0012 7222     		movs	r2, #114
  47 0014 084B     		ldr	r3, .L2+4
  48 0016 1A70     		strb	r2, [r3]
 119:.\Generated_Source\PSoC5/Surtidor.c ****         /* Configure the Initial RX interrupt mask */
 120:.\Generated_Source\PSoC5/Surtidor.c ****         Surtidor_RXSTATUS_MASK_REG  = Surtidor_INIT_RX_INTERRUPTS_MASK;
  49              		.loc 1 120 0
  50 0018 2022     		movs	r2, #32
  51 001a 0833     		adds	r3, r3, #8
ARM GAS  C:\Users\RECEPC~1\AppData\Local\Temp\ccllYUoy.s 			page 4


  52 001c 1A70     		strb	r2, [r3]
 121:.\Generated_Source\PSoC5/Surtidor.c ****     #endif /* End Surtidor_RX_ENABLED || Surtidor_HD_ENABLED*/
 122:.\Generated_Source\PSoC5/Surtidor.c **** 
 123:.\Generated_Source\PSoC5/Surtidor.c ****     #if(Surtidor_TX_ENABLED)
 124:.\Generated_Source\PSoC5/Surtidor.c ****         #if(Surtidor_TX_INTERRUPT_ENABLED && (Surtidor_TXBUFFERSIZE > Surtidor_FIFO_LENGTH))
 125:.\Generated_Source\PSoC5/Surtidor.c ****             /* Set the TX Interrupt. */
 126:.\Generated_Source\PSoC5/Surtidor.c ****             (void)CyIntSetVector(Surtidor_TX_VECT_NUM, &Surtidor_TXISR);
 127:.\Generated_Source\PSoC5/Surtidor.c ****             CyIntSetPriority(Surtidor_TX_VECT_NUM, Surtidor_TX_PRIOR_NUM);
 128:.\Generated_Source\PSoC5/Surtidor.c ****         #endif /* End Surtidor_TX_INTERRUPT_ENABLED */
 129:.\Generated_Source\PSoC5/Surtidor.c **** 
 130:.\Generated_Source\PSoC5/Surtidor.c ****         /* Write Counter Value for TX Bit Clk Generator*/
 131:.\Generated_Source\PSoC5/Surtidor.c ****         #if(Surtidor_TXCLKGEN_DP)
 132:.\Generated_Source\PSoC5/Surtidor.c ****             Surtidor_TXBITCLKGEN_CTR_REG = Surtidor_BIT_CENTER;
  53              		.loc 1 132 0
  54 001e 0722     		movs	r2, #7
  55 0020 9B33     		adds	r3, r3, #155
  56 0022 1A70     		strb	r2, [r3]
 133:.\Generated_Source\PSoC5/Surtidor.c ****             Surtidor_TXBITCLKTX_COMPLETE_REG = (Surtidor_NUMBER_OF_DATA_BITS +
  57              		.loc 1 133 0
  58 0024 4822     		movs	r2, #72
  59 0026 1033     		adds	r3, r3, #16
  60 0028 1A70     		strb	r2, [r3]
 134:.\Generated_Source\PSoC5/Surtidor.c ****                         Surtidor_NUMBER_OF_START_BIT) * Surtidor_OVER_SAMPLE_COUNT;
 135:.\Generated_Source\PSoC5/Surtidor.c ****         #else
 136:.\Generated_Source\PSoC5/Surtidor.c ****             Surtidor_TXBITCTR_PERIOD_REG = ((Surtidor_NUMBER_OF_DATA_BITS +
 137:.\Generated_Source\PSoC5/Surtidor.c ****                         Surtidor_NUMBER_OF_START_BIT) * Surtidor_OVER_SAMPLE_8) - 1u;
 138:.\Generated_Source\PSoC5/Surtidor.c ****         #endif /* End Surtidor_TXCLKGEN_DP */
 139:.\Generated_Source\PSoC5/Surtidor.c **** 
 140:.\Generated_Source\PSoC5/Surtidor.c ****         /* Configure the Initial TX interrupt mask */
 141:.\Generated_Source\PSoC5/Surtidor.c ****         #if(Surtidor_TX_INTERRUPT_ENABLED && (Surtidor_TXBUFFERSIZE > Surtidor_FIFO_LENGTH))
 142:.\Generated_Source\PSoC5/Surtidor.c ****             Surtidor_TXSTATUS_MASK_REG = Surtidor_TX_STS_FIFO_EMPTY;
 143:.\Generated_Source\PSoC5/Surtidor.c ****         #else
 144:.\Generated_Source\PSoC5/Surtidor.c ****             Surtidor_TXSTATUS_MASK_REG = Surtidor_INIT_TX_INTERRUPTS_MASK;
  61              		.loc 1 144 0
  62 002a 0022     		movs	r2, #0
  63 002c 5033     		adds	r3, r3, #80
  64 002e 1A70     		strb	r2, [r3]
  65 0030 08BD     		pop	{r3, pc}
  66              	.L3:
  67 0032 00BF     		.align	2
  68              	.L2:
  69 0034 00000000 		.word	Surtidor_RXISR
  70 0038 83640040 		.word	1073767555
  71              		.cfi_endproc
  72              	.LFE1:
  73              		.size	Surtidor_Init, .-Surtidor_Init
  74              		.section	.text.Surtidor_Enable,"ax",%progbits
  75              		.align	2
  76              		.global	Surtidor_Enable
  77              		.thumb
  78              		.thumb_func
  79              		.type	Surtidor_Enable, %function
  80              	Surtidor_Enable:
  81              	.LFB2:
 145:.\Generated_Source\PSoC5/Surtidor.c ****         #endif /*End Surtidor_TX_INTERRUPT_ENABLED*/
 146:.\Generated_Source\PSoC5/Surtidor.c **** 
 147:.\Generated_Source\PSoC5/Surtidor.c ****     #endif /* End Surtidor_TX_ENABLED */
ARM GAS  C:\Users\RECEPC~1\AppData\Local\Temp\ccllYUoy.s 			page 5


 148:.\Generated_Source\PSoC5/Surtidor.c **** 
 149:.\Generated_Source\PSoC5/Surtidor.c ****     #if(Surtidor_PARITY_TYPE_SW)  /* Write Parity to Control Register */
 150:.\Generated_Source\PSoC5/Surtidor.c ****         Surtidor_WriteControlRegister( \
 151:.\Generated_Source\PSoC5/Surtidor.c ****             (Surtidor_ReadControlRegister() & (uint8)~Surtidor_CTRL_PARITY_TYPE_MASK) | \
 152:.\Generated_Source\PSoC5/Surtidor.c ****             (uint8)(Surtidor_PARITY_TYPE << Surtidor_CTRL_PARITY_TYPE0_SHIFT) );
 153:.\Generated_Source\PSoC5/Surtidor.c ****     #endif /* End Surtidor_PARITY_TYPE_SW */
 154:.\Generated_Source\PSoC5/Surtidor.c **** }
 155:.\Generated_Source\PSoC5/Surtidor.c **** 
 156:.\Generated_Source\PSoC5/Surtidor.c **** 
 157:.\Generated_Source\PSoC5/Surtidor.c **** /*******************************************************************************
 158:.\Generated_Source\PSoC5/Surtidor.c **** * Function Name: Surtidor_Enable
 159:.\Generated_Source\PSoC5/Surtidor.c **** ********************************************************************************
 160:.\Generated_Source\PSoC5/Surtidor.c **** *
 161:.\Generated_Source\PSoC5/Surtidor.c **** * Summary:
 162:.\Generated_Source\PSoC5/Surtidor.c **** *  Enables the UART block operation
 163:.\Generated_Source\PSoC5/Surtidor.c **** *
 164:.\Generated_Source\PSoC5/Surtidor.c **** * Parameters:
 165:.\Generated_Source\PSoC5/Surtidor.c **** *  None.
 166:.\Generated_Source\PSoC5/Surtidor.c **** *
 167:.\Generated_Source\PSoC5/Surtidor.c **** * Return:
 168:.\Generated_Source\PSoC5/Surtidor.c **** *  None.
 169:.\Generated_Source\PSoC5/Surtidor.c **** *
 170:.\Generated_Source\PSoC5/Surtidor.c **** * Global Variables:
 171:.\Generated_Source\PSoC5/Surtidor.c **** *  Surtidor_rxAddressDetected - set to initial state (0).
 172:.\Generated_Source\PSoC5/Surtidor.c **** *
 173:.\Generated_Source\PSoC5/Surtidor.c **** *******************************************************************************/
 174:.\Generated_Source\PSoC5/Surtidor.c **** void Surtidor_Enable(void) 
 175:.\Generated_Source\PSoC5/Surtidor.c **** {
  82              		.loc 1 175 0
  83              		.cfi_startproc
  84              		@ args = 0, pretend = 0, frame = 0
  85              		@ frame_needed = 0, uses_anonymous_args = 0
  86 0000 08B5     		push	{r3, lr}
  87              		.cfi_def_cfa_offset 8
  88              		.cfi_offset 3, -8
  89              		.cfi_offset 14, -4
 176:.\Generated_Source\PSoC5/Surtidor.c ****     uint8 enableInterrupts;
 177:.\Generated_Source\PSoC5/Surtidor.c ****     enableInterrupts = CyEnterCriticalSection();
  90              		.loc 1 177 0
  91 0002 FFF7FEFF 		bl	CyEnterCriticalSection
  92              	.LVL2:
 178:.\Generated_Source\PSoC5/Surtidor.c **** 
 179:.\Generated_Source\PSoC5/Surtidor.c ****     #if(Surtidor_RX_ENABLED || Surtidor_HD_ENABLED)
 180:.\Generated_Source\PSoC5/Surtidor.c ****         /*RX Counter (Count7) Enable */
 181:.\Generated_Source\PSoC5/Surtidor.c ****         Surtidor_RXBITCTR_CONTROL_REG |= Surtidor_CNTR_ENABLE;
  93              		.loc 1 181 0
  94 0006 0A4B     		ldr	r3, .L5
  95 0008 1A78     		ldrb	r2, [r3]	@ zero_extendqisi2
  96 000a 42F02002 		orr	r2, r2, #32
  97 000e 1A70     		strb	r2, [r3]
 182:.\Generated_Source\PSoC5/Surtidor.c ****         /* Enable the RX Interrupt. */
 183:.\Generated_Source\PSoC5/Surtidor.c ****         Surtidor_RXSTATUS_ACTL_REG  |= Surtidor_INT_ENABLE;
  98              		.loc 1 183 0
  99 0010 0833     		adds	r3, r3, #8
 100 0012 1A78     		ldrb	r2, [r3]	@ zero_extendqisi2
 101 0014 42F01002 		orr	r2, r2, #16
 102 0018 1A70     		strb	r2, [r3]
ARM GAS  C:\Users\RECEPC~1\AppData\Local\Temp\ccllYUoy.s 			page 6


 184:.\Generated_Source\PSoC5/Surtidor.c ****         #if(Surtidor_RX_INTERRUPT_ENABLED && (Surtidor_RXBUFFERSIZE > Surtidor_FIFO_LENGTH))
 185:.\Generated_Source\PSoC5/Surtidor.c ****             CyIntEnable(Surtidor_RX_VECT_NUM);
 103              		.loc 1 185 0
 104 001a 1022     		movs	r2, #16
 105 001c 054B     		ldr	r3, .L5+4
 106 001e 1A60     		str	r2, [r3]
 186:.\Generated_Source\PSoC5/Surtidor.c ****             #if (Surtidor_RXHW_ADDRESS_ENABLED)
 187:.\Generated_Source\PSoC5/Surtidor.c ****                 Surtidor_rxAddressDetected = 0u;
 188:.\Generated_Source\PSoC5/Surtidor.c ****             #endif /* End Surtidor_RXHW_ADDRESS_ENABLED */
 189:.\Generated_Source\PSoC5/Surtidor.c ****         #endif /* End Surtidor_RX_INTERRUPT_ENABLED */
 190:.\Generated_Source\PSoC5/Surtidor.c ****     #endif /* End Surtidor_RX_ENABLED || Surtidor_HD_ENABLED*/
 191:.\Generated_Source\PSoC5/Surtidor.c **** 
 192:.\Generated_Source\PSoC5/Surtidor.c ****     #if(Surtidor_TX_ENABLED)
 193:.\Generated_Source\PSoC5/Surtidor.c ****         /*TX Counter (DP/Count7) Enable */
 194:.\Generated_Source\PSoC5/Surtidor.c ****         #if(!Surtidor_TXCLKGEN_DP)
 195:.\Generated_Source\PSoC5/Surtidor.c ****             Surtidor_TXBITCTR_CONTROL_REG |= Surtidor_CNTR_ENABLE;
 196:.\Generated_Source\PSoC5/Surtidor.c ****         #endif /* End Surtidor_TXCLKGEN_DP */
 197:.\Generated_Source\PSoC5/Surtidor.c ****         /* Enable the TX Interrupt. */
 198:.\Generated_Source\PSoC5/Surtidor.c ****         Surtidor_TXSTATUS_ACTL_REG |= Surtidor_INT_ENABLE;
 107              		.loc 1 198 0
 108 0020 054B     		ldr	r3, .L5+8
 109 0022 1A78     		ldrb	r2, [r3]	@ zero_extendqisi2
 110 0024 42F01002 		orr	r2, r2, #16
 111 0028 1A70     		strb	r2, [r3]
 199:.\Generated_Source\PSoC5/Surtidor.c ****         #if(Surtidor_TX_INTERRUPT_ENABLED && (Surtidor_TXBUFFERSIZE > Surtidor_FIFO_LENGTH))
 200:.\Generated_Source\PSoC5/Surtidor.c ****             CyIntEnable(Surtidor_TX_VECT_NUM);
 201:.\Generated_Source\PSoC5/Surtidor.c ****         #endif /* End Surtidor_TX_INTERRUPT_ENABLED*/
 202:.\Generated_Source\PSoC5/Surtidor.c ****      #endif /* End Surtidor_TX_ENABLED */
 203:.\Generated_Source\PSoC5/Surtidor.c **** 
 204:.\Generated_Source\PSoC5/Surtidor.c ****     #if(Surtidor_INTERNAL_CLOCK_USED)
 205:.\Generated_Source\PSoC5/Surtidor.c ****         /* Enable the clock. */
 206:.\Generated_Source\PSoC5/Surtidor.c ****         Surtidor_IntClock_Start();
 207:.\Generated_Source\PSoC5/Surtidor.c ****     #endif /* End Surtidor_INTERNAL_CLOCK_USED */
 208:.\Generated_Source\PSoC5/Surtidor.c **** 
 209:.\Generated_Source\PSoC5/Surtidor.c ****     CyExitCriticalSection(enableInterrupts);
 112              		.loc 1 209 0
 113 002a FFF7FEFF 		bl	CyExitCriticalSection
 114              	.LVL3:
 115 002e 08BD     		pop	{r3, pc}
 116              	.L6:
 117              		.align	2
 118              	.L5:
 119 0030 93640040 		.word	1073767571
 120 0034 00E100E0 		.word	-536813312
 121 0038 96650040 		.word	1073767830
 122              		.cfi_endproc
 123              	.LFE2:
 124              		.size	Surtidor_Enable, .-Surtidor_Enable
 125              		.section	.text.Surtidor_Start,"ax",%progbits
 126              		.align	2
 127              		.global	Surtidor_Start
 128              		.thumb
 129              		.thumb_func
 130              		.type	Surtidor_Start, %function
 131              	Surtidor_Start:
 132              	.LFB0:
  74:.\Generated_Source\PSoC5/Surtidor.c **** {
ARM GAS  C:\Users\RECEPC~1\AppData\Local\Temp\ccllYUoy.s 			page 7


 133              		.loc 1 74 0
 134              		.cfi_startproc
 135              		@ args = 0, pretend = 0, frame = 0
 136              		@ frame_needed = 0, uses_anonymous_args = 0
 137 0000 08B5     		push	{r3, lr}
 138              		.cfi_def_cfa_offset 8
 139              		.cfi_offset 3, -8
 140              		.cfi_offset 14, -4
  76:.\Generated_Source\PSoC5/Surtidor.c ****     if(Surtidor_initVar == 0u)
 141              		.loc 1 76 0
 142 0002 054B     		ldr	r3, .L9
 143 0004 1B78     		ldrb	r3, [r3]	@ zero_extendqisi2
 144 0006 23B9     		cbnz	r3, .L8
  78:.\Generated_Source\PSoC5/Surtidor.c ****         Surtidor_Init();
 145              		.loc 1 78 0
 146 0008 FFF7FEFF 		bl	Surtidor_Init
 147              	.LVL4:
  79:.\Generated_Source\PSoC5/Surtidor.c ****         Surtidor_initVar = 1u;
 148              		.loc 1 79 0
 149 000c 0122     		movs	r2, #1
 150 000e 024B     		ldr	r3, .L9
 151 0010 1A70     		strb	r2, [r3]
 152              	.L8:
  81:.\Generated_Source\PSoC5/Surtidor.c ****     Surtidor_Enable();
 153              		.loc 1 81 0
 154 0012 FFF7FEFF 		bl	Surtidor_Enable
 155              	.LVL5:
 156 0016 08BD     		pop	{r3, pc}
 157              	.L10:
 158              		.align	2
 159              	.L9:
 160 0018 00000000 		.word	.LANCHOR0
 161              		.cfi_endproc
 162              	.LFE0:
 163              		.size	Surtidor_Start, .-Surtidor_Start
 164              		.section	.text.Surtidor_ReadControlRegister,"ax",%progbits
 165              		.align	2
 166              		.global	Surtidor_ReadControlRegister
 167              		.thumb
 168              		.thumb_func
 169              		.type	Surtidor_ReadControlRegister, %function
 170              	Surtidor_ReadControlRegister:
 171              	.LFB4:
 210:.\Generated_Source\PSoC5/Surtidor.c **** }
 211:.\Generated_Source\PSoC5/Surtidor.c **** 
 212:.\Generated_Source\PSoC5/Surtidor.c **** 
 213:.\Generated_Source\PSoC5/Surtidor.c **** /*******************************************************************************
 214:.\Generated_Source\PSoC5/Surtidor.c **** * Function Name: Surtidor_Stop
 215:.\Generated_Source\PSoC5/Surtidor.c **** ********************************************************************************
 216:.\Generated_Source\PSoC5/Surtidor.c **** *
 217:.\Generated_Source\PSoC5/Surtidor.c **** * Summary:
 218:.\Generated_Source\PSoC5/Surtidor.c **** *  Disable the UART component
 219:.\Generated_Source\PSoC5/Surtidor.c **** *
 220:.\Generated_Source\PSoC5/Surtidor.c **** * Parameters:
 221:.\Generated_Source\PSoC5/Surtidor.c **** *  None.
 222:.\Generated_Source\PSoC5/Surtidor.c **** *
 223:.\Generated_Source\PSoC5/Surtidor.c **** * Return:
ARM GAS  C:\Users\RECEPC~1\AppData\Local\Temp\ccllYUoy.s 			page 8


 224:.\Generated_Source\PSoC5/Surtidor.c **** *  None.
 225:.\Generated_Source\PSoC5/Surtidor.c **** *
 226:.\Generated_Source\PSoC5/Surtidor.c **** *******************************************************************************/
 227:.\Generated_Source\PSoC5/Surtidor.c **** void Surtidor_Stop(void) 
 228:.\Generated_Source\PSoC5/Surtidor.c **** {
 229:.\Generated_Source\PSoC5/Surtidor.c ****     uint8 enableInterrupts;
 230:.\Generated_Source\PSoC5/Surtidor.c ****     enableInterrupts = CyEnterCriticalSection();
 231:.\Generated_Source\PSoC5/Surtidor.c **** 
 232:.\Generated_Source\PSoC5/Surtidor.c ****     /* Write Bit Counter Disable */
 233:.\Generated_Source\PSoC5/Surtidor.c ****     #if(Surtidor_RX_ENABLED || Surtidor_HD_ENABLED)
 234:.\Generated_Source\PSoC5/Surtidor.c ****         Surtidor_RXBITCTR_CONTROL_REG &= (uint8)~Surtidor_CNTR_ENABLE;
 235:.\Generated_Source\PSoC5/Surtidor.c ****     #endif /* End Surtidor_RX_ENABLED */
 236:.\Generated_Source\PSoC5/Surtidor.c **** 
 237:.\Generated_Source\PSoC5/Surtidor.c ****     #if(Surtidor_TX_ENABLED)
 238:.\Generated_Source\PSoC5/Surtidor.c ****         #if(!Surtidor_TXCLKGEN_DP)
 239:.\Generated_Source\PSoC5/Surtidor.c ****             Surtidor_TXBITCTR_CONTROL_REG &= (uint8)~Surtidor_CNTR_ENABLE;
 240:.\Generated_Source\PSoC5/Surtidor.c ****         #endif /* End Surtidor_TXCLKGEN_DP */
 241:.\Generated_Source\PSoC5/Surtidor.c ****     #endif /* Surtidor_TX_ENABLED */
 242:.\Generated_Source\PSoC5/Surtidor.c **** 
 243:.\Generated_Source\PSoC5/Surtidor.c ****     #if(Surtidor_INTERNAL_CLOCK_USED)
 244:.\Generated_Source\PSoC5/Surtidor.c ****         /* Disable the clock. */
 245:.\Generated_Source\PSoC5/Surtidor.c ****         Surtidor_IntClock_Stop();
 246:.\Generated_Source\PSoC5/Surtidor.c ****     #endif /* End Surtidor_INTERNAL_CLOCK_USED */
 247:.\Generated_Source\PSoC5/Surtidor.c **** 
 248:.\Generated_Source\PSoC5/Surtidor.c ****     /* Disable internal interrupt component */
 249:.\Generated_Source\PSoC5/Surtidor.c ****     #if(Surtidor_RX_ENABLED || Surtidor_HD_ENABLED)
 250:.\Generated_Source\PSoC5/Surtidor.c ****         Surtidor_RXSTATUS_ACTL_REG  &= (uint8)~Surtidor_INT_ENABLE;
 251:.\Generated_Source\PSoC5/Surtidor.c ****         #if(Surtidor_RX_INTERRUPT_ENABLED && (Surtidor_RXBUFFERSIZE > Surtidor_FIFO_LENGTH))
 252:.\Generated_Source\PSoC5/Surtidor.c ****             Surtidor_DisableRxInt();
 253:.\Generated_Source\PSoC5/Surtidor.c ****         #endif /* End Surtidor_RX_INTERRUPT_ENABLED */
 254:.\Generated_Source\PSoC5/Surtidor.c ****     #endif /* End Surtidor_RX_ENABLED */
 255:.\Generated_Source\PSoC5/Surtidor.c **** 
 256:.\Generated_Source\PSoC5/Surtidor.c ****     #if(Surtidor_TX_ENABLED)
 257:.\Generated_Source\PSoC5/Surtidor.c ****         Surtidor_TXSTATUS_ACTL_REG &= (uint8)~Surtidor_INT_ENABLE;
 258:.\Generated_Source\PSoC5/Surtidor.c ****         #if(Surtidor_TX_INTERRUPT_ENABLED && (Surtidor_TXBUFFERSIZE > Surtidor_FIFO_LENGTH))
 259:.\Generated_Source\PSoC5/Surtidor.c ****             Surtidor_DisableTxInt();
 260:.\Generated_Source\PSoC5/Surtidor.c ****         #endif /* End Surtidor_TX_INTERRUPT_ENABLED */
 261:.\Generated_Source\PSoC5/Surtidor.c ****     #endif /* End Surtidor_TX_ENABLED */
 262:.\Generated_Source\PSoC5/Surtidor.c **** 
 263:.\Generated_Source\PSoC5/Surtidor.c ****     CyExitCriticalSection(enableInterrupts);
 264:.\Generated_Source\PSoC5/Surtidor.c **** }
 265:.\Generated_Source\PSoC5/Surtidor.c **** 
 266:.\Generated_Source\PSoC5/Surtidor.c **** 
 267:.\Generated_Source\PSoC5/Surtidor.c **** /*******************************************************************************
 268:.\Generated_Source\PSoC5/Surtidor.c **** * Function Name: Surtidor_ReadControlRegister
 269:.\Generated_Source\PSoC5/Surtidor.c **** ********************************************************************************
 270:.\Generated_Source\PSoC5/Surtidor.c **** *
 271:.\Generated_Source\PSoC5/Surtidor.c **** * Summary:
 272:.\Generated_Source\PSoC5/Surtidor.c **** *  Read the current state of the control register
 273:.\Generated_Source\PSoC5/Surtidor.c **** *
 274:.\Generated_Source\PSoC5/Surtidor.c **** * Parameters:
 275:.\Generated_Source\PSoC5/Surtidor.c **** *  None.
 276:.\Generated_Source\PSoC5/Surtidor.c **** *
 277:.\Generated_Source\PSoC5/Surtidor.c **** * Return:
 278:.\Generated_Source\PSoC5/Surtidor.c **** *  Current state of the control register.
 279:.\Generated_Source\PSoC5/Surtidor.c **** *
 280:.\Generated_Source\PSoC5/Surtidor.c **** *******************************************************************************/
ARM GAS  C:\Users\RECEPC~1\AppData\Local\Temp\ccllYUoy.s 			page 9


 281:.\Generated_Source\PSoC5/Surtidor.c **** uint8 Surtidor_ReadControlRegister(void) 
 282:.\Generated_Source\PSoC5/Surtidor.c **** {
 172              		.loc 1 282 0
 173              		.cfi_startproc
 174              		@ args = 0, pretend = 0, frame = 0
 175              		@ frame_needed = 0, uses_anonymous_args = 0
 176              		@ link register save eliminated.
 283:.\Generated_Source\PSoC5/Surtidor.c ****     #if( Surtidor_CONTROL_REG_REMOVED )
 284:.\Generated_Source\PSoC5/Surtidor.c ****         return(0u);
 285:.\Generated_Source\PSoC5/Surtidor.c ****     #else
 286:.\Generated_Source\PSoC5/Surtidor.c ****         return(Surtidor_CONTROL_REG);
 287:.\Generated_Source\PSoC5/Surtidor.c ****     #endif /* End Surtidor_CONTROL_REG_REMOVED */
 288:.\Generated_Source\PSoC5/Surtidor.c **** }
 177              		.loc 1 288 0
 178 0000 0020     		movs	r0, #0
 179 0002 7047     		bx	lr
 180              		.cfi_endproc
 181              	.LFE4:
 182              		.size	Surtidor_ReadControlRegister, .-Surtidor_ReadControlRegister
 183              		.section	.text.Surtidor_WriteControlRegister,"ax",%progbits
 184              		.align	2
 185              		.global	Surtidor_WriteControlRegister
 186              		.thumb
 187              		.thumb_func
 188              		.type	Surtidor_WriteControlRegister, %function
 189              	Surtidor_WriteControlRegister:
 190              	.LFB5:
 289:.\Generated_Source\PSoC5/Surtidor.c **** 
 290:.\Generated_Source\PSoC5/Surtidor.c **** 
 291:.\Generated_Source\PSoC5/Surtidor.c **** /*******************************************************************************
 292:.\Generated_Source\PSoC5/Surtidor.c **** * Function Name: Surtidor_WriteControlRegister
 293:.\Generated_Source\PSoC5/Surtidor.c **** ********************************************************************************
 294:.\Generated_Source\PSoC5/Surtidor.c **** *
 295:.\Generated_Source\PSoC5/Surtidor.c **** * Summary:
 296:.\Generated_Source\PSoC5/Surtidor.c **** *  Writes an 8-bit value into the control register
 297:.\Generated_Source\PSoC5/Surtidor.c **** *
 298:.\Generated_Source\PSoC5/Surtidor.c **** * Parameters:
 299:.\Generated_Source\PSoC5/Surtidor.c **** *  control:  control register value
 300:.\Generated_Source\PSoC5/Surtidor.c **** *
 301:.\Generated_Source\PSoC5/Surtidor.c **** * Return:
 302:.\Generated_Source\PSoC5/Surtidor.c **** *  None.
 303:.\Generated_Source\PSoC5/Surtidor.c **** *
 304:.\Generated_Source\PSoC5/Surtidor.c **** *******************************************************************************/
 305:.\Generated_Source\PSoC5/Surtidor.c **** void  Surtidor_WriteControlRegister(uint8 control) 
 306:.\Generated_Source\PSoC5/Surtidor.c **** {
 191              		.loc 1 306 0
 192              		.cfi_startproc
 193              		@ args = 0, pretend = 0, frame = 0
 194              		@ frame_needed = 0, uses_anonymous_args = 0
 195              		@ link register save eliminated.
 196              	.LVL6:
 197 0000 7047     		bx	lr
 198              		.cfi_endproc
 199              	.LFE5:
 200              		.size	Surtidor_WriteControlRegister, .-Surtidor_WriteControlRegister
 201 0002 00BF     		.section	.text.Surtidor_EnableRxInt,"ax",%progbits
 202              		.align	2
ARM GAS  C:\Users\RECEPC~1\AppData\Local\Temp\ccllYUoy.s 			page 10


 203              		.global	Surtidor_EnableRxInt
 204              		.thumb
 205              		.thumb_func
 206              		.type	Surtidor_EnableRxInt, %function
 207              	Surtidor_EnableRxInt:
 208              	.LFB6:
 307:.\Generated_Source\PSoC5/Surtidor.c ****     #if( Surtidor_CONTROL_REG_REMOVED )
 308:.\Generated_Source\PSoC5/Surtidor.c ****         if(control != 0u) { }      /* release compiler warning */
 309:.\Generated_Source\PSoC5/Surtidor.c ****     #else
 310:.\Generated_Source\PSoC5/Surtidor.c ****        Surtidor_CONTROL_REG = control;
 311:.\Generated_Source\PSoC5/Surtidor.c ****     #endif /* End Surtidor_CONTROL_REG_REMOVED */
 312:.\Generated_Source\PSoC5/Surtidor.c **** }
 313:.\Generated_Source\PSoC5/Surtidor.c **** 
 314:.\Generated_Source\PSoC5/Surtidor.c **** 
 315:.\Generated_Source\PSoC5/Surtidor.c **** #if(Surtidor_RX_ENABLED || Surtidor_HD_ENABLED)
 316:.\Generated_Source\PSoC5/Surtidor.c **** 
 317:.\Generated_Source\PSoC5/Surtidor.c ****     #if(Surtidor_RX_INTERRUPT_ENABLED)
 318:.\Generated_Source\PSoC5/Surtidor.c **** 
 319:.\Generated_Source\PSoC5/Surtidor.c ****         /*******************************************************************************
 320:.\Generated_Source\PSoC5/Surtidor.c ****         * Function Name: Surtidor_EnableRxInt
 321:.\Generated_Source\PSoC5/Surtidor.c ****         ********************************************************************************
 322:.\Generated_Source\PSoC5/Surtidor.c ****         *
 323:.\Generated_Source\PSoC5/Surtidor.c ****         * Summary:
 324:.\Generated_Source\PSoC5/Surtidor.c ****         *  Enable RX interrupt generation
 325:.\Generated_Source\PSoC5/Surtidor.c ****         *
 326:.\Generated_Source\PSoC5/Surtidor.c ****         * Parameters:
 327:.\Generated_Source\PSoC5/Surtidor.c ****         *  None.
 328:.\Generated_Source\PSoC5/Surtidor.c ****         *
 329:.\Generated_Source\PSoC5/Surtidor.c ****         * Return:
 330:.\Generated_Source\PSoC5/Surtidor.c ****         *  None.
 331:.\Generated_Source\PSoC5/Surtidor.c ****         *
 332:.\Generated_Source\PSoC5/Surtidor.c ****         * Theory:
 333:.\Generated_Source\PSoC5/Surtidor.c ****         *  Enable the interrupt output -or- the interrupt component itself
 334:.\Generated_Source\PSoC5/Surtidor.c ****         *
 335:.\Generated_Source\PSoC5/Surtidor.c ****         *******************************************************************************/
 336:.\Generated_Source\PSoC5/Surtidor.c ****         void Surtidor_EnableRxInt(void) 
 337:.\Generated_Source\PSoC5/Surtidor.c ****         {
 209              		.loc 1 337 0
 210              		.cfi_startproc
 211              		@ args = 0, pretend = 0, frame = 0
 212              		@ frame_needed = 0, uses_anonymous_args = 0
 213              		@ link register save eliminated.
 338:.\Generated_Source\PSoC5/Surtidor.c ****             CyIntEnable(Surtidor_RX_VECT_NUM);
 214              		.loc 1 338 0
 215 0000 1022     		movs	r2, #16
 216 0002 014B     		ldr	r3, .L14
 217 0004 1A60     		str	r2, [r3]
 218 0006 7047     		bx	lr
 219              	.L15:
 220              		.align	2
 221              	.L14:
 222 0008 00E100E0 		.word	-536813312
 223              		.cfi_endproc
 224              	.LFE6:
 225              		.size	Surtidor_EnableRxInt, .-Surtidor_EnableRxInt
 226              		.section	.text.Surtidor_DisableRxInt,"ax",%progbits
 227              		.align	2
ARM GAS  C:\Users\RECEPC~1\AppData\Local\Temp\ccllYUoy.s 			page 11


 228              		.global	Surtidor_DisableRxInt
 229              		.thumb
 230              		.thumb_func
 231              		.type	Surtidor_DisableRxInt, %function
 232              	Surtidor_DisableRxInt:
 233              	.LFB7:
 339:.\Generated_Source\PSoC5/Surtidor.c ****         }
 340:.\Generated_Source\PSoC5/Surtidor.c **** 
 341:.\Generated_Source\PSoC5/Surtidor.c **** 
 342:.\Generated_Source\PSoC5/Surtidor.c ****         /*******************************************************************************
 343:.\Generated_Source\PSoC5/Surtidor.c ****         * Function Name: Surtidor_DisableRxInt
 344:.\Generated_Source\PSoC5/Surtidor.c ****         ********************************************************************************
 345:.\Generated_Source\PSoC5/Surtidor.c ****         *
 346:.\Generated_Source\PSoC5/Surtidor.c ****         * Summary:
 347:.\Generated_Source\PSoC5/Surtidor.c ****         *  Disable RX interrupt generation
 348:.\Generated_Source\PSoC5/Surtidor.c ****         *
 349:.\Generated_Source\PSoC5/Surtidor.c ****         * Parameters:
 350:.\Generated_Source\PSoC5/Surtidor.c ****         *  None.
 351:.\Generated_Source\PSoC5/Surtidor.c ****         *
 352:.\Generated_Source\PSoC5/Surtidor.c ****         * Return:
 353:.\Generated_Source\PSoC5/Surtidor.c ****         *  None.
 354:.\Generated_Source\PSoC5/Surtidor.c ****         *
 355:.\Generated_Source\PSoC5/Surtidor.c ****         * Theory:
 356:.\Generated_Source\PSoC5/Surtidor.c ****         *  Disable the interrupt output -or- the interrupt component itself
 357:.\Generated_Source\PSoC5/Surtidor.c ****         *
 358:.\Generated_Source\PSoC5/Surtidor.c ****         *******************************************************************************/
 359:.\Generated_Source\PSoC5/Surtidor.c ****         void Surtidor_DisableRxInt(void) 
 360:.\Generated_Source\PSoC5/Surtidor.c ****         {
 234              		.loc 1 360 0
 235              		.cfi_startproc
 236              		@ args = 0, pretend = 0, frame = 0
 237              		@ frame_needed = 0, uses_anonymous_args = 0
 238              		@ link register save eliminated.
 361:.\Generated_Source\PSoC5/Surtidor.c ****             CyIntDisable(Surtidor_RX_VECT_NUM);
 239              		.loc 1 361 0
 240 0000 1022     		movs	r2, #16
 241 0002 014B     		ldr	r3, .L17
 242 0004 1A60     		str	r2, [r3]
 243 0006 7047     		bx	lr
 244              	.L18:
 245              		.align	2
 246              	.L17:
 247 0008 80E100E0 		.word	-536813184
 248              		.cfi_endproc
 249              	.LFE7:
 250              		.size	Surtidor_DisableRxInt, .-Surtidor_DisableRxInt
 251              		.section	.text.Surtidor_Stop,"ax",%progbits
 252              		.align	2
 253              		.global	Surtidor_Stop
 254              		.thumb
 255              		.thumb_func
 256              		.type	Surtidor_Stop, %function
 257              	Surtidor_Stop:
 258              	.LFB3:
 228:.\Generated_Source\PSoC5/Surtidor.c **** {
 259              		.loc 1 228 0
 260              		.cfi_startproc
ARM GAS  C:\Users\RECEPC~1\AppData\Local\Temp\ccllYUoy.s 			page 12


 261              		@ args = 0, pretend = 0, frame = 0
 262              		@ frame_needed = 0, uses_anonymous_args = 0
 263 0000 10B5     		push	{r4, lr}
 264              		.cfi_def_cfa_offset 8
 265              		.cfi_offset 4, -8
 266              		.cfi_offset 14, -4
 230:.\Generated_Source\PSoC5/Surtidor.c ****     enableInterrupts = CyEnterCriticalSection();
 267              		.loc 1 230 0
 268 0002 FFF7FEFF 		bl	CyEnterCriticalSection
 269              	.LVL7:
 270 0006 0446     		mov	r4, r0
 271              	.LVL8:
 234:.\Generated_Source\PSoC5/Surtidor.c ****         Surtidor_RXBITCTR_CONTROL_REG &= (uint8)~Surtidor_CNTR_ENABLE;
 272              		.loc 1 234 0
 273 0008 0A4B     		ldr	r3, .L20
 274 000a 1A78     		ldrb	r2, [r3]	@ zero_extendqisi2
 275 000c 02F0DF02 		and	r2, r2, #223
 276 0010 1A70     		strb	r2, [r3]
 250:.\Generated_Source\PSoC5/Surtidor.c ****         Surtidor_RXSTATUS_ACTL_REG  &= (uint8)~Surtidor_INT_ENABLE;
 277              		.loc 1 250 0
 278 0012 0833     		adds	r3, r3, #8
 279 0014 1A78     		ldrb	r2, [r3]	@ zero_extendqisi2
 280 0016 02F0EF02 		and	r2, r2, #239
 281 001a 1A70     		strb	r2, [r3]
 252:.\Generated_Source\PSoC5/Surtidor.c ****             Surtidor_DisableRxInt();
 282              		.loc 1 252 0
 283 001c FFF7FEFF 		bl	Surtidor_DisableRxInt
 284              	.LVL9:
 257:.\Generated_Source\PSoC5/Surtidor.c ****         Surtidor_TXSTATUS_ACTL_REG &= (uint8)~Surtidor_INT_ENABLE;
 285              		.loc 1 257 0
 286 0020 054B     		ldr	r3, .L20+4
 287 0022 1A78     		ldrb	r2, [r3]	@ zero_extendqisi2
 288 0024 02F0EF02 		and	r2, r2, #239
 289 0028 1A70     		strb	r2, [r3]
 263:.\Generated_Source\PSoC5/Surtidor.c ****     CyExitCriticalSection(enableInterrupts);
 290              		.loc 1 263 0
 291 002a 2046     		mov	r0, r4
 292 002c FFF7FEFF 		bl	CyExitCriticalSection
 293              	.LVL10:
 294 0030 10BD     		pop	{r4, pc}
 295              	.LVL11:
 296              	.L21:
 297 0032 00BF     		.align	2
 298              	.L20:
 299 0034 93640040 		.word	1073767571
 300 0038 96650040 		.word	1073767830
 301              		.cfi_endproc
 302              	.LFE3:
 303              		.size	Surtidor_Stop, .-Surtidor_Stop
 304              		.section	.text.Surtidor_SetRxInterruptMode,"ax",%progbits
 305              		.align	2
 306              		.global	Surtidor_SetRxInterruptMode
 307              		.thumb
 308              		.thumb_func
 309              		.type	Surtidor_SetRxInterruptMode, %function
 310              	Surtidor_SetRxInterruptMode:
 311              	.LFB8:
ARM GAS  C:\Users\RECEPC~1\AppData\Local\Temp\ccllYUoy.s 			page 13


 362:.\Generated_Source\PSoC5/Surtidor.c ****         }
 363:.\Generated_Source\PSoC5/Surtidor.c **** 
 364:.\Generated_Source\PSoC5/Surtidor.c ****     #endif /* Surtidor_RX_INTERRUPT_ENABLED */
 365:.\Generated_Source\PSoC5/Surtidor.c **** 
 366:.\Generated_Source\PSoC5/Surtidor.c **** 
 367:.\Generated_Source\PSoC5/Surtidor.c ****     /*******************************************************************************
 368:.\Generated_Source\PSoC5/Surtidor.c ****     * Function Name: Surtidor_SetRxInterruptMode
 369:.\Generated_Source\PSoC5/Surtidor.c ****     ********************************************************************************
 370:.\Generated_Source\PSoC5/Surtidor.c ****     *
 371:.\Generated_Source\PSoC5/Surtidor.c ****     * Summary:
 372:.\Generated_Source\PSoC5/Surtidor.c ****     *  Configure which status bits trigger an interrupt event
 373:.\Generated_Source\PSoC5/Surtidor.c ****     *
 374:.\Generated_Source\PSoC5/Surtidor.c ****     * Parameters:
 375:.\Generated_Source\PSoC5/Surtidor.c ****     *  IntSrc:  An or'd combination of the desired status bit masks (defined in
 376:.\Generated_Source\PSoC5/Surtidor.c ****     *           the header file)
 377:.\Generated_Source\PSoC5/Surtidor.c ****     *
 378:.\Generated_Source\PSoC5/Surtidor.c ****     * Return:
 379:.\Generated_Source\PSoC5/Surtidor.c ****     *  None.
 380:.\Generated_Source\PSoC5/Surtidor.c ****     *
 381:.\Generated_Source\PSoC5/Surtidor.c ****     * Theory:
 382:.\Generated_Source\PSoC5/Surtidor.c ****     *  Enables the output of specific status bits to the interrupt controller
 383:.\Generated_Source\PSoC5/Surtidor.c ****     *
 384:.\Generated_Source\PSoC5/Surtidor.c ****     *******************************************************************************/
 385:.\Generated_Source\PSoC5/Surtidor.c ****     void Surtidor_SetRxInterruptMode(uint8 intSrc) 
 386:.\Generated_Source\PSoC5/Surtidor.c ****     {
 312              		.loc 1 386 0
 313              		.cfi_startproc
 314              		@ args = 0, pretend = 0, frame = 0
 315              		@ frame_needed = 0, uses_anonymous_args = 0
 316              		@ link register save eliminated.
 317              	.LVL12:
 387:.\Generated_Source\PSoC5/Surtidor.c ****         Surtidor_RXSTATUS_MASK_REG  = intSrc;
 318              		.loc 1 387 0
 319 0000 014B     		ldr	r3, .L23
 320 0002 1870     		strb	r0, [r3]
 321 0004 7047     		bx	lr
 322              	.L24:
 323 0006 00BF     		.align	2
 324              	.L23:
 325 0008 8B640040 		.word	1073767563
 326              		.cfi_endproc
 327              	.LFE8:
 328              		.size	Surtidor_SetRxInterruptMode, .-Surtidor_SetRxInterruptMode
 329              		.section	.text.Surtidor_ReadRxData,"ax",%progbits
 330              		.align	2
 331              		.global	Surtidor_ReadRxData
 332              		.thumb
 333              		.thumb_func
 334              		.type	Surtidor_ReadRxData, %function
 335              	Surtidor_ReadRxData:
 336              	.LFB9:
 388:.\Generated_Source\PSoC5/Surtidor.c ****     }
 389:.\Generated_Source\PSoC5/Surtidor.c **** 
 390:.\Generated_Source\PSoC5/Surtidor.c **** 
 391:.\Generated_Source\PSoC5/Surtidor.c ****     /*******************************************************************************
 392:.\Generated_Source\PSoC5/Surtidor.c ****     * Function Name: Surtidor_ReadRxData
 393:.\Generated_Source\PSoC5/Surtidor.c ****     ********************************************************************************
ARM GAS  C:\Users\RECEPC~1\AppData\Local\Temp\ccllYUoy.s 			page 14


 394:.\Generated_Source\PSoC5/Surtidor.c ****     *
 395:.\Generated_Source\PSoC5/Surtidor.c ****     * Summary:
 396:.\Generated_Source\PSoC5/Surtidor.c ****     *  Returns data in RX Data register without checking status register to
 397:.\Generated_Source\PSoC5/Surtidor.c ****     *  determine if data is valid
 398:.\Generated_Source\PSoC5/Surtidor.c ****     *
 399:.\Generated_Source\PSoC5/Surtidor.c ****     * Parameters:
 400:.\Generated_Source\PSoC5/Surtidor.c ****     *  None.
 401:.\Generated_Source\PSoC5/Surtidor.c ****     *
 402:.\Generated_Source\PSoC5/Surtidor.c ****     * Return:
 403:.\Generated_Source\PSoC5/Surtidor.c ****     *  Received data from RX register
 404:.\Generated_Source\PSoC5/Surtidor.c ****     *
 405:.\Generated_Source\PSoC5/Surtidor.c ****     * Global Variables:
 406:.\Generated_Source\PSoC5/Surtidor.c ****     *  Surtidor_rxBuffer - RAM buffer pointer for save received data.
 407:.\Generated_Source\PSoC5/Surtidor.c ****     *  Surtidor_rxBufferWrite - cyclic index for write to rxBuffer,
 408:.\Generated_Source\PSoC5/Surtidor.c ****     *     checked to identify new data.
 409:.\Generated_Source\PSoC5/Surtidor.c ****     *  Surtidor_rxBufferRead - cyclic index for read from rxBuffer,
 410:.\Generated_Source\PSoC5/Surtidor.c ****     *     incremented after each byte has been read from buffer.
 411:.\Generated_Source\PSoC5/Surtidor.c ****     *  Surtidor_rxBufferLoopDetect - creared if loop condition was detected
 412:.\Generated_Source\PSoC5/Surtidor.c ****     *     in RX ISR.
 413:.\Generated_Source\PSoC5/Surtidor.c ****     *
 414:.\Generated_Source\PSoC5/Surtidor.c ****     * Reentrant:
 415:.\Generated_Source\PSoC5/Surtidor.c ****     *  No.
 416:.\Generated_Source\PSoC5/Surtidor.c ****     *
 417:.\Generated_Source\PSoC5/Surtidor.c ****     *******************************************************************************/
 418:.\Generated_Source\PSoC5/Surtidor.c ****     uint8 Surtidor_ReadRxData(void) 
 419:.\Generated_Source\PSoC5/Surtidor.c ****     {
 337              		.loc 1 419 0
 338              		.cfi_startproc
 339              		@ args = 0, pretend = 0, frame = 0
 340              		@ frame_needed = 0, uses_anonymous_args = 0
 341 0000 10B5     		push	{r4, lr}
 342              		.cfi_def_cfa_offset 8
 343              		.cfi_offset 4, -8
 344              		.cfi_offset 14, -4
 420:.\Generated_Source\PSoC5/Surtidor.c ****         uint8 rxData;
 421:.\Generated_Source\PSoC5/Surtidor.c **** 
 422:.\Generated_Source\PSoC5/Surtidor.c ****         #if(Surtidor_RXBUFFERSIZE > Surtidor_FIFO_LENGTH)
 423:.\Generated_Source\PSoC5/Surtidor.c ****             uint16 loc_rxBufferRead;
 424:.\Generated_Source\PSoC5/Surtidor.c ****             uint16 loc_rxBufferWrite;
 425:.\Generated_Source\PSoC5/Surtidor.c ****             /* Protect variables that could change on interrupt. */
 426:.\Generated_Source\PSoC5/Surtidor.c ****             /* Disable Rx interrupt. */
 427:.\Generated_Source\PSoC5/Surtidor.c ****             #if(Surtidor_RX_INTERRUPT_ENABLED)
 428:.\Generated_Source\PSoC5/Surtidor.c ****                 Surtidor_DisableRxInt();
 345              		.loc 1 428 0
 346 0002 FFF7FEFF 		bl	Surtidor_DisableRxInt
 347              	.LVL13:
 429:.\Generated_Source\PSoC5/Surtidor.c ****             #endif /* Surtidor_RX_INTERRUPT_ENABLED */
 430:.\Generated_Source\PSoC5/Surtidor.c ****             loc_rxBufferRead = Surtidor_rxBufferRead;
 348              		.loc 1 430 0
 349 0006 124B     		ldr	r3, .L31
 350 0008 5A88     		ldrh	r2, [r3, #2]
 351 000a 92B2     		uxth	r2, r2
 352              	.LVL14:
 431:.\Generated_Source\PSoC5/Surtidor.c ****             loc_rxBufferWrite = Surtidor_rxBufferWrite;
 353              		.loc 1 431 0
 354 000c 9988     		ldrh	r1, [r3, #4]
 355 000e 89B2     		uxth	r1, r1
ARM GAS  C:\Users\RECEPC~1\AppData\Local\Temp\ccllYUoy.s 			page 15


 356              	.LVL15:
 432:.\Generated_Source\PSoC5/Surtidor.c **** 
 433:.\Generated_Source\PSoC5/Surtidor.c ****             if( (Surtidor_rxBufferLoopDetect != 0u) || (loc_rxBufferRead != loc_rxBufferWrite) )
 357              		.loc 1 433 0
 358 0010 9B79     		ldrb	r3, [r3, #6]	@ zero_extendqisi2
 359 0012 13F0FF0F 		tst	r3, #255
 360 0016 01D1     		bne	.L26
 361              		.loc 1 433 0 is_stmt 0 discriminator 1
 362 0018 8A42     		cmp	r2, r1
 363 001a 11D0     		beq	.L27
 364              	.L26:
 434:.\Generated_Source\PSoC5/Surtidor.c ****             {
 435:.\Generated_Source\PSoC5/Surtidor.c ****                 rxData = Surtidor_rxBuffer[loc_rxBufferRead];
 365              		.loc 1 435 0 is_stmt 1
 366 001c 0D4B     		ldr	r3, .L31+4
 367 001e 9C5C     		ldrb	r4, [r3, r2]	@ zero_extendqisi2
 368 0020 E4B2     		uxtb	r4, r4
 369              	.LVL16:
 436:.\Generated_Source\PSoC5/Surtidor.c ****                 loc_rxBufferRead++;
 370              		.loc 1 436 0
 371 0022 0132     		adds	r2, r2, #1
 372              	.LVL17:
 373 0024 92B2     		uxth	r2, r2
 374              	.LVL18:
 437:.\Generated_Source\PSoC5/Surtidor.c **** 
 438:.\Generated_Source\PSoC5/Surtidor.c ****                 if(loc_rxBufferRead >= Surtidor_RXBUFFERSIZE)
 375              		.loc 1 438 0
 376 0026 FF2A     		cmp	r2, #255
 377 0028 00D9     		bls	.L28
 439:.\Generated_Source\PSoC5/Surtidor.c ****                 {
 440:.\Generated_Source\PSoC5/Surtidor.c ****                     loc_rxBufferRead = 0u;
 378              		.loc 1 440 0
 379 002a 0022     		movs	r2, #0
 380              	.LVL19:
 381              	.L28:
 441:.\Generated_Source\PSoC5/Surtidor.c ****                 }
 442:.\Generated_Source\PSoC5/Surtidor.c ****                 /* Update the real pointer */
 443:.\Generated_Source\PSoC5/Surtidor.c ****                 Surtidor_rxBufferRead = loc_rxBufferRead;
 382              		.loc 1 443 0
 383 002c 084B     		ldr	r3, .L31
 384 002e 5A80     		strh	r2, [r3, #2]	@ movhi
 444:.\Generated_Source\PSoC5/Surtidor.c **** 
 445:.\Generated_Source\PSoC5/Surtidor.c ****                 if(Surtidor_rxBufferLoopDetect != 0u )
 385              		.loc 1 445 0
 386 0030 9B79     		ldrb	r3, [r3, #6]	@ zero_extendqisi2
 387 0032 13F0FF0F 		tst	r3, #255
 388 0036 06D0     		beq	.L29
 446:.\Generated_Source\PSoC5/Surtidor.c ****                 {
 447:.\Generated_Source\PSoC5/Surtidor.c ****                     Surtidor_rxBufferLoopDetect = 0u;
 389              		.loc 1 447 0
 390 0038 0022     		movs	r2, #0
 391              	.LVL20:
 392 003a 054B     		ldr	r3, .L31
 393 003c 9A71     		strb	r2, [r3, #6]
 394 003e 02E0     		b	.L29
 395              	.LVL21:
 396              	.L27:
ARM GAS  C:\Users\RECEPC~1\AppData\Local\Temp\ccllYUoy.s 			page 16


 448:.\Generated_Source\PSoC5/Surtidor.c ****                     #if( (Surtidor_RX_INTERRUPT_ENABLED) && (Surtidor_FLOW_CONTROL != 0u) && \
 449:.\Generated_Source\PSoC5/Surtidor.c ****                          (Surtidor_RXBUFFERSIZE > Surtidor_FIFO_LENGTH) )
 450:.\Generated_Source\PSoC5/Surtidor.c ****                         /* When Hardware Flow Control selected - return RX mask */
 451:.\Generated_Source\PSoC5/Surtidor.c ****                         #if( Surtidor_HD_ENABLED )
 452:.\Generated_Source\PSoC5/Surtidor.c ****                             if((Surtidor_CONTROL_REG & Surtidor_CTRL_HD_SEND) == 0u)
 453:.\Generated_Source\PSoC5/Surtidor.c ****                             {   /* In Half duplex mode return RX mask only in RX
 454:.\Generated_Source\PSoC5/Surtidor.c ****                                 *  configuration set, otherwise
 455:.\Generated_Source\PSoC5/Surtidor.c ****                                 *  mask will be returned in LoadRxConfig() API.
 456:.\Generated_Source\PSoC5/Surtidor.c ****                                 */
 457:.\Generated_Source\PSoC5/Surtidor.c ****                                 Surtidor_RXSTATUS_MASK_REG  |= Surtidor_RX_STS_FIFO_NOTEMPTY;
 458:.\Generated_Source\PSoC5/Surtidor.c ****                             }
 459:.\Generated_Source\PSoC5/Surtidor.c ****                         #else
 460:.\Generated_Source\PSoC5/Surtidor.c ****                             Surtidor_RXSTATUS_MASK_REG  |= Surtidor_RX_STS_FIFO_NOTEMPTY;
 461:.\Generated_Source\PSoC5/Surtidor.c ****                         #endif /* end Surtidor_HD_ENABLED */
 462:.\Generated_Source\PSoC5/Surtidor.c ****                     #endif /* Surtidor_RX_INTERRUPT_ENABLED and Hardware flow control*/
 463:.\Generated_Source\PSoC5/Surtidor.c ****                 }
 464:.\Generated_Source\PSoC5/Surtidor.c ****             }
 465:.\Generated_Source\PSoC5/Surtidor.c ****             else
 466:.\Generated_Source\PSoC5/Surtidor.c ****             {   /* Needs to check status for RX_STS_FIFO_NOTEMPTY bit*/
 467:.\Generated_Source\PSoC5/Surtidor.c ****                 rxData = Surtidor_RXDATA_REG;
 397              		.loc 1 467 0
 398 0040 054B     		ldr	r3, .L31+8
 399 0042 1C78     		ldrb	r4, [r3]	@ zero_extendqisi2
 400 0044 E4B2     		uxtb	r4, r4
 401              	.LVL22:
 402              	.L29:
 468:.\Generated_Source\PSoC5/Surtidor.c ****             }
 469:.\Generated_Source\PSoC5/Surtidor.c **** 
 470:.\Generated_Source\PSoC5/Surtidor.c ****             /* Enable Rx interrupt. */
 471:.\Generated_Source\PSoC5/Surtidor.c ****             #if(Surtidor_RX_INTERRUPT_ENABLED)
 472:.\Generated_Source\PSoC5/Surtidor.c ****                 Surtidor_EnableRxInt();
 403              		.loc 1 472 0
 404 0046 FFF7FEFF 		bl	Surtidor_EnableRxInt
 405              	.LVL23:
 473:.\Generated_Source\PSoC5/Surtidor.c ****             #endif /* End Surtidor_RX_INTERRUPT_ENABLED */
 474:.\Generated_Source\PSoC5/Surtidor.c **** 
 475:.\Generated_Source\PSoC5/Surtidor.c ****         #else /* Surtidor_RXBUFFERSIZE > Surtidor_FIFO_LENGTH */
 476:.\Generated_Source\PSoC5/Surtidor.c **** 
 477:.\Generated_Source\PSoC5/Surtidor.c ****             /* Needs to check status for RX_STS_FIFO_NOTEMPTY bit*/
 478:.\Generated_Source\PSoC5/Surtidor.c ****             rxData = Surtidor_RXDATA_REG;
 479:.\Generated_Source\PSoC5/Surtidor.c **** 
 480:.\Generated_Source\PSoC5/Surtidor.c ****         #endif /* Surtidor_RXBUFFERSIZE > Surtidor_FIFO_LENGTH */
 481:.\Generated_Source\PSoC5/Surtidor.c **** 
 482:.\Generated_Source\PSoC5/Surtidor.c ****         return(rxData);
 483:.\Generated_Source\PSoC5/Surtidor.c ****     }
 406              		.loc 1 483 0
 407 004a 2046     		mov	r0, r4
 408 004c 10BD     		pop	{r4, pc}
 409              	.LVL24:
 410              	.L32:
 411 004e 00BF     		.align	2
 412              	.L31:
 413 0050 00000000 		.word	.LANCHOR0
 414 0054 00000000 		.word	Surtidor_rxBuffer
 415 0058 4C640040 		.word	1073767500
 416              		.cfi_endproc
 417              	.LFE9:
ARM GAS  C:\Users\RECEPC~1\AppData\Local\Temp\ccllYUoy.s 			page 17


 418              		.size	Surtidor_ReadRxData, .-Surtidor_ReadRxData
 419              		.section	.text.Surtidor_ReadRxStatus,"ax",%progbits
 420              		.align	2
 421              		.global	Surtidor_ReadRxStatus
 422              		.thumb
 423              		.thumb_func
 424              		.type	Surtidor_ReadRxStatus, %function
 425              	Surtidor_ReadRxStatus:
 426              	.LFB10:
 484:.\Generated_Source\PSoC5/Surtidor.c **** 
 485:.\Generated_Source\PSoC5/Surtidor.c **** 
 486:.\Generated_Source\PSoC5/Surtidor.c ****     /*******************************************************************************
 487:.\Generated_Source\PSoC5/Surtidor.c ****     * Function Name: Surtidor_ReadRxStatus
 488:.\Generated_Source\PSoC5/Surtidor.c ****     ********************************************************************************
 489:.\Generated_Source\PSoC5/Surtidor.c ****     *
 490:.\Generated_Source\PSoC5/Surtidor.c ****     * Summary:
 491:.\Generated_Source\PSoC5/Surtidor.c ****     *  Read the current state of the status register
 492:.\Generated_Source\PSoC5/Surtidor.c ****     *  And detect software buffer overflow.
 493:.\Generated_Source\PSoC5/Surtidor.c ****     *
 494:.\Generated_Source\PSoC5/Surtidor.c ****     * Parameters:
 495:.\Generated_Source\PSoC5/Surtidor.c ****     *  None.
 496:.\Generated_Source\PSoC5/Surtidor.c ****     *
 497:.\Generated_Source\PSoC5/Surtidor.c ****     * Return:
 498:.\Generated_Source\PSoC5/Surtidor.c ****     *  Current state of the status register.
 499:.\Generated_Source\PSoC5/Surtidor.c ****     *
 500:.\Generated_Source\PSoC5/Surtidor.c ****     * Global Variables:
 501:.\Generated_Source\PSoC5/Surtidor.c ****     *  Surtidor_rxBufferOverflow - used to indicate overload condition.
 502:.\Generated_Source\PSoC5/Surtidor.c ****     *   It set to one in RX interrupt when there isn?t free space in
 503:.\Generated_Source\PSoC5/Surtidor.c ****     *   Surtidor_rxBufferRead to write new data. This condition returned
 504:.\Generated_Source\PSoC5/Surtidor.c ****     *   and cleared to zero by this API as an
 505:.\Generated_Source\PSoC5/Surtidor.c ****     *   Surtidor_RX_STS_SOFT_BUFF_OVER bit along with RX Status register
 506:.\Generated_Source\PSoC5/Surtidor.c ****     *   bits.
 507:.\Generated_Source\PSoC5/Surtidor.c ****     *
 508:.\Generated_Source\PSoC5/Surtidor.c ****     *******************************************************************************/
 509:.\Generated_Source\PSoC5/Surtidor.c ****     uint8 Surtidor_ReadRxStatus(void) 
 510:.\Generated_Source\PSoC5/Surtidor.c ****     {
 427              		.loc 1 510 0
 428              		.cfi_startproc
 429              		@ args = 0, pretend = 0, frame = 0
 430              		@ frame_needed = 0, uses_anonymous_args = 0
 431              		@ link register save eliminated.
 511:.\Generated_Source\PSoC5/Surtidor.c ****         uint8 status;
 512:.\Generated_Source\PSoC5/Surtidor.c **** 
 513:.\Generated_Source\PSoC5/Surtidor.c ****         status = Surtidor_RXSTATUS_REG & Surtidor_RX_HW_MASK;
 432              		.loc 1 513 0
 433 0000 074B     		ldr	r3, .L35
 434 0002 1878     		ldrb	r0, [r3]	@ zero_extendqisi2
 435 0004 00F07F00 		and	r0, r0, #127
 436              	.LVL25:
 514:.\Generated_Source\PSoC5/Surtidor.c **** 
 515:.\Generated_Source\PSoC5/Surtidor.c ****         #if(Surtidor_RXBUFFERSIZE > Surtidor_FIFO_LENGTH)
 516:.\Generated_Source\PSoC5/Surtidor.c ****             if( Surtidor_rxBufferOverflow != 0u )
 437              		.loc 1 516 0
 438 0008 064B     		ldr	r3, .L35+4
 439 000a DB79     		ldrb	r3, [r3, #7]	@ zero_extendqisi2
 440 000c 13F0FF0F 		tst	r3, #255
 441 0010 04D0     		beq	.L34
ARM GAS  C:\Users\RECEPC~1\AppData\Local\Temp\ccllYUoy.s 			page 18


 517:.\Generated_Source\PSoC5/Surtidor.c ****             {
 518:.\Generated_Source\PSoC5/Surtidor.c ****                 status |= Surtidor_RX_STS_SOFT_BUFF_OVER;
 442              		.loc 1 518 0
 443 0012 40F08000 		orr	r0, r0, #128
 444              	.LVL26:
 519:.\Generated_Source\PSoC5/Surtidor.c ****                 Surtidor_rxBufferOverflow = 0u;
 445              		.loc 1 519 0
 446 0016 0022     		movs	r2, #0
 447 0018 024B     		ldr	r3, .L35+4
 448 001a DA71     		strb	r2, [r3, #7]
 449              	.LVL27:
 450              	.L34:
 520:.\Generated_Source\PSoC5/Surtidor.c ****             }
 521:.\Generated_Source\PSoC5/Surtidor.c ****         #endif /* Surtidor_RXBUFFERSIZE */
 522:.\Generated_Source\PSoC5/Surtidor.c **** 
 523:.\Generated_Source\PSoC5/Surtidor.c ****         return(status);
 524:.\Generated_Source\PSoC5/Surtidor.c ****     }
 451              		.loc 1 524 0
 452 001c 7047     		bx	lr
 453              	.L36:
 454 001e 00BF     		.align	2
 455              	.L35:
 456 0020 6B640040 		.word	1073767531
 457 0024 00000000 		.word	.LANCHOR0
 458              		.cfi_endproc
 459              	.LFE10:
 460              		.size	Surtidor_ReadRxStatus, .-Surtidor_ReadRxStatus
 461              		.section	.text.Surtidor_GetChar,"ax",%progbits
 462              		.align	2
 463              		.global	Surtidor_GetChar
 464              		.thumb
 465              		.thumb_func
 466              		.type	Surtidor_GetChar, %function
 467              	Surtidor_GetChar:
 468              	.LFB11:
 525:.\Generated_Source\PSoC5/Surtidor.c **** 
 526:.\Generated_Source\PSoC5/Surtidor.c **** 
 527:.\Generated_Source\PSoC5/Surtidor.c ****     /*******************************************************************************
 528:.\Generated_Source\PSoC5/Surtidor.c ****     * Function Name: Surtidor_GetChar
 529:.\Generated_Source\PSoC5/Surtidor.c ****     ********************************************************************************
 530:.\Generated_Source\PSoC5/Surtidor.c ****     *
 531:.\Generated_Source\PSoC5/Surtidor.c ****     * Summary:
 532:.\Generated_Source\PSoC5/Surtidor.c ****     *  Reads UART RX buffer immediately, if data is not available or an error
 533:.\Generated_Source\PSoC5/Surtidor.c ****     *  condition exists, zero is returned; otherwise, character is read and
 534:.\Generated_Source\PSoC5/Surtidor.c ****     *  returned.
 535:.\Generated_Source\PSoC5/Surtidor.c ****     *
 536:.\Generated_Source\PSoC5/Surtidor.c ****     * Parameters:
 537:.\Generated_Source\PSoC5/Surtidor.c ****     *  None.
 538:.\Generated_Source\PSoC5/Surtidor.c ****     *
 539:.\Generated_Source\PSoC5/Surtidor.c ****     * Return:
 540:.\Generated_Source\PSoC5/Surtidor.c ****     *  Character read from UART RX buffer. ASCII characters from 1 to 255 are valid.
 541:.\Generated_Source\PSoC5/Surtidor.c ****     *  A returned zero signifies an error condition or no data available.
 542:.\Generated_Source\PSoC5/Surtidor.c ****     *
 543:.\Generated_Source\PSoC5/Surtidor.c ****     * Global Variables:
 544:.\Generated_Source\PSoC5/Surtidor.c ****     *  Surtidor_rxBuffer - RAM buffer pointer for save received data.
 545:.\Generated_Source\PSoC5/Surtidor.c ****     *  Surtidor_rxBufferWrite - cyclic index for write to rxBuffer,
 546:.\Generated_Source\PSoC5/Surtidor.c ****     *     checked to identify new data.
ARM GAS  C:\Users\RECEPC~1\AppData\Local\Temp\ccllYUoy.s 			page 19


 547:.\Generated_Source\PSoC5/Surtidor.c ****     *  Surtidor_rxBufferRead - cyclic index for read from rxBuffer,
 548:.\Generated_Source\PSoC5/Surtidor.c ****     *     incremented after each byte has been read from buffer.
 549:.\Generated_Source\PSoC5/Surtidor.c ****     *  Surtidor_rxBufferLoopDetect - creared if loop condition was detected
 550:.\Generated_Source\PSoC5/Surtidor.c ****     *     in RX ISR.
 551:.\Generated_Source\PSoC5/Surtidor.c ****     *
 552:.\Generated_Source\PSoC5/Surtidor.c ****     * Reentrant:
 553:.\Generated_Source\PSoC5/Surtidor.c ****     *  No.
 554:.\Generated_Source\PSoC5/Surtidor.c ****     *
 555:.\Generated_Source\PSoC5/Surtidor.c ****     *******************************************************************************/
 556:.\Generated_Source\PSoC5/Surtidor.c ****     uint8 Surtidor_GetChar(void) 
 557:.\Generated_Source\PSoC5/Surtidor.c ****     {
 469              		.loc 1 557 0
 470              		.cfi_startproc
 471              		@ args = 0, pretend = 0, frame = 0
 472              		@ frame_needed = 0, uses_anonymous_args = 0
 473 0000 10B5     		push	{r4, lr}
 474              		.cfi_def_cfa_offset 8
 475              		.cfi_offset 4, -8
 476              		.cfi_offset 14, -4
 477              	.LVL28:
 558:.\Generated_Source\PSoC5/Surtidor.c ****         uint8 rxData = 0u;
 559:.\Generated_Source\PSoC5/Surtidor.c ****         uint8 rxStatus;
 560:.\Generated_Source\PSoC5/Surtidor.c **** 
 561:.\Generated_Source\PSoC5/Surtidor.c ****         #if(Surtidor_RXBUFFERSIZE > Surtidor_FIFO_LENGTH)
 562:.\Generated_Source\PSoC5/Surtidor.c ****             uint16 loc_rxBufferRead;
 563:.\Generated_Source\PSoC5/Surtidor.c ****             uint16 loc_rxBufferWrite;
 564:.\Generated_Source\PSoC5/Surtidor.c ****             /* Protect variables that could change on interrupt. */
 565:.\Generated_Source\PSoC5/Surtidor.c ****             /* Disable Rx interrupt. */
 566:.\Generated_Source\PSoC5/Surtidor.c ****             #if(Surtidor_RX_INTERRUPT_ENABLED)
 567:.\Generated_Source\PSoC5/Surtidor.c ****                 Surtidor_DisableRxInt();
 478              		.loc 1 567 0
 479 0002 FFF7FEFF 		bl	Surtidor_DisableRxInt
 480              	.LVL29:
 568:.\Generated_Source\PSoC5/Surtidor.c ****             #endif /* Surtidor_RX_INTERRUPT_ENABLED */
 569:.\Generated_Source\PSoC5/Surtidor.c ****             loc_rxBufferRead = Surtidor_rxBufferRead;
 481              		.loc 1 569 0
 482 0006 184B     		ldr	r3, .L45
 483 0008 5A88     		ldrh	r2, [r3, #2]
 484 000a 92B2     		uxth	r2, r2
 485              	.LVL30:
 570:.\Generated_Source\PSoC5/Surtidor.c ****             loc_rxBufferWrite = Surtidor_rxBufferWrite;
 486              		.loc 1 570 0
 487 000c 9988     		ldrh	r1, [r3, #4]
 488 000e 89B2     		uxth	r1, r1
 489              	.LVL31:
 571:.\Generated_Source\PSoC5/Surtidor.c **** 
 572:.\Generated_Source\PSoC5/Surtidor.c ****             if( (Surtidor_rxBufferLoopDetect != 0u) || (loc_rxBufferRead != loc_rxBufferWrite) )
 490              		.loc 1 572 0
 491 0010 9B79     		ldrb	r3, [r3, #6]	@ zero_extendqisi2
 492 0012 13F0FF0F 		tst	r3, #255
 493 0016 01D1     		bne	.L38
 494              		.loc 1 572 0 is_stmt 0 discriminator 1
 495 0018 8A42     		cmp	r2, r1
 496 001a 11D0     		beq	.L39
 497              	.L38:
 573:.\Generated_Source\PSoC5/Surtidor.c ****             {
 574:.\Generated_Source\PSoC5/Surtidor.c ****                 rxData = Surtidor_rxBuffer[loc_rxBufferRead];
ARM GAS  C:\Users\RECEPC~1\AppData\Local\Temp\ccllYUoy.s 			page 20


 498              		.loc 1 574 0 is_stmt 1
 499 001c 134B     		ldr	r3, .L45+4
 500 001e 9C5C     		ldrb	r4, [r3, r2]	@ zero_extendqisi2
 501 0020 E4B2     		uxtb	r4, r4
 502              	.LVL32:
 575:.\Generated_Source\PSoC5/Surtidor.c ****                 loc_rxBufferRead++;
 503              		.loc 1 575 0
 504 0022 0132     		adds	r2, r2, #1
 505              	.LVL33:
 506 0024 92B2     		uxth	r2, r2
 507              	.LVL34:
 576:.\Generated_Source\PSoC5/Surtidor.c ****                 if(loc_rxBufferRead >= Surtidor_RXBUFFERSIZE)
 508              		.loc 1 576 0
 509 0026 FF2A     		cmp	r2, #255
 510 0028 00D9     		bls	.L40
 577:.\Generated_Source\PSoC5/Surtidor.c ****                 {
 578:.\Generated_Source\PSoC5/Surtidor.c ****                     loc_rxBufferRead = 0u;
 511              		.loc 1 578 0
 512 002a 0022     		movs	r2, #0
 513              	.LVL35:
 514              	.L40:
 579:.\Generated_Source\PSoC5/Surtidor.c ****                 }
 580:.\Generated_Source\PSoC5/Surtidor.c ****                 /* Update the real pointer */
 581:.\Generated_Source\PSoC5/Surtidor.c ****                 Surtidor_rxBufferRead = loc_rxBufferRead;
 515              		.loc 1 581 0
 516 002c 0E4B     		ldr	r3, .L45
 517 002e 5A80     		strh	r2, [r3, #2]	@ movhi
 582:.\Generated_Source\PSoC5/Surtidor.c **** 
 583:.\Generated_Source\PSoC5/Surtidor.c ****                 if(Surtidor_rxBufferLoopDetect > 0u )
 518              		.loc 1 583 0
 519 0030 9B79     		ldrb	r3, [r3, #6]	@ zero_extendqisi2
 520 0032 13F0FF0F 		tst	r3, #255
 521 0036 13D0     		beq	.L41
 584:.\Generated_Source\PSoC5/Surtidor.c ****                 {
 585:.\Generated_Source\PSoC5/Surtidor.c ****                     Surtidor_rxBufferLoopDetect = 0u;
 522              		.loc 1 585 0
 523 0038 0022     		movs	r2, #0
 524              	.LVL36:
 525 003a 0B4B     		ldr	r3, .L45
 526 003c 9A71     		strb	r2, [r3, #6]
 527 003e 0FE0     		b	.L41
 528              	.LVL37:
 529              	.L39:
 586:.\Generated_Source\PSoC5/Surtidor.c ****                     #if( (Surtidor_RX_INTERRUPT_ENABLED) && (Surtidor_FLOW_CONTROL != 0u) )
 587:.\Generated_Source\PSoC5/Surtidor.c ****                         /* When Hardware Flow Control selected - return RX mask */
 588:.\Generated_Source\PSoC5/Surtidor.c ****                         #if( Surtidor_HD_ENABLED )
 589:.\Generated_Source\PSoC5/Surtidor.c ****                             if((Surtidor_CONTROL_REG & Surtidor_CTRL_HD_SEND) == 0u)
 590:.\Generated_Source\PSoC5/Surtidor.c ****                             {   /* In Half duplex mode return RX mask only if
 591:.\Generated_Source\PSoC5/Surtidor.c ****                                 *  RX configuration set, otherwise
 592:.\Generated_Source\PSoC5/Surtidor.c ****                                 *  mask will be returned in LoadRxConfig() API.
 593:.\Generated_Source\PSoC5/Surtidor.c ****                                 */
 594:.\Generated_Source\PSoC5/Surtidor.c ****                                 Surtidor_RXSTATUS_MASK_REG  |= Surtidor_RX_STS_FIFO_NOTEMPTY;
 595:.\Generated_Source\PSoC5/Surtidor.c ****                             }
 596:.\Generated_Source\PSoC5/Surtidor.c ****                         #else
 597:.\Generated_Source\PSoC5/Surtidor.c ****                             Surtidor_RXSTATUS_MASK_REG  |= Surtidor_RX_STS_FIFO_NOTEMPTY;
 598:.\Generated_Source\PSoC5/Surtidor.c ****                         #endif /* end Surtidor_HD_ENABLED */
 599:.\Generated_Source\PSoC5/Surtidor.c ****                     #endif /* Surtidor_RX_INTERRUPT_ENABLED and Hardware flow control*/
ARM GAS  C:\Users\RECEPC~1\AppData\Local\Temp\ccllYUoy.s 			page 21


 600:.\Generated_Source\PSoC5/Surtidor.c ****                 }
 601:.\Generated_Source\PSoC5/Surtidor.c **** 
 602:.\Generated_Source\PSoC5/Surtidor.c ****             }
 603:.\Generated_Source\PSoC5/Surtidor.c ****             else
 604:.\Generated_Source\PSoC5/Surtidor.c ****             {   rxStatus = Surtidor_RXSTATUS_REG;
 530              		.loc 1 604 0
 531 0040 0B4B     		ldr	r3, .L45+8
 532 0042 1B78     		ldrb	r3, [r3]	@ zero_extendqisi2
 533 0044 DBB2     		uxtb	r3, r3
 534              	.LVL38:
 605:.\Generated_Source\PSoC5/Surtidor.c ****                 if((rxStatus & Surtidor_RX_STS_FIFO_NOTEMPTY) != 0u)
 535              		.loc 1 605 0
 536 0046 13F0200F 		tst	r3, #32
 537 004a 06D0     		beq	.L43
 606:.\Generated_Source\PSoC5/Surtidor.c ****                 {   /* Read received data from FIFO*/
 607:.\Generated_Source\PSoC5/Surtidor.c ****                     rxData = Surtidor_RXDATA_REG;
 538              		.loc 1 607 0
 539 004c 094A     		ldr	r2, .L45+12
 540              	.LVL39:
 541 004e 1478     		ldrb	r4, [r2]	@ zero_extendqisi2
 542 0050 E4B2     		uxtb	r4, r4
 543              	.LVL40:
 608:.\Generated_Source\PSoC5/Surtidor.c ****                     /*Check status on error*/
 609:.\Generated_Source\PSoC5/Surtidor.c ****                     if((rxStatus & (Surtidor_RX_STS_BREAK | Surtidor_RX_STS_PAR_ERROR |
 544              		.loc 1 609 0
 545 0052 13F01E0F 		tst	r3, #30
 546 0056 02D1     		bne	.L44
 547 0058 02E0     		b	.L41
 548              	.LVL41:
 549              	.L43:
 558:.\Generated_Source\PSoC5/Surtidor.c ****         uint8 rxData = 0u;
 550              		.loc 1 558 0
 551 005a 0024     		movs	r4, #0
 552 005c 00E0     		b	.L41
 553              	.LVL42:
 554              	.L44:
 610:.\Generated_Source\PSoC5/Surtidor.c ****                                    Surtidor_RX_STS_STOP_ERROR | Surtidor_RX_STS_OVERRUN)) != 0u)
 611:.\Generated_Source\PSoC5/Surtidor.c ****                     {
 612:.\Generated_Source\PSoC5/Surtidor.c ****                         rxData = 0u;
 555              		.loc 1 612 0
 556 005e 0024     		movs	r4, #0
 557              	.LVL43:
 558              	.L41:
 613:.\Generated_Source\PSoC5/Surtidor.c ****                     }
 614:.\Generated_Source\PSoC5/Surtidor.c ****                 }
 615:.\Generated_Source\PSoC5/Surtidor.c ****             }
 616:.\Generated_Source\PSoC5/Surtidor.c **** 
 617:.\Generated_Source\PSoC5/Surtidor.c ****             /* Enable Rx interrupt. */
 618:.\Generated_Source\PSoC5/Surtidor.c ****             #if(Surtidor_RX_INTERRUPT_ENABLED)
 619:.\Generated_Source\PSoC5/Surtidor.c ****                 Surtidor_EnableRxInt();
 559              		.loc 1 619 0
 560 0060 FFF7FEFF 		bl	Surtidor_EnableRxInt
 561              	.LVL44:
 620:.\Generated_Source\PSoC5/Surtidor.c ****             #endif /* Surtidor_RX_INTERRUPT_ENABLED */
 621:.\Generated_Source\PSoC5/Surtidor.c **** 
 622:.\Generated_Source\PSoC5/Surtidor.c ****         #else /* Surtidor_RXBUFFERSIZE > Surtidor_FIFO_LENGTH */
 623:.\Generated_Source\PSoC5/Surtidor.c **** 
ARM GAS  C:\Users\RECEPC~1\AppData\Local\Temp\ccllYUoy.s 			page 22


 624:.\Generated_Source\PSoC5/Surtidor.c ****             rxStatus =Surtidor_RXSTATUS_REG;
 625:.\Generated_Source\PSoC5/Surtidor.c ****             if((rxStatus & Surtidor_RX_STS_FIFO_NOTEMPTY) != 0u)
 626:.\Generated_Source\PSoC5/Surtidor.c ****             {   /* Read received data from FIFO*/
 627:.\Generated_Source\PSoC5/Surtidor.c ****                 rxData = Surtidor_RXDATA_REG;
 628:.\Generated_Source\PSoC5/Surtidor.c ****                 /*Check status on error*/
 629:.\Generated_Source\PSoC5/Surtidor.c ****                 if((rxStatus & (Surtidor_RX_STS_BREAK | Surtidor_RX_STS_PAR_ERROR |
 630:.\Generated_Source\PSoC5/Surtidor.c ****                                Surtidor_RX_STS_STOP_ERROR | Surtidor_RX_STS_OVERRUN)) != 0u)
 631:.\Generated_Source\PSoC5/Surtidor.c ****                 {
 632:.\Generated_Source\PSoC5/Surtidor.c ****                     rxData = 0u;
 633:.\Generated_Source\PSoC5/Surtidor.c ****                 }
 634:.\Generated_Source\PSoC5/Surtidor.c ****             }
 635:.\Generated_Source\PSoC5/Surtidor.c ****         #endif /* Surtidor_RXBUFFERSIZE > Surtidor_FIFO_LENGTH */
 636:.\Generated_Source\PSoC5/Surtidor.c **** 
 637:.\Generated_Source\PSoC5/Surtidor.c ****         return(rxData);
 638:.\Generated_Source\PSoC5/Surtidor.c ****     }
 562              		.loc 1 638 0
 563 0064 2046     		mov	r0, r4
 564 0066 10BD     		pop	{r4, pc}
 565              	.LVL45:
 566              	.L46:
 567              		.align	2
 568              	.L45:
 569 0068 00000000 		.word	.LANCHOR0
 570 006c 00000000 		.word	Surtidor_rxBuffer
 571 0070 6B640040 		.word	1073767531
 572 0074 4C640040 		.word	1073767500
 573              		.cfi_endproc
 574              	.LFE11:
 575              		.size	Surtidor_GetChar, .-Surtidor_GetChar
 576              		.section	.text.Surtidor_GetByte,"ax",%progbits
 577              		.align	2
 578              		.global	Surtidor_GetByte
 579              		.thumb
 580              		.thumb_func
 581              		.type	Surtidor_GetByte, %function
 582              	Surtidor_GetByte:
 583              	.LFB12:
 639:.\Generated_Source\PSoC5/Surtidor.c **** 
 640:.\Generated_Source\PSoC5/Surtidor.c **** 
 641:.\Generated_Source\PSoC5/Surtidor.c ****     /*******************************************************************************
 642:.\Generated_Source\PSoC5/Surtidor.c ****     * Function Name: Surtidor_GetByte
 643:.\Generated_Source\PSoC5/Surtidor.c ****     ********************************************************************************
 644:.\Generated_Source\PSoC5/Surtidor.c ****     *
 645:.\Generated_Source\PSoC5/Surtidor.c ****     * Summary:
 646:.\Generated_Source\PSoC5/Surtidor.c ****     *  Grab the next available byte of data from the recieve FIFO
 647:.\Generated_Source\PSoC5/Surtidor.c ****     *
 648:.\Generated_Source\PSoC5/Surtidor.c ****     * Parameters:
 649:.\Generated_Source\PSoC5/Surtidor.c ****     *  None.
 650:.\Generated_Source\PSoC5/Surtidor.c ****     *
 651:.\Generated_Source\PSoC5/Surtidor.c ****     * Return:
 652:.\Generated_Source\PSoC5/Surtidor.c ****     *  MSB contains Status Register and LSB contains UART RX data
 653:.\Generated_Source\PSoC5/Surtidor.c ****     *
 654:.\Generated_Source\PSoC5/Surtidor.c ****     * Reentrant:
 655:.\Generated_Source\PSoC5/Surtidor.c ****     *  No.
 656:.\Generated_Source\PSoC5/Surtidor.c ****     *
 657:.\Generated_Source\PSoC5/Surtidor.c ****     *******************************************************************************/
 658:.\Generated_Source\PSoC5/Surtidor.c ****     uint16 Surtidor_GetByte(void) 
ARM GAS  C:\Users\RECEPC~1\AppData\Local\Temp\ccllYUoy.s 			page 23


 659:.\Generated_Source\PSoC5/Surtidor.c ****     {
 584              		.loc 1 659 0
 585              		.cfi_startproc
 586              		@ args = 0, pretend = 0, frame = 0
 587              		@ frame_needed = 0, uses_anonymous_args = 0
 588 0000 10B5     		push	{r4, lr}
 589              		.cfi_def_cfa_offset 8
 590              		.cfi_offset 4, -8
 591              		.cfi_offset 14, -4
 660:.\Generated_Source\PSoC5/Surtidor.c ****         return ( ((uint16)Surtidor_ReadRxStatus() << 8u) | Surtidor_ReadRxData() );
 592              		.loc 1 660 0
 593 0002 FFF7FEFF 		bl	Surtidor_ReadRxStatus
 594              	.LVL46:
 595 0006 0402     		lsls	r4, r0, #8
 596 0008 FFF7FEFF 		bl	Surtidor_ReadRxData
 597              	.LVL47:
 598 000c 2043     		orrs	r0, r0, r4
 661:.\Generated_Source\PSoC5/Surtidor.c ****     }
 599              		.loc 1 661 0
 600 000e 80B2     		uxth	r0, r0
 601 0010 10BD     		pop	{r4, pc}
 602              		.cfi_endproc
 603              	.LFE12:
 604              		.size	Surtidor_GetByte, .-Surtidor_GetByte
 605 0012 00BF     		.section	.text.Surtidor_GetRxBufferSize,"ax",%progbits
 606              		.align	2
 607              		.global	Surtidor_GetRxBufferSize
 608              		.thumb
 609              		.thumb_func
 610              		.type	Surtidor_GetRxBufferSize, %function
 611              	Surtidor_GetRxBufferSize:
 612              	.LFB13:
 662:.\Generated_Source\PSoC5/Surtidor.c **** 
 663:.\Generated_Source\PSoC5/Surtidor.c **** 
 664:.\Generated_Source\PSoC5/Surtidor.c ****     /*******************************************************************************
 665:.\Generated_Source\PSoC5/Surtidor.c ****     * Function Name: Surtidor_GetRxBufferSize
 666:.\Generated_Source\PSoC5/Surtidor.c ****     ********************************************************************************
 667:.\Generated_Source\PSoC5/Surtidor.c ****     *
 668:.\Generated_Source\PSoC5/Surtidor.c ****     * Summary:
 669:.\Generated_Source\PSoC5/Surtidor.c ****     *  Determine the amount of bytes left in the RX buffer and return the count in
 670:.\Generated_Source\PSoC5/Surtidor.c ****     *  bytes
 671:.\Generated_Source\PSoC5/Surtidor.c ****     *
 672:.\Generated_Source\PSoC5/Surtidor.c ****     * Parameters:
 673:.\Generated_Source\PSoC5/Surtidor.c ****     *  None.
 674:.\Generated_Source\PSoC5/Surtidor.c ****     *
 675:.\Generated_Source\PSoC5/Surtidor.c ****     * Return:
 676:.\Generated_Source\PSoC5/Surtidor.c ****     *  uint16: Integer count of the number of bytes left
 677:.\Generated_Source\PSoC5/Surtidor.c ****     *  in the RX buffer
 678:.\Generated_Source\PSoC5/Surtidor.c ****     *
 679:.\Generated_Source\PSoC5/Surtidor.c ****     * Global Variables:
 680:.\Generated_Source\PSoC5/Surtidor.c ****     *  Surtidor_rxBufferWrite - used to calculate left bytes.
 681:.\Generated_Source\PSoC5/Surtidor.c ****     *  Surtidor_rxBufferRead - used to calculate left bytes.
 682:.\Generated_Source\PSoC5/Surtidor.c ****     *  Surtidor_rxBufferLoopDetect - checked to decide left bytes amount.
 683:.\Generated_Source\PSoC5/Surtidor.c ****     *
 684:.\Generated_Source\PSoC5/Surtidor.c ****     * Reentrant:
 685:.\Generated_Source\PSoC5/Surtidor.c ****     *  No.
 686:.\Generated_Source\PSoC5/Surtidor.c ****     *
ARM GAS  C:\Users\RECEPC~1\AppData\Local\Temp\ccllYUoy.s 			page 24


 687:.\Generated_Source\PSoC5/Surtidor.c ****     * Theory:
 688:.\Generated_Source\PSoC5/Surtidor.c ****     *  Allows the user to find out how full the RX Buffer is.
 689:.\Generated_Source\PSoC5/Surtidor.c ****     *
 690:.\Generated_Source\PSoC5/Surtidor.c ****     *******************************************************************************/
 691:.\Generated_Source\PSoC5/Surtidor.c ****     uint16 Surtidor_GetRxBufferSize(void)
 692:.\Generated_Source\PSoC5/Surtidor.c ****                                                             
 693:.\Generated_Source\PSoC5/Surtidor.c ****     {
 613              		.loc 1 693 0
 614              		.cfi_startproc
 615              		@ args = 0, pretend = 0, frame = 0
 616              		@ frame_needed = 0, uses_anonymous_args = 0
 617 0000 10B5     		push	{r4, lr}
 618              		.cfi_def_cfa_offset 8
 619              		.cfi_offset 4, -8
 620              		.cfi_offset 14, -4
 694:.\Generated_Source\PSoC5/Surtidor.c ****         uint16 size;
 695:.\Generated_Source\PSoC5/Surtidor.c **** 
 696:.\Generated_Source\PSoC5/Surtidor.c ****         #if(Surtidor_RXBUFFERSIZE > Surtidor_FIFO_LENGTH)
 697:.\Generated_Source\PSoC5/Surtidor.c **** 
 698:.\Generated_Source\PSoC5/Surtidor.c ****             /* Disable Rx interrupt. */
 699:.\Generated_Source\PSoC5/Surtidor.c ****             /* Protect variables that could change on interrupt. */
 700:.\Generated_Source\PSoC5/Surtidor.c ****             #if(Surtidor_RX_INTERRUPT_ENABLED)
 701:.\Generated_Source\PSoC5/Surtidor.c ****                 Surtidor_DisableRxInt();
 621              		.loc 1 701 0
 622 0002 FFF7FEFF 		bl	Surtidor_DisableRxInt
 623              	.LVL48:
 702:.\Generated_Source\PSoC5/Surtidor.c ****             #endif /* Surtidor_RX_INTERRUPT_ENABLED */
 703:.\Generated_Source\PSoC5/Surtidor.c **** 
 704:.\Generated_Source\PSoC5/Surtidor.c ****             if(Surtidor_rxBufferRead == Surtidor_rxBufferWrite)
 624              		.loc 1 704 0
 625 0006 154B     		ldr	r3, .L53
 626 0008 5A88     		ldrh	r2, [r3, #2]
 627 000a 92B2     		uxth	r2, r2
 628 000c 9B88     		ldrh	r3, [r3, #4]
 629 000e 9BB2     		uxth	r3, r3
 630 0010 9A42     		cmp	r2, r3
 631 0012 07D1     		bne	.L49
 705:.\Generated_Source\PSoC5/Surtidor.c ****             {
 706:.\Generated_Source\PSoC5/Surtidor.c ****                 if(Surtidor_rxBufferLoopDetect > 0u)
 632              		.loc 1 706 0
 633 0014 114B     		ldr	r3, .L53
 634 0016 9B79     		ldrb	r3, [r3, #6]	@ zero_extendqisi2
 635 0018 13F0FF0F 		tst	r3, #255
 636 001c 19D0     		beq	.L52
 707:.\Generated_Source\PSoC5/Surtidor.c ****                 {
 708:.\Generated_Source\PSoC5/Surtidor.c ****                     size = Surtidor_RXBUFFERSIZE;
 637              		.loc 1 708 0
 638 001e 4FF48074 		mov	r4, #256
 639 0022 17E0     		b	.L50
 640              	.L49:
 709:.\Generated_Source\PSoC5/Surtidor.c ****                 }
 710:.\Generated_Source\PSoC5/Surtidor.c ****                 else
 711:.\Generated_Source\PSoC5/Surtidor.c ****                 {
 712:.\Generated_Source\PSoC5/Surtidor.c ****                     size = 0u;
 713:.\Generated_Source\PSoC5/Surtidor.c ****                 }
 714:.\Generated_Source\PSoC5/Surtidor.c ****             }
 715:.\Generated_Source\PSoC5/Surtidor.c ****             else if(Surtidor_rxBufferRead < Surtidor_rxBufferWrite)
ARM GAS  C:\Users\RECEPC~1\AppData\Local\Temp\ccllYUoy.s 			page 25


 641              		.loc 1 715 0
 642 0024 0D4B     		ldr	r3, .L53
 643 0026 5A88     		ldrh	r2, [r3, #2]
 644 0028 92B2     		uxth	r2, r2
 645 002a 9B88     		ldrh	r3, [r3, #4]
 646 002c 9BB2     		uxth	r3, r3
 647 002e 9A42     		cmp	r2, r3
 648 0030 05D2     		bcs	.L51
 716:.\Generated_Source\PSoC5/Surtidor.c ****             {
 717:.\Generated_Source\PSoC5/Surtidor.c ****                 size = (Surtidor_rxBufferWrite - Surtidor_rxBufferRead);
 649              		.loc 1 717 0
 650 0032 0A4B     		ldr	r3, .L53
 651 0034 9C88     		ldrh	r4, [r3, #4]
 652 0036 5B88     		ldrh	r3, [r3, #2]
 653 0038 E41A     		subs	r4, r4, r3
 654 003a A4B2     		uxth	r4, r4
 655              	.LVL49:
 656 003c 0AE0     		b	.L50
 657              	.LVL50:
 658              	.L51:
 718:.\Generated_Source\PSoC5/Surtidor.c ****             }
 719:.\Generated_Source\PSoC5/Surtidor.c ****             else
 720:.\Generated_Source\PSoC5/Surtidor.c ****             {
 721:.\Generated_Source\PSoC5/Surtidor.c ****                 size = (Surtidor_RXBUFFERSIZE - Surtidor_rxBufferRead) + Surtidor_rxBufferWrite;
 659              		.loc 1 721 0
 660 003e 074B     		ldr	r3, .L53
 661 0040 9C88     		ldrh	r4, [r3, #4]
 662 0042 A4B2     		uxth	r4, r4
 663 0044 5B88     		ldrh	r3, [r3, #2]
 664 0046 9BB2     		uxth	r3, r3
 665 0048 E41A     		subs	r4, r4, r3
 666 004a 04F58074 		add	r4, r4, #256
 667 004e A4B2     		uxth	r4, r4
 668              	.LVL51:
 669 0050 00E0     		b	.L50
 670              	.LVL52:
 671              	.L52:
 712:.\Generated_Source\PSoC5/Surtidor.c ****                     size = 0u;
 672              		.loc 1 712 0
 673 0052 0024     		movs	r4, #0
 674              	.L50:
 675              	.LVL53:
 722:.\Generated_Source\PSoC5/Surtidor.c ****             }
 723:.\Generated_Source\PSoC5/Surtidor.c **** 
 724:.\Generated_Source\PSoC5/Surtidor.c ****             /* Enable Rx interrupt. */
 725:.\Generated_Source\PSoC5/Surtidor.c ****             #if(Surtidor_RX_INTERRUPT_ENABLED)
 726:.\Generated_Source\PSoC5/Surtidor.c ****                 Surtidor_EnableRxInt();
 676              		.loc 1 726 0
 677 0054 FFF7FEFF 		bl	Surtidor_EnableRxInt
 678              	.LVL54:
 727:.\Generated_Source\PSoC5/Surtidor.c ****             #endif /* End Surtidor_RX_INTERRUPT_ENABLED */
 728:.\Generated_Source\PSoC5/Surtidor.c **** 
 729:.\Generated_Source\PSoC5/Surtidor.c ****         #else /* Surtidor_RXBUFFERSIZE > Surtidor_FIFO_LENGTH */
 730:.\Generated_Source\PSoC5/Surtidor.c **** 
 731:.\Generated_Source\PSoC5/Surtidor.c ****             /* We can only know if there is data in the fifo. */
 732:.\Generated_Source\PSoC5/Surtidor.c ****             size = ((Surtidor_RXSTATUS_REG & Surtidor_RX_STS_FIFO_NOTEMPTY) != 0u) ? 1u : 0u;
 733:.\Generated_Source\PSoC5/Surtidor.c **** 
ARM GAS  C:\Users\RECEPC~1\AppData\Local\Temp\ccllYUoy.s 			page 26


 734:.\Generated_Source\PSoC5/Surtidor.c ****         #endif /* End Surtidor_RXBUFFERSIZE > Surtidor_FIFO_LENGTH */
 735:.\Generated_Source\PSoC5/Surtidor.c **** 
 736:.\Generated_Source\PSoC5/Surtidor.c ****         return(size);
 737:.\Generated_Source\PSoC5/Surtidor.c ****     }
 679              		.loc 1 737 0
 680 0058 2046     		mov	r0, r4
 681 005a 10BD     		pop	{r4, pc}
 682              	.LVL55:
 683              	.L54:
 684              		.align	2
 685              	.L53:
 686 005c 00000000 		.word	.LANCHOR0
 687              		.cfi_endproc
 688              	.LFE13:
 689              		.size	Surtidor_GetRxBufferSize, .-Surtidor_GetRxBufferSize
 690              		.section	.text.Surtidor_ClearRxBuffer,"ax",%progbits
 691              		.align	2
 692              		.global	Surtidor_ClearRxBuffer
 693              		.thumb
 694              		.thumb_func
 695              		.type	Surtidor_ClearRxBuffer, %function
 696              	Surtidor_ClearRxBuffer:
 697              	.LFB14:
 738:.\Generated_Source\PSoC5/Surtidor.c **** 
 739:.\Generated_Source\PSoC5/Surtidor.c **** 
 740:.\Generated_Source\PSoC5/Surtidor.c ****     /*******************************************************************************
 741:.\Generated_Source\PSoC5/Surtidor.c ****     * Function Name: Surtidor_ClearRxBuffer
 742:.\Generated_Source\PSoC5/Surtidor.c ****     ********************************************************************************
 743:.\Generated_Source\PSoC5/Surtidor.c ****     *
 744:.\Generated_Source\PSoC5/Surtidor.c ****     * Summary:
 745:.\Generated_Source\PSoC5/Surtidor.c ****     *  Clears the RX RAM buffer by setting the read and write pointers both to zero.
 746:.\Generated_Source\PSoC5/Surtidor.c ****     *  Clears hardware RX FIFO.
 747:.\Generated_Source\PSoC5/Surtidor.c ****     *
 748:.\Generated_Source\PSoC5/Surtidor.c ****     * Parameters:
 749:.\Generated_Source\PSoC5/Surtidor.c ****     *  None.
 750:.\Generated_Source\PSoC5/Surtidor.c ****     *
 751:.\Generated_Source\PSoC5/Surtidor.c ****     * Return:
 752:.\Generated_Source\PSoC5/Surtidor.c ****     *  None.
 753:.\Generated_Source\PSoC5/Surtidor.c ****     *
 754:.\Generated_Source\PSoC5/Surtidor.c ****     * Global Variables:
 755:.\Generated_Source\PSoC5/Surtidor.c ****     *  Surtidor_rxBufferWrite - cleared to zero.
 756:.\Generated_Source\PSoC5/Surtidor.c ****     *  Surtidor_rxBufferRead - cleared to zero.
 757:.\Generated_Source\PSoC5/Surtidor.c ****     *  Surtidor_rxBufferLoopDetect - cleared to zero.
 758:.\Generated_Source\PSoC5/Surtidor.c ****     *  Surtidor_rxBufferOverflow - cleared to zero.
 759:.\Generated_Source\PSoC5/Surtidor.c ****     *
 760:.\Generated_Source\PSoC5/Surtidor.c ****     * Reentrant:
 761:.\Generated_Source\PSoC5/Surtidor.c ****     *  No.
 762:.\Generated_Source\PSoC5/Surtidor.c ****     *
 763:.\Generated_Source\PSoC5/Surtidor.c ****     * Theory:
 764:.\Generated_Source\PSoC5/Surtidor.c ****     *  Setting the pointers to zero makes the system believe there is no data to
 765:.\Generated_Source\PSoC5/Surtidor.c ****     *  read and writing will resume at address 0 overwriting any data that may
 766:.\Generated_Source\PSoC5/Surtidor.c ****     *  have remained in the RAM.
 767:.\Generated_Source\PSoC5/Surtidor.c ****     *
 768:.\Generated_Source\PSoC5/Surtidor.c ****     * Side Effects:
 769:.\Generated_Source\PSoC5/Surtidor.c ****     *  Any received data not read from the RAM or FIFO buffer will be lost.
 770:.\Generated_Source\PSoC5/Surtidor.c ****     *******************************************************************************/
 771:.\Generated_Source\PSoC5/Surtidor.c ****     void Surtidor_ClearRxBuffer(void) 
ARM GAS  C:\Users\RECEPC~1\AppData\Local\Temp\ccllYUoy.s 			page 27


 772:.\Generated_Source\PSoC5/Surtidor.c ****     {
 698              		.loc 1 772 0
 699              		.cfi_startproc
 700              		@ args = 0, pretend = 0, frame = 0
 701              		@ frame_needed = 0, uses_anonymous_args = 0
 702 0000 08B5     		push	{r3, lr}
 703              		.cfi_def_cfa_offset 8
 704              		.cfi_offset 3, -8
 705              		.cfi_offset 14, -4
 773:.\Generated_Source\PSoC5/Surtidor.c ****         uint8 enableInterrupts;
 774:.\Generated_Source\PSoC5/Surtidor.c **** 
 775:.\Generated_Source\PSoC5/Surtidor.c ****         /* clear the HW FIFO */
 776:.\Generated_Source\PSoC5/Surtidor.c ****         /* Enter critical section */
 777:.\Generated_Source\PSoC5/Surtidor.c ****         enableInterrupts = CyEnterCriticalSection();
 706              		.loc 1 777 0
 707 0002 FFF7FEFF 		bl	CyEnterCriticalSection
 708              	.LVL56:
 778:.\Generated_Source\PSoC5/Surtidor.c ****         Surtidor_RXDATA_AUX_CTL_REG |=  Surtidor_RX_FIFO_CLR;
 709              		.loc 1 778 0
 710 0006 0B4B     		ldr	r3, .L56
 711 0008 1A78     		ldrb	r2, [r3]	@ zero_extendqisi2
 712 000a 42F00102 		orr	r2, r2, #1
 713 000e 1A70     		strb	r2, [r3]
 779:.\Generated_Source\PSoC5/Surtidor.c ****         Surtidor_RXDATA_AUX_CTL_REG &= (uint8)~Surtidor_RX_FIFO_CLR;
 714              		.loc 1 779 0
 715 0010 1A78     		ldrb	r2, [r3]	@ zero_extendqisi2
 716 0012 02F0FE02 		and	r2, r2, #254
 717 0016 1A70     		strb	r2, [r3]
 780:.\Generated_Source\PSoC5/Surtidor.c ****         /* Exit critical section */
 781:.\Generated_Source\PSoC5/Surtidor.c ****         CyExitCriticalSection(enableInterrupts);
 718              		.loc 1 781 0
 719 0018 FFF7FEFF 		bl	CyExitCriticalSection
 720              	.LVL57:
 782:.\Generated_Source\PSoC5/Surtidor.c **** 
 783:.\Generated_Source\PSoC5/Surtidor.c ****         #if(Surtidor_RXBUFFERSIZE > Surtidor_FIFO_LENGTH)
 784:.\Generated_Source\PSoC5/Surtidor.c ****             /* Disable Rx interrupt. */
 785:.\Generated_Source\PSoC5/Surtidor.c ****             /* Protect variables that could change on interrupt. */
 786:.\Generated_Source\PSoC5/Surtidor.c ****             #if(Surtidor_RX_INTERRUPT_ENABLED)
 787:.\Generated_Source\PSoC5/Surtidor.c ****                 Surtidor_DisableRxInt();
 721              		.loc 1 787 0
 722 001c FFF7FEFF 		bl	Surtidor_DisableRxInt
 723              	.LVL58:
 788:.\Generated_Source\PSoC5/Surtidor.c ****             #endif /* End Surtidor_RX_INTERRUPT_ENABLED */
 789:.\Generated_Source\PSoC5/Surtidor.c **** 
 790:.\Generated_Source\PSoC5/Surtidor.c ****             Surtidor_rxBufferRead = 0u;
 724              		.loc 1 790 0
 725 0020 054B     		ldr	r3, .L56+4
 726 0022 0022     		movs	r2, #0
 727 0024 5A80     		strh	r2, [r3, #2]	@ movhi
 791:.\Generated_Source\PSoC5/Surtidor.c ****             Surtidor_rxBufferWrite = 0u;
 728              		.loc 1 791 0
 729 0026 9A80     		strh	r2, [r3, #4]	@ movhi
 792:.\Generated_Source\PSoC5/Surtidor.c ****             Surtidor_rxBufferLoopDetect = 0u;
 730              		.loc 1 792 0
 731 0028 9A71     		strb	r2, [r3, #6]
 793:.\Generated_Source\PSoC5/Surtidor.c ****             Surtidor_rxBufferOverflow = 0u;
 732              		.loc 1 793 0
ARM GAS  C:\Users\RECEPC~1\AppData\Local\Temp\ccllYUoy.s 			page 28


 733 002a DA71     		strb	r2, [r3, #7]
 794:.\Generated_Source\PSoC5/Surtidor.c **** 
 795:.\Generated_Source\PSoC5/Surtidor.c ****             /* Enable Rx interrupt. */
 796:.\Generated_Source\PSoC5/Surtidor.c ****             #if(Surtidor_RX_INTERRUPT_ENABLED)
 797:.\Generated_Source\PSoC5/Surtidor.c ****                 Surtidor_EnableRxInt();
 734              		.loc 1 797 0
 735 002c FFF7FEFF 		bl	Surtidor_EnableRxInt
 736              	.LVL59:
 737 0030 08BD     		pop	{r3, pc}
 738              	.L57:
 739 0032 00BF     		.align	2
 740              	.L56:
 741 0034 9C640040 		.word	1073767580
 742 0038 00000000 		.word	.LANCHOR0
 743              		.cfi_endproc
 744              	.LFE14:
 745              		.size	Surtidor_ClearRxBuffer, .-Surtidor_ClearRxBuffer
 746              		.section	.text.Surtidor_SetRxAddressMode,"ax",%progbits
 747              		.align	2
 748              		.global	Surtidor_SetRxAddressMode
 749              		.thumb
 750              		.thumb_func
 751              		.type	Surtidor_SetRxAddressMode, %function
 752              	Surtidor_SetRxAddressMode:
 753              	.LFB15:
 798:.\Generated_Source\PSoC5/Surtidor.c ****             #endif /* End Surtidor_RX_INTERRUPT_ENABLED */
 799:.\Generated_Source\PSoC5/Surtidor.c ****         #endif /* End Surtidor_RXBUFFERSIZE > Surtidor_FIFO_LENGTH */
 800:.\Generated_Source\PSoC5/Surtidor.c **** 
 801:.\Generated_Source\PSoC5/Surtidor.c ****     }
 802:.\Generated_Source\PSoC5/Surtidor.c **** 
 803:.\Generated_Source\PSoC5/Surtidor.c **** 
 804:.\Generated_Source\PSoC5/Surtidor.c ****     /*******************************************************************************
 805:.\Generated_Source\PSoC5/Surtidor.c ****     * Function Name: Surtidor_SetRxAddressMode
 806:.\Generated_Source\PSoC5/Surtidor.c ****     ********************************************************************************
 807:.\Generated_Source\PSoC5/Surtidor.c ****     *
 808:.\Generated_Source\PSoC5/Surtidor.c ****     * Summary:
 809:.\Generated_Source\PSoC5/Surtidor.c ****     *  Set the receive addressing mode
 810:.\Generated_Source\PSoC5/Surtidor.c ****     *
 811:.\Generated_Source\PSoC5/Surtidor.c ****     * Parameters:
 812:.\Generated_Source\PSoC5/Surtidor.c ****     *  addressMode: Enumerated value indicating the mode of RX addressing
 813:.\Generated_Source\PSoC5/Surtidor.c ****     *  Surtidor__B_UART__AM_SW_BYTE_BYTE -  Software Byte-by-Byte address
 814:.\Generated_Source\PSoC5/Surtidor.c ****     *                                               detection
 815:.\Generated_Source\PSoC5/Surtidor.c ****     *  Surtidor__B_UART__AM_SW_DETECT_TO_BUFFER - Software Detect to Buffer
 816:.\Generated_Source\PSoC5/Surtidor.c ****     *                                               address detection
 817:.\Generated_Source\PSoC5/Surtidor.c ****     *  Surtidor__B_UART__AM_HW_BYTE_BY_BYTE - Hardware Byte-by-Byte address
 818:.\Generated_Source\PSoC5/Surtidor.c ****     *                                               detection
 819:.\Generated_Source\PSoC5/Surtidor.c ****     *  Surtidor__B_UART__AM_HW_DETECT_TO_BUFFER - Hardware Detect to Buffer
 820:.\Generated_Source\PSoC5/Surtidor.c ****     *                                               address detection
 821:.\Generated_Source\PSoC5/Surtidor.c ****     *  Surtidor__B_UART__AM_NONE - No address detection
 822:.\Generated_Source\PSoC5/Surtidor.c ****     *
 823:.\Generated_Source\PSoC5/Surtidor.c ****     * Return:
 824:.\Generated_Source\PSoC5/Surtidor.c ****     *  None.
 825:.\Generated_Source\PSoC5/Surtidor.c ****     *
 826:.\Generated_Source\PSoC5/Surtidor.c ****     * Global Variables:
 827:.\Generated_Source\PSoC5/Surtidor.c ****     *  Surtidor_rxAddressMode - the parameter stored in this variable for
 828:.\Generated_Source\PSoC5/Surtidor.c ****     *   the farther usage in RX ISR.
 829:.\Generated_Source\PSoC5/Surtidor.c ****     *  Surtidor_rxAddressDetected - set to initial state (0).
ARM GAS  C:\Users\RECEPC~1\AppData\Local\Temp\ccllYUoy.s 			page 29


 830:.\Generated_Source\PSoC5/Surtidor.c ****     *
 831:.\Generated_Source\PSoC5/Surtidor.c ****     *******************************************************************************/
 832:.\Generated_Source\PSoC5/Surtidor.c ****     void Surtidor_SetRxAddressMode(uint8 addressMode)
 833:.\Generated_Source\PSoC5/Surtidor.c ****                                                         
 834:.\Generated_Source\PSoC5/Surtidor.c ****     {
 754              		.loc 1 834 0
 755              		.cfi_startproc
 756              		@ args = 0, pretend = 0, frame = 0
 757              		@ frame_needed = 0, uses_anonymous_args = 0
 758              		@ link register save eliminated.
 759              	.LVL60:
 760 0000 7047     		bx	lr
 761              		.cfi_endproc
 762              	.LFE15:
 763              		.size	Surtidor_SetRxAddressMode, .-Surtidor_SetRxAddressMode
 764 0002 00BF     		.section	.text.Surtidor_SetRxAddress1,"ax",%progbits
 765              		.align	2
 766              		.global	Surtidor_SetRxAddress1
 767              		.thumb
 768              		.thumb_func
 769              		.type	Surtidor_SetRxAddress1, %function
 770              	Surtidor_SetRxAddress1:
 771              	.LFB16:
 835:.\Generated_Source\PSoC5/Surtidor.c ****         #if(Surtidor_RXHW_ADDRESS_ENABLED)
 836:.\Generated_Source\PSoC5/Surtidor.c ****             #if(Surtidor_CONTROL_REG_REMOVED)
 837:.\Generated_Source\PSoC5/Surtidor.c ****                 if(addressMode != 0u) { }     /* release compiler warning */
 838:.\Generated_Source\PSoC5/Surtidor.c ****             #else /* Surtidor_CONTROL_REG_REMOVED */
 839:.\Generated_Source\PSoC5/Surtidor.c ****                 uint8 tmpCtrl;
 840:.\Generated_Source\PSoC5/Surtidor.c ****                 tmpCtrl = Surtidor_CONTROL_REG & (uint8)~Surtidor_CTRL_RXADDR_MODE_MASK;
 841:.\Generated_Source\PSoC5/Surtidor.c ****                 tmpCtrl |= (uint8)(addressMode << Surtidor_CTRL_RXADDR_MODE0_SHIFT);
 842:.\Generated_Source\PSoC5/Surtidor.c ****                 Surtidor_CONTROL_REG = tmpCtrl;
 843:.\Generated_Source\PSoC5/Surtidor.c ****                 #if(Surtidor_RX_INTERRUPT_ENABLED && \
 844:.\Generated_Source\PSoC5/Surtidor.c ****                    (Surtidor_RXBUFFERSIZE > Surtidor_FIFO_LENGTH) )
 845:.\Generated_Source\PSoC5/Surtidor.c ****                     Surtidor_rxAddressMode = addressMode;
 846:.\Generated_Source\PSoC5/Surtidor.c ****                     Surtidor_rxAddressDetected = 0u;
 847:.\Generated_Source\PSoC5/Surtidor.c ****                 #endif /* End Surtidor_RXBUFFERSIZE > Surtidor_FIFO_LENGTH*/
 848:.\Generated_Source\PSoC5/Surtidor.c ****             #endif /* End Surtidor_CONTROL_REG_REMOVED */
 849:.\Generated_Source\PSoC5/Surtidor.c ****         #else /* Surtidor_RXHW_ADDRESS_ENABLED */
 850:.\Generated_Source\PSoC5/Surtidor.c ****             if(addressMode != 0u) { }     /* release compiler warning */
 851:.\Generated_Source\PSoC5/Surtidor.c ****         #endif /* End Surtidor_RXHW_ADDRESS_ENABLED */
 852:.\Generated_Source\PSoC5/Surtidor.c ****     }
 853:.\Generated_Source\PSoC5/Surtidor.c **** 
 854:.\Generated_Source\PSoC5/Surtidor.c **** 
 855:.\Generated_Source\PSoC5/Surtidor.c ****     /*******************************************************************************
 856:.\Generated_Source\PSoC5/Surtidor.c ****     * Function Name: Surtidor_SetRxAddress1
 857:.\Generated_Source\PSoC5/Surtidor.c ****     ********************************************************************************
 858:.\Generated_Source\PSoC5/Surtidor.c ****     *
 859:.\Generated_Source\PSoC5/Surtidor.c ****     * Summary:
 860:.\Generated_Source\PSoC5/Surtidor.c ****     *  Set the first hardware address compare value
 861:.\Generated_Source\PSoC5/Surtidor.c ****     *
 862:.\Generated_Source\PSoC5/Surtidor.c ****     * Parameters:
 863:.\Generated_Source\PSoC5/Surtidor.c ****     *  address
 864:.\Generated_Source\PSoC5/Surtidor.c ****     *
 865:.\Generated_Source\PSoC5/Surtidor.c ****     * Return:
 866:.\Generated_Source\PSoC5/Surtidor.c ****     *  None.
 867:.\Generated_Source\PSoC5/Surtidor.c ****     *
 868:.\Generated_Source\PSoC5/Surtidor.c ****     *******************************************************************************/
ARM GAS  C:\Users\RECEPC~1\AppData\Local\Temp\ccllYUoy.s 			page 30


 869:.\Generated_Source\PSoC5/Surtidor.c ****     void Surtidor_SetRxAddress1(uint8 address) 
 870:.\Generated_Source\PSoC5/Surtidor.c **** 
 871:.\Generated_Source\PSoC5/Surtidor.c ****     {
 772              		.loc 1 871 0
 773              		.cfi_startproc
 774              		@ args = 0, pretend = 0, frame = 0
 775              		@ frame_needed = 0, uses_anonymous_args = 0
 776              		@ link register save eliminated.
 777              	.LVL61:
 872:.\Generated_Source\PSoC5/Surtidor.c ****         Surtidor_RXADDRESS1_REG = address;
 778              		.loc 1 872 0
 779 0000 014B     		ldr	r3, .L60
 780 0002 1870     		strb	r0, [r3]
 781 0004 7047     		bx	lr
 782              	.L61:
 783 0006 00BF     		.align	2
 784              	.L60:
 785 0008 2C640040 		.word	1073767468
 786              		.cfi_endproc
 787              	.LFE16:
 788              		.size	Surtidor_SetRxAddress1, .-Surtidor_SetRxAddress1
 789              		.section	.text.Surtidor_SetRxAddress2,"ax",%progbits
 790              		.align	2
 791              		.global	Surtidor_SetRxAddress2
 792              		.thumb
 793              		.thumb_func
 794              		.type	Surtidor_SetRxAddress2, %function
 795              	Surtidor_SetRxAddress2:
 796              	.LFB17:
 873:.\Generated_Source\PSoC5/Surtidor.c ****     }
 874:.\Generated_Source\PSoC5/Surtidor.c **** 
 875:.\Generated_Source\PSoC5/Surtidor.c **** 
 876:.\Generated_Source\PSoC5/Surtidor.c ****     /*******************************************************************************
 877:.\Generated_Source\PSoC5/Surtidor.c ****     * Function Name: Surtidor_SetRxAddress2
 878:.\Generated_Source\PSoC5/Surtidor.c ****     ********************************************************************************
 879:.\Generated_Source\PSoC5/Surtidor.c ****     *
 880:.\Generated_Source\PSoC5/Surtidor.c ****     * Summary:
 881:.\Generated_Source\PSoC5/Surtidor.c ****     *  Set the second hardware address compare value
 882:.\Generated_Source\PSoC5/Surtidor.c ****     *
 883:.\Generated_Source\PSoC5/Surtidor.c ****     * Parameters:
 884:.\Generated_Source\PSoC5/Surtidor.c ****     *  address
 885:.\Generated_Source\PSoC5/Surtidor.c ****     *
 886:.\Generated_Source\PSoC5/Surtidor.c ****     * Return:
 887:.\Generated_Source\PSoC5/Surtidor.c ****     *  None.
 888:.\Generated_Source\PSoC5/Surtidor.c ****     *
 889:.\Generated_Source\PSoC5/Surtidor.c ****     *******************************************************************************/
 890:.\Generated_Source\PSoC5/Surtidor.c ****     void Surtidor_SetRxAddress2(uint8 address) 
 891:.\Generated_Source\PSoC5/Surtidor.c ****     {
 797              		.loc 1 891 0
 798              		.cfi_startproc
 799              		@ args = 0, pretend = 0, frame = 0
 800              		@ frame_needed = 0, uses_anonymous_args = 0
 801              		@ link register save eliminated.
 802              	.LVL62:
 892:.\Generated_Source\PSoC5/Surtidor.c ****         Surtidor_RXADDRESS2_REG = address;
 803              		.loc 1 892 0
 804 0000 014B     		ldr	r3, .L63
ARM GAS  C:\Users\RECEPC~1\AppData\Local\Temp\ccllYUoy.s 			page 31


 805 0002 1870     		strb	r0, [r3]
 806 0004 7047     		bx	lr
 807              	.L64:
 808 0006 00BF     		.align	2
 809              	.L63:
 810 0008 3C640040 		.word	1073767484
 811              		.cfi_endproc
 812              	.LFE17:
 813              		.size	Surtidor_SetRxAddress2, .-Surtidor_SetRxAddress2
 814              		.section	.text.Surtidor_SetTxInterruptMode,"ax",%progbits
 815              		.align	2
 816              		.global	Surtidor_SetTxInterruptMode
 817              		.thumb
 818              		.thumb_func
 819              		.type	Surtidor_SetTxInterruptMode, %function
 820              	Surtidor_SetTxInterruptMode:
 821              	.LFB18:
 893:.\Generated_Source\PSoC5/Surtidor.c ****     }
 894:.\Generated_Source\PSoC5/Surtidor.c **** 
 895:.\Generated_Source\PSoC5/Surtidor.c **** #endif  /* Surtidor_RX_ENABLED || Surtidor_HD_ENABLED*/
 896:.\Generated_Source\PSoC5/Surtidor.c **** 
 897:.\Generated_Source\PSoC5/Surtidor.c **** 
 898:.\Generated_Source\PSoC5/Surtidor.c **** #if( (Surtidor_TX_ENABLED) || (Surtidor_HD_ENABLED) )
 899:.\Generated_Source\PSoC5/Surtidor.c **** 
 900:.\Generated_Source\PSoC5/Surtidor.c ****     #if(Surtidor_TX_INTERRUPT_ENABLED)
 901:.\Generated_Source\PSoC5/Surtidor.c **** 
 902:.\Generated_Source\PSoC5/Surtidor.c ****         /*******************************************************************************
 903:.\Generated_Source\PSoC5/Surtidor.c ****         * Function Name: Surtidor_EnableTxInt
 904:.\Generated_Source\PSoC5/Surtidor.c ****         ********************************************************************************
 905:.\Generated_Source\PSoC5/Surtidor.c ****         *
 906:.\Generated_Source\PSoC5/Surtidor.c ****         * Summary:
 907:.\Generated_Source\PSoC5/Surtidor.c ****         *  Enable TX interrupt generation
 908:.\Generated_Source\PSoC5/Surtidor.c ****         *
 909:.\Generated_Source\PSoC5/Surtidor.c ****         * Parameters:
 910:.\Generated_Source\PSoC5/Surtidor.c ****         *  None.
 911:.\Generated_Source\PSoC5/Surtidor.c ****         *
 912:.\Generated_Source\PSoC5/Surtidor.c ****         * Return:
 913:.\Generated_Source\PSoC5/Surtidor.c ****         *  None.
 914:.\Generated_Source\PSoC5/Surtidor.c ****         *
 915:.\Generated_Source\PSoC5/Surtidor.c ****         * Theory:
 916:.\Generated_Source\PSoC5/Surtidor.c ****         *  Enable the interrupt output -or- the interrupt component itself
 917:.\Generated_Source\PSoC5/Surtidor.c ****         *
 918:.\Generated_Source\PSoC5/Surtidor.c ****         *******************************************************************************/
 919:.\Generated_Source\PSoC5/Surtidor.c ****         void Surtidor_EnableTxInt(void) 
 920:.\Generated_Source\PSoC5/Surtidor.c ****         {
 921:.\Generated_Source\PSoC5/Surtidor.c ****             CyIntEnable(Surtidor_TX_VECT_NUM);
 922:.\Generated_Source\PSoC5/Surtidor.c ****         }
 923:.\Generated_Source\PSoC5/Surtidor.c **** 
 924:.\Generated_Source\PSoC5/Surtidor.c **** 
 925:.\Generated_Source\PSoC5/Surtidor.c ****         /*******************************************************************************
 926:.\Generated_Source\PSoC5/Surtidor.c ****         * Function Name: Surtidor_DisableTxInt
 927:.\Generated_Source\PSoC5/Surtidor.c ****         ********************************************************************************
 928:.\Generated_Source\PSoC5/Surtidor.c ****         *
 929:.\Generated_Source\PSoC5/Surtidor.c ****         * Summary:
 930:.\Generated_Source\PSoC5/Surtidor.c ****         *  Disable TX interrupt generation
 931:.\Generated_Source\PSoC5/Surtidor.c ****         *
 932:.\Generated_Source\PSoC5/Surtidor.c ****         * Parameters:
ARM GAS  C:\Users\RECEPC~1\AppData\Local\Temp\ccllYUoy.s 			page 32


 933:.\Generated_Source\PSoC5/Surtidor.c ****         *  None.
 934:.\Generated_Source\PSoC5/Surtidor.c ****         *
 935:.\Generated_Source\PSoC5/Surtidor.c ****         * Return:
 936:.\Generated_Source\PSoC5/Surtidor.c ****         *  None.
 937:.\Generated_Source\PSoC5/Surtidor.c ****         *
 938:.\Generated_Source\PSoC5/Surtidor.c ****         * Theory:
 939:.\Generated_Source\PSoC5/Surtidor.c ****         *  Disable the interrupt output -or- the interrupt component itself
 940:.\Generated_Source\PSoC5/Surtidor.c ****         *
 941:.\Generated_Source\PSoC5/Surtidor.c ****         *******************************************************************************/
 942:.\Generated_Source\PSoC5/Surtidor.c ****         void Surtidor_DisableTxInt(void) 
 943:.\Generated_Source\PSoC5/Surtidor.c ****         {
 944:.\Generated_Source\PSoC5/Surtidor.c ****             CyIntDisable(Surtidor_TX_VECT_NUM);
 945:.\Generated_Source\PSoC5/Surtidor.c ****         }
 946:.\Generated_Source\PSoC5/Surtidor.c **** 
 947:.\Generated_Source\PSoC5/Surtidor.c ****     #endif /* Surtidor_TX_INTERRUPT_ENABLED */
 948:.\Generated_Source\PSoC5/Surtidor.c **** 
 949:.\Generated_Source\PSoC5/Surtidor.c **** 
 950:.\Generated_Source\PSoC5/Surtidor.c ****     /*******************************************************************************
 951:.\Generated_Source\PSoC5/Surtidor.c ****     * Function Name: Surtidor_SetTxInterruptMode
 952:.\Generated_Source\PSoC5/Surtidor.c ****     ********************************************************************************
 953:.\Generated_Source\PSoC5/Surtidor.c ****     *
 954:.\Generated_Source\PSoC5/Surtidor.c ****     * Summary:
 955:.\Generated_Source\PSoC5/Surtidor.c ****     *  Configure which status bits trigger an interrupt event
 956:.\Generated_Source\PSoC5/Surtidor.c ****     *
 957:.\Generated_Source\PSoC5/Surtidor.c ****     * Parameters:
 958:.\Generated_Source\PSoC5/Surtidor.c ****     *  intSrc: An or'd combination of the desired status bit masks (defined in
 959:.\Generated_Source\PSoC5/Surtidor.c ****     *          the header file)
 960:.\Generated_Source\PSoC5/Surtidor.c ****     *
 961:.\Generated_Source\PSoC5/Surtidor.c ****     * Return:
 962:.\Generated_Source\PSoC5/Surtidor.c ****     *  None.
 963:.\Generated_Source\PSoC5/Surtidor.c ****     *
 964:.\Generated_Source\PSoC5/Surtidor.c ****     * Theory:
 965:.\Generated_Source\PSoC5/Surtidor.c ****     *  Enables the output of specific status bits to the interrupt controller
 966:.\Generated_Source\PSoC5/Surtidor.c ****     *
 967:.\Generated_Source\PSoC5/Surtidor.c ****     *******************************************************************************/
 968:.\Generated_Source\PSoC5/Surtidor.c ****     void Surtidor_SetTxInterruptMode(uint8 intSrc) 
 969:.\Generated_Source\PSoC5/Surtidor.c ****     {
 822              		.loc 1 969 0
 823              		.cfi_startproc
 824              		@ args = 0, pretend = 0, frame = 0
 825              		@ frame_needed = 0, uses_anonymous_args = 0
 826              		@ link register save eliminated.
 827              	.LVL63:
 970:.\Generated_Source\PSoC5/Surtidor.c ****         Surtidor_TXSTATUS_MASK_REG = intSrc;
 828              		.loc 1 970 0
 829 0000 014B     		ldr	r3, .L66
 830 0002 1870     		strb	r0, [r3]
 831 0004 7047     		bx	lr
 832              	.L67:
 833 0006 00BF     		.align	2
 834              	.L66:
 835 0008 86650040 		.word	1073767814
 836              		.cfi_endproc
 837              	.LFE18:
 838              		.size	Surtidor_SetTxInterruptMode, .-Surtidor_SetTxInterruptMode
 839              		.section	.text.Surtidor_WriteTxData,"ax",%progbits
 840              		.align	2
ARM GAS  C:\Users\RECEPC~1\AppData\Local\Temp\ccllYUoy.s 			page 33


 841              		.global	Surtidor_WriteTxData
 842              		.thumb
 843              		.thumb_func
 844              		.type	Surtidor_WriteTxData, %function
 845              	Surtidor_WriteTxData:
 846              	.LFB19:
 971:.\Generated_Source\PSoC5/Surtidor.c ****     }
 972:.\Generated_Source\PSoC5/Surtidor.c **** 
 973:.\Generated_Source\PSoC5/Surtidor.c **** 
 974:.\Generated_Source\PSoC5/Surtidor.c ****     /*******************************************************************************
 975:.\Generated_Source\PSoC5/Surtidor.c ****     * Function Name: Surtidor_WriteTxData
 976:.\Generated_Source\PSoC5/Surtidor.c ****     ********************************************************************************
 977:.\Generated_Source\PSoC5/Surtidor.c ****     *
 978:.\Generated_Source\PSoC5/Surtidor.c ****     * Summary:
 979:.\Generated_Source\PSoC5/Surtidor.c ****     *  Write a byte of data to the Transmit FIFO or TX buffer to be sent when the
 980:.\Generated_Source\PSoC5/Surtidor.c ****     *  bus is available. WriteTxData sends a byte without checking for buffer room
 981:.\Generated_Source\PSoC5/Surtidor.c ****     *  or status. It is up to the user to separately check status.
 982:.\Generated_Source\PSoC5/Surtidor.c ****     *
 983:.\Generated_Source\PSoC5/Surtidor.c ****     * Parameters:
 984:.\Generated_Source\PSoC5/Surtidor.c ****     *  TXDataByte: byte of data to place in the transmit FIFO
 985:.\Generated_Source\PSoC5/Surtidor.c ****     *
 986:.\Generated_Source\PSoC5/Surtidor.c ****     * Return:
 987:.\Generated_Source\PSoC5/Surtidor.c ****     * void
 988:.\Generated_Source\PSoC5/Surtidor.c ****     *
 989:.\Generated_Source\PSoC5/Surtidor.c ****     * Global Variables:
 990:.\Generated_Source\PSoC5/Surtidor.c ****     *  Surtidor_txBuffer - RAM buffer pointer for save data for transmission
 991:.\Generated_Source\PSoC5/Surtidor.c ****     *  Surtidor_txBufferWrite - cyclic index for write to txBuffer,
 992:.\Generated_Source\PSoC5/Surtidor.c ****     *    incremented after each byte saved to buffer.
 993:.\Generated_Source\PSoC5/Surtidor.c ****     *  Surtidor_txBufferRead - cyclic index for read from txBuffer,
 994:.\Generated_Source\PSoC5/Surtidor.c ****     *    checked to identify the condition to write to FIFO directly or to TX buffer
 995:.\Generated_Source\PSoC5/Surtidor.c ****     *  Surtidor_initVar - checked to identify that the component has been
 996:.\Generated_Source\PSoC5/Surtidor.c ****     *    initialized.
 997:.\Generated_Source\PSoC5/Surtidor.c ****     *
 998:.\Generated_Source\PSoC5/Surtidor.c ****     * Reentrant:
 999:.\Generated_Source\PSoC5/Surtidor.c ****     *  No.
1000:.\Generated_Source\PSoC5/Surtidor.c ****     *
1001:.\Generated_Source\PSoC5/Surtidor.c ****     *******************************************************************************/
1002:.\Generated_Source\PSoC5/Surtidor.c ****     void Surtidor_WriteTxData(uint8 txDataByte) 
1003:.\Generated_Source\PSoC5/Surtidor.c ****     {
 847              		.loc 1 1003 0
 848              		.cfi_startproc
 849              		@ args = 0, pretend = 0, frame = 0
 850              		@ frame_needed = 0, uses_anonymous_args = 0
 851              		@ link register save eliminated.
 852              	.LVL64:
1004:.\Generated_Source\PSoC5/Surtidor.c ****         /* If not Initialized then skip this function*/
1005:.\Generated_Source\PSoC5/Surtidor.c ****         if(Surtidor_initVar != 0u)
 853              		.loc 1 1005 0
 854 0000 024B     		ldr	r3, .L70
 855 0002 1B78     		ldrb	r3, [r3]	@ zero_extendqisi2
 856 0004 0BB1     		cbz	r3, .L68
1006:.\Generated_Source\PSoC5/Surtidor.c ****         {
1007:.\Generated_Source\PSoC5/Surtidor.c ****             #if(Surtidor_TXBUFFERSIZE > Surtidor_FIFO_LENGTH)
1008:.\Generated_Source\PSoC5/Surtidor.c **** 
1009:.\Generated_Source\PSoC5/Surtidor.c ****                 /* Disable Tx interrupt. */
1010:.\Generated_Source\PSoC5/Surtidor.c ****                 /* Protect variables that could change on interrupt. */
1011:.\Generated_Source\PSoC5/Surtidor.c ****                 #if(Surtidor_TX_INTERRUPT_ENABLED)
ARM GAS  C:\Users\RECEPC~1\AppData\Local\Temp\ccllYUoy.s 			page 34


1012:.\Generated_Source\PSoC5/Surtidor.c ****                     Surtidor_DisableTxInt();
1013:.\Generated_Source\PSoC5/Surtidor.c ****                 #endif /* End Surtidor_TX_INTERRUPT_ENABLED */
1014:.\Generated_Source\PSoC5/Surtidor.c **** 
1015:.\Generated_Source\PSoC5/Surtidor.c ****                 if( (Surtidor_txBufferRead == Surtidor_txBufferWrite) &&
1016:.\Generated_Source\PSoC5/Surtidor.c ****                     ((Surtidor_TXSTATUS_REG & Surtidor_TX_STS_FIFO_FULL) == 0u) )
1017:.\Generated_Source\PSoC5/Surtidor.c ****                 {
1018:.\Generated_Source\PSoC5/Surtidor.c ****                     /* Add directly to the FIFO. */
1019:.\Generated_Source\PSoC5/Surtidor.c ****                     Surtidor_TXDATA_REG = txDataByte;
1020:.\Generated_Source\PSoC5/Surtidor.c ****                 }
1021:.\Generated_Source\PSoC5/Surtidor.c ****                 else
1022:.\Generated_Source\PSoC5/Surtidor.c ****                 {
1023:.\Generated_Source\PSoC5/Surtidor.c ****                     if(Surtidor_txBufferWrite >= Surtidor_TXBUFFERSIZE)
1024:.\Generated_Source\PSoC5/Surtidor.c ****                     {
1025:.\Generated_Source\PSoC5/Surtidor.c ****                         Surtidor_txBufferWrite = 0u;
1026:.\Generated_Source\PSoC5/Surtidor.c ****                     }
1027:.\Generated_Source\PSoC5/Surtidor.c **** 
1028:.\Generated_Source\PSoC5/Surtidor.c ****                     Surtidor_txBuffer[Surtidor_txBufferWrite] = txDataByte;
1029:.\Generated_Source\PSoC5/Surtidor.c **** 
1030:.\Generated_Source\PSoC5/Surtidor.c ****                     /* Add to the software buffer. */
1031:.\Generated_Source\PSoC5/Surtidor.c ****                     Surtidor_txBufferWrite++;
1032:.\Generated_Source\PSoC5/Surtidor.c **** 
1033:.\Generated_Source\PSoC5/Surtidor.c ****                 }
1034:.\Generated_Source\PSoC5/Surtidor.c **** 
1035:.\Generated_Source\PSoC5/Surtidor.c ****                 /* Enable Tx interrupt. */
1036:.\Generated_Source\PSoC5/Surtidor.c ****                 #if(Surtidor_TX_INTERRUPT_ENABLED)
1037:.\Generated_Source\PSoC5/Surtidor.c ****                     Surtidor_EnableTxInt();
1038:.\Generated_Source\PSoC5/Surtidor.c ****                 #endif /* End Surtidor_TX_INTERRUPT_ENABLED */
1039:.\Generated_Source\PSoC5/Surtidor.c **** 
1040:.\Generated_Source\PSoC5/Surtidor.c ****             #else /* Surtidor_TXBUFFERSIZE > Surtidor_FIFO_LENGTH */
1041:.\Generated_Source\PSoC5/Surtidor.c **** 
1042:.\Generated_Source\PSoC5/Surtidor.c ****                 /* Add directly to the FIFO. */
1043:.\Generated_Source\PSoC5/Surtidor.c ****                 Surtidor_TXDATA_REG = txDataByte;
 857              		.loc 1 1043 0
 858 0006 024B     		ldr	r3, .L70+4
 859 0008 1870     		strb	r0, [r3]
 860              	.L68:
 861 000a 7047     		bx	lr
 862              	.L71:
 863              		.align	2
 864              	.L70:
 865 000c 00000000 		.word	.LANCHOR0
 866 0010 45650040 		.word	1073767749
 867              		.cfi_endproc
 868              	.LFE19:
 869              		.size	Surtidor_WriteTxData, .-Surtidor_WriteTxData
 870              		.section	.text.Surtidor_ReadTxStatus,"ax",%progbits
 871              		.align	2
 872              		.global	Surtidor_ReadTxStatus
 873              		.thumb
 874              		.thumb_func
 875              		.type	Surtidor_ReadTxStatus, %function
 876              	Surtidor_ReadTxStatus:
 877              	.LFB20:
1044:.\Generated_Source\PSoC5/Surtidor.c **** 
1045:.\Generated_Source\PSoC5/Surtidor.c ****             #endif /* End Surtidor_TXBUFFERSIZE > Surtidor_FIFO_LENGTH */
1046:.\Generated_Source\PSoC5/Surtidor.c ****         }
1047:.\Generated_Source\PSoC5/Surtidor.c ****     }
ARM GAS  C:\Users\RECEPC~1\AppData\Local\Temp\ccllYUoy.s 			page 35


1048:.\Generated_Source\PSoC5/Surtidor.c **** 
1049:.\Generated_Source\PSoC5/Surtidor.c **** 
1050:.\Generated_Source\PSoC5/Surtidor.c ****     /*******************************************************************************
1051:.\Generated_Source\PSoC5/Surtidor.c ****     * Function Name: Surtidor_ReadTxStatus
1052:.\Generated_Source\PSoC5/Surtidor.c ****     ********************************************************************************
1053:.\Generated_Source\PSoC5/Surtidor.c ****     *
1054:.\Generated_Source\PSoC5/Surtidor.c ****     * Summary:
1055:.\Generated_Source\PSoC5/Surtidor.c ****     *  Read the status register for the component
1056:.\Generated_Source\PSoC5/Surtidor.c ****     *
1057:.\Generated_Source\PSoC5/Surtidor.c ****     * Parameters:
1058:.\Generated_Source\PSoC5/Surtidor.c ****     *  None.
1059:.\Generated_Source\PSoC5/Surtidor.c ****     *
1060:.\Generated_Source\PSoC5/Surtidor.c ****     * Return:
1061:.\Generated_Source\PSoC5/Surtidor.c ****     *  Contents of the status register
1062:.\Generated_Source\PSoC5/Surtidor.c ****     *
1063:.\Generated_Source\PSoC5/Surtidor.c ****     * Theory:
1064:.\Generated_Source\PSoC5/Surtidor.c ****     *  This function reads the status register which is clear on read. It is up to
1065:.\Generated_Source\PSoC5/Surtidor.c ****     *  the user to handle all bits in this return value accordingly, even if the bit
1066:.\Generated_Source\PSoC5/Surtidor.c ****     *  was not enabled as an interrupt source the event happened and must be handled
1067:.\Generated_Source\PSoC5/Surtidor.c ****     *  accordingly.
1068:.\Generated_Source\PSoC5/Surtidor.c ****     *
1069:.\Generated_Source\PSoC5/Surtidor.c ****     *******************************************************************************/
1070:.\Generated_Source\PSoC5/Surtidor.c ****     uint8 Surtidor_ReadTxStatus(void) 
1071:.\Generated_Source\PSoC5/Surtidor.c ****     {
 878              		.loc 1 1071 0
 879              		.cfi_startproc
 880              		@ args = 0, pretend = 0, frame = 0
 881              		@ frame_needed = 0, uses_anonymous_args = 0
 882              		@ link register save eliminated.
1072:.\Generated_Source\PSoC5/Surtidor.c ****         return(Surtidor_TXSTATUS_REG);
 883              		.loc 1 1072 0
 884 0000 014B     		ldr	r3, .L73
 885 0002 1878     		ldrb	r0, [r3]	@ zero_extendqisi2
1073:.\Generated_Source\PSoC5/Surtidor.c ****     }
 886              		.loc 1 1073 0
 887 0004 7047     		bx	lr
 888              	.L74:
 889 0006 00BF     		.align	2
 890              	.L73:
 891 0008 66650040 		.word	1073767782
 892              		.cfi_endproc
 893              	.LFE20:
 894              		.size	Surtidor_ReadTxStatus, .-Surtidor_ReadTxStatus
 895              		.section	.text.Surtidor_PutChar,"ax",%progbits
 896              		.align	2
 897              		.global	Surtidor_PutChar
 898              		.thumb
 899              		.thumb_func
 900              		.type	Surtidor_PutChar, %function
 901              	Surtidor_PutChar:
 902              	.LFB21:
1074:.\Generated_Source\PSoC5/Surtidor.c **** 
1075:.\Generated_Source\PSoC5/Surtidor.c **** 
1076:.\Generated_Source\PSoC5/Surtidor.c ****     /*******************************************************************************
1077:.\Generated_Source\PSoC5/Surtidor.c ****     * Function Name: Surtidor_PutChar
1078:.\Generated_Source\PSoC5/Surtidor.c ****     ********************************************************************************
1079:.\Generated_Source\PSoC5/Surtidor.c ****     *
ARM GAS  C:\Users\RECEPC~1\AppData\Local\Temp\ccllYUoy.s 			page 36


1080:.\Generated_Source\PSoC5/Surtidor.c ****     * Summary:
1081:.\Generated_Source\PSoC5/Surtidor.c ****     *  Wait to send byte until TX register or buffer has room.
1082:.\Generated_Source\PSoC5/Surtidor.c ****     *
1083:.\Generated_Source\PSoC5/Surtidor.c ****     * Parameters:
1084:.\Generated_Source\PSoC5/Surtidor.c ****     *  txDataByte: The 8-bit data value to send across the UART.
1085:.\Generated_Source\PSoC5/Surtidor.c ****     *
1086:.\Generated_Source\PSoC5/Surtidor.c ****     * Return:
1087:.\Generated_Source\PSoC5/Surtidor.c ****     *  None.
1088:.\Generated_Source\PSoC5/Surtidor.c ****     *
1089:.\Generated_Source\PSoC5/Surtidor.c ****     * Global Variables:
1090:.\Generated_Source\PSoC5/Surtidor.c ****     *  Surtidor_txBuffer - RAM buffer pointer for save data for transmission
1091:.\Generated_Source\PSoC5/Surtidor.c ****     *  Surtidor_txBufferWrite - cyclic index for write to txBuffer,
1092:.\Generated_Source\PSoC5/Surtidor.c ****     *     checked to identify free space in txBuffer and incremented after each byte
1093:.\Generated_Source\PSoC5/Surtidor.c ****     *     saved to buffer.
1094:.\Generated_Source\PSoC5/Surtidor.c ****     *  Surtidor_txBufferRead - cyclic index for read from txBuffer,
1095:.\Generated_Source\PSoC5/Surtidor.c ****     *     checked to identify free space in txBuffer.
1096:.\Generated_Source\PSoC5/Surtidor.c ****     *  Surtidor_initVar - checked to identify that the component has been
1097:.\Generated_Source\PSoC5/Surtidor.c ****     *     initialized.
1098:.\Generated_Source\PSoC5/Surtidor.c ****     *
1099:.\Generated_Source\PSoC5/Surtidor.c ****     * Reentrant:
1100:.\Generated_Source\PSoC5/Surtidor.c ****     *  No.
1101:.\Generated_Source\PSoC5/Surtidor.c ****     *
1102:.\Generated_Source\PSoC5/Surtidor.c ****     * Theory:
1103:.\Generated_Source\PSoC5/Surtidor.c ****     *  Allows the user to transmit any byte of data in a single transfer
1104:.\Generated_Source\PSoC5/Surtidor.c ****     *
1105:.\Generated_Source\PSoC5/Surtidor.c ****     *******************************************************************************/
1106:.\Generated_Source\PSoC5/Surtidor.c ****     void Surtidor_PutChar(uint8 txDataByte) 
1107:.\Generated_Source\PSoC5/Surtidor.c ****     {
 903              		.loc 1 1107 0
 904              		.cfi_startproc
 905              		@ args = 0, pretend = 0, frame = 0
 906              		@ frame_needed = 0, uses_anonymous_args = 0
 907              		@ link register save eliminated.
 908              	.LVL65:
1108:.\Generated_Source\PSoC5/Surtidor.c ****             #if(Surtidor_TXBUFFERSIZE > Surtidor_FIFO_LENGTH)
1109:.\Generated_Source\PSoC5/Surtidor.c ****                 /* The temporary output pointer is used since it takes two instructions
1110:.\Generated_Source\PSoC5/Surtidor.c ****                 *  to increment with a wrap, and we can't risk doing that with the real
1111:.\Generated_Source\PSoC5/Surtidor.c ****                 *  pointer and getting an interrupt in between instructions.
1112:.\Generated_Source\PSoC5/Surtidor.c ****                 */
1113:.\Generated_Source\PSoC5/Surtidor.c ****                 uint8 loc_txBufferWrite;
1114:.\Generated_Source\PSoC5/Surtidor.c ****                 uint8 loc_txBufferRead;
1115:.\Generated_Source\PSoC5/Surtidor.c **** 
1116:.\Generated_Source\PSoC5/Surtidor.c ****                 do{
1117:.\Generated_Source\PSoC5/Surtidor.c ****                     /* Block if software buffer is full, so we don't overwrite. */
1118:.\Generated_Source\PSoC5/Surtidor.c ****                     #if ((Surtidor_TXBUFFERSIZE > Surtidor_MAX_BYTE_VALUE) && (CY_PSOC3))
1119:.\Generated_Source\PSoC5/Surtidor.c ****                         /* Disable TX interrupt to protect variables that could change on interrupt
1120:.\Generated_Source\PSoC5/Surtidor.c ****                         CyIntDisable(Surtidor_TX_VECT_NUM);
1121:.\Generated_Source\PSoC5/Surtidor.c ****                     #endif /* End TXBUFFERSIZE > 255 */
1122:.\Generated_Source\PSoC5/Surtidor.c ****                     loc_txBufferWrite = Surtidor_txBufferWrite;
1123:.\Generated_Source\PSoC5/Surtidor.c ****                     loc_txBufferRead = Surtidor_txBufferRead;
1124:.\Generated_Source\PSoC5/Surtidor.c ****                     #if ((Surtidor_TXBUFFERSIZE > Surtidor_MAX_BYTE_VALUE) && (CY_PSOC3))
1125:.\Generated_Source\PSoC5/Surtidor.c ****                         /* Enable interrupt to continue transmission */
1126:.\Generated_Source\PSoC5/Surtidor.c ****                         CyIntEnable(Surtidor_TX_VECT_NUM);
1127:.\Generated_Source\PSoC5/Surtidor.c ****                     #endif /* End TXBUFFERSIZE > 255 */
1128:.\Generated_Source\PSoC5/Surtidor.c ****                 }while( (loc_txBufferWrite < loc_txBufferRead) ? (loc_txBufferWrite == (loc_txBuffe
1129:.\Generated_Source\PSoC5/Surtidor.c ****                                         ((loc_txBufferWrite - loc_txBufferRead) ==
1130:.\Generated_Source\PSoC5/Surtidor.c ****                                         (uint8)(Surtidor_TXBUFFERSIZE - 1u)) );
ARM GAS  C:\Users\RECEPC~1\AppData\Local\Temp\ccllYUoy.s 			page 37


1131:.\Generated_Source\PSoC5/Surtidor.c **** 
1132:.\Generated_Source\PSoC5/Surtidor.c ****                 if( (loc_txBufferRead == loc_txBufferWrite) &&
1133:.\Generated_Source\PSoC5/Surtidor.c ****                     ((Surtidor_TXSTATUS_REG & Surtidor_TX_STS_FIFO_FULL) == 0u) )
1134:.\Generated_Source\PSoC5/Surtidor.c ****                 {
1135:.\Generated_Source\PSoC5/Surtidor.c ****                     /* Add directly to the FIFO. */
1136:.\Generated_Source\PSoC5/Surtidor.c ****                     Surtidor_TXDATA_REG = txDataByte;
1137:.\Generated_Source\PSoC5/Surtidor.c ****                 }
1138:.\Generated_Source\PSoC5/Surtidor.c ****                 else
1139:.\Generated_Source\PSoC5/Surtidor.c ****                 {
1140:.\Generated_Source\PSoC5/Surtidor.c ****                     if(loc_txBufferWrite >= Surtidor_TXBUFFERSIZE)
1141:.\Generated_Source\PSoC5/Surtidor.c ****                     {
1142:.\Generated_Source\PSoC5/Surtidor.c ****                         loc_txBufferWrite = 0u;
1143:.\Generated_Source\PSoC5/Surtidor.c ****                     }
1144:.\Generated_Source\PSoC5/Surtidor.c ****                     /* Add to the software buffer. */
1145:.\Generated_Source\PSoC5/Surtidor.c ****                     Surtidor_txBuffer[loc_txBufferWrite] = txDataByte;
1146:.\Generated_Source\PSoC5/Surtidor.c ****                     loc_txBufferWrite++;
1147:.\Generated_Source\PSoC5/Surtidor.c **** 
1148:.\Generated_Source\PSoC5/Surtidor.c ****                     /* Finally, update the real output pointer */
1149:.\Generated_Source\PSoC5/Surtidor.c ****                     #if ((Surtidor_TXBUFFERSIZE > Surtidor_MAX_BYTE_VALUE) && (CY_PSOC3))
1150:.\Generated_Source\PSoC5/Surtidor.c ****                         CyIntDisable(Surtidor_TX_VECT_NUM);
1151:.\Generated_Source\PSoC5/Surtidor.c ****                     #endif /* End TXBUFFERSIZE > 255 */
1152:.\Generated_Source\PSoC5/Surtidor.c ****                     Surtidor_txBufferWrite = loc_txBufferWrite;
1153:.\Generated_Source\PSoC5/Surtidor.c ****                     #if ((Surtidor_TXBUFFERSIZE > Surtidor_MAX_BYTE_VALUE) && (CY_PSOC3))
1154:.\Generated_Source\PSoC5/Surtidor.c ****                         CyIntEnable(Surtidor_TX_VECT_NUM);
1155:.\Generated_Source\PSoC5/Surtidor.c ****                     #endif /* End TXBUFFERSIZE > 255 */
1156:.\Generated_Source\PSoC5/Surtidor.c ****                 }
1157:.\Generated_Source\PSoC5/Surtidor.c **** 
1158:.\Generated_Source\PSoC5/Surtidor.c ****             #else /* Surtidor_TXBUFFERSIZE > Surtidor_FIFO_LENGTH */
1159:.\Generated_Source\PSoC5/Surtidor.c **** 
1160:.\Generated_Source\PSoC5/Surtidor.c ****                 while((Surtidor_TXSTATUS_REG & Surtidor_TX_STS_FIFO_FULL) != 0u)
 909              		.loc 1 1160 0
 910 0000 034A     		ldr	r2, .L78
 911              	.L76:
 912              		.loc 1 1160 0 is_stmt 0 discriminator 1
 913 0002 1378     		ldrb	r3, [r2]	@ zero_extendqisi2
 914 0004 13F0040F 		tst	r3, #4
 915 0008 FBD1     		bne	.L76
1161:.\Generated_Source\PSoC5/Surtidor.c ****                 {
1162:.\Generated_Source\PSoC5/Surtidor.c ****                     ; /* Wait for room in the FIFO. */
1163:.\Generated_Source\PSoC5/Surtidor.c ****                 }
1164:.\Generated_Source\PSoC5/Surtidor.c **** 
1165:.\Generated_Source\PSoC5/Surtidor.c ****                 /* Add directly to the FIFO. */
1166:.\Generated_Source\PSoC5/Surtidor.c ****                 Surtidor_TXDATA_REG = txDataByte;
 916              		.loc 1 1166 0 is_stmt 1
 917 000a 024B     		ldr	r3, .L78+4
 918 000c 1870     		strb	r0, [r3]
 919 000e 7047     		bx	lr
 920              	.L79:
 921              		.align	2
 922              	.L78:
 923 0010 66650040 		.word	1073767782
 924 0014 45650040 		.word	1073767749
 925              		.cfi_endproc
 926              	.LFE21:
 927              		.size	Surtidor_PutChar, .-Surtidor_PutChar
 928              		.section	.text.Surtidor_PutString,"ax",%progbits
 929              		.align	2
ARM GAS  C:\Users\RECEPC~1\AppData\Local\Temp\ccllYUoy.s 			page 38


 930              		.global	Surtidor_PutString
 931              		.thumb
 932              		.thumb_func
 933              		.type	Surtidor_PutString, %function
 934              	Surtidor_PutString:
 935              	.LFB22:
1167:.\Generated_Source\PSoC5/Surtidor.c **** 
1168:.\Generated_Source\PSoC5/Surtidor.c ****             #endif /* End Surtidor_TXBUFFERSIZE > Surtidor_FIFO_LENGTH */
1169:.\Generated_Source\PSoC5/Surtidor.c ****     }
1170:.\Generated_Source\PSoC5/Surtidor.c **** 
1171:.\Generated_Source\PSoC5/Surtidor.c **** 
1172:.\Generated_Source\PSoC5/Surtidor.c ****     /*******************************************************************************
1173:.\Generated_Source\PSoC5/Surtidor.c ****     * Function Name: Surtidor_PutString
1174:.\Generated_Source\PSoC5/Surtidor.c ****     ********************************************************************************
1175:.\Generated_Source\PSoC5/Surtidor.c ****     *
1176:.\Generated_Source\PSoC5/Surtidor.c ****     * Summary:
1177:.\Generated_Source\PSoC5/Surtidor.c ****     *  Write a Sequence of bytes on the Transmit line. Data comes from RAM or ROM.
1178:.\Generated_Source\PSoC5/Surtidor.c ****     *
1179:.\Generated_Source\PSoC5/Surtidor.c ****     * Parameters:
1180:.\Generated_Source\PSoC5/Surtidor.c ****     *  string: char pointer to character string of Data to Send.
1181:.\Generated_Source\PSoC5/Surtidor.c ****     *
1182:.\Generated_Source\PSoC5/Surtidor.c ****     * Return:
1183:.\Generated_Source\PSoC5/Surtidor.c ****     *  None.
1184:.\Generated_Source\PSoC5/Surtidor.c ****     *
1185:.\Generated_Source\PSoC5/Surtidor.c ****     * Global Variables:
1186:.\Generated_Source\PSoC5/Surtidor.c ****     *  Surtidor_initVar - checked to identify that the component has been
1187:.\Generated_Source\PSoC5/Surtidor.c ****     *     initialized.
1188:.\Generated_Source\PSoC5/Surtidor.c ****     *
1189:.\Generated_Source\PSoC5/Surtidor.c ****     * Reentrant:
1190:.\Generated_Source\PSoC5/Surtidor.c ****     *  No.
1191:.\Generated_Source\PSoC5/Surtidor.c ****     *
1192:.\Generated_Source\PSoC5/Surtidor.c ****     * Theory:
1193:.\Generated_Source\PSoC5/Surtidor.c ****     *  This function will block if there is not enough memory to place the whole
1194:.\Generated_Source\PSoC5/Surtidor.c ****     *  string, it will block until the entire string has been written to the
1195:.\Generated_Source\PSoC5/Surtidor.c ****     *  transmit buffer.
1196:.\Generated_Source\PSoC5/Surtidor.c ****     *
1197:.\Generated_Source\PSoC5/Surtidor.c ****     *******************************************************************************/
1198:.\Generated_Source\PSoC5/Surtidor.c ****     void Surtidor_PutString(const char8 string[]) 
1199:.\Generated_Source\PSoC5/Surtidor.c ****     {
 936              		.loc 1 1199 0
 937              		.cfi_startproc
 938              		@ args = 0, pretend = 0, frame = 0
 939              		@ frame_needed = 0, uses_anonymous_args = 0
 940              	.LVL66:
 941 0000 38B5     		push	{r3, r4, r5, lr}
 942              		.cfi_def_cfa_offset 16
 943              		.cfi_offset 3, -16
 944              		.cfi_offset 4, -12
 945              		.cfi_offset 5, -8
 946              		.cfi_offset 14, -4
 947 0002 0546     		mov	r5, r0
 948              	.LVL67:
1200:.\Generated_Source\PSoC5/Surtidor.c ****         uint16 buf_index = 0u;
1201:.\Generated_Source\PSoC5/Surtidor.c ****         /* If not Initialized then skip this function*/
1202:.\Generated_Source\PSoC5/Surtidor.c ****         if(Surtidor_initVar != 0u)
 949              		.loc 1 1202 0
 950 0004 064B     		ldr	r3, .L85
ARM GAS  C:\Users\RECEPC~1\AppData\Local\Temp\ccllYUoy.s 			page 39


 951 0006 1B78     		ldrb	r3, [r3]	@ zero_extendqisi2
 952 0008 2BB9     		cbnz	r3, .L84
 953 000a 38BD     		pop	{r3, r4, r5, pc}
 954              	.LVL68:
 955              	.L83:
1203:.\Generated_Source\PSoC5/Surtidor.c ****         {
1204:.\Generated_Source\PSoC5/Surtidor.c ****             /* This is a blocking function, it will not exit until all data is sent*/
1205:.\Generated_Source\PSoC5/Surtidor.c ****             while(string[buf_index] != (char8)0)
1206:.\Generated_Source\PSoC5/Surtidor.c ****             {
1207:.\Generated_Source\PSoC5/Surtidor.c ****                 Surtidor_PutChar((uint8)string[buf_index]);
 956              		.loc 1 1207 0
 957 000c FFF7FEFF 		bl	Surtidor_PutChar
 958              	.LVL69:
1208:.\Generated_Source\PSoC5/Surtidor.c ****                 buf_index++;
 959              		.loc 1 1208 0
 960 0010 0134     		adds	r4, r4, #1
 961              	.LVL70:
 962 0012 A4B2     		uxth	r4, r4
 963              	.LVL71:
 964 0014 00E0     		b	.L81
 965              	.LVL72:
 966              	.L84:
 967 0016 0024     		movs	r4, #0
 968              	.LVL73:
 969              	.L81:
1205:.\Generated_Source\PSoC5/Surtidor.c ****             while(string[buf_index] != (char8)0)
 970              		.loc 1 1205 0 discriminator 1
 971 0018 285D     		ldrb	r0, [r5, r4]	@ zero_extendqisi2
 972 001a 0028     		cmp	r0, #0
 973 001c F6D1     		bne	.L83
 974 001e 38BD     		pop	{r3, r4, r5, pc}
 975              	.LVL74:
 976              	.L86:
 977              		.align	2
 978              	.L85:
 979 0020 00000000 		.word	.LANCHOR0
 980              		.cfi_endproc
 981              	.LFE22:
 982              		.size	Surtidor_PutString, .-Surtidor_PutString
 983              		.section	.text.Surtidor_PutArray,"ax",%progbits
 984              		.align	2
 985              		.global	Surtidor_PutArray
 986              		.thumb
 987              		.thumb_func
 988              		.type	Surtidor_PutArray, %function
 989              	Surtidor_PutArray:
 990              	.LFB23:
1209:.\Generated_Source\PSoC5/Surtidor.c ****             }
1210:.\Generated_Source\PSoC5/Surtidor.c ****         }
1211:.\Generated_Source\PSoC5/Surtidor.c ****     }
1212:.\Generated_Source\PSoC5/Surtidor.c **** 
1213:.\Generated_Source\PSoC5/Surtidor.c **** 
1214:.\Generated_Source\PSoC5/Surtidor.c ****     /*******************************************************************************
1215:.\Generated_Source\PSoC5/Surtidor.c ****     * Function Name: Surtidor_PutArray
1216:.\Generated_Source\PSoC5/Surtidor.c ****     ********************************************************************************
1217:.\Generated_Source\PSoC5/Surtidor.c ****     *
1218:.\Generated_Source\PSoC5/Surtidor.c ****     * Summary:
ARM GAS  C:\Users\RECEPC~1\AppData\Local\Temp\ccllYUoy.s 			page 40


1219:.\Generated_Source\PSoC5/Surtidor.c ****     *  Write a Sequence of bytes on the Transmit line. Data comes from RAM or ROM.
1220:.\Generated_Source\PSoC5/Surtidor.c ****     *
1221:.\Generated_Source\PSoC5/Surtidor.c ****     * Parameters:
1222:.\Generated_Source\PSoC5/Surtidor.c ****     *  string: Address of the memory array residing in RAM or ROM.
1223:.\Generated_Source\PSoC5/Surtidor.c ****     *  byteCount: Number of Bytes to be transmitted.
1224:.\Generated_Source\PSoC5/Surtidor.c ****     *
1225:.\Generated_Source\PSoC5/Surtidor.c ****     * Return:
1226:.\Generated_Source\PSoC5/Surtidor.c ****     *  None.
1227:.\Generated_Source\PSoC5/Surtidor.c ****     *
1228:.\Generated_Source\PSoC5/Surtidor.c ****     * Global Variables:
1229:.\Generated_Source\PSoC5/Surtidor.c ****     *  Surtidor_initVar - checked to identify that the component has been
1230:.\Generated_Source\PSoC5/Surtidor.c ****     *     initialized.
1231:.\Generated_Source\PSoC5/Surtidor.c ****     *
1232:.\Generated_Source\PSoC5/Surtidor.c ****     * Reentrant:
1233:.\Generated_Source\PSoC5/Surtidor.c ****     *  No.
1234:.\Generated_Source\PSoC5/Surtidor.c ****     *
1235:.\Generated_Source\PSoC5/Surtidor.c ****     *******************************************************************************/
1236:.\Generated_Source\PSoC5/Surtidor.c ****     void Surtidor_PutArray(const uint8 string[], uint8 byteCount)
1237:.\Generated_Source\PSoC5/Surtidor.c ****                                                                     
1238:.\Generated_Source\PSoC5/Surtidor.c ****     {
 991              		.loc 1 1238 0
 992              		.cfi_startproc
 993              		@ args = 0, pretend = 0, frame = 0
 994              		@ frame_needed = 0, uses_anonymous_args = 0
 995              	.LVL75:
 996 0000 70B5     		push	{r4, r5, r6, lr}
 997              		.cfi_def_cfa_offset 16
 998              		.cfi_offset 4, -16
 999              		.cfi_offset 5, -12
 1000              		.cfi_offset 6, -8
 1001              		.cfi_offset 14, -4
 1002 0002 0546     		mov	r5, r0
 1003 0004 0E46     		mov	r6, r1
 1004              	.LVL76:
1239:.\Generated_Source\PSoC5/Surtidor.c ****         uint8 buf_index = 0u;
1240:.\Generated_Source\PSoC5/Surtidor.c ****         /* If not Initialized then skip this function*/
1241:.\Generated_Source\PSoC5/Surtidor.c ****         if(Surtidor_initVar != 0u)
 1005              		.loc 1 1241 0
 1006 0006 064B     		ldr	r3, .L91
 1007 0008 1B78     		ldrb	r3, [r3]	@ zero_extendqisi2
 1008 000a 3BB1     		cbz	r3, .L87
 1009 000c 0024     		movs	r4, #0
 1010              	.LVL77:
 1011              	.L89:
1242:.\Generated_Source\PSoC5/Surtidor.c ****         {
1243:.\Generated_Source\PSoC5/Surtidor.c ****             do
1244:.\Generated_Source\PSoC5/Surtidor.c ****             {
1245:.\Generated_Source\PSoC5/Surtidor.c ****                 Surtidor_PutChar(string[buf_index]);
 1012              		.loc 1 1245 0 discriminator 1
 1013 000e 285D     		ldrb	r0, [r5, r4]	@ zero_extendqisi2
 1014 0010 FFF7FEFF 		bl	Surtidor_PutChar
 1015              	.LVL78:
1246:.\Generated_Source\PSoC5/Surtidor.c ****                 buf_index++;
 1016              		.loc 1 1246 0 discriminator 1
 1017 0014 0134     		adds	r4, r4, #1
 1018              	.LVL79:
 1019 0016 E4B2     		uxtb	r4, r4
ARM GAS  C:\Users\RECEPC~1\AppData\Local\Temp\ccllYUoy.s 			page 41


 1020              	.LVL80:
1247:.\Generated_Source\PSoC5/Surtidor.c ****             }while(buf_index < byteCount);
 1021              		.loc 1 1247 0 discriminator 1
 1022 0018 B442     		cmp	r4, r6
 1023 001a F8D3     		bcc	.L89
 1024              	.LVL81:
 1025              	.L87:
 1026 001c 70BD     		pop	{r4, r5, r6, pc}
 1027              	.LVL82:
 1028              	.L92:
 1029 001e 00BF     		.align	2
 1030              	.L91:
 1031 0020 00000000 		.word	.LANCHOR0
 1032              		.cfi_endproc
 1033              	.LFE23:
 1034              		.size	Surtidor_PutArray, .-Surtidor_PutArray
 1035              		.section	.text.Surtidor_PutCRLF,"ax",%progbits
 1036              		.align	2
 1037              		.global	Surtidor_PutCRLF
 1038              		.thumb
 1039              		.thumb_func
 1040              		.type	Surtidor_PutCRLF, %function
 1041              	Surtidor_PutCRLF:
 1042              	.LFB24:
1248:.\Generated_Source\PSoC5/Surtidor.c ****         }
1249:.\Generated_Source\PSoC5/Surtidor.c ****     }
1250:.\Generated_Source\PSoC5/Surtidor.c **** 
1251:.\Generated_Source\PSoC5/Surtidor.c **** 
1252:.\Generated_Source\PSoC5/Surtidor.c ****     /*******************************************************************************
1253:.\Generated_Source\PSoC5/Surtidor.c ****     * Function Name: Surtidor_PutCRLF
1254:.\Generated_Source\PSoC5/Surtidor.c ****     ********************************************************************************
1255:.\Generated_Source\PSoC5/Surtidor.c ****     *
1256:.\Generated_Source\PSoC5/Surtidor.c ****     * Summary:
1257:.\Generated_Source\PSoC5/Surtidor.c ****     *  Write a character and then carriage return and line feed.
1258:.\Generated_Source\PSoC5/Surtidor.c ****     *
1259:.\Generated_Source\PSoC5/Surtidor.c ****     * Parameters:
1260:.\Generated_Source\PSoC5/Surtidor.c ****     *  txDataByte: uint8 Character to send.
1261:.\Generated_Source\PSoC5/Surtidor.c ****     *
1262:.\Generated_Source\PSoC5/Surtidor.c ****     * Return:
1263:.\Generated_Source\PSoC5/Surtidor.c ****     *  None.
1264:.\Generated_Source\PSoC5/Surtidor.c ****     *
1265:.\Generated_Source\PSoC5/Surtidor.c ****     * Global Variables:
1266:.\Generated_Source\PSoC5/Surtidor.c ****     *  Surtidor_initVar - checked to identify that the component has been
1267:.\Generated_Source\PSoC5/Surtidor.c ****     *     initialized.
1268:.\Generated_Source\PSoC5/Surtidor.c ****     *
1269:.\Generated_Source\PSoC5/Surtidor.c ****     * Reentrant:
1270:.\Generated_Source\PSoC5/Surtidor.c ****     *  No.
1271:.\Generated_Source\PSoC5/Surtidor.c ****     *
1272:.\Generated_Source\PSoC5/Surtidor.c ****     *******************************************************************************/
1273:.\Generated_Source\PSoC5/Surtidor.c ****     void Surtidor_PutCRLF(uint8 txDataByte) 
1274:.\Generated_Source\PSoC5/Surtidor.c ****     {
 1043              		.loc 1 1274 0
 1044              		.cfi_startproc
 1045              		@ args = 0, pretend = 0, frame = 0
 1046              		@ frame_needed = 0, uses_anonymous_args = 0
 1047              	.LVL83:
 1048 0000 08B5     		push	{r3, lr}
ARM GAS  C:\Users\RECEPC~1\AppData\Local\Temp\ccllYUoy.s 			page 42


 1049              		.cfi_def_cfa_offset 8
 1050              		.cfi_offset 3, -8
 1051              		.cfi_offset 14, -4
1275:.\Generated_Source\PSoC5/Surtidor.c ****         /* If not Initialized then skip this function*/
1276:.\Generated_Source\PSoC5/Surtidor.c ****         if(Surtidor_initVar != 0u)
 1052              		.loc 1 1276 0
 1053 0002 064B     		ldr	r3, .L95
 1054 0004 1B78     		ldrb	r3, [r3]	@ zero_extendqisi2
 1055 0006 3BB1     		cbz	r3, .L93
1277:.\Generated_Source\PSoC5/Surtidor.c ****         {
1278:.\Generated_Source\PSoC5/Surtidor.c ****             Surtidor_PutChar(txDataByte);
 1056              		.loc 1 1278 0
 1057 0008 FFF7FEFF 		bl	Surtidor_PutChar
 1058              	.LVL84:
1279:.\Generated_Source\PSoC5/Surtidor.c ****             Surtidor_PutChar(0x0Du);
 1059              		.loc 1 1279 0
 1060 000c 0D20     		movs	r0, #13
 1061 000e FFF7FEFF 		bl	Surtidor_PutChar
 1062              	.LVL85:
1280:.\Generated_Source\PSoC5/Surtidor.c ****             Surtidor_PutChar(0x0Au);
 1063              		.loc 1 1280 0
 1064 0012 0A20     		movs	r0, #10
 1065 0014 FFF7FEFF 		bl	Surtidor_PutChar
 1066              	.LVL86:
 1067              	.L93:
 1068 0018 08BD     		pop	{r3, pc}
 1069              	.L96:
 1070 001a 00BF     		.align	2
 1071              	.L95:
 1072 001c 00000000 		.word	.LANCHOR0
 1073              		.cfi_endproc
 1074              	.LFE24:
 1075              		.size	Surtidor_PutCRLF, .-Surtidor_PutCRLF
 1076              		.section	.text.Surtidor_GetTxBufferSize,"ax",%progbits
 1077              		.align	2
 1078              		.global	Surtidor_GetTxBufferSize
 1079              		.thumb
 1080              		.thumb_func
 1081              		.type	Surtidor_GetTxBufferSize, %function
 1082              	Surtidor_GetTxBufferSize:
 1083              	.LFB25:
1281:.\Generated_Source\PSoC5/Surtidor.c ****         }
1282:.\Generated_Source\PSoC5/Surtidor.c ****     }
1283:.\Generated_Source\PSoC5/Surtidor.c **** 
1284:.\Generated_Source\PSoC5/Surtidor.c **** 
1285:.\Generated_Source\PSoC5/Surtidor.c ****     /*******************************************************************************
1286:.\Generated_Source\PSoC5/Surtidor.c ****     * Function Name: Surtidor_GetTxBufferSize
1287:.\Generated_Source\PSoC5/Surtidor.c ****     ********************************************************************************
1288:.\Generated_Source\PSoC5/Surtidor.c ****     *
1289:.\Generated_Source\PSoC5/Surtidor.c ****     * Summary:
1290:.\Generated_Source\PSoC5/Surtidor.c ****     *  Determine the amount of space left in the TX buffer and return the count in
1291:.\Generated_Source\PSoC5/Surtidor.c ****     *  bytes
1292:.\Generated_Source\PSoC5/Surtidor.c ****     *
1293:.\Generated_Source\PSoC5/Surtidor.c ****     * Parameters:
1294:.\Generated_Source\PSoC5/Surtidor.c ****     *  None.
1295:.\Generated_Source\PSoC5/Surtidor.c ****     *
1296:.\Generated_Source\PSoC5/Surtidor.c ****     * Return:
ARM GAS  C:\Users\RECEPC~1\AppData\Local\Temp\ccllYUoy.s 			page 43


1297:.\Generated_Source\PSoC5/Surtidor.c ****     *  Integer count of the number of bytes left in the TX buffer
1298:.\Generated_Source\PSoC5/Surtidor.c ****     *
1299:.\Generated_Source\PSoC5/Surtidor.c ****     * Global Variables:
1300:.\Generated_Source\PSoC5/Surtidor.c ****     *  Surtidor_txBufferWrite - used to calculate left space.
1301:.\Generated_Source\PSoC5/Surtidor.c ****     *  Surtidor_txBufferRead - used to calculate left space.
1302:.\Generated_Source\PSoC5/Surtidor.c ****     *
1303:.\Generated_Source\PSoC5/Surtidor.c ****     * Reentrant:
1304:.\Generated_Source\PSoC5/Surtidor.c ****     *  No.
1305:.\Generated_Source\PSoC5/Surtidor.c ****     *
1306:.\Generated_Source\PSoC5/Surtidor.c ****     * Theory:
1307:.\Generated_Source\PSoC5/Surtidor.c ****     *  Allows the user to find out how full the TX Buffer is.
1308:.\Generated_Source\PSoC5/Surtidor.c ****     *
1309:.\Generated_Source\PSoC5/Surtidor.c ****     *******************************************************************************/
1310:.\Generated_Source\PSoC5/Surtidor.c ****     uint8 Surtidor_GetTxBufferSize(void)
1311:.\Generated_Source\PSoC5/Surtidor.c ****                                                             
1312:.\Generated_Source\PSoC5/Surtidor.c ****     {
 1084              		.loc 1 1312 0
 1085              		.cfi_startproc
 1086              		@ args = 0, pretend = 0, frame = 0
 1087              		@ frame_needed = 0, uses_anonymous_args = 0
 1088              		@ link register save eliminated.
1313:.\Generated_Source\PSoC5/Surtidor.c ****         uint8 size;
1314:.\Generated_Source\PSoC5/Surtidor.c **** 
1315:.\Generated_Source\PSoC5/Surtidor.c ****         #if(Surtidor_TXBUFFERSIZE > Surtidor_FIFO_LENGTH)
1316:.\Generated_Source\PSoC5/Surtidor.c **** 
1317:.\Generated_Source\PSoC5/Surtidor.c ****             /* Disable Tx interrupt. */
1318:.\Generated_Source\PSoC5/Surtidor.c ****             /* Protect variables that could change on interrupt. */
1319:.\Generated_Source\PSoC5/Surtidor.c ****             #if(Surtidor_TX_INTERRUPT_ENABLED)
1320:.\Generated_Source\PSoC5/Surtidor.c ****                 Surtidor_DisableTxInt();
1321:.\Generated_Source\PSoC5/Surtidor.c ****             #endif /* End Surtidor_TX_INTERRUPT_ENABLED */
1322:.\Generated_Source\PSoC5/Surtidor.c **** 
1323:.\Generated_Source\PSoC5/Surtidor.c ****             if(Surtidor_txBufferRead == Surtidor_txBufferWrite)
1324:.\Generated_Source\PSoC5/Surtidor.c ****             {
1325:.\Generated_Source\PSoC5/Surtidor.c ****                 size = 0u;
1326:.\Generated_Source\PSoC5/Surtidor.c ****             }
1327:.\Generated_Source\PSoC5/Surtidor.c ****             else if(Surtidor_txBufferRead < Surtidor_txBufferWrite)
1328:.\Generated_Source\PSoC5/Surtidor.c ****             {
1329:.\Generated_Source\PSoC5/Surtidor.c ****                 size = (Surtidor_txBufferWrite - Surtidor_txBufferRead);
1330:.\Generated_Source\PSoC5/Surtidor.c ****             }
1331:.\Generated_Source\PSoC5/Surtidor.c ****             else
1332:.\Generated_Source\PSoC5/Surtidor.c ****             {
1333:.\Generated_Source\PSoC5/Surtidor.c ****                 size = (Surtidor_TXBUFFERSIZE - Surtidor_txBufferRead) + Surtidor_txBufferWrite;
1334:.\Generated_Source\PSoC5/Surtidor.c ****             }
1335:.\Generated_Source\PSoC5/Surtidor.c **** 
1336:.\Generated_Source\PSoC5/Surtidor.c ****             /* Enable Tx interrupt. */
1337:.\Generated_Source\PSoC5/Surtidor.c ****             #if(Surtidor_TX_INTERRUPT_ENABLED)
1338:.\Generated_Source\PSoC5/Surtidor.c ****                 Surtidor_EnableTxInt();
1339:.\Generated_Source\PSoC5/Surtidor.c ****             #endif /* End Surtidor_TX_INTERRUPT_ENABLED */
1340:.\Generated_Source\PSoC5/Surtidor.c **** 
1341:.\Generated_Source\PSoC5/Surtidor.c ****         #else /* Surtidor_TXBUFFERSIZE > Surtidor_FIFO_LENGTH */
1342:.\Generated_Source\PSoC5/Surtidor.c **** 
1343:.\Generated_Source\PSoC5/Surtidor.c ****             size = Surtidor_TXSTATUS_REG;
 1089              		.loc 1 1343 0
 1090 0000 074B     		ldr	r3, .L101
 1091 0002 1B78     		ldrb	r3, [r3]	@ zero_extendqisi2
 1092 0004 DBB2     		uxtb	r3, r3
 1093              	.LVL87:
ARM GAS  C:\Users\RECEPC~1\AppData\Local\Temp\ccllYUoy.s 			page 44


1344:.\Generated_Source\PSoC5/Surtidor.c **** 
1345:.\Generated_Source\PSoC5/Surtidor.c ****             /* Is the fifo is full. */
1346:.\Generated_Source\PSoC5/Surtidor.c ****             if((size & Surtidor_TX_STS_FIFO_FULL) != 0u)
 1094              		.loc 1 1346 0
 1095 0006 13F0040F 		tst	r3, #4
 1096 000a 04D1     		bne	.L99
1347:.\Generated_Source\PSoC5/Surtidor.c ****             {
1348:.\Generated_Source\PSoC5/Surtidor.c ****                 size = Surtidor_FIFO_LENGTH;
1349:.\Generated_Source\PSoC5/Surtidor.c ****             }
1350:.\Generated_Source\PSoC5/Surtidor.c ****             else if((size & Surtidor_TX_STS_FIFO_EMPTY) != 0u)
 1097              		.loc 1 1350 0
 1098 000c 13F0020F 		tst	r3, #2
 1099 0010 03D0     		beq	.L100
1351:.\Generated_Source\PSoC5/Surtidor.c ****             {
1352:.\Generated_Source\PSoC5/Surtidor.c ****                 size = 0u;
 1100              		.loc 1 1352 0
 1101 0012 0020     		movs	r0, #0
 1102 0014 7047     		bx	lr
 1103              	.L99:
1348:.\Generated_Source\PSoC5/Surtidor.c ****                 size = Surtidor_FIFO_LENGTH;
 1104              		.loc 1 1348 0
 1105 0016 0420     		movs	r0, #4
 1106 0018 7047     		bx	lr
 1107              	.L100:
1353:.\Generated_Source\PSoC5/Surtidor.c ****             }
1354:.\Generated_Source\PSoC5/Surtidor.c ****             else
1355:.\Generated_Source\PSoC5/Surtidor.c ****             {
1356:.\Generated_Source\PSoC5/Surtidor.c ****                 /* We only know there is data in the fifo. */
1357:.\Generated_Source\PSoC5/Surtidor.c ****                 size = 1u;
 1108              		.loc 1 1357 0
 1109 001a 0120     		movs	r0, #1
 1110              	.LVL88:
1358:.\Generated_Source\PSoC5/Surtidor.c ****             }
1359:.\Generated_Source\PSoC5/Surtidor.c **** 
1360:.\Generated_Source\PSoC5/Surtidor.c ****         #endif /* End Surtidor_TXBUFFERSIZE > Surtidor_FIFO_LENGTH */
1361:.\Generated_Source\PSoC5/Surtidor.c **** 
1362:.\Generated_Source\PSoC5/Surtidor.c ****         return(size);
1363:.\Generated_Source\PSoC5/Surtidor.c ****     }
 1111              		.loc 1 1363 0
 1112 001c 7047     		bx	lr
 1113              	.L102:
 1114 001e 00BF     		.align	2
 1115              	.L101:
 1116 0020 66650040 		.word	1073767782
 1117              		.cfi_endproc
 1118              	.LFE25:
 1119              		.size	Surtidor_GetTxBufferSize, .-Surtidor_GetTxBufferSize
 1120              		.section	.text.Surtidor_ClearTxBuffer,"ax",%progbits
 1121              		.align	2
 1122              		.global	Surtidor_ClearTxBuffer
 1123              		.thumb
 1124              		.thumb_func
 1125              		.type	Surtidor_ClearTxBuffer, %function
 1126              	Surtidor_ClearTxBuffer:
 1127              	.LFB26:
1364:.\Generated_Source\PSoC5/Surtidor.c **** 
1365:.\Generated_Source\PSoC5/Surtidor.c **** 
ARM GAS  C:\Users\RECEPC~1\AppData\Local\Temp\ccllYUoy.s 			page 45


1366:.\Generated_Source\PSoC5/Surtidor.c ****     /*******************************************************************************
1367:.\Generated_Source\PSoC5/Surtidor.c ****     * Function Name: Surtidor_ClearTxBuffer
1368:.\Generated_Source\PSoC5/Surtidor.c ****     ********************************************************************************
1369:.\Generated_Source\PSoC5/Surtidor.c ****     *
1370:.\Generated_Source\PSoC5/Surtidor.c ****     * Summary:
1371:.\Generated_Source\PSoC5/Surtidor.c ****     *  Clears the TX RAM buffer by setting the read and write pointers both to zero.
1372:.\Generated_Source\PSoC5/Surtidor.c ****     *  Clears the hardware TX FIFO.  Any data present in the FIFO will not be sent.
1373:.\Generated_Source\PSoC5/Surtidor.c ****     *
1374:.\Generated_Source\PSoC5/Surtidor.c ****     * Parameters:
1375:.\Generated_Source\PSoC5/Surtidor.c ****     *  None.
1376:.\Generated_Source\PSoC5/Surtidor.c ****     *
1377:.\Generated_Source\PSoC5/Surtidor.c ****     * Return:
1378:.\Generated_Source\PSoC5/Surtidor.c ****     *  None.
1379:.\Generated_Source\PSoC5/Surtidor.c ****     *
1380:.\Generated_Source\PSoC5/Surtidor.c ****     * Global Variables:
1381:.\Generated_Source\PSoC5/Surtidor.c ****     *  Surtidor_txBufferWrite - cleared to zero.
1382:.\Generated_Source\PSoC5/Surtidor.c ****     *  Surtidor_txBufferRead - cleared to zero.
1383:.\Generated_Source\PSoC5/Surtidor.c ****     *
1384:.\Generated_Source\PSoC5/Surtidor.c ****     * Reentrant:
1385:.\Generated_Source\PSoC5/Surtidor.c ****     *  No.
1386:.\Generated_Source\PSoC5/Surtidor.c ****     *
1387:.\Generated_Source\PSoC5/Surtidor.c ****     * Theory:
1388:.\Generated_Source\PSoC5/Surtidor.c ****     *  Setting the pointers to zero makes the system believe there is no data to
1389:.\Generated_Source\PSoC5/Surtidor.c ****     *  read and writing will resume at address 0 overwriting any data that may have
1390:.\Generated_Source\PSoC5/Surtidor.c ****     *  remained in the RAM.
1391:.\Generated_Source\PSoC5/Surtidor.c ****     *
1392:.\Generated_Source\PSoC5/Surtidor.c ****     * Side Effects:
1393:.\Generated_Source\PSoC5/Surtidor.c ****     *  Any received data not read from the RAM buffer will be lost when overwritten.
1394:.\Generated_Source\PSoC5/Surtidor.c ****     *
1395:.\Generated_Source\PSoC5/Surtidor.c ****     *******************************************************************************/
1396:.\Generated_Source\PSoC5/Surtidor.c ****     void Surtidor_ClearTxBuffer(void) 
1397:.\Generated_Source\PSoC5/Surtidor.c ****     {
 1128              		.loc 1 1397 0
 1129              		.cfi_startproc
 1130              		@ args = 0, pretend = 0, frame = 0
 1131              		@ frame_needed = 0, uses_anonymous_args = 0
 1132 0000 08B5     		push	{r3, lr}
 1133              		.cfi_def_cfa_offset 8
 1134              		.cfi_offset 3, -8
 1135              		.cfi_offset 14, -4
1398:.\Generated_Source\PSoC5/Surtidor.c ****         uint8 enableInterrupts;
1399:.\Generated_Source\PSoC5/Surtidor.c **** 
1400:.\Generated_Source\PSoC5/Surtidor.c ****         /* Enter critical section */
1401:.\Generated_Source\PSoC5/Surtidor.c ****         enableInterrupts = CyEnterCriticalSection();
 1136              		.loc 1 1401 0
 1137 0002 FFF7FEFF 		bl	CyEnterCriticalSection
 1138              	.LVL89:
1402:.\Generated_Source\PSoC5/Surtidor.c ****         /* clear the HW FIFO */
1403:.\Generated_Source\PSoC5/Surtidor.c ****         Surtidor_TXDATA_AUX_CTL_REG |=  Surtidor_TX_FIFO_CLR;
 1139              		.loc 1 1403 0
 1140 0006 064B     		ldr	r3, .L104
 1141 0008 1A78     		ldrb	r2, [r3]	@ zero_extendqisi2
 1142 000a 42F00102 		orr	r2, r2, #1
 1143 000e 1A70     		strb	r2, [r3]
1404:.\Generated_Source\PSoC5/Surtidor.c ****         Surtidor_TXDATA_AUX_CTL_REG &= (uint8)~Surtidor_TX_FIFO_CLR;
 1144              		.loc 1 1404 0
 1145 0010 1A78     		ldrb	r2, [r3]	@ zero_extendqisi2
ARM GAS  C:\Users\RECEPC~1\AppData\Local\Temp\ccllYUoy.s 			page 46


 1146 0012 02F0FE02 		and	r2, r2, #254
 1147 0016 1A70     		strb	r2, [r3]
1405:.\Generated_Source\PSoC5/Surtidor.c ****         /* Exit critical section */
1406:.\Generated_Source\PSoC5/Surtidor.c ****         CyExitCriticalSection(enableInterrupts);
 1148              		.loc 1 1406 0
 1149 0018 FFF7FEFF 		bl	CyExitCriticalSection
 1150              	.LVL90:
 1151 001c 08BD     		pop	{r3, pc}
 1152              	.L105:
 1153 001e 00BF     		.align	2
 1154              	.L104:
 1155 0020 95650040 		.word	1073767829
 1156              		.cfi_endproc
 1157              	.LFE26:
 1158              		.size	Surtidor_ClearTxBuffer, .-Surtidor_ClearTxBuffer
 1159              		.section	.text.Surtidor_SendBreak,"ax",%progbits
 1160              		.align	2
 1161              		.global	Surtidor_SendBreak
 1162              		.thumb
 1163              		.thumb_func
 1164              		.type	Surtidor_SendBreak, %function
 1165              	Surtidor_SendBreak:
 1166              	.LFB27:
1407:.\Generated_Source\PSoC5/Surtidor.c **** 
1408:.\Generated_Source\PSoC5/Surtidor.c ****         #if(Surtidor_TXBUFFERSIZE > Surtidor_FIFO_LENGTH)
1409:.\Generated_Source\PSoC5/Surtidor.c **** 
1410:.\Generated_Source\PSoC5/Surtidor.c ****             /* Disable Tx interrupt. */
1411:.\Generated_Source\PSoC5/Surtidor.c ****             /* Protect variables that could change on interrupt. */
1412:.\Generated_Source\PSoC5/Surtidor.c ****             #if(Surtidor_TX_INTERRUPT_ENABLED)
1413:.\Generated_Source\PSoC5/Surtidor.c ****                 Surtidor_DisableTxInt();
1414:.\Generated_Source\PSoC5/Surtidor.c ****             #endif /* End Surtidor_TX_INTERRUPT_ENABLED */
1415:.\Generated_Source\PSoC5/Surtidor.c **** 
1416:.\Generated_Source\PSoC5/Surtidor.c ****             Surtidor_txBufferRead = 0u;
1417:.\Generated_Source\PSoC5/Surtidor.c ****             Surtidor_txBufferWrite = 0u;
1418:.\Generated_Source\PSoC5/Surtidor.c **** 
1419:.\Generated_Source\PSoC5/Surtidor.c ****             /* Enable Tx interrupt. */
1420:.\Generated_Source\PSoC5/Surtidor.c ****             #if(Surtidor_TX_INTERRUPT_ENABLED)
1421:.\Generated_Source\PSoC5/Surtidor.c ****                 Surtidor_EnableTxInt();
1422:.\Generated_Source\PSoC5/Surtidor.c ****             #endif /* End Surtidor_TX_INTERRUPT_ENABLED */
1423:.\Generated_Source\PSoC5/Surtidor.c **** 
1424:.\Generated_Source\PSoC5/Surtidor.c ****         #endif /* End Surtidor_TXBUFFERSIZE > Surtidor_FIFO_LENGTH */
1425:.\Generated_Source\PSoC5/Surtidor.c ****     }
1426:.\Generated_Source\PSoC5/Surtidor.c **** 
1427:.\Generated_Source\PSoC5/Surtidor.c **** 
1428:.\Generated_Source\PSoC5/Surtidor.c ****     /*******************************************************************************
1429:.\Generated_Source\PSoC5/Surtidor.c ****     * Function Name: Surtidor_SendBreak
1430:.\Generated_Source\PSoC5/Surtidor.c ****     ********************************************************************************
1431:.\Generated_Source\PSoC5/Surtidor.c ****     *
1432:.\Generated_Source\PSoC5/Surtidor.c ****     * Summary:
1433:.\Generated_Source\PSoC5/Surtidor.c ****     *  Write a Break command to the UART
1434:.\Generated_Source\PSoC5/Surtidor.c ****     *
1435:.\Generated_Source\PSoC5/Surtidor.c ****     * Parameters:
1436:.\Generated_Source\PSoC5/Surtidor.c ****     *  uint8 retMode:  Wait mode,
1437:.\Generated_Source\PSoC5/Surtidor.c ****     *   0 - Initialize registers for Break, sends the Break signal and return
1438:.\Generated_Source\PSoC5/Surtidor.c ****     *       imediately.
1439:.\Generated_Source\PSoC5/Surtidor.c ****     *   1 - Wait until Break sending is complete, reinitialize registers to normal
1440:.\Generated_Source\PSoC5/Surtidor.c ****     *       transmission mode then return.
ARM GAS  C:\Users\RECEPC~1\AppData\Local\Temp\ccllYUoy.s 			page 47


1441:.\Generated_Source\PSoC5/Surtidor.c ****     *   2 - Reinitialize registers to normal transmission mode then return.
1442:.\Generated_Source\PSoC5/Surtidor.c ****     *   3 - both steps: 0 and 1
1443:.\Generated_Source\PSoC5/Surtidor.c ****     *       init registers for Break, send Break signal
1444:.\Generated_Source\PSoC5/Surtidor.c ****     *       wait until Break sending is complete, reinit registers to normal
1445:.\Generated_Source\PSoC5/Surtidor.c ****     *       transmission mode then return.
1446:.\Generated_Source\PSoC5/Surtidor.c ****     *
1447:.\Generated_Source\PSoC5/Surtidor.c ****     * Return:
1448:.\Generated_Source\PSoC5/Surtidor.c ****     *  None.
1449:.\Generated_Source\PSoC5/Surtidor.c ****     *
1450:.\Generated_Source\PSoC5/Surtidor.c ****     * Global Variables:
1451:.\Generated_Source\PSoC5/Surtidor.c ****     *  Surtidor_initVar - checked to identify that the component has been
1452:.\Generated_Source\PSoC5/Surtidor.c ****     *     initialized.
1453:.\Generated_Source\PSoC5/Surtidor.c ****     *  tx_period - static variable, used for keeping TX period configuration.
1454:.\Generated_Source\PSoC5/Surtidor.c ****     *
1455:.\Generated_Source\PSoC5/Surtidor.c ****     * Reentrant:
1456:.\Generated_Source\PSoC5/Surtidor.c ****     *  No.
1457:.\Generated_Source\PSoC5/Surtidor.c ****     *
1458:.\Generated_Source\PSoC5/Surtidor.c ****     * Theory:
1459:.\Generated_Source\PSoC5/Surtidor.c ****     *  SendBreak function initializes registers to send 13-bit break signal. It is
1460:.\Generated_Source\PSoC5/Surtidor.c ****     *  important to return the registers configuration to normal for continue 8-bit
1461:.\Generated_Source\PSoC5/Surtidor.c ****     *  operation.
1462:.\Generated_Source\PSoC5/Surtidor.c ****     *  Trere are 3 variants for this API usage:
1463:.\Generated_Source\PSoC5/Surtidor.c ****     *  1) SendBreak(3) - function will send the Break signal and take care on the
1464:.\Generated_Source\PSoC5/Surtidor.c ****     *     configuration returning. Funcition will block CPU untill transmition
1465:.\Generated_Source\PSoC5/Surtidor.c ****     *     complete.
1466:.\Generated_Source\PSoC5/Surtidor.c ****     *  2) User may want to use bloking time if UART configured to the low speed
1467:.\Generated_Source\PSoC5/Surtidor.c ****     *     operation
1468:.\Generated_Source\PSoC5/Surtidor.c ****     *     Emample for this case:
1469:.\Generated_Source\PSoC5/Surtidor.c ****     *     SendBreak(0);     - init Break signal transmition
1470:.\Generated_Source\PSoC5/Surtidor.c ****     *         Add your code here to use CPU time
1471:.\Generated_Source\PSoC5/Surtidor.c ****     *     SendBreak(1);     - complete Break operation
1472:.\Generated_Source\PSoC5/Surtidor.c ****     *  3) Same to 2) but user may want to init and use the interrupt for complete
1473:.\Generated_Source\PSoC5/Surtidor.c ****     *     break operation.
1474:.\Generated_Source\PSoC5/Surtidor.c ****     *     Example for this case:
1475:.\Generated_Source\PSoC5/Surtidor.c ****     *     Init TX interrupt whith "TX - On TX Complete" parameter
1476:.\Generated_Source\PSoC5/Surtidor.c ****     *     SendBreak(0);     - init Break signal transmition
1477:.\Generated_Source\PSoC5/Surtidor.c ****     *         Add your code here to use CPU time
1478:.\Generated_Source\PSoC5/Surtidor.c ****     *     When interrupt appear with UART_TX_STS_COMPLETE status:
1479:.\Generated_Source\PSoC5/Surtidor.c ****     *     SendBreak(2);     - complete Break operation
1480:.\Generated_Source\PSoC5/Surtidor.c ****     *
1481:.\Generated_Source\PSoC5/Surtidor.c ****     * Side Effects:
1482:.\Generated_Source\PSoC5/Surtidor.c ****     *   Uses static variable to keep registers configuration.
1483:.\Generated_Source\PSoC5/Surtidor.c ****     *
1484:.\Generated_Source\PSoC5/Surtidor.c ****     *******************************************************************************/
1485:.\Generated_Source\PSoC5/Surtidor.c ****     void Surtidor_SendBreak(uint8 retMode) 
1486:.\Generated_Source\PSoC5/Surtidor.c ****     {
 1167              		.loc 1 1486 0
 1168              		.cfi_startproc
 1169              		@ args = 0, pretend = 0, frame = 0
 1170              		@ frame_needed = 0, uses_anonymous_args = 0
 1171              		@ link register save eliminated.
 1172              	.LVL91:
1487:.\Generated_Source\PSoC5/Surtidor.c **** 
1488:.\Generated_Source\PSoC5/Surtidor.c ****         /* If not Initialized then skip this function*/
1489:.\Generated_Source\PSoC5/Surtidor.c ****         if(Surtidor_initVar != 0u)
 1173              		.loc 1 1489 0
 1174 0000 124B     		ldr	r3, .L116
ARM GAS  C:\Users\RECEPC~1\AppData\Local\Temp\ccllYUoy.s 			page 48


 1175 0002 1B78     		ldrb	r3, [r3]	@ zero_extendqisi2
 1176 0004 0BB3     		cbz	r3, .L106
 1177              	.LBB2:
1490:.\Generated_Source\PSoC5/Surtidor.c ****         {
1491:.\Generated_Source\PSoC5/Surtidor.c ****             /*Set the Counter to 13-bits and transmit a 00 byte*/
1492:.\Generated_Source\PSoC5/Surtidor.c ****             /*When that is done then reset the counter value back*/
1493:.\Generated_Source\PSoC5/Surtidor.c ****             uint8 tmpStat;
1494:.\Generated_Source\PSoC5/Surtidor.c **** 
1495:.\Generated_Source\PSoC5/Surtidor.c ****             #if(Surtidor_HD_ENABLED) /* Half Duplex mode*/
1496:.\Generated_Source\PSoC5/Surtidor.c **** 
1497:.\Generated_Source\PSoC5/Surtidor.c ****                 if( (retMode == Surtidor_SEND_BREAK) ||
1498:.\Generated_Source\PSoC5/Surtidor.c ****                     (retMode == Surtidor_SEND_WAIT_REINIT ) )
1499:.\Generated_Source\PSoC5/Surtidor.c ****                 {
1500:.\Generated_Source\PSoC5/Surtidor.c ****                     /* CTRL_HD_SEND_BREAK - sends break bits in HD mode*/
1501:.\Generated_Source\PSoC5/Surtidor.c ****                     Surtidor_WriteControlRegister(Surtidor_ReadControlRegister() |
1502:.\Generated_Source\PSoC5/Surtidor.c ****                                                           Surtidor_CTRL_HD_SEND_BREAK);
1503:.\Generated_Source\PSoC5/Surtidor.c ****                     /* Send zeros*/
1504:.\Generated_Source\PSoC5/Surtidor.c ****                     Surtidor_TXDATA_REG = 0u;
1505:.\Generated_Source\PSoC5/Surtidor.c **** 
1506:.\Generated_Source\PSoC5/Surtidor.c ****                     do /*wait until transmit starts*/
1507:.\Generated_Source\PSoC5/Surtidor.c ****                     {
1508:.\Generated_Source\PSoC5/Surtidor.c ****                         tmpStat = Surtidor_TXSTATUS_REG;
1509:.\Generated_Source\PSoC5/Surtidor.c ****                     }while((tmpStat & Surtidor_TX_STS_FIFO_EMPTY) != 0u);
1510:.\Generated_Source\PSoC5/Surtidor.c ****                 }
1511:.\Generated_Source\PSoC5/Surtidor.c **** 
1512:.\Generated_Source\PSoC5/Surtidor.c ****                 if( (retMode == Surtidor_WAIT_FOR_COMPLETE_REINIT) ||
1513:.\Generated_Source\PSoC5/Surtidor.c ****                     (retMode == Surtidor_SEND_WAIT_REINIT) )
1514:.\Generated_Source\PSoC5/Surtidor.c ****                 {
1515:.\Generated_Source\PSoC5/Surtidor.c ****                     do /*wait until transmit complete*/
1516:.\Generated_Source\PSoC5/Surtidor.c ****                     {
1517:.\Generated_Source\PSoC5/Surtidor.c ****                         tmpStat = Surtidor_TXSTATUS_REG;
1518:.\Generated_Source\PSoC5/Surtidor.c ****                     }while(((uint8)~tmpStat & Surtidor_TX_STS_COMPLETE) != 0u);
1519:.\Generated_Source\PSoC5/Surtidor.c ****                 }
1520:.\Generated_Source\PSoC5/Surtidor.c **** 
1521:.\Generated_Source\PSoC5/Surtidor.c ****                 if( (retMode == Surtidor_WAIT_FOR_COMPLETE_REINIT) ||
1522:.\Generated_Source\PSoC5/Surtidor.c ****                     (retMode == Surtidor_REINIT) ||
1523:.\Generated_Source\PSoC5/Surtidor.c ****                     (retMode == Surtidor_SEND_WAIT_REINIT) )
1524:.\Generated_Source\PSoC5/Surtidor.c ****                 {
1525:.\Generated_Source\PSoC5/Surtidor.c ****                     Surtidor_WriteControlRegister(Surtidor_ReadControlRegister() &
1526:.\Generated_Source\PSoC5/Surtidor.c ****                                                   (uint8)~Surtidor_CTRL_HD_SEND_BREAK);
1527:.\Generated_Source\PSoC5/Surtidor.c ****                 }
1528:.\Generated_Source\PSoC5/Surtidor.c **** 
1529:.\Generated_Source\PSoC5/Surtidor.c ****             #else /* Surtidor_HD_ENABLED Full Duplex mode */
1530:.\Generated_Source\PSoC5/Surtidor.c **** 
1531:.\Generated_Source\PSoC5/Surtidor.c ****                 static uint8 tx_period;
1532:.\Generated_Source\PSoC5/Surtidor.c **** 
1533:.\Generated_Source\PSoC5/Surtidor.c ****                 if( (retMode == Surtidor_SEND_BREAK) ||
 1178              		.loc 1 1533 0
 1179 0006 08B1     		cbz	r0, .L108
 1180              		.loc 1 1533 0 is_stmt 0 discriminator 1
 1181 0008 0328     		cmp	r0, #3
 1182 000a 0DD1     		bne	.L109
 1183              	.L108:
1534:.\Generated_Source\PSoC5/Surtidor.c ****                     (retMode == Surtidor_SEND_WAIT_REINIT) )
1535:.\Generated_Source\PSoC5/Surtidor.c ****                 {
1536:.\Generated_Source\PSoC5/Surtidor.c ****                     /* CTRL_HD_SEND_BREAK - skip to send parity bit at Break signal in Full Duplex 
1537:.\Generated_Source\PSoC5/Surtidor.c ****                     #if( (Surtidor_PARITY_TYPE != Surtidor__B_UART__NONE_REVB) || \
ARM GAS  C:\Users\RECEPC~1\AppData\Local\Temp\ccllYUoy.s 			page 49


1538:.\Generated_Source\PSoC5/Surtidor.c ****                                         (Surtidor_PARITY_TYPE_SW != 0u) )
1539:.\Generated_Source\PSoC5/Surtidor.c ****                         Surtidor_WriteControlRegister(Surtidor_ReadControlRegister() |
1540:.\Generated_Source\PSoC5/Surtidor.c ****                                                               Surtidor_CTRL_HD_SEND_BREAK);
1541:.\Generated_Source\PSoC5/Surtidor.c ****                     #endif /* End Surtidor_PARITY_TYPE != Surtidor__B_UART__NONE_REVB  */
1542:.\Generated_Source\PSoC5/Surtidor.c **** 
1543:.\Generated_Source\PSoC5/Surtidor.c ****                     #if(Surtidor_TXCLKGEN_DP)
1544:.\Generated_Source\PSoC5/Surtidor.c ****                         tx_period = Surtidor_TXBITCLKTX_COMPLETE_REG;
 1184              		.loc 1 1544 0 is_stmt 1
 1185 000c 104B     		ldr	r3, .L116+4
 1186 000e 1978     		ldrb	r1, [r3]	@ zero_extendqisi2
 1187 0010 0E4A     		ldr	r2, .L116
 1188 0012 1172     		strb	r1, [r2, #8]
1545:.\Generated_Source\PSoC5/Surtidor.c ****                         Surtidor_TXBITCLKTX_COMPLETE_REG = Surtidor_TXBITCTR_BREAKBITS;
 1189              		.loc 1 1545 0
 1190 0014 6722     		movs	r2, #103
 1191 0016 1A70     		strb	r2, [r3]
1546:.\Generated_Source\PSoC5/Surtidor.c ****                     #else
1547:.\Generated_Source\PSoC5/Surtidor.c ****                         tx_period = Surtidor_TXBITCTR_PERIOD_REG;
1548:.\Generated_Source\PSoC5/Surtidor.c ****                         Surtidor_TXBITCTR_PERIOD_REG = Surtidor_TXBITCTR_BREAKBITS8X;
1549:.\Generated_Source\PSoC5/Surtidor.c ****                     #endif /* End Surtidor_TXCLKGEN_DP */
1550:.\Generated_Source\PSoC5/Surtidor.c **** 
1551:.\Generated_Source\PSoC5/Surtidor.c ****                     /* Send zeros*/
1552:.\Generated_Source\PSoC5/Surtidor.c ****                     Surtidor_TXDATA_REG = 0u;
 1192              		.loc 1 1552 0
 1193 0018 0022     		movs	r2, #0
 1194 001a 0F33     		adds	r3, r3, #15
 1195 001c 1A70     		strb	r2, [r3]
1553:.\Generated_Source\PSoC5/Surtidor.c **** 
1554:.\Generated_Source\PSoC5/Surtidor.c ****                     do /* wait until transmit starts */
1555:.\Generated_Source\PSoC5/Surtidor.c ****                     {
1556:.\Generated_Source\PSoC5/Surtidor.c ****                         tmpStat = Surtidor_TXSTATUS_REG;
 1196              		.loc 1 1556 0
 1197 001e 0D4A     		ldr	r2, .L116+8
 1198              	.L110:
 1199              		.loc 1 1556 0 is_stmt 0 discriminator 1
 1200 0020 1378     		ldrb	r3, [r2]	@ zero_extendqisi2
 1201              	.LVL92:
1557:.\Generated_Source\PSoC5/Surtidor.c ****                     }while((tmpStat & Surtidor_TX_STS_FIFO_EMPTY) != 0u);
 1202              		.loc 1 1557 0 is_stmt 1 discriminator 1
 1203 0022 13F0020F 		tst	r3, #2
 1204 0026 FBD1     		bne	.L110
 1205              	.LVL93:
 1206              	.L109:
1558:.\Generated_Source\PSoC5/Surtidor.c ****                 }
1559:.\Generated_Source\PSoC5/Surtidor.c **** 
1560:.\Generated_Source\PSoC5/Surtidor.c ****                 if( (retMode == Surtidor_WAIT_FOR_COMPLETE_REINIT) ||
 1207              		.loc 1 1560 0
 1208 0028 0128     		cmp	r0, #1
 1209 002a 01D0     		beq	.L111
 1210              		.loc 1 1560 0 is_stmt 0 discriminator 1
 1211 002c 0328     		cmp	r0, #3
 1212 002e 04D1     		bne	.L112
 1213              	.L111:
1561:.\Generated_Source\PSoC5/Surtidor.c ****                     (retMode == Surtidor_SEND_WAIT_REINIT) )
1562:.\Generated_Source\PSoC5/Surtidor.c ****                 {
1563:.\Generated_Source\PSoC5/Surtidor.c ****                     do /*wait until transmit complete*/
1564:.\Generated_Source\PSoC5/Surtidor.c ****                     {
ARM GAS  C:\Users\RECEPC~1\AppData\Local\Temp\ccllYUoy.s 			page 50


1565:.\Generated_Source\PSoC5/Surtidor.c ****                         tmpStat = Surtidor_TXSTATUS_REG;
 1214              		.loc 1 1565 0 is_stmt 1 discriminator 1
 1215 0030 084A     		ldr	r2, .L116+8
 1216              	.L113:
 1217 0032 1378     		ldrb	r3, [r2]	@ zero_extendqisi2
 1218              	.LVL94:
1566:.\Generated_Source\PSoC5/Surtidor.c ****                     }while(((uint8)~tmpStat & Surtidor_TX_STS_COMPLETE) != 0u);
 1219              		.loc 1 1566 0 discriminator 1
 1220 0034 13F0010F 		tst	r3, #1
 1221 0038 FBD0     		beq	.L113
 1222              	.LVL95:
 1223              	.L112:
1567:.\Generated_Source\PSoC5/Surtidor.c ****                 }
1568:.\Generated_Source\PSoC5/Surtidor.c **** 
1569:.\Generated_Source\PSoC5/Surtidor.c ****                 if( (retMode == Surtidor_WAIT_FOR_COMPLETE_REINIT) ||
1570:.\Generated_Source\PSoC5/Surtidor.c ****                     (retMode == Surtidor_REINIT) ||
 1224              		.loc 1 1570 0
 1225 003a 0138     		subs	r0, r0, #1
 1226              	.LVL96:
 1227 003c C0B2     		uxtb	r0, r0
1569:.\Generated_Source\PSoC5/Surtidor.c ****                 if( (retMode == Surtidor_WAIT_FOR_COMPLETE_REINIT) ||
 1228              		.loc 1 1569 0
 1229 003e 0228     		cmp	r0, #2
 1230 0040 03D8     		bhi	.L106
1571:.\Generated_Source\PSoC5/Surtidor.c ****                     (retMode == Surtidor_SEND_WAIT_REINIT) )
1572:.\Generated_Source\PSoC5/Surtidor.c ****                 {
1573:.\Generated_Source\PSoC5/Surtidor.c **** 
1574:.\Generated_Source\PSoC5/Surtidor.c ****                     #if(Surtidor_TXCLKGEN_DP)
1575:.\Generated_Source\PSoC5/Surtidor.c ****                         Surtidor_TXBITCLKTX_COMPLETE_REG = tx_period;
 1231              		.loc 1 1575 0
 1232 0042 024B     		ldr	r3, .L116
 1233 0044 1A7A     		ldrb	r2, [r3, #8]	@ zero_extendqisi2
 1234 0046 024B     		ldr	r3, .L116+4
 1235 0048 1A70     		strb	r2, [r3]
 1236              	.L106:
 1237 004a 7047     		bx	lr
 1238              	.L117:
 1239              		.align	2
 1240              	.L116:
 1241 004c 00000000 		.word	.LANCHOR0
 1242 0050 36650040 		.word	1073767734
 1243 0054 66650040 		.word	1073767782
 1244              	.LBE2:
 1245              		.cfi_endproc
 1246              	.LFE27:
 1247              		.size	Surtidor_SendBreak, .-Surtidor_SendBreak
 1248              		.section	.text.Surtidor_SetTxAddressMode,"ax",%progbits
 1249              		.align	2
 1250              		.global	Surtidor_SetTxAddressMode
 1251              		.thumb
 1252              		.thumb_func
 1253              		.type	Surtidor_SetTxAddressMode, %function
 1254              	Surtidor_SetTxAddressMode:
 1255              	.LFB28:
1576:.\Generated_Source\PSoC5/Surtidor.c ****                     #else
1577:.\Generated_Source\PSoC5/Surtidor.c ****                         Surtidor_TXBITCTR_PERIOD_REG = tx_period;
1578:.\Generated_Source\PSoC5/Surtidor.c ****                     #endif /* End Surtidor_TXCLKGEN_DP */
ARM GAS  C:\Users\RECEPC~1\AppData\Local\Temp\ccllYUoy.s 			page 51


1579:.\Generated_Source\PSoC5/Surtidor.c **** 
1580:.\Generated_Source\PSoC5/Surtidor.c ****                     #if( (Surtidor_PARITY_TYPE != Surtidor__B_UART__NONE_REVB) || \
1581:.\Generated_Source\PSoC5/Surtidor.c ****                          (Surtidor_PARITY_TYPE_SW != 0u) )
1582:.\Generated_Source\PSoC5/Surtidor.c ****                         Surtidor_WriteControlRegister(Surtidor_ReadControlRegister() &
1583:.\Generated_Source\PSoC5/Surtidor.c ****                                                       (uint8)~Surtidor_CTRL_HD_SEND_BREAK);
1584:.\Generated_Source\PSoC5/Surtidor.c ****                     #endif /* End Surtidor_PARITY_TYPE != NONE */
1585:.\Generated_Source\PSoC5/Surtidor.c ****                 }
1586:.\Generated_Source\PSoC5/Surtidor.c ****             #endif    /* End Surtidor_HD_ENABLED */
1587:.\Generated_Source\PSoC5/Surtidor.c ****         }
1588:.\Generated_Source\PSoC5/Surtidor.c ****     }
1589:.\Generated_Source\PSoC5/Surtidor.c **** 
1590:.\Generated_Source\PSoC5/Surtidor.c **** 
1591:.\Generated_Source\PSoC5/Surtidor.c ****     /*******************************************************************************
1592:.\Generated_Source\PSoC5/Surtidor.c ****     * Function Name: Surtidor_SetTxAddressMode
1593:.\Generated_Source\PSoC5/Surtidor.c ****     ********************************************************************************
1594:.\Generated_Source\PSoC5/Surtidor.c ****     *
1595:.\Generated_Source\PSoC5/Surtidor.c ****     * Summary:
1596:.\Generated_Source\PSoC5/Surtidor.c ****     *  Set the transmit addressing mode
1597:.\Generated_Source\PSoC5/Surtidor.c ****     *
1598:.\Generated_Source\PSoC5/Surtidor.c ****     * Parameters:
1599:.\Generated_Source\PSoC5/Surtidor.c ****     *  addressMode: 0 -> Space
1600:.\Generated_Source\PSoC5/Surtidor.c ****     *               1 -> Mark
1601:.\Generated_Source\PSoC5/Surtidor.c ****     *
1602:.\Generated_Source\PSoC5/Surtidor.c ****     * Return:
1603:.\Generated_Source\PSoC5/Surtidor.c ****     *  None.
1604:.\Generated_Source\PSoC5/Surtidor.c ****     *
1605:.\Generated_Source\PSoC5/Surtidor.c ****     *******************************************************************************/
1606:.\Generated_Source\PSoC5/Surtidor.c ****     void Surtidor_SetTxAddressMode(uint8 addressMode) 
1607:.\Generated_Source\PSoC5/Surtidor.c ****     {
 1256              		.loc 1 1607 0
 1257              		.cfi_startproc
 1258              		@ args = 0, pretend = 0, frame = 0
 1259              		@ frame_needed = 0, uses_anonymous_args = 0
 1260              		@ link register save eliminated.
 1261              	.LVL97:
 1262 0000 7047     		bx	lr
 1263              		.cfi_endproc
 1264              	.LFE28:
 1265              		.size	Surtidor_SetTxAddressMode, .-Surtidor_SetTxAddressMode
 1266              		.global	Surtidor_rxBufferOverflow
 1267              		.global	Surtidor_rxBufferLoopDetect
 1268              		.global	Surtidor_rxBufferWrite
 1269              		.global	Surtidor_rxBufferRead
 1270              		.comm	Surtidor_rxBuffer,256,4
 1271              		.global	Surtidor_initVar
 1272 0002 00BF     		.bss
 1273              		.align	1
 1274              		.set	.LANCHOR0,. + 0
 1275              		.type	Surtidor_initVar, %object
 1276              		.size	Surtidor_initVar, 1
 1277              	Surtidor_initVar:
 1278 0000 00       		.space	1
 1279 0001 00       		.space	1
 1280              		.type	Surtidor_rxBufferRead, %object
 1281              		.size	Surtidor_rxBufferRead, 2
 1282              	Surtidor_rxBufferRead:
 1283 0002 0000     		.space	2
ARM GAS  C:\Users\RECEPC~1\AppData\Local\Temp\ccllYUoy.s 			page 52


 1284              		.type	Surtidor_rxBufferWrite, %object
 1285              		.size	Surtidor_rxBufferWrite, 2
 1286              	Surtidor_rxBufferWrite:
 1287 0004 0000     		.space	2
 1288              		.type	Surtidor_rxBufferLoopDetect, %object
 1289              		.size	Surtidor_rxBufferLoopDetect, 1
 1290              	Surtidor_rxBufferLoopDetect:
 1291 0006 00       		.space	1
 1292              		.type	Surtidor_rxBufferOverflow, %object
 1293              		.size	Surtidor_rxBufferOverflow, 1
 1294              	Surtidor_rxBufferOverflow:
 1295 0007 00       		.space	1
 1296              		.type	tx_period.4996, %object
 1297              		.size	tx_period.4996, 1
 1298              	tx_period.4996:
 1299 0008 00       		.space	1
 1300 0009 00       		.text
 1301              	.Letext0:
 1302              		.file 2 ".\\Generated_Source\\PSoC5\\cytypes.h"
 1303              		.file 3 ".\\Generated_Source\\PSoC5\\CyLib.h"