ARM GAS  C:\Users\RECEPC~1\AppData\Local\Temp\ccRFav9V.s 			page 1


   1              		.syntax unified
   2              		.cpu cortex-m3
   3              		.fpu softvfp
   4              		.eabi_attribute 20, 1
   5              		.eabi_attribute 21, 1
   6              		.eabi_attribute 23, 3
   7              		.eabi_attribute 24, 1
   8              		.eabi_attribute 25, 1
   9              		.eabi_attribute 26, 1
  10              		.eabi_attribute 30, 1
  11              		.eabi_attribute 34, 1
  12              		.eabi_attribute 18, 4
  13              		.thumb
  14              		.file	"Surtidor_INT.c"
  15              		.text
  16              	.Ltext0:
  17              		.cfi_sections	.debug_frame
  18              		.section	.text.Surtidor_RXISR,"ax",%progbits
  19              		.align	2
  20              		.global	Surtidor_RXISR
  21              		.thumb
  22              		.thumb_func
  23              		.type	Surtidor_RXISR, %function
  24              	Surtidor_RXISR:
  25              	.LFB0:
  26              		.file 1 ".\\Generated_Source\\PSoC5\\Surtidor_INT.c"
   1:.\Generated_Source\PSoC5/Surtidor_INT.c **** /*******************************************************************************
   2:.\Generated_Source\PSoC5/Surtidor_INT.c **** * File Name: Surtidor_INT.c
   3:.\Generated_Source\PSoC5/Surtidor_INT.c **** * Version 2.30
   4:.\Generated_Source\PSoC5/Surtidor_INT.c **** *
   5:.\Generated_Source\PSoC5/Surtidor_INT.c **** * Description:
   6:.\Generated_Source\PSoC5/Surtidor_INT.c **** *  This file provides all Interrupt Service functionality of the UART component
   7:.\Generated_Source\PSoC5/Surtidor_INT.c **** *
   8:.\Generated_Source\PSoC5/Surtidor_INT.c **** * Note:
   9:.\Generated_Source\PSoC5/Surtidor_INT.c **** *  Any unusual or non-standard behavior should be noted here. Other-
  10:.\Generated_Source\PSoC5/Surtidor_INT.c **** *  wise, this section should remain blank.
  11:.\Generated_Source\PSoC5/Surtidor_INT.c **** *
  12:.\Generated_Source\PSoC5/Surtidor_INT.c **** ********************************************************************************
  13:.\Generated_Source\PSoC5/Surtidor_INT.c **** * Copyright 2008-2012, Cypress Semiconductor Corporation.  All rights reserved.
  14:.\Generated_Source\PSoC5/Surtidor_INT.c **** * You may use this file only in accordance with the license, terms, conditions,
  15:.\Generated_Source\PSoC5/Surtidor_INT.c **** * disclaimers, and limitations in the end user license agreement accompanying
  16:.\Generated_Source\PSoC5/Surtidor_INT.c **** * the software package with which this file was provided.
  17:.\Generated_Source\PSoC5/Surtidor_INT.c **** *******************************************************************************/
  18:.\Generated_Source\PSoC5/Surtidor_INT.c **** 
  19:.\Generated_Source\PSoC5/Surtidor_INT.c **** #include "Surtidor.h"
  20:.\Generated_Source\PSoC5/Surtidor_INT.c **** #include "CyLib.h"
  21:.\Generated_Source\PSoC5/Surtidor_INT.c **** 
  22:.\Generated_Source\PSoC5/Surtidor_INT.c **** 
  23:.\Generated_Source\PSoC5/Surtidor_INT.c **** /***************************************
  24:.\Generated_Source\PSoC5/Surtidor_INT.c **** * Custom Declratations
  25:.\Generated_Source\PSoC5/Surtidor_INT.c **** ***************************************/
  26:.\Generated_Source\PSoC5/Surtidor_INT.c **** /* `#START CUSTOM_DECLARATIONS` Place your declaration here */
  27:.\Generated_Source\PSoC5/Surtidor_INT.c **** 
  28:.\Generated_Source\PSoC5/Surtidor_INT.c **** /* `#END` */
  29:.\Generated_Source\PSoC5/Surtidor_INT.c **** 
  30:.\Generated_Source\PSoC5/Surtidor_INT.c **** #if( (Surtidor_RX_ENABLED || Surtidor_HD_ENABLED) && \
  31:.\Generated_Source\PSoC5/Surtidor_INT.c ****      (Surtidor_RXBUFFERSIZE > Surtidor_FIFO_LENGTH))
ARM GAS  C:\Users\RECEPC~1\AppData\Local\Temp\ccRFav9V.s 			page 2


  32:.\Generated_Source\PSoC5/Surtidor_INT.c **** 
  33:.\Generated_Source\PSoC5/Surtidor_INT.c **** 
  34:.\Generated_Source\PSoC5/Surtidor_INT.c ****     /*******************************************************************************
  35:.\Generated_Source\PSoC5/Surtidor_INT.c ****     * Function Name: Surtidor_RXISR
  36:.\Generated_Source\PSoC5/Surtidor_INT.c ****     ********************************************************************************
  37:.\Generated_Source\PSoC5/Surtidor_INT.c ****     *
  38:.\Generated_Source\PSoC5/Surtidor_INT.c ****     * Summary:
  39:.\Generated_Source\PSoC5/Surtidor_INT.c ****     *  Interrupt Service Routine for RX portion of the UART
  40:.\Generated_Source\PSoC5/Surtidor_INT.c ****     *
  41:.\Generated_Source\PSoC5/Surtidor_INT.c ****     * Parameters:
  42:.\Generated_Source\PSoC5/Surtidor_INT.c ****     *  None.
  43:.\Generated_Source\PSoC5/Surtidor_INT.c ****     *
  44:.\Generated_Source\PSoC5/Surtidor_INT.c ****     * Return:
  45:.\Generated_Source\PSoC5/Surtidor_INT.c ****     *  None.
  46:.\Generated_Source\PSoC5/Surtidor_INT.c ****     *
  47:.\Generated_Source\PSoC5/Surtidor_INT.c ****     * Global Variables:
  48:.\Generated_Source\PSoC5/Surtidor_INT.c ****     *  Surtidor_rxBuffer - RAM buffer pointer for save received data.
  49:.\Generated_Source\PSoC5/Surtidor_INT.c ****     *  Surtidor_rxBufferWrite - cyclic index for write to rxBuffer,
  50:.\Generated_Source\PSoC5/Surtidor_INT.c ****     *     increments after each byte saved to buffer.
  51:.\Generated_Source\PSoC5/Surtidor_INT.c ****     *  Surtidor_rxBufferRead - cyclic index for read from rxBuffer,
  52:.\Generated_Source\PSoC5/Surtidor_INT.c ****     *     checked to detect overflow condition.
  53:.\Generated_Source\PSoC5/Surtidor_INT.c ****     *  Surtidor_rxBufferOverflow - software overflow flag. Set to one
  54:.\Generated_Source\PSoC5/Surtidor_INT.c ****     *     when Surtidor_rxBufferWrite index overtakes
  55:.\Generated_Source\PSoC5/Surtidor_INT.c ****     *     Surtidor_rxBufferRead index.
  56:.\Generated_Source\PSoC5/Surtidor_INT.c ****     *  Surtidor_rxBufferLoopDetect - additional variable to detect overflow.
  57:.\Generated_Source\PSoC5/Surtidor_INT.c ****     *     Set to one when Surtidor_rxBufferWrite is equal to
  58:.\Generated_Source\PSoC5/Surtidor_INT.c ****     *    Surtidor_rxBufferRead
  59:.\Generated_Source\PSoC5/Surtidor_INT.c ****     *  Surtidor_rxAddressMode - this variable contains the Address mode,
  60:.\Generated_Source\PSoC5/Surtidor_INT.c ****     *     selected in customizer or set by UART_SetRxAddressMode() API.
  61:.\Generated_Source\PSoC5/Surtidor_INT.c ****     *  Surtidor_rxAddressDetected - set to 1 when correct address received,
  62:.\Generated_Source\PSoC5/Surtidor_INT.c ****     *     and analysed to store following addressed data bytes to the buffer.
  63:.\Generated_Source\PSoC5/Surtidor_INT.c ****     *     When not correct address received, set to 0 to skip following data bytes.
  64:.\Generated_Source\PSoC5/Surtidor_INT.c ****     *
  65:.\Generated_Source\PSoC5/Surtidor_INT.c ****     *******************************************************************************/
  66:.\Generated_Source\PSoC5/Surtidor_INT.c ****     CY_ISR(Surtidor_RXISR)
  67:.\Generated_Source\PSoC5/Surtidor_INT.c ****     {
  27              		.loc 1 67 0
  28              		.cfi_startproc
  29              		@ args = 0, pretend = 0, frame = 0
  30              		@ frame_needed = 0, uses_anonymous_args = 0
  31              		@ link register save eliminated.
  32 0000 2DE9F003 		push	{r4, r5, r6, r7, r8, r9}
  33              		.cfi_def_cfa_offset 24
  34              		.cfi_offset 4, -24
  35              		.cfi_offset 5, -20
  36              		.cfi_offset 6, -16
  37              		.cfi_offset 7, -12
  38              		.cfi_offset 8, -8
  39              		.cfi_offset 9, -4
  40              	.LVL0:
  68:.\Generated_Source\PSoC5/Surtidor_INT.c ****         uint8 readData;
  69:.\Generated_Source\PSoC5/Surtidor_INT.c ****         uint8 increment_pointer = 0u;
  70:.\Generated_Source\PSoC5/Surtidor_INT.c ****         #if(CY_PSOC3)
  71:.\Generated_Source\PSoC5/Surtidor_INT.c ****             uint8 int_en;
  72:.\Generated_Source\PSoC5/Surtidor_INT.c ****         #endif /* CY_PSOC3 */
  73:.\Generated_Source\PSoC5/Surtidor_INT.c **** 
  74:.\Generated_Source\PSoC5/Surtidor_INT.c ****         /* User code required at start of ISR */
ARM GAS  C:\Users\RECEPC~1\AppData\Local\Temp\ccRFav9V.s 			page 3


  75:.\Generated_Source\PSoC5/Surtidor_INT.c ****         /* `#START Surtidor_RXISR_START` */
  76:.\Generated_Source\PSoC5/Surtidor_INT.c **** 
  77:.\Generated_Source\PSoC5/Surtidor_INT.c ****         /* `#END` */
  78:.\Generated_Source\PSoC5/Surtidor_INT.c **** 
  79:.\Generated_Source\PSoC5/Surtidor_INT.c ****         #if(CY_PSOC3)   /* Make sure nested interrupt is enabled */
  80:.\Generated_Source\PSoC5/Surtidor_INT.c ****             int_en = EA;
  81:.\Generated_Source\PSoC5/Surtidor_INT.c ****             CyGlobalIntEnable;
  82:.\Generated_Source\PSoC5/Surtidor_INT.c ****         #endif /* CY_PSOC3 */
  83:.\Generated_Source\PSoC5/Surtidor_INT.c **** 
  84:.\Generated_Source\PSoC5/Surtidor_INT.c ****         readData = Surtidor_RXSTATUS_REG;
  41              		.loc 1 84 0
  42 0004 1A4B     		ldr	r3, .L7
  43 0006 1A78     		ldrb	r2, [r3]	@ zero_extendqisi2
  44 0008 D2B2     		uxtb	r2, r2
  45              	.LVL1:
  85:.\Generated_Source\PSoC5/Surtidor_INT.c **** 
  86:.\Generated_Source\PSoC5/Surtidor_INT.c ****         if((readData & (Surtidor_RX_STS_BREAK | Surtidor_RX_STS_PAR_ERROR |
  87:.\Generated_Source\PSoC5/Surtidor_INT.c ****                         Surtidor_RX_STS_STOP_ERROR | Surtidor_RX_STS_OVERRUN)) != 0u)
  88:.\Generated_Source\PSoC5/Surtidor_INT.c ****         {
  89:.\Generated_Source\PSoC5/Surtidor_INT.c ****             /* ERROR handling. */
  90:.\Generated_Source\PSoC5/Surtidor_INT.c ****             /* `#START Surtidor_RXISR_ERROR` */
  91:.\Generated_Source\PSoC5/Surtidor_INT.c **** 
  92:.\Generated_Source\PSoC5/Surtidor_INT.c ****             /* `#END` */
  93:.\Generated_Source\PSoC5/Surtidor_INT.c ****         }
  94:.\Generated_Source\PSoC5/Surtidor_INT.c **** 
  95:.\Generated_Source\PSoC5/Surtidor_INT.c ****         while((readData & Surtidor_RX_STS_FIFO_NOTEMPTY) != 0u)
  96:.\Generated_Source\PSoC5/Surtidor_INT.c ****         {
  97:.\Generated_Source\PSoC5/Surtidor_INT.c **** 
  98:.\Generated_Source\PSoC5/Surtidor_INT.c ****             #if (Surtidor_RXHW_ADDRESS_ENABLED)
  99:.\Generated_Source\PSoC5/Surtidor_INT.c ****                 if(Surtidor_rxAddressMode == (uint8)Surtidor__B_UART__AM_SW_DETECT_TO_BUFFER)
 100:.\Generated_Source\PSoC5/Surtidor_INT.c ****                 {
 101:.\Generated_Source\PSoC5/Surtidor_INT.c ****                     if((readData & Surtidor_RX_STS_MRKSPC) != 0u)
 102:.\Generated_Source\PSoC5/Surtidor_INT.c ****                     {
 103:.\Generated_Source\PSoC5/Surtidor_INT.c ****                         if ((readData & Surtidor_RX_STS_ADDR_MATCH) != 0u)
 104:.\Generated_Source\PSoC5/Surtidor_INT.c ****                         {
 105:.\Generated_Source\PSoC5/Surtidor_INT.c ****                             Surtidor_rxAddressDetected = 1u;
 106:.\Generated_Source\PSoC5/Surtidor_INT.c ****                         }
 107:.\Generated_Source\PSoC5/Surtidor_INT.c ****                         else
 108:.\Generated_Source\PSoC5/Surtidor_INT.c ****                         {
 109:.\Generated_Source\PSoC5/Surtidor_INT.c ****                             Surtidor_rxAddressDetected = 0u;
 110:.\Generated_Source\PSoC5/Surtidor_INT.c ****                         }
 111:.\Generated_Source\PSoC5/Surtidor_INT.c ****                     }
 112:.\Generated_Source\PSoC5/Surtidor_INT.c **** 
 113:.\Generated_Source\PSoC5/Surtidor_INT.c ****                     readData = Surtidor_RXDATA_REG;
 114:.\Generated_Source\PSoC5/Surtidor_INT.c ****                     if(Surtidor_rxAddressDetected != 0u)
 115:.\Generated_Source\PSoC5/Surtidor_INT.c ****                     {   /* store only addressed data */
 116:.\Generated_Source\PSoC5/Surtidor_INT.c ****                         Surtidor_rxBuffer[Surtidor_rxBufferWrite] = readData;
 117:.\Generated_Source\PSoC5/Surtidor_INT.c ****                         increment_pointer = 1u;
 118:.\Generated_Source\PSoC5/Surtidor_INT.c ****                     }
 119:.\Generated_Source\PSoC5/Surtidor_INT.c ****                 }
 120:.\Generated_Source\PSoC5/Surtidor_INT.c ****                 else /* without software addressing */
 121:.\Generated_Source\PSoC5/Surtidor_INT.c ****                 {
 122:.\Generated_Source\PSoC5/Surtidor_INT.c ****                     Surtidor_rxBuffer[Surtidor_rxBufferWrite] = Surtidor_RXDATA_REG;
 123:.\Generated_Source\PSoC5/Surtidor_INT.c ****                     increment_pointer = 1u;
 124:.\Generated_Source\PSoC5/Surtidor_INT.c ****                 }
 125:.\Generated_Source\PSoC5/Surtidor_INT.c ****             #else  /* without addressing */
 126:.\Generated_Source\PSoC5/Surtidor_INT.c ****                 Surtidor_rxBuffer[Surtidor_rxBufferWrite] = Surtidor_RXDATA_REG;
ARM GAS  C:\Users\RECEPC~1\AppData\Local\Temp\ccRFav9V.s 			page 4


  46              		.loc 1 126 0
  47 000a 1A4B     		ldr	r3, .L7+4
  48 000c 1A4F     		ldr	r7, .L7+8
  49 000e 1B4E     		ldr	r6, .L7+12
 127:.\Generated_Source\PSoC5/Surtidor_INT.c ****                 increment_pointer = 1u;
 128:.\Generated_Source\PSoC5/Surtidor_INT.c ****             #endif /* End SW_DETECT_TO_BUFFER */
 129:.\Generated_Source\PSoC5/Surtidor_INT.c **** 
 130:.\Generated_Source\PSoC5/Surtidor_INT.c ****             /* do not increment buffer pointer when skip not adderessed data */
 131:.\Generated_Source\PSoC5/Surtidor_INT.c ****             if( increment_pointer != 0u )
 132:.\Generated_Source\PSoC5/Surtidor_INT.c ****             {
 133:.\Generated_Source\PSoC5/Surtidor_INT.c ****                 if(Surtidor_rxBufferLoopDetect != 0u)
  50              		.loc 1 133 0
  51 0010 1B48     		ldr	r0, .L7+16
 134:.\Generated_Source\PSoC5/Surtidor_INT.c ****                 {   /* Set Software Buffer status Overflow */
 135:.\Generated_Source\PSoC5/Surtidor_INT.c ****                     Surtidor_rxBufferOverflow = 1u;
  52              		.loc 1 135 0
  53 0012 DFF87490 		ldr	r9, .L7+24
  54 0016 4FF0010C 		mov	ip, #1
 136:.\Generated_Source\PSoC5/Surtidor_INT.c ****                 }
 137:.\Generated_Source\PSoC5/Surtidor_INT.c ****                 /* Set next pointer. */
 138:.\Generated_Source\PSoC5/Surtidor_INT.c ****                 Surtidor_rxBufferWrite++;
 139:.\Generated_Source\PSoC5/Surtidor_INT.c **** 
 140:.\Generated_Source\PSoC5/Surtidor_INT.c ****                 /* Check pointer for a loop condition */
 141:.\Generated_Source\PSoC5/Surtidor_INT.c ****                 if(Surtidor_rxBufferWrite >= Surtidor_RXBUFFERSIZE)
 142:.\Generated_Source\PSoC5/Surtidor_INT.c ****                 {
 143:.\Generated_Source\PSoC5/Surtidor_INT.c ****                     Surtidor_rxBufferWrite = 0u;
  55              		.loc 1 143 0
  56 001a 4FF00008 		mov	r8, #0
 144:.\Generated_Source\PSoC5/Surtidor_INT.c ****                 }
 145:.\Generated_Source\PSoC5/Surtidor_INT.c ****                 /* Detect pre-overload condition and set flag */
 146:.\Generated_Source\PSoC5/Surtidor_INT.c ****                 if(Surtidor_rxBufferWrite == Surtidor_rxBufferRead)
  57              		.loc 1 146 0
  58 001e 194D     		ldr	r5, .L7+20
 147:.\Generated_Source\PSoC5/Surtidor_INT.c ****                 {
 148:.\Generated_Source\PSoC5/Surtidor_INT.c ****                     Surtidor_rxBufferLoopDetect = 1u;
 149:.\Generated_Source\PSoC5/Surtidor_INT.c ****                     /* When Hardware Flow Control selected */
 150:.\Generated_Source\PSoC5/Surtidor_INT.c ****                     #if(Surtidor_FLOW_CONTROL != 0u)
 151:.\Generated_Source\PSoC5/Surtidor_INT.c ****                     /* Disable RX interrupt mask, it will be enabled when user read data from the b
 152:.\Generated_Source\PSoC5/Surtidor_INT.c ****                         Surtidor_RXSTATUS_MASK_REG  &= (uint8)~Surtidor_RX_STS_FIFO_NOTEMPTY;
 153:.\Generated_Source\PSoC5/Surtidor_INT.c ****                         CyIntClearPending(Surtidor_RX_VECT_NUM);
 154:.\Generated_Source\PSoC5/Surtidor_INT.c ****                         break; /* Break the reading of the FIFO loop, leave the data there for gene
 155:.\Generated_Source\PSoC5/Surtidor_INT.c ****                     #endif /* End Surtidor_FLOW_CONTROL != 0 */
 156:.\Generated_Source\PSoC5/Surtidor_INT.c ****                 }
 157:.\Generated_Source\PSoC5/Surtidor_INT.c ****             }
 158:.\Generated_Source\PSoC5/Surtidor_INT.c **** 
 159:.\Generated_Source\PSoC5/Surtidor_INT.c ****             /* Check again if there is data. */
 160:.\Generated_Source\PSoC5/Surtidor_INT.c ****             readData = Surtidor_RXSTATUS_REG;
  59              		.loc 1 160 0
  60 0020 134C     		ldr	r4, .L7
  95:.\Generated_Source\PSoC5/Surtidor_INT.c ****         while((readData & Surtidor_RX_STS_FIFO_NOTEMPTY) != 0u)
  61              		.loc 1 95 0
  62 0022 1EE0     		b	.L2
  63              	.LVL2:
  64              	.L6:
 126:.\Generated_Source\PSoC5/Surtidor_INT.c ****                 Surtidor_rxBuffer[Surtidor_rxBufferWrite] = Surtidor_RXDATA_REG;
  65              		.loc 1 126 0
  66 0024 1A88     		ldrh	r2, [r3]
ARM GAS  C:\Users\RECEPC~1\AppData\Local\Temp\ccRFav9V.s 			page 5


  67              	.LVL3:
  68 0026 92B2     		uxth	r2, r2
  69 0028 3978     		ldrb	r1, [r7]	@ zero_extendqisi2
  70 002a C9B2     		uxtb	r1, r1
  71 002c B154     		strb	r1, [r6, r2]
  72              	.LVL4:
 133:.\Generated_Source\PSoC5/Surtidor_INT.c ****                 if(Surtidor_rxBufferLoopDetect != 0u)
  73              		.loc 1 133 0
  74 002e 0278     		ldrb	r2, [r0]	@ zero_extendqisi2
  75 0030 12F0FF0F 		tst	r2, #255
  76 0034 01D0     		beq	.L3
 135:.\Generated_Source\PSoC5/Surtidor_INT.c ****                     Surtidor_rxBufferOverflow = 1u;
  77              		.loc 1 135 0
  78 0036 89F800C0 		strb	ip, [r9]
  79              	.L3:
 138:.\Generated_Source\PSoC5/Surtidor_INT.c ****                 Surtidor_rxBufferWrite++;
  80              		.loc 1 138 0
  81 003a 1A88     		ldrh	r2, [r3]
  82 003c 0132     		adds	r2, r2, #1
  83 003e 92B2     		uxth	r2, r2
  84 0040 1A80     		strh	r2, [r3]	@ movhi
 141:.\Generated_Source\PSoC5/Surtidor_INT.c ****                 if(Surtidor_rxBufferWrite >= Surtidor_RXBUFFERSIZE)
  85              		.loc 1 141 0
  86 0042 1A88     		ldrh	r2, [r3]
  87 0044 92B2     		uxth	r2, r2
  88 0046 FF2A     		cmp	r2, #255
  89 0048 01D9     		bls	.L4
 143:.\Generated_Source\PSoC5/Surtidor_INT.c ****                     Surtidor_rxBufferWrite = 0u;
  90              		.loc 1 143 0
  91 004a A3F80080 		strh	r8, [r3]	@ movhi
  92              	.L4:
 146:.\Generated_Source\PSoC5/Surtidor_INT.c ****                 if(Surtidor_rxBufferWrite == Surtidor_rxBufferRead)
  93              		.loc 1 146 0
  94 004e 1988     		ldrh	r1, [r3]
  95 0050 89B2     		uxth	r1, r1
  96 0052 2A88     		ldrh	r2, [r5]
  97 0054 92B2     		uxth	r2, r2
  98 0056 9142     		cmp	r1, r2
  99 0058 01D1     		bne	.L5
 148:.\Generated_Source\PSoC5/Surtidor_INT.c ****                     Surtidor_rxBufferLoopDetect = 1u;
 100              		.loc 1 148 0
 101 005a 80F800C0 		strb	ip, [r0]
 102              	.L5:
 103              		.loc 1 160 0
 104 005e 2278     		ldrb	r2, [r4]	@ zero_extendqisi2
 105 0060 D2B2     		uxtb	r2, r2
 106              	.LVL5:
 107              	.L2:
  95:.\Generated_Source\PSoC5/Surtidor_INT.c ****         while((readData & Surtidor_RX_STS_FIFO_NOTEMPTY) != 0u)
 108              		.loc 1 95 0 discriminator 1
 109 0062 12F0200F 		tst	r2, #32
 110 0066 DDD1     		bne	.L6
 161:.\Generated_Source\PSoC5/Surtidor_INT.c ****         }
 162:.\Generated_Source\PSoC5/Surtidor_INT.c **** 
 163:.\Generated_Source\PSoC5/Surtidor_INT.c ****         /* User code required at end of ISR (Optional) */
 164:.\Generated_Source\PSoC5/Surtidor_INT.c ****         /* `#START Surtidor_RXISR_END` */
 165:.\Generated_Source\PSoC5/Surtidor_INT.c **** 
ARM GAS  C:\Users\RECEPC~1\AppData\Local\Temp\ccRFav9V.s 			page 6


 166:.\Generated_Source\PSoC5/Surtidor_INT.c ****         /* `#END` */
 167:.\Generated_Source\PSoC5/Surtidor_INT.c **** 
 168:.\Generated_Source\PSoC5/Surtidor_INT.c ****         #if(CY_PSOC3)
 169:.\Generated_Source\PSoC5/Surtidor_INT.c ****             EA = int_en;
 170:.\Generated_Source\PSoC5/Surtidor_INT.c ****         #endif /* CY_PSOC3 */
 171:.\Generated_Source\PSoC5/Surtidor_INT.c **** 
 172:.\Generated_Source\PSoC5/Surtidor_INT.c ****     }
 111              		.loc 1 172 0
 112 0068 BDE8F003 		pop	{r4, r5, r6, r7, r8, r9}
 113 006c 7047     		bx	lr
 114              	.L8:
 115 006e 00BF     		.align	2
 116              	.L7:
 117 0070 6B640040 		.word	1073767531
 118 0074 00000000 		.word	Surtidor_rxBufferWrite
 119 0078 4C640040 		.word	1073767500
 120 007c 00000000 		.word	Surtidor_rxBuffer
 121 0080 00000000 		.word	Surtidor_rxBufferLoopDetect
 122 0084 00000000 		.word	Surtidor_rxBufferRead
 123 0088 00000000 		.word	Surtidor_rxBufferOverflow
 124              		.cfi_endproc
 125              	.LFE0:
 126              		.size	Surtidor_RXISR, .-Surtidor_RXISR
 127              		.text
 128              	.Letext0:
 129              		.file 2 ".\\Generated_Source\\PSoC5\\cytypes.h"
 130              		.file 3 ".\\Generated_Source\\PSoC5\\Surtidor.h"