ARM GAS  C:\Users\RECEPC~1\AppData\Local\Temp\cc6ji1W9.s 			page 1


   1              		.syntax unified
   2              		.cpu cortex-m3
   3              		.fpu softvfp
   4              		.eabi_attribute 20, 1
   5              		.eabi_attribute 21, 1
   6              		.eabi_attribute 23, 3
   7              		.eabi_attribute 24, 1
   8              		.eabi_attribute 25, 1
   9              		.eabi_attribute 26, 1
  10              		.eabi_attribute 30, 1
  11              		.eabi_attribute 34, 1
  12              		.eabi_attribute 18, 4
  13              		.thumb
  14              		.file	"I2C.c"
  15              		.text
  16              	.Ltext0:
  17              		.cfi_sections	.debug_frame
  18              		.section	.text.leer_hora,"ax",%progbits
  19              		.align	2
  20              		.global	leer_hora
  21              		.thumb
  22              		.thumb_func
  23              		.type	leer_hora, %function
  24              	leer_hora:
  25              	.LFB63:
  26              		.file 1 ".\\I2C.c"
   1:.\I2C.c       **** /*
   2:.\I2C.c       **** ***************************************************************************************************
   3:.\I2C.c       **** *                                           GRP550/700 CODE
   4:.\I2C.c       **** *
   5:.\I2C.c       **** *                             (c) Copyright 2013; Sistemas Insepet LTDA
   6:.\I2C.c       **** *
   7:.\I2C.c       **** *               All rights reserved.  Protected by international copyright laws.
   8:.\I2C.c       **** *               Knowledge of the source code may NOT be used to develop a similar product.
   9:.\I2C.c       **** *               Please help us continue to provide the Embedded community with the finest
  10:.\I2C.c       **** *               software available.  Your honesty is greatly appreciated.
  11:.\I2C.c       **** ***************************************************************************************************
  12:.\I2C.c       **** */
  13:.\I2C.c       **** 
  14:.\I2C.c       **** /*
  15:.\I2C.c       **** ***************************************************************************************************
  16:.\I2C.c       **** *
  17:.\I2C.c       **** *                                             GRP550/700 CODE
  18:.\I2C.c       **** *
  19:.\I2C.c       **** *                                             CYPRESS PSoC5LP
  20:.\I2C.c       **** *                                                with the
  21:.\I2C.c       **** *                                            CY8C5969AXI-LP035
  22:.\I2C.c       **** *
  23:.\I2C.c       **** * Filename      : I2C.c
  24:.\I2C.c       **** * Version       : V1.00
  25:.\I2C.c       **** * Programmer(s) : 
  26:.\I2C.c       ****                   
  27:.\I2C.c       **** ***************************************************************************************************
  28:.\I2C.c       **** */
  29:.\I2C.c       **** 
  30:.\I2C.c       **** 
  31:.\I2C.c       **** /*
ARM GAS  C:\Users\RECEPC~1\AppData\Local\Temp\cc6ji1W9.s 			page 2


  32:.\I2C.c       **** ***************************************************************************************************
  33:.\I2C.c       **** *                                             INCLUDE FILES
  34:.\I2C.c       **** ***************************************************************************************************
  35:.\I2C.c       **** */
  36:.\I2C.c       **** #include <device.h>
  37:.\I2C.c       **** #include "VariablesG.h"
  38:.\I2C.c       **** #include "LCD.h"
  39:.\I2C.c       **** 
  40:.\I2C.c       **** /*
  41:.\I2C.c       **** ***************************************************************************************************
  42:.\I2C.c       **** *                                         uint8 leer_hora( void )
  43:.\I2C.c       **** *
  44:.\I2C.c       **** * Description : 
  45:.\I2C.c       **** *               
  46:.\I2C.c       **** *
  47:.\I2C.c       **** * Argument(s) : none
  48:.\I2C.c       **** *
  49:.\I2C.c       **** * Return(s)   : none
  50:.\I2C.c       **** *
  51:.\I2C.c       **** * Caller(s)   : 
  52:.\I2C.c       **** *
  53:.\I2C.c       **** * Note(s)     : none.
  54:.\I2C.c       **** ***************************************************************************************************
  55:.\I2C.c       **** */
  56:.\I2C.c       **** uint8 leer_hora(){
  27              		.loc 1 56 0
  28              		.cfi_startproc
  29              		@ args = 0, pretend = 0, frame = 0
  30              		@ frame_needed = 0, uses_anonymous_args = 0
  31 0000 38B5     		push	{r3, r4, r5, lr}
  32              		.cfi_def_cfa_offset 16
  33              		.cfi_offset 3, -16
  34              		.cfi_offset 4, -12
  35              		.cfi_offset 5, -8
  36              		.cfi_offset 14, -4
  37              	.LVL0:
  57:.\I2C.c       **** 	uint8 status,i;
  58:.\I2C.c       **** 	for(i=1;i<=2;i++){
  38              		.loc 1 58 0
  39 0002 0124     		movs	r4, #1
  40 0004 1FE0     		b	.L2
  41              	.LVL1:
  42              	.L4:
  59:.\I2C.c       ****         I2C_1_MasterClearStatus();
  43              		.loc 1 59 0
  44 0006 FFF7FEFF 		bl	I2C_1_MasterClearStatus
  45              	.LVL2:
  60:.\I2C.c       ****         status = I2C_1_MasterSendStart(0x68, I2C_1_WRITE_XFER_MODE);
  46              		.loc 1 60 0
  47 000a 6820     		movs	r0, #104
  48 000c 0021     		movs	r1, #0
  49 000e FFF7FEFF 		bl	I2C_1_MasterSendStart
  50              	.LVL3:
  61:.\I2C.c       ****         if(I2C_1_MSTR_NO_ERROR == status)								 		/* Check if transfer completed without errors *
  51              		.loc 1 61 0
  52 0012 E0B9     		cbnz	r0, .L5
  62:.\I2C.c       ****     	{
ARM GAS  C:\Users\RECEPC~1\AppData\Local\Temp\cc6ji1W9.s 			page 3


  63:.\I2C.c       ****             status = I2C_1_MasterWriteByte(i);
  53              		.loc 1 63 0
  54 0014 2046     		mov	r0, r4
  55              	.LVL4:
  56 0016 FFF7FEFF 		bl	I2C_1_MasterWriteByte
  57              	.LVL5:
  64:.\I2C.c       ****             if(status != I2C_1_MSTR_NO_ERROR)
  58              		.loc 1 64 0
  59 001a D0B9     		cbnz	r0, .L6
  65:.\I2C.c       ****             {
  66:.\I2C.c       ****                 return 0;
  67:.\I2C.c       ****             }
  68:.\I2C.c       **** 			else{
  69:.\I2C.c       **** 		        I2C_1_MasterSendStop(); 										/* Send Stop */
  60              		.loc 1 69 0
  61 001c FFF7FEFF 		bl	I2C_1_MasterSendStop
  62              	.LVL6:
  70:.\I2C.c       **** 		        CyDelay(10);
  63              		.loc 1 70 0
  64 0020 0A20     		movs	r0, #10
  65 0022 FFF7FEFF 		bl	CyDelay
  66              	.LVL7:
  71:.\I2C.c       **** 		        status = I2C_1_MasterSendStart(0x68, I2C_1_READ_XFER_MODE);
  67              		.loc 1 71 0
  68 0026 6820     		movs	r0, #104
  69 0028 0121     		movs	r1, #1
  70 002a FFF7FEFF 		bl	I2C_1_MasterSendStart
  71              	.LVL8:
  72:.\I2C.c       **** 		        if(I2C_1_MSTR_NO_ERROR == status){
  72              		.loc 1 72 0
  73 002e 90B9     		cbnz	r0, .L7
  73:.\I2C.c       **** 		            rventa.hora[i-1] = I2C_1_MasterReadByte(I2C_1_NAK_DATA);
  74              		.loc 1 73 0
  75 0030 651E     		subs	r5, r4, #1
  76 0032 FFF7FEFF 		bl	I2C_1_MasterReadByte
  77              	.LVL9:
  78 0036 094B     		ldr	r3, .L9
  79 0038 1D44     		add	r5, r5, r3
  80 003a 85F8A000 		strb	r0, [r5, #160]
  74:.\I2C.c       **** 		        }
  75:.\I2C.c       **** 				else{
  76:.\I2C.c       **** 					return 0;
  77:.\I2C.c       **** 				}
  78:.\I2C.c       **** 		        I2C_1_MasterSendStop();	
  81              		.loc 1 78 0
  82 003e FFF7FEFF 		bl	I2C_1_MasterSendStop
  83              	.LVL10:
  58:.\I2C.c       ****         I2C_1_MasterClearStatus();
  84              		.loc 1 58 0
  85 0042 0134     		adds	r4, r4, #1
  86              	.LVL11:
  87 0044 E4B2     		uxtb	r4, r4
  88              	.LVL12:
  89              	.L2:
  58:.\I2C.c       ****         I2C_1_MasterClearStatus();
  90              		.loc 1 58 0 is_stmt 0 discriminator 1
  91 0046 022C     		cmp	r4, #2
ARM GAS  C:\Users\RECEPC~1\AppData\Local\Temp\cc6ji1W9.s 			page 4


  92 0048 DDD9     		bls	.L4
  79:.\I2C.c       **** 			}
  80:.\I2C.c       ****         }
  81:.\I2C.c       **** 		else{
  82:.\I2C.c       **** 			return 0;
  83:.\I2C.c       **** 		}		
  84:.\I2C.c       **** 	}
  85:.\I2C.c       **** 	return 1;
  93              		.loc 1 85 0 is_stmt 1
  94 004a 0120     		movs	r0, #1
  95 004c 38BD     		pop	{r3, r4, r5, pc}
  96              	.LVL13:
  97              	.L5:
  82:.\I2C.c       **** 		}		
  98              		.loc 1 82 0
  99 004e 0020     		movs	r0, #0
 100              	.LVL14:
 101 0050 38BD     		pop	{r3, r4, r5, pc}
 102              	.LVL15:
 103              	.L6:
  66:.\I2C.c       ****             }
 104              		.loc 1 66 0
 105 0052 0020     		movs	r0, #0
 106              	.LVL16:
 107 0054 38BD     		pop	{r3, r4, r5, pc}
 108              	.LVL17:
 109              	.L7:
  76:.\I2C.c       **** 				}
 110              		.loc 1 76 0
 111 0056 0020     		movs	r0, #0
 112              	.LVL18:
  86:.\I2C.c       **** }
 113              		.loc 1 86 0
 114 0058 38BD     		pop	{r3, r4, r5, pc}
 115              	.LVL19:
 116              	.L10:
 117 005a 00BF     		.align	2
 118              	.L9:
 119 005c 00000000 		.word	rventa
 120              		.cfi_endproc
 121              	.LFE63:
 122              		.size	leer_hora, .-leer_hora
 123              		.section	.text.leer_fecha,"ax",%progbits
 124              		.align	2
 125              		.global	leer_fecha
 126              		.thumb
 127              		.thumb_func
 128              		.type	leer_fecha, %function
 129              	leer_fecha:
 130              	.LFB64:
  87:.\I2C.c       **** 
  88:.\I2C.c       **** /*
  89:.\I2C.c       **** ***************************************************************************************************
  90:.\I2C.c       **** *                                         uint8 leer_fecha( void )
  91:.\I2C.c       **** *
  92:.\I2C.c       **** * Description : 
  93:.\I2C.c       **** *               
ARM GAS  C:\Users\RECEPC~1\AppData\Local\Temp\cc6ji1W9.s 			page 5


  94:.\I2C.c       **** *
  95:.\I2C.c       **** * Argument(s) : none
  96:.\I2C.c       **** *
  97:.\I2C.c       **** * Return(s)   : none
  98:.\I2C.c       **** *
  99:.\I2C.c       **** * Caller(s)   : 
 100:.\I2C.c       **** *
 101:.\I2C.c       **** * Note(s)     : none.
 102:.\I2C.c       **** ***************************************************************************************************
 103:.\I2C.c       **** */
 104:.\I2C.c       **** uint8 leer_fecha(){
 131              		.loc 1 104 0
 132              		.cfi_startproc
 133              		@ args = 0, pretend = 0, frame = 0
 134              		@ frame_needed = 0, uses_anonymous_args = 0
 135 0000 38B5     		push	{r3, r4, r5, lr}
 136              		.cfi_def_cfa_offset 16
 137              		.cfi_offset 3, -16
 138              		.cfi_offset 4, -12
 139              		.cfi_offset 5, -8
 140              		.cfi_offset 14, -4
 141              	.LVL20:
 105:.\I2C.c       **** 	uint8 status,i;
 106:.\I2C.c       **** 	for(i=4;i<=6;i++){
 142              		.loc 1 106 0
 143 0002 0424     		movs	r4, #4
 144 0004 1FE0     		b	.L12
 145              	.LVL21:
 146              	.L14:
 107:.\I2C.c       ****         I2C_1_MasterClearStatus();
 147              		.loc 1 107 0
 148 0006 FFF7FEFF 		bl	I2C_1_MasterClearStatus
 149              	.LVL22:
 108:.\I2C.c       ****         status = I2C_1_MasterSendStart(0x68, I2C_1_WRITE_XFER_MODE);
 150              		.loc 1 108 0
 151 000a 6820     		movs	r0, #104
 152 000c 0021     		movs	r1, #0
 153 000e FFF7FEFF 		bl	I2C_1_MasterSendStart
 154              	.LVL23:
 109:.\I2C.c       ****         if(I2C_1_MSTR_NO_ERROR == status)								 		/* Check if transfer completed without errors *
 155              		.loc 1 109 0
 156 0012 E0B9     		cbnz	r0, .L15
 110:.\I2C.c       ****     	{
 111:.\I2C.c       ****             status = I2C_1_MasterWriteByte(i);
 157              		.loc 1 111 0
 158 0014 2046     		mov	r0, r4
 159              	.LVL24:
 160 0016 FFF7FEFF 		bl	I2C_1_MasterWriteByte
 161              	.LVL25:
 112:.\I2C.c       ****             if(status != I2C_1_MSTR_NO_ERROR)
 162              		.loc 1 112 0
 163 001a D0B9     		cbnz	r0, .L16
 113:.\I2C.c       ****             {
 114:.\I2C.c       ****                 return 0;
 115:.\I2C.c       ****             }
 116:.\I2C.c       **** 			else{
 117:.\I2C.c       **** 		        I2C_1_MasterSendStop(); 										/* Send Stop */
ARM GAS  C:\Users\RECEPC~1\AppData\Local\Temp\cc6ji1W9.s 			page 6


 164              		.loc 1 117 0
 165 001c FFF7FEFF 		bl	I2C_1_MasterSendStop
 166              	.LVL26:
 118:.\I2C.c       **** 		        CyDelay(10);
 167              		.loc 1 118 0
 168 0020 0A20     		movs	r0, #10
 169 0022 FFF7FEFF 		bl	CyDelay
 170              	.LVL27:
 119:.\I2C.c       **** 		        status = I2C_1_MasterSendStart(0x68, I2C_1_READ_XFER_MODE);
 171              		.loc 1 119 0
 172 0026 6820     		movs	r0, #104
 173 0028 0121     		movs	r1, #1
 174 002a FFF7FEFF 		bl	I2C_1_MasterSendStart
 175              	.LVL28:
 120:.\I2C.c       **** 		        if(I2C_1_MSTR_NO_ERROR == status){
 176              		.loc 1 120 0
 177 002e 90B9     		cbnz	r0, .L17
 121:.\I2C.c       **** 		            rventa.fecha[i-4] = I2C_1_MasterReadByte(I2C_1_NAK_DATA);
 178              		.loc 1 121 0
 179 0030 251F     		subs	r5, r4, #4
 180 0032 FFF7FEFF 		bl	I2C_1_MasterReadByte
 181              	.LVL29:
 182 0036 094B     		ldr	r3, .L19
 183 0038 1D44     		add	r5, r5, r3
 184 003a 85F89D00 		strb	r0, [r5, #157]
 122:.\I2C.c       **** 		        }
 123:.\I2C.c       **** 				else{
 124:.\I2C.c       **** 					return 0;
 125:.\I2C.c       **** 				}
 126:.\I2C.c       **** 		        I2C_1_MasterSendStop();	
 185              		.loc 1 126 0
 186 003e FFF7FEFF 		bl	I2C_1_MasterSendStop
 187              	.LVL30:
 106:.\I2C.c       ****         I2C_1_MasterClearStatus();
 188              		.loc 1 106 0
 189 0042 0134     		adds	r4, r4, #1
 190              	.LVL31:
 191 0044 E4B2     		uxtb	r4, r4
 192              	.LVL32:
 193              	.L12:
 106:.\I2C.c       ****         I2C_1_MasterClearStatus();
 194              		.loc 1 106 0 is_stmt 0 discriminator 1
 195 0046 062C     		cmp	r4, #6
 196 0048 DDD9     		bls	.L14
 127:.\I2C.c       **** 			}
 128:.\I2C.c       ****         }
 129:.\I2C.c       **** 		else{
 130:.\I2C.c       **** 			return 0;
 131:.\I2C.c       **** 		}		
 132:.\I2C.c       **** 	}
 133:.\I2C.c       **** 	return 1;
 197              		.loc 1 133 0 is_stmt 1
 198 004a 0120     		movs	r0, #1
 199 004c 38BD     		pop	{r3, r4, r5, pc}
 200              	.LVL33:
 201              	.L15:
 130:.\I2C.c       **** 		}		
ARM GAS  C:\Users\RECEPC~1\AppData\Local\Temp\cc6ji1W9.s 			page 7


 202              		.loc 1 130 0
 203 004e 0020     		movs	r0, #0
 204              	.LVL34:
 205 0050 38BD     		pop	{r3, r4, r5, pc}
 206              	.LVL35:
 207              	.L16:
 114:.\I2C.c       ****             }
 208              		.loc 1 114 0
 209 0052 0020     		movs	r0, #0
 210              	.LVL36:
 211 0054 38BD     		pop	{r3, r4, r5, pc}
 212              	.LVL37:
 213              	.L17:
 124:.\I2C.c       **** 				}
 214              		.loc 1 124 0
 215 0056 0020     		movs	r0, #0
 216              	.LVL38:
 134:.\I2C.c       **** }
 217              		.loc 1 134 0
 218 0058 38BD     		pop	{r3, r4, r5, pc}
 219              	.LVL39:
 220              	.L20:
 221 005a 00BF     		.align	2
 222              	.L19:
 223 005c 00000000 		.word	rventa
 224              		.cfi_endproc
 225              	.LFE64:
 226              		.size	leer_fecha, .-leer_fecha
 227              		.section	.text.write_hora,"ax",%progbits
 228              		.align	2
 229              		.global	write_hora
 230              		.thumb
 231              		.thumb_func
 232              		.type	write_hora, %function
 233              	write_hora:
 234              	.LFB65:
 135:.\I2C.c       **** 
 136:.\I2C.c       **** /*
 137:.\I2C.c       **** ***************************************************************************************************
 138:.\I2C.c       **** *                                         uint8 write_hora( void )
 139:.\I2C.c       **** *
 140:.\I2C.c       **** * Description : 
 141:.\I2C.c       **** *               
 142:.\I2C.c       **** *
 143:.\I2C.c       **** * Argument(s) : none
 144:.\I2C.c       **** *
 145:.\I2C.c       **** * Return(s)   : none
 146:.\I2C.c       **** *
 147:.\I2C.c       **** * Caller(s)   : 
 148:.\I2C.c       **** *
 149:.\I2C.c       **** * Note(s)     : none.
 150:.\I2C.c       **** ***************************************************************************************************
 151:.\I2C.c       **** */
 152:.\I2C.c       **** 
 153:.\I2C.c       **** uint8 write_hora( void ){
 235              		.loc 1 153 0
 236              		.cfi_startproc
ARM GAS  C:\Users\RECEPC~1\AppData\Local\Temp\cc6ji1W9.s 			page 8


 237              		@ args = 0, pretend = 0, frame = 8
 238              		@ frame_needed = 0, uses_anonymous_args = 0
 239 0000 10B5     		push	{r4, lr}
 240              		.cfi_def_cfa_offset 8
 241              		.cfi_offset 4, -8
 242              		.cfi_offset 14, -4
 243 0002 82B0     		sub	sp, sp, #8
 244              		.cfi_def_cfa_offset 16
 154:.\I2C.c       **** 	uint8 status, dato[3],i;
 155:.\I2C.c       **** 	dato[0]=1;
 245              		.loc 1 155 0
 246 0004 0123     		movs	r3, #1
 247 0006 8DF80430 		strb	r3, [sp, #4]
 156:.\I2C.c       **** 	dato[1]=rventa.hora[0];
 248              		.loc 1 156 0
 249 000a 134B     		ldr	r3, .L28
 250 000c 93F8A020 		ldrb	r2, [r3, #160]	@ zero_extendqisi2
 251 0010 8DF80520 		strb	r2, [sp, #5]
 157:.\I2C.c       **** 	dato[2]=rventa.hora[1];
 252              		.loc 1 157 0
 253 0014 93F8A130 		ldrb	r3, [r3, #161]	@ zero_extendqisi2
 254 0018 8DF80630 		strb	r3, [sp, #6]
 158:.\I2C.c       **** 	I2C_1_MasterClearStatus();
 255              		.loc 1 158 0
 256 001c FFF7FEFF 		bl	I2C_1_MasterClearStatus
 257              	.LVL40:
 159:.\I2C.c       ****     status = I2C_1_MasterSendStart(0x68, I2C_1_WRITE_XFER_MODE);
 258              		.loc 1 159 0
 259 0020 6820     		movs	r0, #104
 260 0022 0021     		movs	r1, #0
 261 0024 FFF7FEFF 		bl	I2C_1_MasterSendStart
 262              	.LVL41:
 160:.\I2C.c       ****     if(I2C_1_MSTR_NO_ERROR == status) 
 263              		.loc 1 160 0
 264 0028 58B1     		cbz	r0, .L25
 161:.\I2C.c       ****     {
 162:.\I2C.c       ****         for(i=0; i<3; i++)
 163:.\I2C.c       ****         {
 164:.\I2C.c       ****             status = I2C_1_MasterWriteByte(dato[i]);
 165:.\I2C.c       ****             if(status != I2C_1_MSTR_NO_ERROR)
 166:.\I2C.c       ****             {
 167:.\I2C.c       ****                 return 0;
 168:.\I2C.c       ****             }
 169:.\I2C.c       ****         }
 170:.\I2C.c       ****     }
 171:.\I2C.c       ****     else{
 172:.\I2C.c       **** 		return 0;
 265              		.loc 1 172 0
 266 002a 0020     		movs	r0, #0
 267              	.LVL42:
 268 002c 11E0     		b	.L23
 269              	.LVL43:
 270              	.L24:
 164:.\I2C.c       ****             if(status != I2C_1_MSTR_NO_ERROR)
 271              		.loc 1 164 0
 272 002e 02AB     		add	r3, sp, #8
 273 0030 2344     		add	r3, r3, r4
ARM GAS  C:\Users\RECEPC~1\AppData\Local\Temp\cc6ji1W9.s 			page 9


 274 0032 13F8040C 		ldrb	r0, [r3, #-4]	@ zero_extendqisi2
 275              	.LVL44:
 276 0036 FFF7FEFF 		bl	I2C_1_MasterWriteByte
 277              	.LVL45:
 165:.\I2C.c       ****             {
 278              		.loc 1 165 0
 279 003a 48B9     		cbnz	r0, .L26
 162:.\I2C.c       ****         {
 280              		.loc 1 162 0 discriminator 2
 281 003c 0134     		adds	r4, r4, #1
 282              	.LVL46:
 283 003e E4B2     		uxtb	r4, r4
 284              	.LVL47:
 285 0040 00E0     		b	.L22
 286              	.LVL48:
 287              	.L25:
 288 0042 0024     		movs	r4, #0
 289              	.L22:
 290              	.LVL49:
 162:.\I2C.c       ****         {
 291              		.loc 1 162 0 is_stmt 0 discriminator 1
 292 0044 022C     		cmp	r4, #2
 293 0046 F2D9     		bls	.L24
 173:.\I2C.c       ****     }
 174:.\I2C.c       ****     I2C_1_MasterSendStop();	
 294              		.loc 1 174 0 is_stmt 1
 295 0048 FFF7FEFF 		bl	I2C_1_MasterSendStop
 296              	.LVL50:
 175:.\I2C.c       **** 	return 1;
 297              		.loc 1 175 0
 298 004c 0120     		movs	r0, #1
 299 004e 00E0     		b	.L23
 300              	.LVL51:
 301              	.L26:
 167:.\I2C.c       ****             }
 302              		.loc 1 167 0
 303 0050 0020     		movs	r0, #0
 304              	.LVL52:
 305              	.L23:
 176:.\I2C.c       **** }
 306              		.loc 1 176 0
 307 0052 02B0     		add	sp, sp, #8
 308              		.cfi_def_cfa_offset 8
 309              		@ sp needed
 310 0054 10BD     		pop	{r4, pc}
 311              	.L29:
 312 0056 00BF     		.align	2
 313              	.L28:
 314 0058 00000000 		.word	rventa
 315              		.cfi_endproc
 316              	.LFE65:
 317              		.size	write_hora, .-write_hora
 318              		.section	.text.write_fecha,"ax",%progbits
 319              		.align	2
 320              		.global	write_fecha
 321              		.thumb
 322              		.thumb_func
ARM GAS  C:\Users\RECEPC~1\AppData\Local\Temp\cc6ji1W9.s 			page 10


 323              		.type	write_fecha, %function
 324              	write_fecha:
 325              	.LFB66:
 177:.\I2C.c       **** 
 178:.\I2C.c       **** /*
 179:.\I2C.c       **** ***************************************************************************************************
 180:.\I2C.c       **** *                                         uint8 write_fecha( void )
 181:.\I2C.c       **** *
 182:.\I2C.c       **** * Description : 
 183:.\I2C.c       **** *               
 184:.\I2C.c       **** *
 185:.\I2C.c       **** * Argument(s) : none
 186:.\I2C.c       **** *
 187:.\I2C.c       **** * Return(s)   : none
 188:.\I2C.c       **** *
 189:.\I2C.c       **** * Caller(s)   : 
 190:.\I2C.c       **** *
 191:.\I2C.c       **** * Note(s)     : none.
 192:.\I2C.c       **** ***************************************************************************************************
 193:.\I2C.c       **** */
 194:.\I2C.c       **** 
 195:.\I2C.c       **** uint8 write_fecha( void ){
 326              		.loc 1 195 0
 327              		.cfi_startproc
 328              		@ args = 0, pretend = 0, frame = 8
 329              		@ frame_needed = 0, uses_anonymous_args = 0
 330 0000 10B5     		push	{r4, lr}
 331              		.cfi_def_cfa_offset 8
 332              		.cfi_offset 4, -8
 333              		.cfi_offset 14, -4
 334 0002 82B0     		sub	sp, sp, #8
 335              		.cfi_def_cfa_offset 16
 196:.\I2C.c       **** 	uint8 status, dato[4],i;
 197:.\I2C.c       **** 	dato[0]=4;
 336              		.loc 1 197 0
 337 0004 0423     		movs	r3, #4
 338 0006 8DF80430 		strb	r3, [sp, #4]
 198:.\I2C.c       **** 	dato[1]=rventa.fecha[0];
 339              		.loc 1 198 0
 340 000a 154B     		ldr	r3, .L37
 341 000c 93F89D20 		ldrb	r2, [r3, #157]	@ zero_extendqisi2
 342 0010 8DF80520 		strb	r2, [sp, #5]
 199:.\I2C.c       **** 	dato[2]=rventa.fecha[1];
 343              		.loc 1 199 0
 344 0014 93F89E20 		ldrb	r2, [r3, #158]	@ zero_extendqisi2
 345 0018 8DF80620 		strb	r2, [sp, #6]
 200:.\I2C.c       **** 	dato[3]=rventa.fecha[2];
 346              		.loc 1 200 0
 347 001c 93F89F30 		ldrb	r3, [r3, #159]	@ zero_extendqisi2
 348 0020 8DF80730 		strb	r3, [sp, #7]
 201:.\I2C.c       **** 	I2C_1_MasterClearStatus();
 349              		.loc 1 201 0
 350 0024 FFF7FEFF 		bl	I2C_1_MasterClearStatus
 351              	.LVL53:
 202:.\I2C.c       ****     status = I2C_1_MasterSendStart(0x68, I2C_1_WRITE_XFER_MODE);
 352              		.loc 1 202 0
 353 0028 6820     		movs	r0, #104
ARM GAS  C:\Users\RECEPC~1\AppData\Local\Temp\cc6ji1W9.s 			page 11


 354 002a 0021     		movs	r1, #0
 355 002c FFF7FEFF 		bl	I2C_1_MasterSendStart
 356              	.LVL54:
 203:.\I2C.c       ****     if(I2C_1_MSTR_NO_ERROR == status) 
 357              		.loc 1 203 0
 358 0030 58B1     		cbz	r0, .L34
 204:.\I2C.c       ****     {
 205:.\I2C.c       ****         for(i=0; i<4; i++)
 206:.\I2C.c       ****         {
 207:.\I2C.c       ****             status = I2C_1_MasterWriteByte(dato[i]);
 208:.\I2C.c       ****             if(status != I2C_1_MSTR_NO_ERROR)
 209:.\I2C.c       ****             {
 210:.\I2C.c       ****                 return 0;
 211:.\I2C.c       ****             }
 212:.\I2C.c       ****         }
 213:.\I2C.c       ****     }
 214:.\I2C.c       ****     else{
 215:.\I2C.c       **** 		return 0;
 359              		.loc 1 215 0
 360 0032 0020     		movs	r0, #0
 361              	.LVL55:
 362 0034 11E0     		b	.L32
 363              	.LVL56:
 364              	.L33:
 207:.\I2C.c       ****             if(status != I2C_1_MSTR_NO_ERROR)
 365              		.loc 1 207 0
 366 0036 02AB     		add	r3, sp, #8
 367 0038 2344     		add	r3, r3, r4
 368 003a 13F8040C 		ldrb	r0, [r3, #-4]	@ zero_extendqisi2
 369              	.LVL57:
 370 003e FFF7FEFF 		bl	I2C_1_MasterWriteByte
 371              	.LVL58:
 208:.\I2C.c       ****             {
 372              		.loc 1 208 0
 373 0042 48B9     		cbnz	r0, .L35
 205:.\I2C.c       ****         {
 374              		.loc 1 205 0 discriminator 2
 375 0044 0134     		adds	r4, r4, #1
 376              	.LVL59:
 377 0046 E4B2     		uxtb	r4, r4
 378              	.LVL60:
 379 0048 00E0     		b	.L31
 380              	.LVL61:
 381              	.L34:
 382 004a 0024     		movs	r4, #0
 383              	.L31:
 384              	.LVL62:
 205:.\I2C.c       ****         {
 385              		.loc 1 205 0 is_stmt 0 discriminator 1
 386 004c 032C     		cmp	r4, #3
 387 004e F2D9     		bls	.L33
 216:.\I2C.c       ****     }
 217:.\I2C.c       ****     I2C_1_MasterSendStop();	
 388              		.loc 1 217 0 is_stmt 1
 389 0050 FFF7FEFF 		bl	I2C_1_MasterSendStop
 390              	.LVL63:
 218:.\I2C.c       **** 	return 1;
ARM GAS  C:\Users\RECEPC~1\AppData\Local\Temp\cc6ji1W9.s 			page 12


 391              		.loc 1 218 0
 392 0054 0120     		movs	r0, #1
 393 0056 00E0     		b	.L32
 394              	.LVL64:
 395              	.L35:
 210:.\I2C.c       ****             }
 396              		.loc 1 210 0
 397 0058 0020     		movs	r0, #0
 398              	.LVL65:
 399              	.L32:
 219:.\I2C.c       **** }
 400              		.loc 1 219 0
 401 005a 02B0     		add	sp, sp, #8
 402              		.cfi_def_cfa_offset 8
 403              		@ sp needed
 404 005c 10BD     		pop	{r4, pc}
 405              	.L38:
 406 005e 00BF     		.align	2
 407              	.L37:
 408 0060 00000000 		.word	rventa
 409              		.cfi_endproc
 410              	.LFE66:
 411              		.size	write_fecha, .-write_fecha
 412              		.section	.text.write_eeprom,"ax",%progbits
 413              		.align	2
 414              		.global	write_eeprom
 415              		.thumb
 416              		.thumb_func
 417              		.type	write_eeprom, %function
 418              	write_eeprom:
 419              	.LFB67:
 220:.\I2C.c       **** 
 221:.\I2C.c       **** /*
 222:.\I2C.c       **** ***************************************************************************************************
 223:.\I2C.c       **** *                              uint8 write_eeprom(uint16 page, uint8 valor)
 224:.\I2C.c       **** *
 225:.\I2C.c       **** * Description : 
 226:.\I2C.c       **** *               
 227:.\I2C.c       **** *
 228:.\I2C.c       **** * Argument(s) : none
 229:.\I2C.c       **** *
 230:.\I2C.c       **** * Return(s)   : none
 231:.\I2C.c       **** *
 232:.\I2C.c       **** * Caller(s)   : 
 233:.\I2C.c       **** *
 234:.\I2C.c       **** * Note(s)     : none.
 235:.\I2C.c       **** ***************************************************************************************************
 236:.\I2C.c       **** */
 237:.\I2C.c       **** 
 238:.\I2C.c       **** uint8 write_eeprom(uint16 page, uint8 *valor){
 420              		.loc 1 238 0
 421              		.cfi_startproc
 422              		@ args = 0, pretend = 0, frame = 8
 423              		@ frame_needed = 0, uses_anonymous_args = 0
 424              	.LVL66:
 425 0000 30B5     		push	{r4, r5, lr}
 426              		.cfi_def_cfa_offset 12
ARM GAS  C:\Users\RECEPC~1\AppData\Local\Temp\cc6ji1W9.s 			page 13


 427              		.cfi_offset 4, -12
 428              		.cfi_offset 5, -8
 429              		.cfi_offset 14, -4
 430 0002 83B0     		sub	sp, sp, #12
 431              		.cfi_def_cfa_offset 24
 432 0004 0D46     		mov	r5, r1
 239:.\I2C.c       **** 	uint8 status, dato[4],i;
 240:.\I2C.c       **** 	dato[1]=(page&0xFF);
 433              		.loc 1 240 0
 434 0006 8DF80500 		strb	r0, [sp, #5]
 241:.\I2C.c       **** 	page=(page>>8)&0xFF;
 435              		.loc 1 241 0
 436 000a 000A     		lsrs	r0, r0, #8
 437              	.LVL67:
 242:.\I2C.c       **** 	dato[0]=page;
 438              		.loc 1 242 0
 439 000c 8DF80400 		strb	r0, [sp, #4]
 243:.\I2C.c       **** 	Pin_WP_Write(0);
 440              		.loc 1 243 0
 441 0010 0020     		movs	r0, #0
 442              	.LVL68:
 443 0012 FFF7FEFF 		bl	Pin_WP_Write
 444              	.LVL69:
 244:.\I2C.c       **** 	I2C_1_MasterClearStatus();
 445              		.loc 1 244 0
 446 0016 FFF7FEFF 		bl	I2C_1_MasterClearStatus
 447              	.LVL70:
 245:.\I2C.c       ****     status = I2C_1_MasterSendStart(0x54, I2C_1_WRITE_XFER_MODE);
 448              		.loc 1 245 0
 449 001a 5420     		movs	r0, #84
 450 001c 0021     		movs	r1, #0
 451 001e FFF7FEFF 		bl	I2C_1_MasterSendStart
 452              	.LVL71:
 246:.\I2C.c       ****     if(I2C_1_MSTR_NO_ERROR == status) 
 453              		.loc 1 246 0
 454 0022 58B1     		cbz	r0, .L45
 247:.\I2C.c       ****     {
 248:.\I2C.c       ****         for(i=0; i<2; i++)
 249:.\I2C.c       ****         {
 250:.\I2C.c       ****             status = I2C_1_MasterWriteByte(dato[i]);
 251:.\I2C.c       ****             if(status != I2C_1_MSTR_NO_ERROR)
 252:.\I2C.c       ****             {
 253:.\I2C.c       ****                 return 0;
 254:.\I2C.c       ****             }
 255:.\I2C.c       ****         }
 256:.\I2C.c       ****         for(i=0; i<=valor[0]; i++)
 257:.\I2C.c       ****         {
 258:.\I2C.c       ****             status = I2C_1_MasterWriteByte(valor[i]);
 259:.\I2C.c       ****             if(status != I2C_1_MSTR_NO_ERROR)
 260:.\I2C.c       ****             {
 261:.\I2C.c       ****                 return 0;
 262:.\I2C.c       ****             }
 263:.\I2C.c       **** 			CyDelay(5);
 264:.\I2C.c       ****         }		
 265:.\I2C.c       ****     }
 266:.\I2C.c       ****     else{
 267:.\I2C.c       **** 		return 0;
ARM GAS  C:\Users\RECEPC~1\AppData\Local\Temp\cc6ji1W9.s 			page 14


 455              		.loc 1 267 0
 456 0024 0020     		movs	r0, #0
 457              	.LVL72:
 458 0026 27E0     		b	.L41
 459              	.LVL73:
 460              	.L42:
 250:.\I2C.c       ****             if(status != I2C_1_MSTR_NO_ERROR)
 461              		.loc 1 250 0
 462 0028 02AB     		add	r3, sp, #8
 463 002a 2344     		add	r3, r3, r4
 464 002c 13F8040C 		ldrb	r0, [r3, #-4]	@ zero_extendqisi2
 465              	.LVL74:
 466 0030 FFF7FEFF 		bl	I2C_1_MasterWriteByte
 467              	.LVL75:
 251:.\I2C.c       ****             {
 468              		.loc 1 251 0
 469 0034 E8B9     		cbnz	r0, .L46
 248:.\I2C.c       ****         {
 470              		.loc 1 248 0 discriminator 2
 471 0036 0134     		adds	r4, r4, #1
 472              	.LVL76:
 473 0038 E4B2     		uxtb	r4, r4
 474              	.LVL77:
 475 003a 00E0     		b	.L40
 476              	.LVL78:
 477              	.L45:
 478 003c 0024     		movs	r4, #0
 479              	.L40:
 480              	.LVL79:
 248:.\I2C.c       ****         {
 481              		.loc 1 248 0 is_stmt 0 discriminator 1
 482 003e 012C     		cmp	r4, #1
 483 0040 F2D9     		bls	.L42
 484 0042 0024     		movs	r4, #0
 485              	.LVL80:
 486 0044 08E0     		b	.L43
 487              	.LVL81:
 488              	.L44:
 258:.\I2C.c       ****             if(status != I2C_1_MSTR_NO_ERROR)
 489              		.loc 1 258 0 is_stmt 1
 490 0046 285D     		ldrb	r0, [r5, r4]	@ zero_extendqisi2
 491 0048 FFF7FEFF 		bl	I2C_1_MasterWriteByte
 492              	.LVL82:
 259:.\I2C.c       ****             {
 493              		.loc 1 259 0
 494 004c 98B9     		cbnz	r0, .L47
 263:.\I2C.c       ****         }		
 495              		.loc 1 263 0 discriminator 2
 496 004e 0520     		movs	r0, #5
 497              	.LVL83:
 498 0050 FFF7FEFF 		bl	CyDelay
 499              	.LVL84:
 256:.\I2C.c       ****         {
 500              		.loc 1 256 0 discriminator 2
 501 0054 0134     		adds	r4, r4, #1
 502              	.LVL85:
 503 0056 E4B2     		uxtb	r4, r4
ARM GAS  C:\Users\RECEPC~1\AppData\Local\Temp\cc6ji1W9.s 			page 15


 504              	.LVL86:
 505              	.L43:
 256:.\I2C.c       ****         {
 506              		.loc 1 256 0 is_stmt 0 discriminator 1
 507 0058 2B78     		ldrb	r3, [r5]	@ zero_extendqisi2
 508 005a A342     		cmp	r3, r4
 509 005c F3D2     		bcs	.L44
 268:.\I2C.c       ****     }
 269:.\I2C.c       ****     I2C_1_MasterSendStop();	
 510              		.loc 1 269 0 is_stmt 1
 511 005e FFF7FEFF 		bl	I2C_1_MasterSendStop
 512              	.LVL87:
 270:.\I2C.c       **** 	CyDelay(6);
 513              		.loc 1 270 0
 514 0062 0620     		movs	r0, #6
 515 0064 FFF7FEFF 		bl	CyDelay
 516              	.LVL88:
 271:.\I2C.c       **** 	Pin_WP_Write(1);
 517              		.loc 1 271 0
 518 0068 0120     		movs	r0, #1
 519 006a FFF7FEFF 		bl	Pin_WP_Write
 520              	.LVL89:
 272:.\I2C.c       **** 	return 1;
 521              		.loc 1 272 0
 522 006e 0120     		movs	r0, #1
 523 0070 02E0     		b	.L41
 524              	.LVL90:
 525              	.L46:
 253:.\I2C.c       ****             }
 526              		.loc 1 253 0
 527 0072 0020     		movs	r0, #0
 528              	.LVL91:
 529 0074 00E0     		b	.L41
 530              	.LVL92:
 531              	.L47:
 261:.\I2C.c       ****             }
 532              		.loc 1 261 0
 533 0076 0020     		movs	r0, #0
 534              	.LVL93:
 535              	.L41:
 273:.\I2C.c       **** }
 536              		.loc 1 273 0
 537 0078 03B0     		add	sp, sp, #12
 538              		.cfi_def_cfa_offset 12
 539              		@ sp needed
 540 007a 30BD     		pop	{r4, r5, pc}
 541              		.cfi_endproc
 542              	.LFE67:
 543              		.size	write_eeprom, .-write_eeprom
 544              		.section	.text.leer_eeprom,"ax",%progbits
 545              		.align	2
 546              		.global	leer_eeprom
 547              		.thumb
 548              		.thumb_func
 549              		.type	leer_eeprom, %function
 550              	leer_eeprom:
 551              	.LFB68:
ARM GAS  C:\Users\RECEPC~1\AppData\Local\Temp\cc6ji1W9.s 			page 16


 274:.\I2C.c       **** 
 275:.\I2C.c       **** /*
 276:.\I2C.c       **** ***************************************************************************************************
 277:.\I2C.c       **** *                               uint8 leer_eeprom(uint16 page, uint8 size))
 278:.\I2C.c       **** *
 279:.\I2C.c       **** * Description : 
 280:.\I2C.c       **** *               
 281:.\I2C.c       **** *
 282:.\I2C.c       **** * Argument(s) : none
 283:.\I2C.c       **** *
 284:.\I2C.c       **** * Return(s)   : none
 285:.\I2C.c       **** *
 286:.\I2C.c       **** * Caller(s)   : 
 287:.\I2C.c       **** *
 288:.\I2C.c       **** * Note(s)     : none.
 289:.\I2C.c       **** ***************************************************************************************************
 290:.\I2C.c       **** */
 291:.\I2C.c       **** uint8 leer_eeprom(uint16 page, uint8 size){
 552              		.loc 1 291 0
 553              		.cfi_startproc
 554              		@ args = 0, pretend = 0, frame = 8
 555              		@ frame_needed = 0, uses_anonymous_args = 0
 556              	.LVL94:
 557 0000 70B5     		push	{r4, r5, r6, lr}
 558              		.cfi_def_cfa_offset 16
 559              		.cfi_offset 4, -16
 560              		.cfi_offset 5, -12
 561              		.cfi_offset 6, -8
 562              		.cfi_offset 14, -4
 563 0002 82B0     		sub	sp, sp, #8
 564              		.cfi_def_cfa_offset 24
 565 0004 0D46     		mov	r5, r1
 292:.\I2C.c       **** 	uint16 status, dato[4],i;
 293:.\I2C.c       **** 	dato[1]=(page&0xFF);
 566              		.loc 1 293 0
 567 0006 C3B2     		uxtb	r3, r0
 568 0008 ADF80230 		strh	r3, [sp, #2]	@ movhi
 294:.\I2C.c       **** 	page=(page>>8)&0xFF;
 569              		.loc 1 294 0
 570 000c 000A     		lsrs	r0, r0, #8
 571              	.LVL95:
 295:.\I2C.c       **** 	dato[0]=page;	
 572              		.loc 1 295 0
 573 000e ADF80000 		strh	r0, [sp]	@ movhi
 296:.\I2C.c       ****     I2C_1_MasterClearStatus();
 574              		.loc 1 296 0
 575 0012 FFF7FEFF 		bl	I2C_1_MasterClearStatus
 576              	.LVL96:
 297:.\I2C.c       ****     status = I2C_1_MasterSendStart(0x54, I2C_1_WRITE_XFER_MODE);
 577              		.loc 1 297 0
 578 0016 5420     		movs	r0, #84
 579 0018 0021     		movs	r1, #0
 580 001a FFF7FEFF 		bl	I2C_1_MasterSendStart
 581              	.LVL97:
 298:.\I2C.c       ****     if(I2C_1_MSTR_NO_ERROR == status)								 		/* Check if transfer completed without errors */
 582              		.loc 1 298 0
 583 001e 78B1     		cbz	r0, .L55
ARM GAS  C:\Users\RECEPC~1\AppData\Local\Temp\cc6ji1W9.s 			page 17


 299:.\I2C.c       **** 	{
 300:.\I2C.c       ****         for(i=0;i<2;i++)
 301:.\I2C.c       ****         {
 302:.\I2C.c       ****             status = I2C_1_MasterWriteByte(dato[i]);
 303:.\I2C.c       ****             if(status != I2C_1_MSTR_NO_ERROR)
 304:.\I2C.c       ****             {
 305:.\I2C.c       ****             	return 0;
 306:.\I2C.c       ****             }
 307:.\I2C.c       **** 			CyDelay(5);
 308:.\I2C.c       ****         }		
 309:.\I2C.c       ****     }
 310:.\I2C.c       **** 	else{
 311:.\I2C.c       **** 		return 0;
 584              		.loc 1 311 0
 585 0020 0026     		movs	r6, #0
 586 0022 31E0     		b	.L51
 587              	.LVL98:
 588              	.L52:
 302:.\I2C.c       ****             if(status != I2C_1_MSTR_NO_ERROR)
 589              		.loc 1 302 0
 590 0024 02AB     		add	r3, sp, #8
 591 0026 03EB4403 		add	r3, r3, r4, lsl #1
 592 002a 13F8080C 		ldrb	r0, [r3, #-8]	@ zero_extendqisi2
 593 002e FFF7FEFF 		bl	I2C_1_MasterWriteByte
 594              	.LVL99:
 303:.\I2C.c       ****             {
 595              		.loc 1 303 0
 596 0032 48BB     		cbnz	r0, .L51
 307:.\I2C.c       ****         }		
 597              		.loc 1 307 0 discriminator 2
 598 0034 0520     		movs	r0, #5
 599              	.LVL100:
 600 0036 FFF7FEFF 		bl	CyDelay
 601              	.LVL101:
 300:.\I2C.c       ****         {
 602              		.loc 1 300 0 discriminator 2
 603 003a 0134     		adds	r4, r4, #1
 604              	.LVL102:
 605 003c A4B2     		uxth	r4, r4
 606              	.LVL103:
 607 003e 01E0     		b	.L50
 608              	.LVL104:
 609              	.L55:
 610 0040 0646     		mov	r6, r0
 611 0042 0024     		movs	r4, #0
 612              	.LVL105:
 613              	.L50:
 300:.\I2C.c       ****         {
 614              		.loc 1 300 0 is_stmt 0 discriminator 1
 615 0044 012C     		cmp	r4, #1
 616 0046 EDD9     		bls	.L52
 312:.\I2C.c       **** 	}
 313:.\I2C.c       **** 	I2C_1_MasterSendStop();	
 617              		.loc 1 313 0 is_stmt 1
 618 0048 FFF7FEFF 		bl	I2C_1_MasterSendStop
 619              	.LVL106:
 314:.\I2C.c       ****     CyDelay(50);
ARM GAS  C:\Users\RECEPC~1\AppData\Local\Temp\cc6ji1W9.s 			page 18


 620              		.loc 1 314 0
 621 004c 3220     		movs	r0, #50
 622 004e FFF7FEFF 		bl	CyDelay
 623              	.LVL107:
 315:.\I2C.c       ****     status = I2C_1_MasterSendStart(0x54, I2C_1_READ_XFER_MODE);
 624              		.loc 1 315 0
 625 0052 5420     		movs	r0, #84
 626 0054 0121     		movs	r1, #1
 627 0056 FFF7FEFF 		bl	I2C_1_MasterSendStart
 628              	.LVL108:
 316:.\I2C.c       ****     if(I2C_1_MSTR_NO_ERROR == status){
 629              		.loc 1 316 0
 630 005a 58B1     		cbz	r0, .L56
 631 005c 14E0     		b	.L51
 632              	.LVL109:
 633              	.L54:
 317:.\I2C.c       **** 		for(i=0;i<size;i++){
 318:.\I2C.c       **** 	        buffer_i2c[i] = I2C_1_MasterReadByte(I2C_1_ACK_DATA);
 634              		.loc 1 318 0 discriminator 3
 635 005e 0120     		movs	r0, #1
 636 0060 FFF7FEFF 		bl	I2C_1_MasterReadByte
 637              	.LVL110:
 638 0064 0A4B     		ldr	r3, .L58
 639 0066 1855     		strb	r0, [r3, r4]
 319:.\I2C.c       **** 			CyDelay(5);
 640              		.loc 1 319 0 discriminator 3
 641 0068 0520     		movs	r0, #5
 642 006a FFF7FEFF 		bl	CyDelay
 643              	.LVL111:
 317:.\I2C.c       **** 		for(i=0;i<size;i++){
 644              		.loc 1 317 0 discriminator 3
 645 006e 0134     		adds	r4, r4, #1
 646              	.LVL112:
 647 0070 A4B2     		uxth	r4, r4
 648              	.LVL113:
 649 0072 00E0     		b	.L53
 650              	.LVL114:
 651              	.L56:
 652 0074 0024     		movs	r4, #0
 653              	.LVL115:
 654              	.L53:
 317:.\I2C.c       **** 		for(i=0;i<size;i++){
 655              		.loc 1 317 0 is_stmt 0 discriminator 1
 656 0076 ABB2     		uxth	r3, r5
 657 0078 A342     		cmp	r3, r4
 658 007a F0D8     		bhi	.L54
 320:.\I2C.c       **** 		}
 321:.\I2C.c       ****     }
 322:.\I2C.c       **** 	else{
 323:.\I2C.c       **** 		return 0;
 324:.\I2C.c       **** 	}
 325:.\I2C.c       ****     I2C_1_MasterSendStop();	
 659              		.loc 1 325 0 is_stmt 1
 660 007c FFF7FEFF 		bl	I2C_1_MasterSendStop
 661              	.LVL116:
 326:.\I2C.c       **** 	CyDelay(6);	
 662              		.loc 1 326 0
ARM GAS  C:\Users\RECEPC~1\AppData\Local\Temp\cc6ji1W9.s 			page 19


 663 0080 0620     		movs	r0, #6
 664 0082 FFF7FEFF 		bl	CyDelay
 665              	.LVL117:
 327:.\I2C.c       **** 	return 1;
 666              		.loc 1 327 0
 667 0086 0126     		movs	r6, #1
 668              	.LVL118:
 669              	.L51:
 328:.\I2C.c       **** }
 670              		.loc 1 328 0
 671 0088 3046     		mov	r0, r6
 672 008a 02B0     		add	sp, sp, #8
 673              		.cfi_def_cfa_offset 16
 674              	.LVL119:
 675              		@ sp needed
 676 008c 70BD     		pop	{r4, r5, r6, pc}
 677              	.LVL120:
 678              	.L59:
 679 008e 00BF     		.align	2
 680              	.L58:
 681 0090 00000000 		.word	buffer_i2c
 682              		.cfi_endproc
 683              	.LFE68:
 684              		.size	leer_eeprom, .-leer_eeprom
 685              		.section	.text.write_psoc1,"ax",%progbits
 686              		.align	2
 687              		.global	write_psoc1
 688              		.thumb
 689              		.thumb_func
 690              		.type	write_psoc1, %function
 691              	write_psoc1:
 692              	.LFB69:
 329:.\I2C.c       **** 
 330:.\I2C.c       **** /*
 331:.\I2C.c       **** ***************************************************************************************************
 332:.\I2C.c       **** *                                   uint8 write_psoc1( uint8 puerto, uint8 valor )
 333:.\I2C.c       **** *
 334:.\I2C.c       **** * Description : 
 335:.\I2C.c       **** *               
 336:.\I2C.c       **** *
 337:.\I2C.c       **** * Argument(s) : none
 338:.\I2C.c       **** *
 339:.\I2C.c       **** * Return(s)   : none
 340:.\I2C.c       **** *
 341:.\I2C.c       **** * Caller(s)   : 
 342:.\I2C.c       **** *
 343:.\I2C.c       **** * Note(s)     : none.
 344:.\I2C.c       **** ***************************************************************************************************
 345:.\I2C.c       **** */
 346:.\I2C.c       **** 
 347:.\I2C.c       **** uint8 write_psoc1( uint8 puerto, uint8 valor ){
 693              		.loc 1 347 0
 694              		.cfi_startproc
 695              		@ args = 0, pretend = 0, frame = 8
 696              		@ frame_needed = 0, uses_anonymous_args = 0
 697              	.LVL121:
 698 0000 10B5     		push	{r4, lr}
ARM GAS  C:\Users\RECEPC~1\AppData\Local\Temp\cc6ji1W9.s 			page 20


 699              		.cfi_def_cfa_offset 8
 700              		.cfi_offset 4, -8
 701              		.cfi_offset 14, -4
 702 0002 82B0     		sub	sp, sp, #8
 703              		.cfi_def_cfa_offset 16
 348:.\I2C.c       **** 	uint8 status, dato[2],i;
 349:.\I2C.c       **** 	dato[0]=puerto;
 704              		.loc 1 349 0
 705 0004 8DF80400 		strb	r0, [sp, #4]
 350:.\I2C.c       **** 	dato[1]=valor;
 706              		.loc 1 350 0
 707 0008 8DF80510 		strb	r1, [sp, #5]
 351:.\I2C.c       **** 	I2C_1_MasterClearStatus();
 708              		.loc 1 351 0
 709 000c FFF7FEFF 		bl	I2C_1_MasterClearStatus
 710              	.LVL122:
 352:.\I2C.c       ****     status = I2C_1_MasterSendStart(7u, I2C_1_WRITE_XFER_MODE);
 711              		.loc 1 352 0
 712 0010 0720     		movs	r0, #7
 713 0012 0021     		movs	r1, #0
 714 0014 FFF7FEFF 		bl	I2C_1_MasterSendStart
 715              	.LVL123:
 353:.\I2C.c       ****     if(I2C_1_MSTR_NO_ERROR == status) 
 716              		.loc 1 353 0
 717 0018 58B1     		cbz	r0, .L64
 354:.\I2C.c       ****     {
 355:.\I2C.c       ****         for(i=0; i<2; i++)
 356:.\I2C.c       ****         {
 357:.\I2C.c       ****             status = I2C_1_MasterWriteByte(dato[i]);
 358:.\I2C.c       ****             if(status != I2C_1_MSTR_NO_ERROR)
 359:.\I2C.c       ****             {
 360:.\I2C.c       ****                 return 0;
 361:.\I2C.c       ****             }
 362:.\I2C.c       ****         }
 363:.\I2C.c       ****     }
 364:.\I2C.c       ****     else{
 365:.\I2C.c       **** 		return 0;
 718              		.loc 1 365 0
 719 001a 0020     		movs	r0, #0
 720              	.LVL124:
 721 001c 11E0     		b	.L62
 722              	.LVL125:
 723              	.L63:
 357:.\I2C.c       ****             if(status != I2C_1_MSTR_NO_ERROR)
 724              		.loc 1 357 0
 725 001e 02AB     		add	r3, sp, #8
 726 0020 2344     		add	r3, r3, r4
 727 0022 13F8040C 		ldrb	r0, [r3, #-4]	@ zero_extendqisi2
 728              	.LVL126:
 729 0026 FFF7FEFF 		bl	I2C_1_MasterWriteByte
 730              	.LVL127:
 358:.\I2C.c       ****             {
 731              		.loc 1 358 0
 732 002a 48B9     		cbnz	r0, .L65
 355:.\I2C.c       ****         {
 733              		.loc 1 355 0 discriminator 2
 734 002c 0134     		adds	r4, r4, #1
ARM GAS  C:\Users\RECEPC~1\AppData\Local\Temp\cc6ji1W9.s 			page 21


 735              	.LVL128:
 736 002e E4B2     		uxtb	r4, r4
 737              	.LVL129:
 738 0030 00E0     		b	.L61
 739              	.LVL130:
 740              	.L64:
 741 0032 0024     		movs	r4, #0
 742              	.L61:
 743              	.LVL131:
 355:.\I2C.c       ****         {
 744              		.loc 1 355 0 is_stmt 0 discriminator 1
 745 0034 012C     		cmp	r4, #1
 746 0036 F2D9     		bls	.L63
 366:.\I2C.c       ****     }
 367:.\I2C.c       ****     I2C_1_MasterSendStop();	
 747              		.loc 1 367 0 is_stmt 1
 748 0038 FFF7FEFF 		bl	I2C_1_MasterSendStop
 749              	.LVL132:
 368:.\I2C.c       **** 	return 1;
 750              		.loc 1 368 0
 751 003c 0120     		movs	r0, #1
 752 003e 00E0     		b	.L62
 753              	.LVL133:
 754              	.L65:
 360:.\I2C.c       ****             }
 755              		.loc 1 360 0
 756 0040 0020     		movs	r0, #0
 757              	.LVL134:
 758              	.L62:
 369:.\I2C.c       **** }
 759              		.loc 1 369 0
 760 0042 02B0     		add	sp, sp, #8
 761              		.cfi_def_cfa_offset 8
 762              		@ sp needed
 763 0044 10BD     		pop	{r4, pc}
 764              		.cfi_endproc
 765              	.LFE69:
 766              		.size	write_psoc1, .-write_psoc1
 767              		.comm	rventa2,225,4
 768              		.comm	rventa,225,4
 769              		.comm	lado,8,4
 770              		.comm	producto,1,1
 771              		.comm	producto2,1,1
 772              		.comm	producto1,1,1
 773              		.comm	modulo,400,4
 774              		.comm	w,4,4
 775              		.comm	z,4,4
 776              		.comm	y,4,4
 777              		.comm	x,4,4
 778              		.comm	estado_0,1,1
 779              		.comm	Buffer_LCD2,152,4
 780              		.comm	Buffer_LCD1,152,4
 781              		.comm	no_venta,4,4
 782              		.comm	n_copias,1,4
 783              		.comm	a_copias,1,1
 784              		.comm	producto4n,11,4
 785              		.comm	producto3n,11,4
ARM GAS  C:\Users\RECEPC~1\AppData\Local\Temp\cc6ji1W9.s 			page 22


 786              		.comm	producto2n,11,4
 787              		.comm	producto1n,11,4
 788              		.comm	nombreproducto,1,1
 789              		.comm	id_venta,6,4
 790              		.comm	id_corte,2,2
 791              		.comm	copia_recibo2,2,4
 792              		.comm	copia_recibo,2,4
 793              		.comm	print2,2,4
 794              		.comm	print1,2,4
 795              		.comm	crc_total,1,1
 796              		.comm	pos_ibutton,1,1
 797              		.comm	fecha_corte,6,4
 798              		.comm	decimalD,1,1
 799              		.comm	decimalV,1,1
 800              		.comm	tipo_imp,2,4
 801              		.comm	bandera,2,4
 802              		.comm	ppux10,1,1
 803              		.comm	teclado2,1,1
 804              		.comm	teclado,1,1
 805              		.comm	resultado,14,4
 806              		.comm	buffer_i2c,64,4
 807              		.comm	kero2,1,1
 808              		.comm	diesel2,1,1
 809              		.comm	corriente2,1,1
 810              		.comm	extra2,1,1
 811              		.comm	kero,1,1
 812              		.comm	corriente,1,1
 813              		.comm	diesel,1,1
 814              		.comm	extra,1,1
 815              		.comm	versurt,1,1
 816              		.comm	version,1,1
 817              		.comm	comas2,1,1
 818              		.comm	comas1,1,1
 819              		.comm	teclas2,1,1
 820              		.comm	teclas1,1,1
 821              		.comm	cont1,1,1
 822              		.comm	ok_LCD2,1,1
 823              		.comm	ok_LCD1,1,1
 824              		.comm	count_protector2,1,1
 825              		.comm	count_protector,1,1
 826              		.comm	flujo_LCD2,1,1
 827              		.comm	flujo_LCD,1,1
 828 0046 00BF     		.text
 829              	.Letext0:
 830              		.file 2 "c:\\program files (x86)\\cypress\\psoc creator\\3.3\\psoc creator\\import\\gnu\\arm\\4.9.
 831              		.file 3 "c:\\program files (x86)\\cypress\\psoc creator\\3.3\\psoc creator\\import\\gnu\\arm\\4.9.
 832              		.file 4 "Generated_Source\\PSoC5/cytypes.h"
 833              		.file 5 ".\\VariablesG.h"
 834              		.file 6 "Generated_Source\\PSoC5/core_cm3.h"
 835              		.file 7 "Generated_Source\\PSoC5/I2C_1.h"
 836              		.file 8 "Generated_Source\\PSoC5/CyLib.h"
 837              		.file 9 "Generated_Source\\PSoC5/Pin_WP.h"