ARM GAS  C:\Users\IN-002~1\AppData\Local\Temp\ccxO8rjh.s 			page 1


   1              		.syntax unified
   2              		.cpu cortex-m3
   3              		.fpu softvfp
   4              		.eabi_attribute 20, 1
   5              		.eabi_attribute 21, 1
   6              		.eabi_attribute 23, 3
   7              		.eabi_attribute 24, 1
   8              		.eabi_attribute 25, 1
   9              		.eabi_attribute 26, 1
  10              		.eabi_attribute 30, 1
  11              		.eabi_attribute 34, 1
  12              		.eabi_attribute 18, 4
  13              		.thumb
  14              		.file	"Protocolo.c"
  15              		.text
  16              	.Ltext0:
  17              		.cfi_sections	.debug_frame
  18              		.section	.text.ver_pos,"ax",%progbits
  19              		.align	2
  20              		.global	ver_pos
  21              		.thumb
  22              		.thumb_func
  23              		.type	ver_pos, %function
  24              	ver_pos:
  25              	.LFB63:
  26              		.file 1 ".\\Protocolo.c"
   1:.\Protocolo.c **** /**
   2:.\Protocolo.c **** * @file Protocolo.c
   3:.\Protocolo.c **** * @Author Insepet LTDA
   4:.\Protocolo.c **** * @date 28/2/2016
   5:.\Protocolo.c **** * @brief Archivo para el manejo de la impresora
   6:.\Protocolo.c **** */
   7:.\Protocolo.c **** 
   8:.\Protocolo.c **** 
   9:.\Protocolo.c **** /*
  10:.\Protocolo.c **** ***************************************************************************************************
  11:.\Protocolo.c **** *                                             INCLUDE FILES
  12:.\Protocolo.c **** ***************************************************************************************************
  13:.\Protocolo.c **** */
  14:.\Protocolo.c **** #include <device.h>
  15:.\Protocolo.c **** #include "VariablesG.h"
  16:.\Protocolo.c **** #include "i2c.h"
  17:.\Protocolo.c **** #include "Print.h"
  18:.\Protocolo.c **** #include <string.h>
  19:.\Protocolo.c **** 
  20:.\Protocolo.c **** /*
  21:.\Protocolo.c **** ***************************************************************************************************
  22:.\Protocolo.c **** *                                            	MENSAJES
  23:.\Protocolo.c **** ***************************************************************************************************
  24:.\Protocolo.c **** */
  25:.\Protocolo.c **** 
  26:.\Protocolo.c **** uint8 msn_tc[6]="TOTAL";
  27:.\Protocolo.c **** uint8 msn_te[13]="DIESEL TOTAL";
  28:.\Protocolo.c **** uint8 msn_td[14]="SANS P TOTAL";
  29:.\Protocolo.c **** uint8 msn_tk[10]="KERO TOTAL";
  30:.\Protocolo.c **** uint8 msn_lecact[15]="Valor actual: ";
  31:.\Protocolo.c **** uint8 msn_lecaan[17]="Valor anterior:  ";
ARM GAS  C:\Users\IN-002~1\AppData\Local\Temp\ccxO8rjh.s 			page 2


  32:.\Protocolo.c **** uint8 msn_tventas[18]="Dinero total: $   ";
  33:.\Protocolo.c **** uint8 msn_totalcero[15]="NO TOMO TOTALES";
  34:.\Protocolo.c **** 
  35:.\Protocolo.c **** /**
  36:.\Protocolo.c **** * ver_pos
  37:.\Protocolo.c **** * @brief detecta las posiciones del equipo
  38:.\Protocolo.c **** * @return 1 si detecta las dos posiciones 0 si no
  39:.\Protocolo.c **** *
  40:.\Protocolo.c **** */
  41:.\Protocolo.c **** uint8 ver_pos (void){
  27              		.loc 1 41 0
  28              		.cfi_startproc
  29              		@ args = 0, pretend = 0, frame = 0
  30              		@ frame_needed = 0, uses_anonymous_args = 0
  31 0000 10B5     		push	{r4, lr}
  32              		.cfi_def_cfa_offset 8
  33              		.cfi_offset 4, -8
  34              		.cfi_offset 14, -4
  42:.\Protocolo.c **** uint8 x;
  43:.\Protocolo.c **** lado.a.dir=0xff;
  35              		.loc 1 43 0
  36 0002 1E4B     		ldr	r3, .L12
  37 0004 FF22     		movs	r2, #255
  38 0006 1A70     		strb	r2, [r3]
  44:.\Protocolo.c **** lado.b.dir=0xff;
  39              		.loc 1 44 0
  40 0008 1A71     		strb	r2, [r3, #4]
  41              	.LVL0:
  45:.\Protocolo.c ****     for(x=0;x<=15;x++){
  42              		.loc 1 45 0
  43 000a 0024     		movs	r4, #0
  44 000c 1DE0     		b	.L2
  45              	.LVL1:
  46              	.L5:
  46:.\Protocolo.c ****         Surtidor_PutChar(x);
  47              		.loc 1 46 0
  48 000e 2046     		mov	r0, r4
  49 0010 FFF7FEFF 		bl	Surtidor_PutChar
  50              	.LVL2:
  47:.\Protocolo.c ****         CyDelay(100);
  51              		.loc 1 47 0
  52 0014 6420     		movs	r0, #100
  53 0016 FFF7FEFF 		bl	CyDelay
  54              	.LVL3:
  48:.\Protocolo.c ****         if((Surtidor_GetRxBufferSize()>=1)&&(lado.a.dir==0xff)){
  55              		.loc 1 48 0
  56 001a FFF7FEFF 		bl	Surtidor_GetRxBufferSize
  57              	.LVL4:
  58 001e 38B1     		cbz	r0, .L3
  59              		.loc 1 48 0 is_stmt 0 discriminator 1
  60 0020 164B     		ldr	r3, .L12
  61 0022 1B78     		ldrb	r3, [r3]	@ zero_extendqisi2
  62 0024 FF2B     		cmp	r3, #255
  63 0026 03D1     		bne	.L3
  49:.\Protocolo.c ****            lado.a.dir=x;	
  64              		.loc 1 49 0 is_stmt 1
  65 0028 144B     		ldr	r3, .L12
ARM GAS  C:\Users\IN-002~1\AppData\Local\Temp\ccxO8rjh.s 			page 3


  66 002a 1C70     		strb	r4, [r3]
  50:.\Protocolo.c ****            Surtidor_ClearRxBuffer();
  67              		.loc 1 50 0
  68 002c FFF7FEFF 		bl	Surtidor_ClearRxBuffer
  69              	.LVL5:
  70              	.L3:
  51:.\Protocolo.c ****         }
  52:.\Protocolo.c ****         if((Surtidor_GetRxBufferSize()>=1)&&(x!=lado.a.dir)){
  71              		.loc 1 52 0
  72 0030 FFF7FEFF 		bl	Surtidor_GetRxBufferSize
  73              	.LVL6:
  74 0034 38B1     		cbz	r0, .L4
  75              		.loc 1 52 0 is_stmt 0 discriminator 1
  76 0036 114B     		ldr	r3, .L12
  77 0038 1B78     		ldrb	r3, [r3]	@ zero_extendqisi2
  78 003a A342     		cmp	r3, r4
  79 003c 03D0     		beq	.L4
  53:.\Protocolo.c ****            lado.b.dir=x;
  80              		.loc 1 53 0 is_stmt 1
  81 003e 0F4B     		ldr	r3, .L12
  82 0040 1C71     		strb	r4, [r3, #4]
  54:.\Protocolo.c ****            Surtidor_ClearRxBuffer();
  83              		.loc 1 54 0
  84 0042 FFF7FEFF 		bl	Surtidor_ClearRxBuffer
  85              	.LVL7:
  86              	.L4:
  45:.\Protocolo.c ****         Surtidor_PutChar(x);
  87              		.loc 1 45 0 discriminator 2
  88 0046 0134     		adds	r4, r4, #1
  89              	.LVL8:
  90 0048 E4B2     		uxtb	r4, r4
  91              	.LVL9:
  92              	.L2:
  45:.\Protocolo.c ****         Surtidor_PutChar(x);
  93              		.loc 1 45 0 is_stmt 0 discriminator 1
  94 004a 0F2C     		cmp	r4, #15
  95 004c DFD9     		bls	.L5
  55:.\Protocolo.c ****         }
  56:.\Protocolo.c ****     }
  57:.\Protocolo.c ****     if((lado.a.dir!=0xff)&&(lado.b.dir!=0xff)){
  96              		.loc 1 57 0 is_stmt 1
  97 004e 0B4B     		ldr	r3, .L12
  98 0050 1B78     		ldrb	r3, [r3]	@ zero_extendqisi2
  99 0052 FF2B     		cmp	r3, #255
 100 0054 03D0     		beq	.L6
 101              		.loc 1 57 0 is_stmt 0 discriminator 1
 102 0056 094A     		ldr	r2, .L12
 103 0058 1279     		ldrb	r2, [r2, #4]	@ zero_extendqisi2
 104 005a FF2A     		cmp	r2, #255
 105 005c 07D1     		bne	.L8
 106              	.L6:
  58:.\Protocolo.c ****         return 2;
  59:.\Protocolo.c ****     }
  60:.\Protocolo.c ****     else{
  61:.\Protocolo.c ****         if((lado.a.dir!=0xff)||(lado.b.dir!=0xff)){
 107              		.loc 1 61 0 is_stmt 1
 108 005e FF2B     		cmp	r3, #255
ARM GAS  C:\Users\IN-002~1\AppData\Local\Temp\ccxO8rjh.s 			page 4


 109 0060 07D1     		bne	.L9
 110              		.loc 1 61 0 is_stmt 0 discriminator 1
 111 0062 064B     		ldr	r3, .L12
 112 0064 1B79     		ldrb	r3, [r3, #4]	@ zero_extendqisi2
 113 0066 FF2B     		cmp	r3, #255
 114 0068 05D0     		beq	.L10
  62:.\Protocolo.c ****             return 1;
 115              		.loc 1 62 0 is_stmt 1
 116 006a 0120     		movs	r0, #1
 117 006c 10BD     		pop	{r4, pc}
 118              	.LVL10:
 119              	.L8:
  58:.\Protocolo.c ****         return 2;
 120              		.loc 1 58 0
 121 006e 0220     		movs	r0, #2
 122 0070 10BD     		pop	{r4, pc}
 123              	.LVL11:
 124              	.L9:
 125              		.loc 1 62 0
 126 0072 0120     		movs	r0, #1
 127 0074 10BD     		pop	{r4, pc}
 128              	.LVL12:
 129              	.L10:
  63:.\Protocolo.c ****         }
  64:.\Protocolo.c ****         else{
  65:.\Protocolo.c ****             return 0;
 130              		.loc 1 65 0
 131 0076 0020     		movs	r0, #0
  66:.\Protocolo.c ****         }
  67:.\Protocolo.c ****     }
  68:.\Protocolo.c **** }
 132              		.loc 1 68 0
 133 0078 10BD     		pop	{r4, pc}
 134              	.LVL13:
 135              	.L13:
 136 007a 00BF     		.align	2
 137              	.L12:
 138 007c 00000000 		.word	lado
 139              		.cfi_endproc
 140              	.LFE63:
 141              		.size	ver_pos, .-ver_pos
 142              		.section	.text.get_estado,"ax",%progbits
 143              		.align	2
 144              		.global	get_estado
 145              		.thumb
 146              		.thumb_func
 147              		.type	get_estado, %function
 148              	get_estado:
 149              	.LFB64:
  69:.\Protocolo.c **** 
  70:.\Protocolo.c **** 
  71:.\Protocolo.c **** /**
  72:.\Protocolo.c **** * get_estado
  73:.\Protocolo.c **** * @brief obtiene el estado de la posicion a la que se pregunte
  74:.\Protocolo.c **** * @param dir direccion de la posicion
  75:.\Protocolo.c **** * @return estado si hay respuesta del dispensador 0 si no
  76:.\Protocolo.c **** *
ARM GAS  C:\Users\IN-002~1\AppData\Local\Temp\ccxO8rjh.s 			page 5


  77:.\Protocolo.c **** */
  78:.\Protocolo.c **** uint8 get_estado(uint8 dir){
 150              		.loc 1 78 0
 151              		.cfi_startproc
 152              		@ args = 0, pretend = 0, frame = 0
 153              		@ frame_needed = 0, uses_anonymous_args = 0
 154              	.LVL14:
 155 0000 10B5     		push	{r4, lr}
 156              		.cfi_def_cfa_offset 8
 157              		.cfi_offset 4, -8
 158              		.cfi_offset 14, -4
  79:.\Protocolo.c ****     uint8 estado;
  80:.\Protocolo.c ****     Surtidor_PutChar(dir);
 159              		.loc 1 80 0
 160 0002 FFF7FEFF 		bl	Surtidor_PutChar
 161              	.LVL15:
  81:.\Protocolo.c ****     CyDelay(50);
 162              		.loc 1 81 0
 163 0006 3220     		movs	r0, #50
 164 0008 FFF7FEFF 		bl	CyDelay
 165              	.LVL16:
  82:.\Protocolo.c ****     if(Surtidor_GetRxBufferSize()>=1){
 166              		.loc 1 82 0
 167 000c FFF7FEFF 		bl	Surtidor_GetRxBufferSize
 168              	.LVL17:
 169 0010 38B1     		cbz	r0, .L16
  83:.\Protocolo.c ****        estado=(Surtidor_ReadRxData()&0xF0)>>4;
 170              		.loc 1 83 0
 171 0012 FFF7FEFF 		bl	Surtidor_ReadRxData
 172              	.LVL18:
 173 0016 C0F30714 		ubfx	r4, r0, #4, #8
 174              	.LVL19:
  84:.\Protocolo.c ****        Surtidor_ClearRxBuffer();
 175              		.loc 1 84 0
 176 001a FFF7FEFF 		bl	Surtidor_ClearRxBuffer
 177              	.LVL20:
  85:.\Protocolo.c ****        return estado;
 178              		.loc 1 85 0
 179 001e 2046     		mov	r0, r4
 180 0020 10BD     		pop	{r4, pc}
 181              	.LVL21:
 182              	.L16:
  86:.\Protocolo.c ****     }
  87:.\Protocolo.c ****     else{
  88:.\Protocolo.c ****         return 0;
 183              		.loc 1 88 0
 184 0022 0020     		movs	r0, #0
  89:.\Protocolo.c ****     }
  90:.\Protocolo.c **** }
 185              		.loc 1 90 0
 186 0024 10BD     		pop	{r4, pc}
 187              		.cfi_endproc
 188              	.LFE64:
 189              		.size	get_estado, .-get_estado
 190 0026 00BF     		.section	.text.estado_ex,"ax",%progbits
 191              		.align	2
 192              		.global	estado_ex
ARM GAS  C:\Users\IN-002~1\AppData\Local\Temp\ccxO8rjh.s 			page 6


 193              		.thumb
 194              		.thumb_func
 195              		.type	estado_ex, %function
 196              	estado_ex:
 197              	.LFB65:
  91:.\Protocolo.c **** 
  92:.\Protocolo.c **** /**
  93:.\Protocolo.c **** * ver_error
  94:.\Protocolo.c **** * @brief función no implementada
  95:.\Protocolo.c **** *
  96:.\Protocolo.c **** */
  97:.\Protocolo.c **** uint8 estado_ex(uint8 val){
 198              		.loc 1 97 0
 199              		.cfi_startproc
 200              		@ args = 0, pretend = 0, frame = 32
 201              		@ frame_needed = 0, uses_anonymous_args = 0
 202              	.LVL22:
 203 0000 10B5     		push	{r4, lr}
 204              		.cfi_def_cfa_offset 8
 205              		.cfi_offset 4, -8
 206              		.cfi_offset 14, -4
 207 0002 88B0     		sub	sp, sp, #32
 208              		.cfi_def_cfa_offset 40
 209 0004 0446     		mov	r4, r0
  98:.\Protocolo.c ****     uint8 rx_extend[19],x,comand_exten[9]={0xFF,0xE9,0xFE,0xE0,0xE1,0xE0,0xFB,0xEE,0xF0};
 210              		.loc 1 98 0
 211 0006 364A     		ldr	r2, .L37
 212 0008 6B46     		mov	r3, sp
 213 000a 1068     		ldr	r0, [r2]	@ unaligned
 214              	.LVL23:
 215 000c 5168     		ldr	r1, [r2, #4]	@ unaligned
 216 000e 03C3     		stmia	r3!, {r0, r1}
 217 0010 127A     		ldrb	r2, [r2, #8]	@ zero_extendqisi2
 218 0012 1A70     		strb	r2, [r3]
  99:.\Protocolo.c ****     Surtidor_PutChar(0x20|val);
 219              		.loc 1 99 0
 220 0014 44F02000 		orr	r0, r4, #32
 221 0018 FFF7FEFF 		bl	Surtidor_PutChar
 222              	.LVL24:
 100:.\Protocolo.c ****     producto=0xff;
 223              		.loc 1 100 0
 224 001c FF22     		movs	r2, #255
 225 001e 314B     		ldr	r3, .L37+4
 226 0020 1A70     		strb	r2, [r3]
 101:.\Protocolo.c ****     CyDelay(100);
 227              		.loc 1 101 0
 228 0022 6420     		movs	r0, #100
 229 0024 FFF7FEFF 		bl	CyDelay
 230              	.LVL25:
 102:.\Protocolo.c ****     if(Surtidor_GetRxBufferSize()>=1){
 231              		.loc 1 102 0
 232 0028 FFF7FEFF 		bl	Surtidor_GetRxBufferSize
 233              	.LVL26:
 234 002c 0028     		cmp	r0, #0
 235 002e 48D0     		beq	.L27
 103:.\Protocolo.c ****         if(Surtidor_ReadRxData()==(0xD0|val)){
 236              		.loc 1 103 0
ARM GAS  C:\Users\IN-002~1\AppData\Local\Temp\ccxO8rjh.s 			page 7


 237 0030 FFF7FEFF 		bl	Surtidor_ReadRxData
 238              	.LVL27:
 239 0034 44F0D004 		orr	r4, r4, #208
 240 0038 A042     		cmp	r0, r4
 241 003a 44D1     		bne	.L28
 104:.\Protocolo.c ****             Surtidor_ClearRxBuffer();
 242              		.loc 1 104 0
 243 003c FFF7FEFF 		bl	Surtidor_ClearRxBuffer
 244              	.LVL28:
 105:.\Protocolo.c ****             for(x=0;x<=8;x++){
 245              		.loc 1 105 0
 246 0040 0024     		movs	r4, #0
 247 0042 07E0     		b	.L20
 248              	.LVL29:
 249              	.L21:
 106:.\Protocolo.c ****                Surtidor_PutChar(comand_exten[x]); 
 250              		.loc 1 106 0 discriminator 3
 251 0044 08AB     		add	r3, sp, #32
 252 0046 2344     		add	r3, r3, r4
 253 0048 13F8200C 		ldrb	r0, [r3, #-32]	@ zero_extendqisi2
 254 004c FFF7FEFF 		bl	Surtidor_PutChar
 255              	.LVL30:
 105:.\Protocolo.c ****             for(x=0;x<=8;x++){
 256              		.loc 1 105 0 discriminator 3
 257 0050 0134     		adds	r4, r4, #1
 258              	.LVL31:
 259 0052 E4B2     		uxtb	r4, r4
 260              	.LVL32:
 261              	.L20:
 105:.\Protocolo.c ****             for(x=0;x<=8;x++){
 262              		.loc 1 105 0 is_stmt 0 discriminator 1
 263 0054 082C     		cmp	r4, #8
 264 0056 F5D9     		bls	.L21
 107:.\Protocolo.c ****             }
 108:.\Protocolo.c ****             CyDelay(200);
 265              		.loc 1 108 0 is_stmt 1
 266 0058 C820     		movs	r0, #200
 267 005a FFF7FEFF 		bl	CyDelay
 268              	.LVL33:
 109:.\Protocolo.c ****             if(Surtidor_GetRxBufferSize()>=19){
 269              		.loc 1 109 0
 270 005e FFF7FEFF 		bl	Surtidor_GetRxBufferSize
 271              	.LVL34:
 272 0062 1228     		cmp	r0, #18
 273 0064 0AD8     		bhi	.L29
 110:.\Protocolo.c ****                 for(x=0;x<=18;x++){
 111:.\Protocolo.c ****                    rx_extend[x]=Surtidor_ReadRxData(); 
 112:.\Protocolo.c ****                 }
 113:.\Protocolo.c ****                 Surtidor_ClearRxBuffer();
 114:.\Protocolo.c ****                 if((rx_extend[0]==0xBA)&&(rx_extend[17]==0x8D)&&(rx_extend[18]==0x8A)&&(rx_extend[1
 115:.\Protocolo.c ****                     switch(rx_extend[14]){
 116:.\Protocolo.c ****                         case 0xB1:
 117:.\Protocolo.c ****                             return 1;
 118:.\Protocolo.c ****                             break;
 119:.\Protocolo.c ****                         case 0xB2:
 120:.\Protocolo.c ****                             return 2;
 121:.\Protocolo.c ****                             break;
ARM GAS  C:\Users\IN-002~1\AppData\Local\Temp\ccxO8rjh.s 			page 8


 122:.\Protocolo.c ****                         case 0xB3:
 123:.\Protocolo.c ****                             return 3;
 124:.\Protocolo.c ****                             break;
 125:.\Protocolo.c ****                         default:
 126:.\Protocolo.c ****                             return 0;
 127:.\Protocolo.c ****                     }
 128:.\Protocolo.c ****                 }
 129:.\Protocolo.c ****                 else{
 130:.\Protocolo.c ****                     return 0;
 131:.\Protocolo.c ****                 }
 132:.\Protocolo.c ****             }
 133:.\Protocolo.c ****             else{
 134:.\Protocolo.c ****                 return 0;
 274              		.loc 1 134 0
 275 0066 0020     		movs	r0, #0
 276 0068 38E0     		b	.L19
 277              	.L23:
 111:.\Protocolo.c ****                 }
 278              		.loc 1 111 0 discriminator 3
 279 006a FFF7FEFF 		bl	Surtidor_ReadRxData
 280              	.LVL35:
 281 006e 08AB     		add	r3, sp, #32
 282 0070 2344     		add	r3, r3, r4
 283 0072 03F8140C 		strb	r0, [r3, #-20]
 110:.\Protocolo.c ****                 for(x=0;x<=18;x++){
 284              		.loc 1 110 0 discriminator 3
 285 0076 0134     		adds	r4, r4, #1
 286              	.LVL36:
 287 0078 E4B2     		uxtb	r4, r4
 288              	.LVL37:
 289 007a 00E0     		b	.L22
 290              	.L29:
 291 007c 0024     		movs	r4, #0
 292              	.LVL38:
 293              	.L22:
 110:.\Protocolo.c ****                 for(x=0;x<=18;x++){
 294              		.loc 1 110 0 is_stmt 0 discriminator 1
 295 007e 122C     		cmp	r4, #18
 296 0080 F3D9     		bls	.L23
 113:.\Protocolo.c ****                 if((rx_extend[0]==0xBA)&&(rx_extend[17]==0x8D)&&(rx_extend[18]==0x8A)&&(rx_extend[1
 297              		.loc 1 113 0 is_stmt 1
 298 0082 FFF7FEFF 		bl	Surtidor_ClearRxBuffer
 299              	.LVL39:
 114:.\Protocolo.c ****                     switch(rx_extend[14]){
 300              		.loc 1 114 0
 301 0086 9DF80C30 		ldrb	r3, [sp, #12]	@ zero_extendqisi2
 302 008a BA2B     		cmp	r3, #186
 303 008c 1DD1     		bne	.L30
 114:.\Protocolo.c ****                     switch(rx_extend[14]){
 304              		.loc 1 114 0 is_stmt 0 discriminator 1
 305 008e 9DF81D30 		ldrb	r3, [sp, #29]	@ zero_extendqisi2
 306 0092 8D2B     		cmp	r3, #141
 307 0094 1BD1     		bne	.L31
 114:.\Protocolo.c ****                     switch(rx_extend[14]){
 308              		.loc 1 114 0 discriminator 2
 309 0096 9DF81E30 		ldrb	r3, [sp, #30]	@ zero_extendqisi2
 310 009a 8A2B     		cmp	r3, #138
ARM GAS  C:\Users\IN-002~1\AppData\Local\Temp\ccxO8rjh.s 			page 9


 311 009c 19D1     		bne	.L32
 114:.\Protocolo.c ****                     switch(rx_extend[14]){
 312              		.loc 1 114 0 discriminator 3
 313 009e 9DF81830 		ldrb	r3, [sp, #24]	@ zero_extendqisi2
 314 00a2 B12B     		cmp	r3, #177
 315 00a4 17D1     		bne	.L33
 115:.\Protocolo.c ****                         case 0xB1:
 316              		.loc 1 115 0 is_stmt 1
 317 00a6 9DF81A30 		ldrb	r3, [sp, #26]	@ zero_extendqisi2
 318 00aa B22B     		cmp	r3, #178
 319 00ac 15D0     		beq	.L34
 320 00ae B32B     		cmp	r3, #179
 321 00b0 03D0     		beq	.L25
 322 00b2 B12B     		cmp	r3, #177
 323 00b4 03D1     		bne	.L35
 117:.\Protocolo.c ****                             break;
 324              		.loc 1 117 0
 325 00b6 0120     		movs	r0, #1
 326 00b8 10E0     		b	.L19
 327              	.L25:
 123:.\Protocolo.c ****                             break;
 328              		.loc 1 123 0
 329 00ba 0320     		movs	r0, #3
 330 00bc 0EE0     		b	.L19
 331              	.L35:
 126:.\Protocolo.c ****                     }
 332              		.loc 1 126 0
 333 00be 0020     		movs	r0, #0
 334 00c0 0CE0     		b	.L19
 335              	.LVL40:
 336              	.L27:
 135:.\Protocolo.c ****             }
 136:.\Protocolo.c ****         }
 137:.\Protocolo.c ****         else{
 138:.\Protocolo.c ****             return 0;
 139:.\Protocolo.c ****         }
 140:.\Protocolo.c ****     }
 141:.\Protocolo.c ****     else{
 142:.\Protocolo.c ****         return 0;
 337              		.loc 1 142 0
 338 00c2 0020     		movs	r0, #0
 339 00c4 0AE0     		b	.L19
 340              	.L28:
 138:.\Protocolo.c ****         }
 341              		.loc 1 138 0
 342 00c6 0020     		movs	r0, #0
 343 00c8 08E0     		b	.L19
 344              	.LVL41:
 345              	.L30:
 130:.\Protocolo.c ****                 }
 346              		.loc 1 130 0
 347 00ca 0020     		movs	r0, #0
 348 00cc 06E0     		b	.L19
 349              	.L31:
 350 00ce 0020     		movs	r0, #0
 351 00d0 04E0     		b	.L19
 352              	.L32:
ARM GAS  C:\Users\IN-002~1\AppData\Local\Temp\ccxO8rjh.s 			page 10


 353 00d2 0020     		movs	r0, #0
 354 00d4 02E0     		b	.L19
 355              	.L33:
 356 00d6 0020     		movs	r0, #0
 357 00d8 00E0     		b	.L19
 358              	.L34:
 120:.\Protocolo.c ****                             break;
 359              		.loc 1 120 0
 360 00da 0220     		movs	r0, #2
 361              	.LVL42:
 362              	.L19:
 143:.\Protocolo.c ****     }
 144:.\Protocolo.c **** }
 363              		.loc 1 144 0 discriminator 1
 364 00dc 08B0     		add	sp, sp, #32
 365              		.cfi_def_cfa_offset 8
 366              		@ sp needed
 367 00de 10BD     		pop	{r4, pc}
 368              	.L38:
 369              		.align	2
 370              	.L37:
 371 00e0 00000000 		.word	.LANCHOR0
 372 00e4 00000000 		.word	producto
 373              		.cfi_endproc
 374              	.LFE65:
 375              		.size	estado_ex, .-estado_ex
 376              		.section	.text.detener,"ax",%progbits
 377              		.align	2
 378              		.global	detener
 379              		.thumb
 380              		.thumb_func
 381              		.type	detener, %function
 382              	detener:
 383              	.LFB66:
 145:.\Protocolo.c **** 
 146:.\Protocolo.c **** /*
 147:.\Protocolo.c **** ***************************************************************************************************
 148:.\Protocolo.c **** *                                         void detener(uint8 val)
 149:.\Protocolo.c **** *
 150:.\Protocolo.c **** * Description : 
 151:.\Protocolo.c **** *               
 152:.\Protocolo.c **** *
 153:.\Protocolo.c **** * Argument(s) : none
 154:.\Protocolo.c **** *
 155:.\Protocolo.c **** * Return(s)   : none
 156:.\Protocolo.c **** *
 157:.\Protocolo.c **** * Caller(s)   : 
 158:.\Protocolo.c **** *
 159:.\Protocolo.c **** * Note(s)     : none.
 160:.\Protocolo.c **** ***************************************************************************************************
 161:.\Protocolo.c **** */
 162:.\Protocolo.c **** void detener(uint8 val){
 384              		.loc 1 162 0
 385              		.cfi_startproc
 386              		@ args = 0, pretend = 0, frame = 0
 387              		@ frame_needed = 0, uses_anonymous_args = 0
 388              	.LVL43:
ARM GAS  C:\Users\IN-002~1\AppData\Local\Temp\ccxO8rjh.s 			page 11


 389 0000 08B5     		push	{r3, lr}
 390              		.cfi_def_cfa_offset 8
 391              		.cfi_offset 3, -8
 392              		.cfi_offset 14, -4
 163:.\Protocolo.c ****     Surtidor_PutChar(0x30|val);
 393              		.loc 1 163 0
 394 0002 40F03000 		orr	r0, r0, #48
 395              	.LVL44:
 396 0006 FFF7FEFF 		bl	Surtidor_PutChar
 397              	.LVL45:
 164:.\Protocolo.c ****     CyDelay(200);
 398              		.loc 1 164 0
 399 000a C820     		movs	r0, #200
 400 000c FFF7FEFF 		bl	CyDelay
 401              	.LVL46:
 402 0010 08BD     		pop	{r3, pc}
 403              		.cfi_endproc
 404              	.LFE66:
 405              		.size	detener, .-detener
 406 0012 00BF     		.section	.text.venta,"ax",%progbits
 407              		.align	2
 408              		.global	venta
 409              		.thumb
 410              		.thumb_func
 411              		.type	venta, %function
 412              	venta:
 413              	.LFB67:
 165:.\Protocolo.c **** }
 166:.\Protocolo.c **** 
 167:.\Protocolo.c **** /*
 168:.\Protocolo.c **** ***************************************************************************************************
 169:.\Protocolo.c **** *                                         void venta(uint8 val)
 170:.\Protocolo.c **** *
 171:.\Protocolo.c **** * Description : 
 172:.\Protocolo.c **** *               
 173:.\Protocolo.c **** *
 174:.\Protocolo.c **** * Argument(s) : none
 175:.\Protocolo.c **** *
 176:.\Protocolo.c **** * Return(s)   : none
 177:.\Protocolo.c **** *
 178:.\Protocolo.c **** * Caller(s)   : 
 179:.\Protocolo.c **** *
 180:.\Protocolo.c **** * Note(s)     : none.
 181:.\Protocolo.c **** ***************************************************************************************************
 182:.\Protocolo.c **** */
 183:.\Protocolo.c **** uint8 venta(uint8 val){
 414              		.loc 1 183 0
 415              		.cfi_startproc
 416              		@ args = 0, pretend = 0, frame = 40
 417              		@ frame_needed = 0, uses_anonymous_args = 0
 418              	.LVL47:
 419 0000 30B5     		push	{r4, r5, lr}
 420              		.cfi_def_cfa_offset 12
 421              		.cfi_offset 4, -12
 422              		.cfi_offset 5, -8
 423              		.cfi_offset 14, -4
 424 0002 8BB0     		sub	sp, sp, #44
ARM GAS  C:\Users\IN-002~1\AppData\Local\Temp\ccxO8rjh.s 			page 12


 425              		.cfi_def_cfa_offset 56
 426 0004 0446     		mov	r4, r0
 427              	.LVL48:
 184:.\Protocolo.c ****     uint8 rx_venta[39],x=0,pos,y; 
 185:.\Protocolo.c ****     Surtidor_PutChar(0x40|val);
 428              		.loc 1 185 0
 429 0006 40F04000 		orr	r0, r0, #64
 430              	.LVL49:
 431 000a FFF7FEFF 		bl	Surtidor_PutChar
 432              	.LVL50:
 186:.\Protocolo.c ****     CyDelay(300);
 433              		.loc 1 186 0
 434 000e 4FF49670 		mov	r0, #300
 435 0012 FFF7FEFF 		bl	CyDelay
 436              	.LVL51:
 187:.\Protocolo.c ****     if(Surtidor_GetRxBufferSize()<=39){
 437              		.loc 1 187 0
 438 0016 FFF7FEFF 		bl	Surtidor_GetRxBufferSize
 439              	.LVL52:
 440 001a 2728     		cmp	r0, #39
 441 001c 0AD9     		bls	.L58
 188:.\Protocolo.c ****         while(Surtidor_GetRxBufferSize()>0){
 189:.\Protocolo.c ****             rx_venta[x]=Surtidor_ReadRxData();  
 190:.\Protocolo.c ****             x++;
 191:.\Protocolo.c ****         }
 192:.\Protocolo.c ****         Surtidor_ClearRxBuffer();
 193:.\Protocolo.c ****         if(val==0){
 194:.\Protocolo.c ****             pos=0x10;
 195:.\Protocolo.c ****             rventa.posicion=pos;
 196:.\Protocolo.c ****         }
 197:.\Protocolo.c ****         else{
 198:.\Protocolo.c ****             pos=val;
 199:.\Protocolo.c ****             rventa.posicion=pos;
 200:.\Protocolo.c ****         }
 201:.\Protocolo.c ****         if((rx_venta[0]==0xFF)&&(rx_venta[2]==0xF8)&&((rx_venta[4]&0x0F)==(pos-1))){
 202:.\Protocolo.c ****             x=0;
 203:.\Protocolo.c ****             while((rx_venta[x]!=0xF6)||(x>=39)){
 204:.\Protocolo.c ****                 x++;
 205:.\Protocolo.c ****             }
 206:.\Protocolo.c ****             x++;
 207:.\Protocolo.c ****             rventa.producto=(rx_venta[x]&0x0F)+1;
 208:.\Protocolo.c ****             while((rx_venta[x]!=0xF7)||(x>=39)){
 209:.\Protocolo.c ****                 x++;
 210:.\Protocolo.c ****             }
 211:.\Protocolo.c ****             x++;
 212:.\Protocolo.c ****             y=1;
 213:.\Protocolo.c ****             while((rx_venta[x]!=0xF9)||(x>=39)){    
 214:.\Protocolo.c ****                 rventa.ppu[y]=(rx_venta[x]&0x0F);
 215:.\Protocolo.c ****                 x++;
 216:.\Protocolo.c ****                 y++;
 217:.\Protocolo.c ****             }
 218:.\Protocolo.c **** 			rventa.ppu[0]=y-1;
 219:.\Protocolo.c ****             x++;
 220:.\Protocolo.c ****             y=1;
 221:.\Protocolo.c ****             while((rx_venta[x]!=0xFA)||(x>=39)){
 222:.\Protocolo.c ****                 rventa.volumen[y]=(rx_venta[x]&0x0F);
 223:.\Protocolo.c ****                 x++;
ARM GAS  C:\Users\IN-002~1\AppData\Local\Temp\ccxO8rjh.s 			page 13


 224:.\Protocolo.c ****                 y++;    
 225:.\Protocolo.c ****             }
 226:.\Protocolo.c **** 			rventa.volumen[0]=y-1;
 227:.\Protocolo.c ****             x++;
 228:.\Protocolo.c ****             y=1;
 229:.\Protocolo.c ****             while((rx_venta[x]!=0xFB)||(x>=39)){
 230:.\Protocolo.c ****                 rventa.dinero[y]=(rx_venta[x]&0x0F);
 231:.\Protocolo.c ****                 x++;
 232:.\Protocolo.c ****                 y++;    
 233:.\Protocolo.c ****             }
 234:.\Protocolo.c **** 			rventa.dinero[0]=y-1;
 235:.\Protocolo.c ****             x+=2;
 236:.\Protocolo.c ****             if((rx_venta[x]==0xF0)&&(x<=38)){								
 237:.\Protocolo.c **** 				if(val==lado.a.dir){
 238:.\Protocolo.c **** 					write_eeprom(457,rventa.dinero);
 239:.\Protocolo.c **** 					write_eeprom(466,rventa.volumen);
 240:.\Protocolo.c **** 					write_eeprom(475,rventa.ppu);
 241:.\Protocolo.c **** 				}				
 242:.\Protocolo.c **** 				else{
 243:.\Protocolo.c **** 					write_eeprom(482,rventa.dinero);
 244:.\Protocolo.c **** 					write_eeprom(500,rventa.ppu);
 245:.\Protocolo.c **** 					write_eeprom(491,rventa.volumen);				
 246:.\Protocolo.c **** 				}
 247:.\Protocolo.c ****                 return 1;
 248:.\Protocolo.c ****             }
 249:.\Protocolo.c ****             else{
 250:.\Protocolo.c ****                 return 0;
 251:.\Protocolo.c ****             }
 252:.\Protocolo.c ****         }
 253:.\Protocolo.c ****         else{
 254:.\Protocolo.c ****             return 0;
 255:.\Protocolo.c ****         }
 256:.\Protocolo.c ****     }
 257:.\Protocolo.c ****     else{
 258:.\Protocolo.c ****         return 0;
 442              		.loc 1 258 0
 443 001e 0020     		movs	r0, #0
 444 0020 D9E0     		b	.L43
 445              	.LVL53:
 446              	.L44:
 189:.\Protocolo.c ****             x++;
 447              		.loc 1 189 0
 448 0022 FFF7FEFF 		bl	Surtidor_ReadRxData
 449              	.LVL54:
 450 0026 0AAB     		add	r3, sp, #40
 451 0028 2B44     		add	r3, r3, r5
 452 002a 03F8280C 		strb	r0, [r3, #-40]
 190:.\Protocolo.c ****         }
 453              		.loc 1 190 0
 454 002e 0135     		adds	r5, r5, #1
 455              	.LVL55:
 456 0030 EDB2     		uxtb	r5, r5
 457              	.LVL56:
 458 0032 00E0     		b	.L42
 459              	.LVL57:
 460              	.L58:
 461 0034 0025     		movs	r5, #0
ARM GAS  C:\Users\IN-002~1\AppData\Local\Temp\ccxO8rjh.s 			page 14


 462              	.LVL58:
 463              	.L42:
 188:.\Protocolo.c ****         while(Surtidor_GetRxBufferSize()>0){
 464              		.loc 1 188 0
 465 0036 FFF7FEFF 		bl	Surtidor_GetRxBufferSize
 466              	.LVL59:
 467 003a 0028     		cmp	r0, #0
 468 003c F1D1     		bne	.L44
 192:.\Protocolo.c ****         if(val==0){
 469              		.loc 1 192 0
 470 003e FFF7FEFF 		bl	Surtidor_ClearRxBuffer
 471              	.LVL60:
 193:.\Protocolo.c ****             pos=0x10;
 472              		.loc 1 193 0
 473 0042 24B9     		cbnz	r4, .L45
 474              	.LVL61:
 195:.\Protocolo.c ****         }
 475              		.loc 1 195 0
 476 0044 1023     		movs	r3, #16
 477 0046 654A     		ldr	r2, .L65
 478 0048 82F8A230 		strb	r3, [r2, #162]
 479 004c 03E0     		b	.L46
 480              	.LVL62:
 481              	.L45:
 199:.\Protocolo.c ****         }
 482              		.loc 1 199 0
 483 004e 634B     		ldr	r3, .L65
 484 0050 83F8A240 		strb	r4, [r3, #162]
 198:.\Protocolo.c ****             rventa.posicion=pos;
 485              		.loc 1 198 0
 486 0054 2346     		mov	r3, r4
 487              	.LVL63:
 488              	.L46:
 201:.\Protocolo.c ****             x=0;
 489              		.loc 1 201 0
 490 0056 9DF80020 		ldrb	r2, [sp]	@ zero_extendqisi2
 491 005a FF2A     		cmp	r2, #255
 492 005c 40F0B480 		bne	.L59
 201:.\Protocolo.c ****             x=0;
 493              		.loc 1 201 0 is_stmt 0 discriminator 1
 494 0060 9DF80220 		ldrb	r2, [sp, #2]	@ zero_extendqisi2
 495 0064 F82A     		cmp	r2, #248
 496 0066 40F0B180 		bne	.L60
 201:.\Protocolo.c ****             x=0;
 497              		.loc 1 201 0 discriminator 2
 498 006a 9DF80420 		ldrb	r2, [sp, #4]	@ zero_extendqisi2
 499 006e 02F00F02 		and	r2, r2, #15
 500 0072 013B     		subs	r3, r3, #1
 501              	.LVL64:
 502 0074 9A42     		cmp	r2, r3
 503 0076 04D0     		beq	.L61
 254:.\Protocolo.c ****         }
 504              		.loc 1 254 0 is_stmt 1
 505 0078 0020     		movs	r0, #0
 506 007a ACE0     		b	.L43
 507              	.LVL65:
 508              	.L48:
ARM GAS  C:\Users\IN-002~1\AppData\Local\Temp\ccxO8rjh.s 			page 15


 204:.\Protocolo.c ****             }
 509              		.loc 1 204 0
 510 007c 0133     		adds	r3, r3, #1
 511              	.LVL66:
 512 007e DBB2     		uxtb	r3, r3
 513              	.LVL67:
 514 0080 00E0     		b	.L47
 515              	.LVL68:
 516              	.L61:
 517 0082 0023     		movs	r3, #0
 518              	.LVL69:
 519              	.L47:
 203:.\Protocolo.c ****                 x++;
 520              		.loc 1 203 0
 521 0084 0AAA     		add	r2, sp, #40
 522 0086 1A44     		add	r2, r2, r3
 523 0088 12F8282C 		ldrb	r2, [r2, #-40]	@ zero_extendqisi2
 524 008c F62A     		cmp	r2, #246
 525 008e F5D1     		bne	.L48
 203:.\Protocolo.c ****                 x++;
 526              		.loc 1 203 0 is_stmt 0 discriminator 1
 527 0090 262B     		cmp	r3, #38
 528 0092 F3D8     		bhi	.L48
 206:.\Protocolo.c ****             rventa.producto=(rx_venta[x]&0x0F)+1;
 529              		.loc 1 206 0 is_stmt 1
 530 0094 0133     		adds	r3, r3, #1
 531              	.LVL70:
 532 0096 DBB2     		uxtb	r3, r3
 533              	.LVL71:
 207:.\Protocolo.c ****             while((rx_venta[x]!=0xF7)||(x>=39)){
 534              		.loc 1 207 0
 535 0098 0AAA     		add	r2, sp, #40
 536 009a 1A44     		add	r2, r2, r3
 537 009c 12F8282C 		ldrb	r2, [r2, #-40]	@ zero_extendqisi2
 538 00a0 02F00F02 		and	r2, r2, #15
 539 00a4 0132     		adds	r2, r2, #1
 540 00a6 4D49     		ldr	r1, .L65
 541 00a8 81F8A320 		strb	r2, [r1, #163]
 208:.\Protocolo.c ****                 x++;
 542              		.loc 1 208 0
 543 00ac 01E0     		b	.L49
 544              	.L50:
 209:.\Protocolo.c ****             }
 545              		.loc 1 209 0
 546 00ae 0133     		adds	r3, r3, #1
 547              	.LVL72:
 548 00b0 DBB2     		uxtb	r3, r3
 549              	.LVL73:
 550              	.L49:
 208:.\Protocolo.c ****                 x++;
 551              		.loc 1 208 0
 552 00b2 0AAA     		add	r2, sp, #40
 553 00b4 1A44     		add	r2, r2, r3
 554 00b6 12F8282C 		ldrb	r2, [r2, #-40]	@ zero_extendqisi2
 555 00ba F72A     		cmp	r2, #247
 556 00bc F7D1     		bne	.L50
 208:.\Protocolo.c ****                 x++;
ARM GAS  C:\Users\IN-002~1\AppData\Local\Temp\ccxO8rjh.s 			page 16


 557              		.loc 1 208 0 is_stmt 0 discriminator 1
 558 00be 262B     		cmp	r3, #38
 559 00c0 F5D8     		bhi	.L50
 211:.\Protocolo.c ****             y=1;
 560              		.loc 1 211 0 is_stmt 1
 561 00c2 0133     		adds	r3, r3, #1
 562              	.LVL74:
 563 00c4 DBB2     		uxtb	r3, r3
 564              	.LVL75:
 212:.\Protocolo.c ****             while((rx_venta[x]!=0xF9)||(x>=39)){    
 565              		.loc 1 212 0
 566 00c6 0122     		movs	r2, #1
 213:.\Protocolo.c ****                 rventa.ppu[y]=(rx_venta[x]&0x0F);
 567              		.loc 1 213 0
 568 00c8 09E0     		b	.L51
 569              	.LVL76:
 570              	.L52:
 214:.\Protocolo.c ****                 x++;
 571              		.loc 1 214 0
 572 00ca 4448     		ldr	r0, .L65
 573 00cc 1044     		add	r0, r0, r2
 574 00ce 01F00F01 		and	r1, r1, #15
 575 00d2 80F8A410 		strb	r1, [r0, #164]
 215:.\Protocolo.c ****                 y++;
 576              		.loc 1 215 0
 577 00d6 0133     		adds	r3, r3, #1
 578              	.LVL77:
 579 00d8 DBB2     		uxtb	r3, r3
 580              	.LVL78:
 216:.\Protocolo.c ****             }
 581              		.loc 1 216 0
 582 00da 0132     		adds	r2, r2, #1
 583              	.LVL79:
 584 00dc D2B2     		uxtb	r2, r2
 585              	.LVL80:
 586              	.L51:
 213:.\Protocolo.c ****                 rventa.ppu[y]=(rx_venta[x]&0x0F);
 587              		.loc 1 213 0
 588 00de 0AA9     		add	r1, sp, #40
 589 00e0 1944     		add	r1, r1, r3
 590 00e2 11F8281C 		ldrb	r1, [r1, #-40]	@ zero_extendqisi2
 591 00e6 F929     		cmp	r1, #249
 592 00e8 EFD1     		bne	.L52
 213:.\Protocolo.c ****                 rventa.ppu[y]=(rx_venta[x]&0x0F);
 593              		.loc 1 213 0 is_stmt 0 discriminator 1
 594 00ea 262B     		cmp	r3, #38
 595 00ec EDD8     		bhi	.L52
 218:.\Protocolo.c ****             x++;
 596              		.loc 1 218 0 is_stmt 1
 597 00ee 013A     		subs	r2, r2, #1
 598              	.LVL81:
 599 00f0 3A49     		ldr	r1, .L65
 600 00f2 81F8A420 		strb	r2, [r1, #164]
 219:.\Protocolo.c ****             y=1;
 601              		.loc 1 219 0
 602 00f6 0133     		adds	r3, r3, #1
 603              	.LVL82:
ARM GAS  C:\Users\IN-002~1\AppData\Local\Temp\ccxO8rjh.s 			page 17


 604 00f8 DBB2     		uxtb	r3, r3
 605              	.LVL83:
 220:.\Protocolo.c ****             while((rx_venta[x]!=0xFA)||(x>=39)){
 606              		.loc 1 220 0
 607 00fa 0122     		movs	r2, #1
 221:.\Protocolo.c ****                 rventa.volumen[y]=(rx_venta[x]&0x0F);
 608              		.loc 1 221 0
 609 00fc 09E0     		b	.L53
 610              	.LVL84:
 611              	.L54:
 222:.\Protocolo.c ****                 x++;
 612              		.loc 1 222 0
 613 00fe 3748     		ldr	r0, .L65
 614 0100 1044     		add	r0, r0, r2
 615 0102 01F00F01 		and	r1, r1, #15
 616 0106 80F8B410 		strb	r1, [r0, #180]
 223:.\Protocolo.c ****                 y++;    
 617              		.loc 1 223 0
 618 010a 0133     		adds	r3, r3, #1
 619              	.LVL85:
 620 010c DBB2     		uxtb	r3, r3
 621              	.LVL86:
 224:.\Protocolo.c ****             }
 622              		.loc 1 224 0
 623 010e 0132     		adds	r2, r2, #1
 624              	.LVL87:
 625 0110 D2B2     		uxtb	r2, r2
 626              	.LVL88:
 627              	.L53:
 221:.\Protocolo.c ****                 rventa.volumen[y]=(rx_venta[x]&0x0F);
 628              		.loc 1 221 0
 629 0112 0AA9     		add	r1, sp, #40
 630 0114 1944     		add	r1, r1, r3
 631 0116 11F8281C 		ldrb	r1, [r1, #-40]	@ zero_extendqisi2
 632 011a FA29     		cmp	r1, #250
 633 011c EFD1     		bne	.L54
 221:.\Protocolo.c ****                 rventa.volumen[y]=(rx_venta[x]&0x0F);
 634              		.loc 1 221 0 is_stmt 0 discriminator 1
 635 011e 262B     		cmp	r3, #38
 636 0120 EDD8     		bhi	.L54
 226:.\Protocolo.c ****             x++;
 637              		.loc 1 226 0 is_stmt 1
 638 0122 013A     		subs	r2, r2, #1
 639              	.LVL89:
 640 0124 2D49     		ldr	r1, .L65
 641 0126 81F8B420 		strb	r2, [r1, #180]
 227:.\Protocolo.c ****             y=1;
 642              		.loc 1 227 0
 643 012a 0133     		adds	r3, r3, #1
 644              	.LVL90:
 645 012c DBB2     		uxtb	r3, r3
 646              	.LVL91:
 228:.\Protocolo.c ****             while((rx_venta[x]!=0xFB)||(x>=39)){
 647              		.loc 1 228 0
 648 012e 0122     		movs	r2, #1
 229:.\Protocolo.c ****                 rventa.dinero[y]=(rx_venta[x]&0x0F);
 649              		.loc 1 229 0
ARM GAS  C:\Users\IN-002~1\AppData\Local\Temp\ccxO8rjh.s 			page 18


 650 0130 09E0     		b	.L55
 651              	.LVL92:
 652              	.L56:
 230:.\Protocolo.c ****                 x++;
 653              		.loc 1 230 0
 654 0132 2A48     		ldr	r0, .L65
 655 0134 1044     		add	r0, r0, r2
 656 0136 01F00F01 		and	r1, r1, #15
 657 013a 80F8AB10 		strb	r1, [r0, #171]
 231:.\Protocolo.c ****                 y++;    
 658              		.loc 1 231 0
 659 013e 0133     		adds	r3, r3, #1
 660              	.LVL93:
 661 0140 DBB2     		uxtb	r3, r3
 662              	.LVL94:
 232:.\Protocolo.c ****             }
 663              		.loc 1 232 0
 664 0142 0132     		adds	r2, r2, #1
 665              	.LVL95:
 666 0144 D2B2     		uxtb	r2, r2
 667              	.LVL96:
 668              	.L55:
 229:.\Protocolo.c ****                 rventa.dinero[y]=(rx_venta[x]&0x0F);
 669              		.loc 1 229 0
 670 0146 0AA9     		add	r1, sp, #40
 671 0148 1944     		add	r1, r1, r3
 672 014a 11F8281C 		ldrb	r1, [r1, #-40]	@ zero_extendqisi2
 673 014e FB29     		cmp	r1, #251
 674 0150 EFD1     		bne	.L56
 229:.\Protocolo.c ****                 rventa.dinero[y]=(rx_venta[x]&0x0F);
 675              		.loc 1 229 0 is_stmt 0 discriminator 1
 676 0152 262B     		cmp	r3, #38
 677 0154 EDD8     		bhi	.L56
 234:.\Protocolo.c ****             x+=2;
 678              		.loc 1 234 0 is_stmt 1
 679 0156 013A     		subs	r2, r2, #1
 680              	.LVL97:
 681 0158 2049     		ldr	r1, .L65
 682 015a 81F8AB20 		strb	r2, [r1, #171]
 235:.\Protocolo.c ****             if((rx_venta[x]==0xF0)&&(x<=38)){								
 683              		.loc 1 235 0
 684 015e 0233     		adds	r3, r3, #2
 685              	.LVL98:
 686 0160 DBB2     		uxtb	r3, r3
 687              	.LVL99:
 236:.\Protocolo.c **** 				if(val==lado.a.dir){
 688              		.loc 1 236 0
 689 0162 0AAA     		add	r2, sp, #40
 690 0164 1A44     		add	r2, r2, r3
 691 0166 12F8282C 		ldrb	r2, [r2, #-40]	@ zero_extendqisi2
 692 016a F02A     		cmp	r2, #240
 693 016c 30D1     		bne	.L62
 236:.\Protocolo.c **** 				if(val==lado.a.dir){
 694              		.loc 1 236 0 is_stmt 0 discriminator 1
 695 016e 262B     		cmp	r3, #38
 696 0170 30D8     		bhi	.L63
 237:.\Protocolo.c **** 					write_eeprom(457,rventa.dinero);
ARM GAS  C:\Users\IN-002~1\AppData\Local\Temp\ccxO8rjh.s 			page 19


 697              		.loc 1 237 0 is_stmt 1
 698 0172 1B4B     		ldr	r3, .L65+4
 699              	.LVL100:
 700 0174 1B78     		ldrb	r3, [r3]	@ zero_extendqisi2
 701 0176 A342     		cmp	r3, r4
 702 0178 13D1     		bne	.L57
 238:.\Protocolo.c **** 					write_eeprom(466,rventa.volumen);
 703              		.loc 1 238 0
 704 017a 01F1AB04 		add	r4, r1, #171
 705 017e 40F2C910 		movw	r0, #457
 706 0182 2146     		mov	r1, r4
 707 0184 FFF7FEFF 		bl	write_eeprom
 708              	.LVL101:
 239:.\Protocolo.c **** 					write_eeprom(475,rventa.ppu);
 709              		.loc 1 239 0
 710 0188 4FF4E970 		mov	r0, #466
 711 018c 04F10901 		add	r1, r4, #9
 712 0190 FFF7FEFF 		bl	write_eeprom
 713              	.LVL102:
 240:.\Protocolo.c **** 				}				
 714              		.loc 1 240 0
 715 0194 40F2DB10 		movw	r0, #475
 716 0198 E11F     		subs	r1, r4, #7
 717 019a FFF7FEFF 		bl	write_eeprom
 718              	.LVL103:
 247:.\Protocolo.c ****             }
 719              		.loc 1 247 0
 720 019e 0120     		movs	r0, #1
 721 01a0 19E0     		b	.L43
 722              	.L57:
 243:.\Protocolo.c **** 					write_eeprom(500,rventa.ppu);
 723              		.loc 1 243 0
 724 01a2 104C     		ldr	r4, .L65+8
 725 01a4 4FF4F170 		mov	r0, #482
 726 01a8 2146     		mov	r1, r4
 727 01aa FFF7FEFF 		bl	write_eeprom
 728              	.LVL104:
 244:.\Protocolo.c **** 					write_eeprom(491,rventa.volumen);				
 729              		.loc 1 244 0
 730 01ae 4FF4FA70 		mov	r0, #500
 731 01b2 E11F     		subs	r1, r4, #7
 732 01b4 FFF7FEFF 		bl	write_eeprom
 733              	.LVL105:
 245:.\Protocolo.c **** 				}
 734              		.loc 1 245 0
 735 01b8 40F2EB10 		movw	r0, #491
 736 01bc 04F10901 		add	r1, r4, #9
 737 01c0 FFF7FEFF 		bl	write_eeprom
 738              	.LVL106:
 247:.\Protocolo.c ****             }
 739              		.loc 1 247 0
 740 01c4 0120     		movs	r0, #1
 741 01c6 06E0     		b	.L43
 742              	.LVL107:
 743              	.L59:
 254:.\Protocolo.c ****         }
 744              		.loc 1 254 0
ARM GAS  C:\Users\IN-002~1\AppData\Local\Temp\ccxO8rjh.s 			page 20


 745 01c8 0020     		movs	r0, #0
 746 01ca 04E0     		b	.L43
 747              	.L60:
 748 01cc 0020     		movs	r0, #0
 749 01ce 02E0     		b	.L43
 750              	.LVL108:
 751              	.L62:
 250:.\Protocolo.c ****             }
 752              		.loc 1 250 0
 753 01d0 0020     		movs	r0, #0
 754 01d2 00E0     		b	.L43
 755              	.L63:
 756 01d4 0020     		movs	r0, #0
 757              	.LVL109:
 758              	.L43:
 259:.\Protocolo.c ****     }
 260:.\Protocolo.c **** }
 759              		.loc 1 260 0
 760 01d6 0BB0     		add	sp, sp, #44
 761              		.cfi_def_cfa_offset 12
 762              		@ sp needed
 763 01d8 30BD     		pop	{r4, r5, pc}
 764              	.L66:
 765 01da 00BF     		.align	2
 766              	.L65:
 767 01dc 00000000 		.word	rventa
 768 01e0 00000000 		.word	lado
 769 01e4 AB000000 		.word	rventa+171
 770              		.cfi_endproc
 771              	.LFE67:
 772              		.size	venta, .-venta
 773              		.section	.text.get_totales,"ax",%progbits
 774              		.align	2
 775              		.global	get_totales
 776              		.thumb
 777              		.thumb_func
 778              		.type	get_totales, %function
 779              	get_totales:
 780              	.LFB68:
 261:.\Protocolo.c **** 
 262:.\Protocolo.c **** /*
 263:.\Protocolo.c **** ***************************************************************************************************
 264:.\Protocolo.c **** *                                         uint8 get_totales(uint8 dir)
 265:.\Protocolo.c **** *
 266:.\Protocolo.c **** * Description : 
 267:.\Protocolo.c **** *               
 268:.\Protocolo.c **** *
 269:.\Protocolo.c **** * Argument(s) : none
 270:.\Protocolo.c **** *
 271:.\Protocolo.c **** * Return(s)   : none
 272:.\Protocolo.c **** *
 273:.\Protocolo.c **** * Caller(s)   : 
 274:.\Protocolo.c **** *
 275:.\Protocolo.c **** * Note(s)     : none.
 276:.\Protocolo.c **** ***************************************************************************************************
 277:.\Protocolo.c **** */
 278:.\Protocolo.c **** uint8 get_totales(uint8 dir,uint8 val){ 
ARM GAS  C:\Users\IN-002~1\AppData\Local\Temp\ccxO8rjh.s 			page 21


 781              		.loc 1 278 0
 782              		.cfi_startproc
 783              		@ args = 0, pretend = 0, frame = 64
 784              		@ frame_needed = 0, uses_anonymous_args = 0
 785              	.LVL110:
 786 0000 70B5     		push	{r4, r5, r6, lr}
 787              		.cfi_def_cfa_offset 16
 788              		.cfi_offset 4, -16
 789              		.cfi_offset 5, -12
 790              		.cfi_offset 6, -8
 791              		.cfi_offset 14, -4
 792 0002 90B0     		sub	sp, sp, #64
 793              		.cfi_def_cfa_offset 80
 794 0004 0546     		mov	r5, r0
 795 0006 0C46     		mov	r4, r1
 279:.\Protocolo.c **** 	uint8 corte[25], minuendo[14],sustraendo[14]; 
 280:.\Protocolo.c ****     Surtidor_PutChar(0x50|dir);
 796              		.loc 1 280 0
 797 0008 40F05000 		orr	r0, r0, #80
 798              	.LVL111:
 799 000c FFF7FEFF 		bl	Surtidor_PutChar
 800              	.LVL112:
 281:.\Protocolo.c **** 
 282:.\Protocolo.c ****     CyDelay(1000);
 801              		.loc 1 282 0
 802 0010 4FF47A70 		mov	r0, #1000
 803 0014 FFF7FEFF 		bl	CyDelay
 804              	.LVL113:
 283:.\Protocolo.c **** 	switch(Surtidor_GetRxBufferSize()){
 805              		.loc 1 283 0
 806 0018 FFF7FEFF 		bl	Surtidor_GetRxBufferSize
 807              	.LVL114:
 808 001c 4028     		cmp	r0, #64
 809 001e 00F01384 		beq	.L69
 810 0022 06D8     		bhi	.L70
 811 0024 2228     		cmp	r0, #34
 812 0026 0FD0     		beq	.L71
 813 0028 2E28     		cmp	r0, #46
 814 002a 01F06184 		beq	.L72
 815 002e 03F0CBB8 		b	.L68
 816              	.L70:
 817 0032 5E28     		cmp	r0, #94
 818 0034 01F03280 		beq	.L73
 819 0038 8228     		cmp	r0, #130
 820 003a 02F09C84 		beq	.L74
 821 003e 5828     		cmp	r0, #88
 822 0040 43F0C280 		bne	.L68
 823 0044 02F071B8 		b	.L75
 824              	.L71:
 284:.\Protocolo.c **** 		case 34:
 285:.\Protocolo.c **** 			if((Surtidor_rxBuffer[0]==0xFF)&&(Surtidor_rxBuffer[1]==0xF6)&&(Surtidor_rxBuffer[33]==0xF0)&&(S
 825              		.loc 1 285 0
 826 0048 9C4B     		ldr	r3, .L592
 827 004a 1B78     		ldrb	r3, [r3]	@ zero_extendqisi2
 828 004c DBB2     		uxtb	r3, r3
 829 004e FF2B     		cmp	r3, #255
 830 0050 43F0CF80 		bne	.L567
ARM GAS  C:\Users\IN-002~1\AppData\Local\Temp\ccxO8rjh.s 			page 22


 831              		.loc 1 285 0 is_stmt 0 discriminator 1
 832 0054 994B     		ldr	r3, .L592
 833 0056 5B78     		ldrb	r3, [r3, #1]	@ zero_extendqisi2
 834 0058 DBB2     		uxtb	r3, r3
 835 005a F62B     		cmp	r3, #246
 836 005c 43F0CB80 		bne	.L568
 837              		.loc 1 285 0 discriminator 2
 838 0060 964B     		ldr	r3, .L592
 839 0062 93F82130 		ldrb	r3, [r3, #33]	@ zero_extendqisi2
 840 0066 DBB2     		uxtb	r3, r3
 841 0068 F02B     		cmp	r3, #240
 842 006a 43F0C680 		bne	.L569
 843              		.loc 1 285 0 discriminator 3
 844 006e 934B     		ldr	r3, .L592
 845 0070 DB78     		ldrb	r3, [r3, #3]	@ zero_extendqisi2
 846 0072 DBB2     		uxtb	r3, r3
 847 0074 F92B     		cmp	r3, #249
 848 0076 43F0C280 		bne	.L570
 286:.\Protocolo.c **** 				rventa.manguera=(Surtidor_rxBuffer[2]&0x0F)+1;			
 849              		.loc 1 286 0 is_stmt 1
 850 007a 904B     		ldr	r3, .L592
 851 007c 9978     		ldrb	r1, [r3, #2]	@ zero_extendqisi2
 852 007e 01F00F01 		and	r1, r1, #15
 853 0082 0131     		adds	r1, r1, #1
 854 0084 8E4B     		ldr	r3, .L592+4
 855 0086 83F8E010 		strb	r1, [r3, #224]
 287:.\Protocolo.c **** 				for(x=0;x<=7;x++){												
 856              		.loc 1 287 0
 857 008a 0022     		movs	r2, #0
 858 008c 8D4B     		ldr	r3, .L592+8
 859 008e 1A60     		str	r2, [r3]
 860 0090 0BE0     		b	.L77
 861              	.L78:
 288:.\Protocolo.c **** 					rventa.tvolumen[x]=(Surtidor_rxBuffer[x+4]&0x0F);
 862              		.loc 1 288 0 discriminator 3
 863 0092 1A1D     		adds	r2, r3, #4
 864 0094 8948     		ldr	r0, .L592
 865 0096 805C     		ldrb	r0, [r0, r2]	@ zero_extendqisi2
 866 0098 894A     		ldr	r2, .L592+4
 867 009a 1A44     		add	r2, r2, r3
 868 009c 00F00F00 		and	r0, r0, #15
 869 00a0 82F8BD00 		strb	r0, [r2, #189]
 287:.\Protocolo.c **** 				for(x=0;x<=7;x++){												
 870              		.loc 1 287 0 discriminator 3
 871 00a4 0133     		adds	r3, r3, #1
 872 00a6 874A     		ldr	r2, .L592+8
 873 00a8 1360     		str	r3, [r2]
 874              	.L77:
 287:.\Protocolo.c **** 				for(x=0;x<=7;x++){												
 875              		.loc 1 287 0 is_stmt 0 discriminator 1
 876 00aa 864B     		ldr	r3, .L592+8
 877 00ac 1B68     		ldr	r3, [r3]
 878 00ae 072B     		cmp	r3, #7
 879 00b0 EFD9     		bls	.L78
 289:.\Protocolo.c **** 				}
 290:.\Protocolo.c **** 				for(x=0;x<=7;x++){
 880              		.loc 1 290 0 is_stmt 1
ARM GAS  C:\Users\IN-002~1\AppData\Local\Temp\ccxO8rjh.s 			page 23


 881 00b2 0022     		movs	r2, #0
 882 00b4 834B     		ldr	r3, .L592+8
 883 00b6 1A60     		str	r2, [r3]
 884 00b8 0CE0     		b	.L79
 885              	.L80:
 291:.\Protocolo.c **** 					rventa.tdinero[x]=(Surtidor_rxBuffer[x+13]&0x0F);
 886              		.loc 1 291 0 discriminator 3
 887 00ba 03F10D02 		add	r2, r3, #13
 888 00be 7F48     		ldr	r0, .L592
 889 00c0 805C     		ldrb	r0, [r0, r2]	@ zero_extendqisi2
 890 00c2 7F4A     		ldr	r2, .L592+4
 891 00c4 1A44     		add	r2, r2, r3
 892 00c6 00F00F00 		and	r0, r0, #15
 893 00ca 82F8CA00 		strb	r0, [r2, #202]
 290:.\Protocolo.c **** 					rventa.tdinero[x]=(Surtidor_rxBuffer[x+13]&0x0F);
 894              		.loc 1 290 0 discriminator 3
 895 00ce 0133     		adds	r3, r3, #1
 896 00d0 7C4A     		ldr	r2, .L592+8
 897 00d2 1360     		str	r3, [r2]
 898              	.L79:
 290:.\Protocolo.c **** 					rventa.tdinero[x]=(Surtidor_rxBuffer[x+13]&0x0F);
 899              		.loc 1 290 0 is_stmt 0 discriminator 1
 900 00d4 7B4B     		ldr	r3, .L592+8
 901 00d6 1B68     		ldr	r3, [r3]
 902 00d8 072B     		cmp	r3, #7
 903 00da EED9     		bls	.L80
 292:.\Protocolo.c **** 				}
 293:.\Protocolo.c **** 				for(z=0;z<=7;z++){
 904              		.loc 1 293 0 is_stmt 1
 905 00dc 0022     		movs	r2, #0
 906 00de 7A4B     		ldr	r3, .L592+12
 907 00e0 1A60     		str	r2, [r3]
 908 00e2 0AE0     		b	.L81
 909              	.L82:
 294:.\Protocolo.c **** 					corte[z+1]=rventa.tvolumen[z];
 910              		.loc 1 294 0 discriminator 3
 911 00e4 5A1C     		adds	r2, r3, #1
 912 00e6 7648     		ldr	r0, .L592+4
 913 00e8 0344     		add	r3, r3, r0
 914 00ea 93F8BD00 		ldrb	r0, [r3, #189]	@ zero_extendqisi2
 915 00ee 10AB     		add	r3, sp, #64
 916 00f0 1344     		add	r3, r3, r2
 917 00f2 03F81C0C 		strb	r0, [r3, #-28]
 293:.\Protocolo.c **** 					corte[z+1]=rventa.tvolumen[z];
 918              		.loc 1 293 0 discriminator 3
 919 00f6 744B     		ldr	r3, .L592+12
 920 00f8 1A60     		str	r2, [r3]
 921              	.L81:
 293:.\Protocolo.c **** 					corte[z+1]=rventa.tvolumen[z];
 922              		.loc 1 293 0 is_stmt 0 discriminator 1
 923 00fa 734B     		ldr	r3, .L592+12
 924 00fc 1B68     		ldr	r3, [r3]
 925 00fe 072B     		cmp	r3, #7
 926 0100 F0D9     		bls	.L82
 295:.\Protocolo.c **** 				}
 296:.\Protocolo.c **** 				for(z=9;z<=16;z++){
 927              		.loc 1 296 0 is_stmt 1
ARM GAS  C:\Users\IN-002~1\AppData\Local\Temp\ccxO8rjh.s 			page 24


 928 0102 0922     		movs	r2, #9
 929 0104 704B     		ldr	r3, .L592+12
 930 0106 1A60     		str	r2, [r3]
 931 0108 0AE0     		b	.L83
 932              	.L84:
 297:.\Protocolo.c **** 					corte[z]=rventa.tdinero[z-9];
 933              		.loc 1 297 0 discriminator 3
 934 010a 704A     		ldr	r2, .L592+16
 935 010c 1A44     		add	r2, r2, r3
 936 010e 92F8CA00 		ldrb	r0, [r2, #202]	@ zero_extendqisi2
 937 0112 10AA     		add	r2, sp, #64
 938 0114 1A44     		add	r2, r2, r3
 939 0116 02F81C0C 		strb	r0, [r2, #-28]
 296:.\Protocolo.c **** 					corte[z]=rventa.tdinero[z-9];
 940              		.loc 1 296 0 discriminator 3
 941 011a 0133     		adds	r3, r3, #1
 942 011c 6A4A     		ldr	r2, .L592+12
 943 011e 1360     		str	r3, [r2]
 944              	.L83:
 296:.\Protocolo.c **** 					corte[z]=rventa.tdinero[z-9];
 945              		.loc 1 296 0 is_stmt 0 discriminator 1
 946 0120 694B     		ldr	r3, .L592+12
 947 0122 1B68     		ldr	r3, [r3]
 948 0124 102B     		cmp	r3, #16
 949 0126 F0D9     		bls	.L84
 298:.\Protocolo.c **** 				}
 299:.\Protocolo.c **** 				corte[0]=16;				
 950              		.loc 1 299 0 is_stmt 1
 951 0128 1023     		movs	r3, #16
 952 012a 8DF82430 		strb	r3, [sp, #36]
 300:.\Protocolo.c **** 				if(((rventa.manguera==(corriente&0x0F))&&(dir==lado.a.dir))||((rventa.manguera==(corriente2&0x0
 953              		.loc 1 300 0
 954 012e 684B     		ldr	r3, .L592+20
 955 0130 1B78     		ldrb	r3, [r3]	@ zero_extendqisi2
 956 0132 03F00F03 		and	r3, r3, #15
 957 0136 9942     		cmp	r1, r3
 958 0138 03D1     		bne	.L85
 959              		.loc 1 300 0 is_stmt 0 discriminator 1
 960 013a 664B     		ldr	r3, .L592+24
 961 013c 1B78     		ldrb	r3, [r3]	@ zero_extendqisi2
 962 013e AB42     		cmp	r3, r5
 963 0140 0BD0     		beq	.L86
 964              	.L85:
 965              		.loc 1 300 0 discriminator 3
 966 0142 654B     		ldr	r3, .L592+28
 967 0144 1B78     		ldrb	r3, [r3]	@ zero_extendqisi2
 968 0146 03F00F03 		and	r3, r3, #15
 969 014a 9942     		cmp	r1, r3
 970 014c 40F0DA80 		bne	.L87
 971              		.loc 1 300 0 discriminator 4
 972 0150 604B     		ldr	r3, .L592+24
 973 0152 1B79     		ldrb	r3, [r3, #4]	@ zero_extendqisi2
 974 0154 AB42     		cmp	r3, r5
 975 0156 40F0D580 		bne	.L87
 976              	.L86:
 301:.\Protocolo.c **** 					for(x=0;x<=5;x++){									
 977              		.loc 1 301 0 is_stmt 1
ARM GAS  C:\Users\IN-002~1\AppData\Local\Temp\ccxO8rjh.s 			page 25


 978 015a 0022     		movs	r2, #0
 979 015c 594B     		ldr	r3, .L592+8
 980 015e 1A60     		str	r2, [r3]
 981 0160 08E0     		b	.L88
 982              	.L89:
 302:.\Protocolo.c **** 						write_psoc1(val,msn_tc[x]);
 983              		.loc 1 302 0 discriminator 3
 984 0162 2046     		mov	r0, r4
 985 0164 5D4A     		ldr	r2, .L592+32
 986 0166 D15C     		ldrb	r1, [r2, r3]	@ zero_extendqisi2
 987 0168 FFF7FEFF 		bl	write_psoc1
 988              	.LVL115:
 301:.\Protocolo.c **** 					for(x=0;x<=5;x++){									
 989              		.loc 1 301 0 discriminator 3
 990 016c 554A     		ldr	r2, .L592+8
 991 016e 1368     		ldr	r3, [r2]
 992 0170 0133     		adds	r3, r3, #1
 993 0172 1360     		str	r3, [r2]
 994              	.L88:
 301:.\Protocolo.c **** 					for(x=0;x<=5;x++){									
 995              		.loc 1 301 0 is_stmt 0 discriminator 1
 996 0174 534B     		ldr	r3, .L592+8
 997 0176 1B68     		ldr	r3, [r3]
 998 0178 052B     		cmp	r3, #5
 999 017a F2D9     		bls	.L89
 303:.\Protocolo.c **** 					}
 304:.\Protocolo.c **** 					write_psoc1(val,10);
 1000              		.loc 1 304 0 is_stmt 1
 1001 017c 2046     		mov	r0, r4
 1002 017e 0A21     		movs	r1, #10
 1003 0180 FFF7FEFF 		bl	write_psoc1
 1004              	.LVL116:
 305:.\Protocolo.c ****                     for(x=0;x<=10;x++){									
 1005              		.loc 1 305 0
 1006 0184 0022     		movs	r2, #0
 1007 0186 4F4B     		ldr	r3, .L592+8
 1008 0188 1A60     		str	r2, [r3]
 1009 018a 08E0     		b	.L90
 1010              	.L91:
 306:.\Protocolo.c **** 						write_psoc1(val,producto1n[x]);
 1011              		.loc 1 306 0 discriminator 3
 1012 018c 2046     		mov	r0, r4
 1013 018e 544A     		ldr	r2, .L592+36
 1014 0190 D15C     		ldrb	r1, [r2, r3]	@ zero_extendqisi2
 1015 0192 FFF7FEFF 		bl	write_psoc1
 1016              	.LVL117:
 305:.\Protocolo.c ****                     for(x=0;x<=10;x++){									
 1017              		.loc 1 305 0 discriminator 3
 1018 0196 4B4A     		ldr	r2, .L592+8
 1019 0198 1368     		ldr	r3, [r2]
 1020 019a 0133     		adds	r3, r3, #1
 1021 019c 1360     		str	r3, [r2]
 1022              	.L90:
 305:.\Protocolo.c ****                     for(x=0;x<=10;x++){									
 1023              		.loc 1 305 0 is_stmt 0 discriminator 1
 1024 019e 494B     		ldr	r3, .L592+8
 1025 01a0 1B68     		ldr	r3, [r3]
ARM GAS  C:\Users\IN-002~1\AppData\Local\Temp\ccxO8rjh.s 			page 26


 1026 01a2 0A2B     		cmp	r3, #10
 1027 01a4 F2D9     		bls	.L91
 307:.\Protocolo.c **** 					}
 308:.\Protocolo.c ****                     write_psoc1(val,10);
 1028              		.loc 1 308 0 is_stmt 1
 1029 01a6 2046     		mov	r0, r4
 1030 01a8 0A21     		movs	r1, #10
 1031 01aa FFF7FEFF 		bl	write_psoc1
 1032              	.LVL118:
 309:.\Protocolo.c **** 					for(x=0;x<=14;x++){									
 1033              		.loc 1 309 0
 1034 01ae 0022     		movs	r2, #0
 1035 01b0 444B     		ldr	r3, .L592+8
 1036 01b2 1A60     		str	r2, [r3]
 1037 01b4 09E0     		b	.L92
 1038              	.L93:
 310:.\Protocolo.c **** 						write_psoc1(val,msn_lecact[x]);				//LECTURA ACTUAL
 1039              		.loc 1 310 0 discriminator 3
 1040 01b6 494A     		ldr	r2, .L592+32
 1041 01b8 1344     		add	r3, r3, r2
 1042 01ba 2046     		mov	r0, r4
 1043 01bc 197A     		ldrb	r1, [r3, #8]	@ zero_extendqisi2
 1044 01be FFF7FEFF 		bl	write_psoc1
 1045              	.LVL119:
 309:.\Protocolo.c **** 					for(x=0;x<=14;x++){									
 1046              		.loc 1 309 0 discriminator 3
 1047 01c2 404A     		ldr	r2, .L592+8
 1048 01c4 1368     		ldr	r3, [r2]
 1049 01c6 0133     		adds	r3, r3, #1
 1050 01c8 1360     		str	r3, [r2]
 1051              	.L92:
 309:.\Protocolo.c **** 					for(x=0;x<=14;x++){									
 1052              		.loc 1 309 0 is_stmt 0 discriminator 1
 1053 01ca 3E4B     		ldr	r3, .L592+8
 1054 01cc 1B68     		ldr	r3, [r3]
 1055 01ce 0E2B     		cmp	r3, #14
 1056 01d0 F1D9     		bls	.L93
 311:.\Protocolo.c **** 					}
 312:.\Protocolo.c **** 					write_psoc1(val,10);
 1057              		.loc 1 312 0 is_stmt 1
 1058 01d2 2046     		mov	r0, r4
 1059 01d4 0A21     		movs	r1, #10
 1060 01d6 FFF7FEFF 		bl	write_psoc1
 1061              	.LVL120:
 313:.\Protocolo.c **** 					print_totalesac(8,val);	
 1062              		.loc 1 313 0
 1063 01da 0820     		movs	r0, #8
 1064 01dc 2146     		mov	r1, r4
 1065 01de FFF7FEFF 		bl	print_totalesac
 1066              	.LVL121:
 314:.\Protocolo.c **** 					for(x=0;x<=16;x++){												
 1067              		.loc 1 314 0
 1068 01e2 0022     		movs	r2, #0
 1069 01e4 374B     		ldr	r3, .L592+8
 1070 01e6 1A60     		str	r2, [r3]
 1071 01e8 09E0     		b	.L94
 1072              	.L95:
ARM GAS  C:\Users\IN-002~1\AppData\Local\Temp\ccxO8rjh.s 			page 27


 315:.\Protocolo.c **** 						write_psoc1(val,msn_lecaan[x]);				//LECTURA ANTERIOR
 1073              		.loc 1 315 0 discriminator 3
 1074 01ea 3C4A     		ldr	r2, .L592+32
 1075 01ec 1344     		add	r3, r3, r2
 1076 01ee 2046     		mov	r0, r4
 1077 01f0 197E     		ldrb	r1, [r3, #24]	@ zero_extendqisi2
 1078 01f2 FFF7FEFF 		bl	write_psoc1
 1079              	.LVL122:
 314:.\Protocolo.c **** 					for(x=0;x<=16;x++){												
 1080              		.loc 1 314 0 discriminator 3
 1081 01f6 334A     		ldr	r2, .L592+8
 1082 01f8 1368     		ldr	r3, [r2]
 1083 01fa 0133     		adds	r3, r3, #1
 1084 01fc 1360     		str	r3, [r2]
 1085              	.L94:
 314:.\Protocolo.c **** 					for(x=0;x<=16;x++){												
 1086              		.loc 1 314 0 is_stmt 0 discriminator 1
 1087 01fe 314B     		ldr	r3, .L592+8
 1088 0200 1B68     		ldr	r3, [r3]
 1089 0202 102B     		cmp	r3, #16
 1090 0204 F1D9     		bls	.L95
 316:.\Protocolo.c **** 					}
 317:.\Protocolo.c **** 					write_psoc1(val,10);
 1091              		.loc 1 317 0 is_stmt 1
 1092 0206 2046     		mov	r0, r4
 1093 0208 0A21     		movs	r1, #10
 1094 020a FFF7FEFF 		bl	write_psoc1
 1095              	.LVL123:
 318:.\Protocolo.c **** 					if(dir==lado.a.dir){
 1096              		.loc 1 318 0
 1097 020e 314B     		ldr	r3, .L592+24
 1098 0210 1B78     		ldrb	r3, [r3]	@ zero_extendqisi2
 1099 0212 AB42     		cmp	r3, r5
 1100 0214 04D1     		bne	.L96
 319:.\Protocolo.c **** 						leer_eeprom(192,25);
 1101              		.loc 1 319 0
 1102 0216 C020     		movs	r0, #192
 1103 0218 1921     		movs	r1, #25
 1104 021a FFF7FEFF 		bl	leer_eeprom
 1105              	.LVL124:
 1106 021e 04E0     		b	.L97
 1107              	.L96:
 320:.\Protocolo.c **** 					}
 321:.\Protocolo.c **** 					else{
 322:.\Protocolo.c **** 						leer_eeprom(281,25);
 1108              		.loc 1 322 0
 1109 0220 40F21910 		movw	r0, #281
 1110 0224 1921     		movs	r1, #25
 1111 0226 FFF7FEFF 		bl	leer_eeprom
 1112              	.LVL125:
 1113              	.L97:
 323:.\Protocolo.c **** 					}
 324:.\Protocolo.c **** 					print_totales(val);
 1114              		.loc 1 324 0
 1115 022a 2046     		mov	r0, r4
 1116 022c FFF7FEFF 		bl	print_totales
 1117              	.LVL126:
ARM GAS  C:\Users\IN-002~1\AppData\Local\Temp\ccxO8rjh.s 			page 28


 325:.\Protocolo.c **** 					for(z=1;z<=8;z++){
 1118              		.loc 1 325 0
 1119 0230 0122     		movs	r2, #1
 1120 0232 254B     		ldr	r3, .L592+12
 1121 0234 1A60     		str	r2, [r3]
 1122 0236 10E0     		b	.L98
 1123              	.L99:
 326:.\Protocolo.c **** 						minuendo[z]=rventa.tdinero[z-1];
 1124              		.loc 1 326 0 discriminator 3
 1125 0238 2A4A     		ldr	r2, .L592+40
 1126 023a 1A44     		add	r2, r2, r3
 1127 023c 92F8CA10 		ldrb	r1, [r2, #202]	@ zero_extendqisi2
 1128 0240 10AA     		add	r2, sp, #64
 1129 0242 1A44     		add	r2, r2, r3
 1130 0244 02F82C1C 		strb	r1, [r2, #-44]
 327:.\Protocolo.c **** 						sustraendo[z]=buffer_i2c[z+8];
 1131              		.loc 1 327 0 discriminator 3
 1132 0248 03F10801 		add	r1, r3, #8
 1133 024c 2648     		ldr	r0, .L592+44
 1134 024e 415C     		ldrb	r1, [r0, r1]	@ zero_extendqisi2
 1135 0250 02F83C1C 		strb	r1, [r2, #-60]
 325:.\Protocolo.c **** 					for(z=1;z<=8;z++){
 1136              		.loc 1 325 0 discriminator 3
 1137 0254 0133     		adds	r3, r3, #1
 1138 0256 1C4A     		ldr	r2, .L592+12
 1139 0258 1360     		str	r3, [r2]
 1140              	.L98:
 325:.\Protocolo.c **** 					for(z=1;z<=8;z++){
 1141              		.loc 1 325 0 is_stmt 0 discriminator 1
 1142 025a 1B4B     		ldr	r3, .L592+12
 1143 025c 1B68     		ldr	r3, [r3]
 1144 025e 082B     		cmp	r3, #8
 1145 0260 EAD9     		bls	.L99
 328:.\Protocolo.c **** 					}
 329:.\Protocolo.c **** 					minuendo[0]=8;
 1146              		.loc 1 329 0 is_stmt 1
 1147 0262 10A9     		add	r1, sp, #64
 1148 0264 0823     		movs	r3, #8
 1149 0266 01F82C3D 		strb	r3, [r1, #-44]!
 330:.\Protocolo.c **** 					operacion(2,minuendo,sustraendo);
 1150              		.loc 1 330 0
 1151 026a 0220     		movs	r0, #2
 1152 026c 01AA     		add	r2, sp, #4
 1153 026e FFF7FEFF 		bl	operacion
 1154              	.LVL127:
 331:.\Protocolo.c **** 					for(x=0;x<=17;x++){									
 1155              		.loc 1 331 0
 1156 0272 0022     		movs	r2, #0
 1157 0274 134B     		ldr	r3, .L592+8
 1158 0276 1A60     		str	r2, [r3]
 1159 0278 0AE0     		b	.L100
 1160              	.L101:
 332:.\Protocolo.c **** 						write_psoc1(val,msn_tventas[x]);				//Total de ventas
 1161              		.loc 1 332 0 discriminator 3
 1162 027a 184A     		ldr	r2, .L592+32
 1163 027c 1344     		add	r3, r3, r2
 1164 027e 2046     		mov	r0, r4
ARM GAS  C:\Users\IN-002~1\AppData\Local\Temp\ccxO8rjh.s 			page 29


 1165 0280 93F82C10 		ldrb	r1, [r3, #44]	@ zero_extendqisi2
 1166 0284 FFF7FEFF 		bl	write_psoc1
 1167              	.LVL128:
 331:.\Protocolo.c **** 					for(x=0;x<=17;x++){									
 1168              		.loc 1 331 0 discriminator 3
 1169 0288 0E4A     		ldr	r2, .L592+8
 1170 028a 1368     		ldr	r3, [r2]
 1171 028c 0133     		adds	r3, r3, #1
 1172 028e 1360     		str	r3, [r2]
 1173              	.L100:
 331:.\Protocolo.c **** 					for(x=0;x<=17;x++){									
 1174              		.loc 1 331 0 is_stmt 0 discriminator 1
 1175 0290 0C4B     		ldr	r3, .L592+8
 1176 0292 1B68     		ldr	r3, [r3]
 1177 0294 112B     		cmp	r3, #17
 1178 0296 F0D9     		bls	.L101
 333:.\Protocolo.c **** 					}
 334:.\Protocolo.c **** 					print_valor(resultado,val);
 1179              		.loc 1 334 0 is_stmt 1
 1180 0298 1448     		ldr	r0, .L592+48
 1181 029a 2146     		mov	r1, r4
 1182 029c FFF7FEFF 		bl	print_valor
 1183              	.LVL129:
 335:.\Protocolo.c **** 					if(dir==lado.a.dir){
 1184              		.loc 1 335 0
 1185 02a0 0C4B     		ldr	r3, .L592+24
 1186 02a2 1B78     		ldrb	r3, [r3]	@ zero_extendqisi2
 1187 02a4 AB42     		cmp	r3, r5
 1188 02a6 23D1     		bne	.L102
 336:.\Protocolo.c **** 						write_eeprom(192,corte);	
 1189              		.loc 1 336 0
 1190 02a8 C020     		movs	r0, #192
 1191 02aa 09A9     		add	r1, sp, #36
 1192 02ac FFF7FEFF 		bl	write_eeprom
 1193              	.LVL130:
 337:.\Protocolo.c **** 						write_eeprom(512,resultado);
 1194              		.loc 1 337 0
 1195 02b0 4FF40070 		mov	r0, #512
 1196 02b4 0D49     		ldr	r1, .L592+48
 1197 02b6 FFF7FEFF 		bl	write_eeprom
 1198              	.LVL131:
 1199 02ba 23E0     		b	.L87
 1200              	.L593:
 1201              		.align	2
 1202              	.L592:
 1203 02bc 00000000 		.word	Surtidor_rxBuffer
 1204 02c0 00000000 		.word	rventa
 1205 02c4 00000000 		.word	x
 1206 02c8 00000000 		.word	z
 1207 02cc F7FFFFFF 		.word	rventa-9
 1208 02d0 00000000 		.word	corriente
 1209 02d4 00000000 		.word	lado
 1210 02d8 00000000 		.word	corriente2
 1211 02dc 00000000 		.word	.LANCHOR1
 1212 02e0 00000000 		.word	producto1n
 1213 02e4 FFFFFFFF 		.word	rventa-1
 1214 02e8 00000000 		.word	buffer_i2c
ARM GAS  C:\Users\IN-002~1\AppData\Local\Temp\ccxO8rjh.s 			page 30


 1215 02ec 00000000 		.word	resultado
 1216              	.L102:
 338:.\Protocolo.c **** 					}
 339:.\Protocolo.c **** 					else{
 340:.\Protocolo.c **** 						write_eeprom(281,corte);
 1217              		.loc 1 340 0
 1218 02f0 40F21910 		movw	r0, #281
 1219 02f4 09A9     		add	r1, sp, #36
 1220 02f6 FFF7FEFF 		bl	write_eeprom
 1221              	.LVL132:
 341:.\Protocolo.c **** 						write_eeprom(551,resultado);
 1222              		.loc 1 341 0
 1223 02fa 40F22720 		movw	r0, #551
 1224 02fe B049     		ldr	r1, .L594
 1225 0300 FFF7FEFF 		bl	write_eeprom
 1226              	.LVL133:
 1227              	.L87:
 342:.\Protocolo.c **** 					}
 343:.\Protocolo.c **** 				}
 344:.\Protocolo.c **** 				if(((rventa.manguera==(diesel&0x0F))&&(dir==lado.a.dir))||((rventa.manguera==(diesel2&0x0F))&&(
 1228              		.loc 1 344 0
 1229 0304 AF4B     		ldr	r3, .L594+4
 1230 0306 93F8E020 		ldrb	r2, [r3, #224]	@ zero_extendqisi2
 1231 030a AF4B     		ldr	r3, .L594+8
 1232 030c 1B78     		ldrb	r3, [r3]	@ zero_extendqisi2
 1233 030e 03F00F03 		and	r3, r3, #15
 1234 0312 9342     		cmp	r3, r2
 1235 0314 03D1     		bne	.L103
 1236              		.loc 1 344 0 is_stmt 0 discriminator 1
 1237 0316 AD4B     		ldr	r3, .L594+12
 1238 0318 1B78     		ldrb	r3, [r3]	@ zero_extendqisi2
 1239 031a AB42     		cmp	r3, r5
 1240 031c 0BD0     		beq	.L104
 1241              	.L103:
 1242              		.loc 1 344 0 discriminator 3
 1243 031e AC4B     		ldr	r3, .L594+16
 1244 0320 1B78     		ldrb	r3, [r3]	@ zero_extendqisi2
 1245 0322 03F00F03 		and	r3, r3, #15
 1246 0326 9A42     		cmp	r2, r3
 1247 0328 40F0C080 		bne	.L105
 1248              		.loc 1 344 0 discriminator 4
 1249 032c A74B     		ldr	r3, .L594+12
 1250 032e 1B79     		ldrb	r3, [r3, #4]	@ zero_extendqisi2
 1251 0330 AB42     		cmp	r3, r5
 1252 0332 40F0BB80 		bne	.L105
 1253              	.L104:
 345:.\Protocolo.c **** 					for(x=0;x<=5;x++){									
 1254              		.loc 1 345 0 is_stmt 1
 1255 0336 0022     		movs	r2, #0
 1256 0338 A64B     		ldr	r3, .L594+20
 1257 033a 1A60     		str	r2, [r3]
 1258 033c 08E0     		b	.L106
 1259              	.L107:
 346:.\Protocolo.c **** 						write_psoc1(val,msn_tc[x]);
 1260              		.loc 1 346 0 discriminator 3
 1261 033e 2046     		mov	r0, r4
 1262 0340 A54A     		ldr	r2, .L594+24
ARM GAS  C:\Users\IN-002~1\AppData\Local\Temp\ccxO8rjh.s 			page 31


 1263 0342 D15C     		ldrb	r1, [r2, r3]	@ zero_extendqisi2
 1264 0344 FFF7FEFF 		bl	write_psoc1
 1265              	.LVL134:
 345:.\Protocolo.c **** 					for(x=0;x<=5;x++){									
 1266              		.loc 1 345 0 discriminator 3
 1267 0348 A24A     		ldr	r2, .L594+20
 1268 034a 1368     		ldr	r3, [r2]
 1269 034c 0133     		adds	r3, r3, #1
 1270 034e 1360     		str	r3, [r2]
 1271              	.L106:
 345:.\Protocolo.c **** 					for(x=0;x<=5;x++){									
 1272              		.loc 1 345 0 is_stmt 0 discriminator 1
 1273 0350 A04B     		ldr	r3, .L594+20
 1274 0352 1B68     		ldr	r3, [r3]
 1275 0354 052B     		cmp	r3, #5
 1276 0356 F2D9     		bls	.L107
 347:.\Protocolo.c **** 					}
 348:.\Protocolo.c **** 					write_psoc1(val,10);
 1277              		.loc 1 348 0 is_stmt 1
 1278 0358 2046     		mov	r0, r4
 1279 035a 0A21     		movs	r1, #10
 1280 035c FFF7FEFF 		bl	write_psoc1
 1281              	.LVL135:
 349:.\Protocolo.c ****                     for(x=0;x<=10;x++){									
 1282              		.loc 1 349 0
 1283 0360 0022     		movs	r2, #0
 1284 0362 9C4B     		ldr	r3, .L594+20
 1285 0364 1A60     		str	r2, [r3]
 1286 0366 08E0     		b	.L108
 1287              	.L109:
 350:.\Protocolo.c **** 						write_psoc1(val,producto2n[x]);
 1288              		.loc 1 350 0 discriminator 3
 1289 0368 2046     		mov	r0, r4
 1290 036a 9C4A     		ldr	r2, .L594+28
 1291 036c D15C     		ldrb	r1, [r2, r3]	@ zero_extendqisi2
 1292 036e FFF7FEFF 		bl	write_psoc1
 1293              	.LVL136:
 349:.\Protocolo.c ****                     for(x=0;x<=10;x++){									
 1294              		.loc 1 349 0 discriminator 3
 1295 0372 984A     		ldr	r2, .L594+20
 1296 0374 1368     		ldr	r3, [r2]
 1297 0376 0133     		adds	r3, r3, #1
 1298 0378 1360     		str	r3, [r2]
 1299              	.L108:
 349:.\Protocolo.c ****                     for(x=0;x<=10;x++){									
 1300              		.loc 1 349 0 is_stmt 0 discriminator 1
 1301 037a 964B     		ldr	r3, .L594+20
 1302 037c 1B68     		ldr	r3, [r3]
 1303 037e 0A2B     		cmp	r3, #10
 1304 0380 F2D9     		bls	.L109
 351:.\Protocolo.c **** 					}                    
 352:.\Protocolo.c **** 					write_psoc1(val,10);
 1305              		.loc 1 352 0 is_stmt 1
 1306 0382 2046     		mov	r0, r4
 1307 0384 0A21     		movs	r1, #10
 1308 0386 FFF7FEFF 		bl	write_psoc1
 1309              	.LVL137:
ARM GAS  C:\Users\IN-002~1\AppData\Local\Temp\ccxO8rjh.s 			page 32


 353:.\Protocolo.c **** 					for(x=0;x<=14;x++){									
 1310              		.loc 1 353 0
 1311 038a 0022     		movs	r2, #0
 1312 038c 914B     		ldr	r3, .L594+20
 1313 038e 1A60     		str	r2, [r3]
 1314 0390 09E0     		b	.L110
 1315              	.L111:
 354:.\Protocolo.c **** 						write_psoc1(val,msn_lecact[x]);				//LECTURA ACTUAL
 1316              		.loc 1 354 0 discriminator 3
 1317 0392 914A     		ldr	r2, .L594+24
 1318 0394 1344     		add	r3, r3, r2
 1319 0396 2046     		mov	r0, r4
 1320 0398 197A     		ldrb	r1, [r3, #8]	@ zero_extendqisi2
 1321 039a FFF7FEFF 		bl	write_psoc1
 1322              	.LVL138:
 353:.\Protocolo.c **** 					for(x=0;x<=14;x++){									
 1323              		.loc 1 353 0 discriminator 3
 1324 039e 8D4A     		ldr	r2, .L594+20
 1325 03a0 1368     		ldr	r3, [r2]
 1326 03a2 0133     		adds	r3, r3, #1
 1327 03a4 1360     		str	r3, [r2]
 1328              	.L110:
 353:.\Protocolo.c **** 					for(x=0;x<=14;x++){									
 1329              		.loc 1 353 0 is_stmt 0 discriminator 1
 1330 03a6 8B4B     		ldr	r3, .L594+20
 1331 03a8 1B68     		ldr	r3, [r3]
 1332 03aa 0E2B     		cmp	r3, #14
 1333 03ac F1D9     		bls	.L111
 355:.\Protocolo.c **** 					}
 356:.\Protocolo.c **** 					write_psoc1(val,10);
 1334              		.loc 1 356 0 is_stmt 1
 1335 03ae 2046     		mov	r0, r4
 1336 03b0 0A21     		movs	r1, #10
 1337 03b2 FFF7FEFF 		bl	write_psoc1
 1338              	.LVL139:
 357:.\Protocolo.c **** 					print_totalesac(8,val);	
 1339              		.loc 1 357 0
 1340 03b6 0820     		movs	r0, #8
 1341 03b8 2146     		mov	r1, r4
 1342 03ba FFF7FEFF 		bl	print_totalesac
 1343              	.LVL140:
 358:.\Protocolo.c **** 					for(x=0;x<=16;x++){												
 1344              		.loc 1 358 0
 1345 03be 0022     		movs	r2, #0
 1346 03c0 844B     		ldr	r3, .L594+20
 1347 03c2 1A60     		str	r2, [r3]
 1348 03c4 09E0     		b	.L112
 1349              	.L113:
 359:.\Protocolo.c **** 						write_psoc1(val,msn_lecaan[x]);				//LECTURA ANTERIOR
 1350              		.loc 1 359 0 discriminator 3
 1351 03c6 844A     		ldr	r2, .L594+24
 1352 03c8 1344     		add	r3, r3, r2
 1353 03ca 2046     		mov	r0, r4
 1354 03cc 197E     		ldrb	r1, [r3, #24]	@ zero_extendqisi2
 1355 03ce FFF7FEFF 		bl	write_psoc1
 1356              	.LVL141:
 358:.\Protocolo.c **** 					for(x=0;x<=16;x++){												
ARM GAS  C:\Users\IN-002~1\AppData\Local\Temp\ccxO8rjh.s 			page 33


 1357              		.loc 1 358 0 discriminator 3
 1358 03d2 804A     		ldr	r2, .L594+20
 1359 03d4 1368     		ldr	r3, [r2]
 1360 03d6 0133     		adds	r3, r3, #1
 1361 03d8 1360     		str	r3, [r2]
 1362              	.L112:
 358:.\Protocolo.c **** 					for(x=0;x<=16;x++){												
 1363              		.loc 1 358 0 is_stmt 0 discriminator 1
 1364 03da 7E4B     		ldr	r3, .L594+20
 1365 03dc 1B68     		ldr	r3, [r3]
 1366 03de 102B     		cmp	r3, #16
 1367 03e0 F1D9     		bls	.L113
 360:.\Protocolo.c **** 					}
 361:.\Protocolo.c **** 					write_psoc1(val,10);
 1368              		.loc 1 361 0 is_stmt 1
 1369 03e2 2046     		mov	r0, r4
 1370 03e4 0A21     		movs	r1, #10
 1371 03e6 FFF7FEFF 		bl	write_psoc1
 1372              	.LVL142:
 362:.\Protocolo.c **** 					if(dir==lado.a.dir){
 1373              		.loc 1 362 0
 1374 03ea 784B     		ldr	r3, .L594+12
 1375 03ec 1B78     		ldrb	r3, [r3]	@ zero_extendqisi2
 1376 03ee AB42     		cmp	r3, r5
 1377 03f0 04D1     		bne	.L114
 363:.\Protocolo.c **** 						leer_eeprom(217,25);
 1378              		.loc 1 363 0
 1379 03f2 D920     		movs	r0, #217
 1380 03f4 1921     		movs	r1, #25
 1381 03f6 FFF7FEFF 		bl	leer_eeprom
 1382              	.LVL143:
 1383 03fa 04E0     		b	.L115
 1384              	.L114:
 364:.\Protocolo.c **** 					}
 365:.\Protocolo.c **** 					else{
 366:.\Protocolo.c **** 						leer_eeprom(320,25);
 1385              		.loc 1 366 0
 1386 03fc 4FF4A070 		mov	r0, #320
 1387 0400 1921     		movs	r1, #25
 1388 0402 FFF7FEFF 		bl	leer_eeprom
 1389              	.LVL144:
 1390              	.L115:
 367:.\Protocolo.c **** 					}
 368:.\Protocolo.c **** 					print_totales(val);
 1391              		.loc 1 368 0
 1392 0406 2046     		mov	r0, r4
 1393 0408 FFF7FEFF 		bl	print_totales
 1394              	.LVL145:
 369:.\Protocolo.c **** 					for(z=1;z<=8;z++){
 1395              		.loc 1 369 0
 1396 040c 0122     		movs	r2, #1
 1397 040e 744B     		ldr	r3, .L594+32
 1398 0410 1A60     		str	r2, [r3]
 1399 0412 10E0     		b	.L116
 1400              	.L117:
 370:.\Protocolo.c **** 						minuendo[z]=rventa.tdinero[z-1];
 1401              		.loc 1 370 0 discriminator 3
ARM GAS  C:\Users\IN-002~1\AppData\Local\Temp\ccxO8rjh.s 			page 34


 1402 0414 734A     		ldr	r2, .L594+36
 1403 0416 1A44     		add	r2, r2, r3
 1404 0418 92F8CA10 		ldrb	r1, [r2, #202]	@ zero_extendqisi2
 1405 041c 10AA     		add	r2, sp, #64
 1406 041e 1A44     		add	r2, r2, r3
 1407 0420 02F82C1C 		strb	r1, [r2, #-44]
 371:.\Protocolo.c **** 						sustraendo[z]=buffer_i2c[z+8];
 1408              		.loc 1 371 0 discriminator 3
 1409 0424 03F10801 		add	r1, r3, #8
 1410 0428 6F48     		ldr	r0, .L594+40
 1411 042a 415C     		ldrb	r1, [r0, r1]	@ zero_extendqisi2
 1412 042c 02F83C1C 		strb	r1, [r2, #-60]
 369:.\Protocolo.c **** 					for(z=1;z<=8;z++){
 1413              		.loc 1 369 0 discriminator 3
 1414 0430 0133     		adds	r3, r3, #1
 1415 0432 6B4A     		ldr	r2, .L594+32
 1416 0434 1360     		str	r3, [r2]
 1417              	.L116:
 369:.\Protocolo.c **** 					for(z=1;z<=8;z++){
 1418              		.loc 1 369 0 is_stmt 0 discriminator 1
 1419 0436 6A4B     		ldr	r3, .L594+32
 1420 0438 1B68     		ldr	r3, [r3]
 1421 043a 082B     		cmp	r3, #8
 1422 043c EAD9     		bls	.L117
 372:.\Protocolo.c **** 					}
 373:.\Protocolo.c **** 					minuendo[0]=8;
 1423              		.loc 1 373 0 is_stmt 1
 1424 043e 10A9     		add	r1, sp, #64
 1425 0440 0823     		movs	r3, #8
 1426 0442 01F82C3D 		strb	r3, [r1, #-44]!
 374:.\Protocolo.c **** 					operacion(2,minuendo,sustraendo);
 1427              		.loc 1 374 0
 1428 0446 0220     		movs	r0, #2
 1429 0448 01AA     		add	r2, sp, #4
 1430 044a FFF7FEFF 		bl	operacion
 1431              	.LVL146:
 375:.\Protocolo.c **** 					for(x=0;x<=17;x++){									
 1432              		.loc 1 375 0
 1433 044e 0022     		movs	r2, #0
 1434 0450 604B     		ldr	r3, .L594+20
 1435 0452 1A60     		str	r2, [r3]
 1436 0454 0AE0     		b	.L118
 1437              	.L119:
 376:.\Protocolo.c **** 						write_psoc1(val,msn_tventas[x]);				//Total de ventas
 1438              		.loc 1 376 0 discriminator 3
 1439 0456 604A     		ldr	r2, .L594+24
 1440 0458 1344     		add	r3, r3, r2
 1441 045a 2046     		mov	r0, r4
 1442 045c 93F82C10 		ldrb	r1, [r3, #44]	@ zero_extendqisi2
 1443 0460 FFF7FEFF 		bl	write_psoc1
 1444              	.LVL147:
 375:.\Protocolo.c **** 					for(x=0;x<=17;x++){									
 1445              		.loc 1 375 0 discriminator 3
 1446 0464 5B4A     		ldr	r2, .L594+20
 1447 0466 1368     		ldr	r3, [r2]
 1448 0468 0133     		adds	r3, r3, #1
 1449 046a 1360     		str	r3, [r2]
ARM GAS  C:\Users\IN-002~1\AppData\Local\Temp\ccxO8rjh.s 			page 35


 1450              	.L118:
 375:.\Protocolo.c **** 					for(x=0;x<=17;x++){									
 1451              		.loc 1 375 0 is_stmt 0 discriminator 1
 1452 046c 594B     		ldr	r3, .L594+20
 1453 046e 1B68     		ldr	r3, [r3]
 1454 0470 112B     		cmp	r3, #17
 1455 0472 F0D9     		bls	.L119
 377:.\Protocolo.c **** 					}
 378:.\Protocolo.c **** 					print_valor(resultado,val);				
 1456              		.loc 1 378 0 is_stmt 1
 1457 0474 5248     		ldr	r0, .L594
 1458 0476 2146     		mov	r1, r4
 1459 0478 FFF7FEFF 		bl	print_valor
 1460              	.LVL148:
 379:.\Protocolo.c **** 					if(dir==lado.a.dir){
 1461              		.loc 1 379 0
 1462 047c 534B     		ldr	r3, .L594+12
 1463 047e 1B78     		ldrb	r3, [r3]	@ zero_extendqisi2
 1464 0480 AB42     		cmp	r3, r5
 1465 0482 09D1     		bne	.L120
 380:.\Protocolo.c **** 						write_eeprom(217,corte);
 1466              		.loc 1 380 0
 1467 0484 D920     		movs	r0, #217
 1468 0486 09A9     		add	r1, sp, #36
 1469 0488 FFF7FEFF 		bl	write_eeprom
 1470              	.LVL149:
 381:.\Protocolo.c **** 						write_eeprom(538,resultado);
 1471              		.loc 1 381 0
 1472 048c 40F21A20 		movw	r0, #538
 1473 0490 4B49     		ldr	r1, .L594
 1474 0492 FFF7FEFF 		bl	write_eeprom
 1475              	.LVL150:
 1476 0496 09E0     		b	.L105
 1477              	.L120:
 382:.\Protocolo.c **** 					}
 383:.\Protocolo.c **** 					else{
 384:.\Protocolo.c **** 						write_eeprom(320,corte);
 1478              		.loc 1 384 0
 1479 0498 4FF4A070 		mov	r0, #320
 1480 049c 09A9     		add	r1, sp, #36
 1481 049e FFF7FEFF 		bl	write_eeprom
 1482              	.LVL151:
 385:.\Protocolo.c **** 						write_eeprom(576,resultado);
 1483              		.loc 1 385 0
 1484 04a2 4FF41070 		mov	r0, #576
 1485 04a6 4649     		ldr	r1, .L594
 1486 04a8 FFF7FEFF 		bl	write_eeprom
 1487              	.LVL152:
 1488              	.L105:
 386:.\Protocolo.c **** 					}				
 387:.\Protocolo.c **** 				}
 388:.\Protocolo.c **** 				if(((rventa.manguera==(extra&0x0F))&&(dir==lado.a.dir))||((rventa.manguera==(extra2&0x0F))&&(di
 1489              		.loc 1 388 0
 1490 04ac 454B     		ldr	r3, .L594+4
 1491 04ae 93F8E020 		ldrb	r2, [r3, #224]	@ zero_extendqisi2
 1492 04b2 4E4B     		ldr	r3, .L594+44
 1493 04b4 1B78     		ldrb	r3, [r3]	@ zero_extendqisi2
ARM GAS  C:\Users\IN-002~1\AppData\Local\Temp\ccxO8rjh.s 			page 36


 1494 04b6 03F00F03 		and	r3, r3, #15
 1495 04ba 9342     		cmp	r3, r2
 1496 04bc 03D1     		bne	.L121
 1497              		.loc 1 388 0 is_stmt 0 discriminator 1
 1498 04be 434B     		ldr	r3, .L594+12
 1499 04c0 1B78     		ldrb	r3, [r3]	@ zero_extendqisi2
 1500 04c2 AB42     		cmp	r3, r5
 1501 04c4 0BD0     		beq	.L122
 1502              	.L121:
 1503              		.loc 1 388 0 discriminator 3
 1504 04c6 4A4B     		ldr	r3, .L594+48
 1505 04c8 1B78     		ldrb	r3, [r3]	@ zero_extendqisi2
 1506 04ca 03F00F03 		and	r3, r3, #15
 1507 04ce 9A42     		cmp	r2, r3
 1508 04d0 40F0DF80 		bne	.L123
 1509              		.loc 1 388 0 discriminator 4
 1510 04d4 3D4B     		ldr	r3, .L594+12
 1511 04d6 1B79     		ldrb	r3, [r3, #4]	@ zero_extendqisi2
 1512 04d8 AB42     		cmp	r3, r5
 1513 04da 40F0DA80 		bne	.L123
 1514              	.L122:
 389:.\Protocolo.c **** 					for(x=0;x<=5;x++){									
 1515              		.loc 1 389 0 is_stmt 1
 1516 04de 0022     		movs	r2, #0
 1517 04e0 3C4B     		ldr	r3, .L594+20
 1518 04e2 1A60     		str	r2, [r3]
 1519 04e4 08E0     		b	.L124
 1520              	.L125:
 390:.\Protocolo.c **** 						    write_psoc1(val,msn_tc[x]);
 1521              		.loc 1 390 0 discriminator 3
 1522 04e6 2046     		mov	r0, r4
 1523 04e8 3B4A     		ldr	r2, .L594+24
 1524 04ea D15C     		ldrb	r1, [r2, r3]	@ zero_extendqisi2
 1525 04ec FFF7FEFF 		bl	write_psoc1
 1526              	.LVL153:
 389:.\Protocolo.c **** 					for(x=0;x<=5;x++){									
 1527              		.loc 1 389 0 discriminator 3
 1528 04f0 384A     		ldr	r2, .L594+20
 1529 04f2 1368     		ldr	r3, [r2]
 1530 04f4 0133     		adds	r3, r3, #1
 1531 04f6 1360     		str	r3, [r2]
 1532              	.L124:
 389:.\Protocolo.c **** 					for(x=0;x<=5;x++){									
 1533              		.loc 1 389 0 is_stmt 0 discriminator 1
 1534 04f8 364B     		ldr	r3, .L594+20
 1535 04fa 1B68     		ldr	r3, [r3]
 1536 04fc 052B     		cmp	r3, #5
 1537 04fe F2D9     		bls	.L125
 391:.\Protocolo.c **** 					    }
 392:.\Protocolo.c **** 					    write_psoc1(val,10);
 1538              		.loc 1 392 0 is_stmt 1
 1539 0500 2046     		mov	r0, r4
 1540 0502 0A21     		movs	r1, #10
 1541 0504 FFF7FEFF 		bl	write_psoc1
 1542              	.LVL154:
 393:.\Protocolo.c ****                     for(x=0;x<=10;x++){									
 1543              		.loc 1 393 0
ARM GAS  C:\Users\IN-002~1\AppData\Local\Temp\ccxO8rjh.s 			page 37


 1544 0508 0022     		movs	r2, #0
 1545 050a 324B     		ldr	r3, .L594+20
 1546 050c 1A60     		str	r2, [r3]
 1547 050e 08E0     		b	.L126
 1548              	.L127:
 394:.\Protocolo.c **** 						    write_psoc1(val,producto3n[x]);
 1549              		.loc 1 394 0 discriminator 3
 1550 0510 2046     		mov	r0, r4
 1551 0512 384A     		ldr	r2, .L594+52
 1552 0514 D15C     		ldrb	r1, [r2, r3]	@ zero_extendqisi2
 1553 0516 FFF7FEFF 		bl	write_psoc1
 1554              	.LVL155:
 393:.\Protocolo.c ****                     for(x=0;x<=10;x++){									
 1555              		.loc 1 393 0 discriminator 3
 1556 051a 2E4A     		ldr	r2, .L594+20
 1557 051c 1368     		ldr	r3, [r2]
 1558 051e 0133     		adds	r3, r3, #1
 1559 0520 1360     		str	r3, [r2]
 1560              	.L126:
 393:.\Protocolo.c ****                     for(x=0;x<=10;x++){									
 1561              		.loc 1 393 0 is_stmt 0 discriminator 1
 1562 0522 2C4B     		ldr	r3, .L594+20
 1563 0524 1B68     		ldr	r3, [r3]
 1564 0526 0A2B     		cmp	r3, #10
 1565 0528 F2D9     		bls	.L127
 395:.\Protocolo.c **** 					    }
 396:.\Protocolo.c ****                     write_psoc1(val,10);
 1566              		.loc 1 396 0 is_stmt 1
 1567 052a 2046     		mov	r0, r4
 1568 052c 0A21     		movs	r1, #10
 1569 052e FFF7FEFF 		bl	write_psoc1
 1570              	.LVL156:
 397:.\Protocolo.c **** 					for(x=0;x<=14;x++){									
 1571              		.loc 1 397 0
 1572 0532 0022     		movs	r2, #0
 1573 0534 274B     		ldr	r3, .L594+20
 1574 0536 1A60     		str	r2, [r3]
 1575 0538 09E0     		b	.L128
 1576              	.L129:
 398:.\Protocolo.c **** 						write_psoc1(val,msn_lecact[x]);				//LECTURA ACTUAL
 1577              		.loc 1 398 0 discriminator 3
 1578 053a 274A     		ldr	r2, .L594+24
 1579 053c 1344     		add	r3, r3, r2
 1580 053e 2046     		mov	r0, r4
 1581 0540 197A     		ldrb	r1, [r3, #8]	@ zero_extendqisi2
 1582 0542 FFF7FEFF 		bl	write_psoc1
 1583              	.LVL157:
 397:.\Protocolo.c **** 					for(x=0;x<=14;x++){									
 1584              		.loc 1 397 0 discriminator 3
 1585 0546 234A     		ldr	r2, .L594+20
 1586 0548 1368     		ldr	r3, [r2]
 1587 054a 0133     		adds	r3, r3, #1
 1588 054c 1360     		str	r3, [r2]
 1589              	.L128:
 397:.\Protocolo.c **** 					for(x=0;x<=14;x++){									
 1590              		.loc 1 397 0 is_stmt 0 discriminator 1
 1591 054e 214B     		ldr	r3, .L594+20
ARM GAS  C:\Users\IN-002~1\AppData\Local\Temp\ccxO8rjh.s 			page 38


 1592 0550 1B68     		ldr	r3, [r3]
 1593 0552 0E2B     		cmp	r3, #14
 1594 0554 F1D9     		bls	.L129
 399:.\Protocolo.c **** 					}
 400:.\Protocolo.c **** 					write_psoc1(val,10);
 1595              		.loc 1 400 0 is_stmt 1
 1596 0556 2046     		mov	r0, r4
 1597 0558 0A21     		movs	r1, #10
 1598 055a FFF7FEFF 		bl	write_psoc1
 1599              	.LVL158:
 401:.\Protocolo.c **** 					print_totalesac(8,val);	
 1600              		.loc 1 401 0
 1601 055e 0820     		movs	r0, #8
 1602 0560 2146     		mov	r1, r4
 1603 0562 FFF7FEFF 		bl	print_totalesac
 1604              	.LVL159:
 402:.\Protocolo.c **** 					for(x=0;x<=16;x++){												
 1605              		.loc 1 402 0
 1606 0566 0022     		movs	r2, #0
 1607 0568 1A4B     		ldr	r3, .L594+20
 1608 056a 1A60     		str	r2, [r3]
 1609 056c 09E0     		b	.L130
 1610              	.L131:
 403:.\Protocolo.c **** 						write_psoc1(val,msn_lecaan[x]);				//LECTURA ANTERIOR
 1611              		.loc 1 403 0 discriminator 3
 1612 056e 1A4A     		ldr	r2, .L594+24
 1613 0570 1344     		add	r3, r3, r2
 1614 0572 2046     		mov	r0, r4
 1615 0574 197E     		ldrb	r1, [r3, #24]	@ zero_extendqisi2
 1616 0576 FFF7FEFF 		bl	write_psoc1
 1617              	.LVL160:
 402:.\Protocolo.c **** 					for(x=0;x<=16;x++){												
 1618              		.loc 1 402 0 discriminator 3
 1619 057a 164A     		ldr	r2, .L594+20
 1620 057c 1368     		ldr	r3, [r2]
 1621 057e 0133     		adds	r3, r3, #1
 1622 0580 1360     		str	r3, [r2]
 1623              	.L130:
 402:.\Protocolo.c **** 					for(x=0;x<=16;x++){												
 1624              		.loc 1 402 0 is_stmt 0 discriminator 1
 1625 0582 144B     		ldr	r3, .L594+20
 1626 0584 1B68     		ldr	r3, [r3]
 1627 0586 102B     		cmp	r3, #16
 1628 0588 F1D9     		bls	.L131
 404:.\Protocolo.c **** 					}
 405:.\Protocolo.c **** 					write_psoc1(val,10);
 1629              		.loc 1 405 0 is_stmt 1
 1630 058a 2046     		mov	r0, r4
 1631 058c 0A21     		movs	r1, #10
 1632 058e FFF7FEFF 		bl	write_psoc1
 1633              	.LVL161:
 406:.\Protocolo.c **** 					if(dir==lado.a.dir){
 1634              		.loc 1 406 0
 1635 0592 0E4B     		ldr	r3, .L594+12
 1636 0594 1B78     		ldrb	r3, [r3]	@ zero_extendqisi2
 1637 0596 AB42     		cmp	r3, r5
 1638 0598 05D1     		bne	.L132
ARM GAS  C:\Users\IN-002~1\AppData\Local\Temp\ccxO8rjh.s 			page 39


 407:.\Protocolo.c **** 						leer_eeprom(256,25);
 1639              		.loc 1 407 0
 1640 059a 4FF48070 		mov	r0, #256
 1641 059e 1921     		movs	r1, #25
 1642 05a0 FFF7FEFF 		bl	leer_eeprom
 1643              	.LVL162:
 1644 05a4 04E0     		b	.L133
 1645              	.L132:
 408:.\Protocolo.c **** 					}
 409:.\Protocolo.c **** 					else{
 410:.\Protocolo.c **** 						leer_eeprom(345,25);
 1646              		.loc 1 410 0
 1647 05a6 40F25910 		movw	r0, #345
 1648 05aa 1921     		movs	r1, #25
 1649 05ac FFF7FEFF 		bl	leer_eeprom
 1650              	.LVL163:
 1651              	.L133:
 411:.\Protocolo.c **** 					}
 412:.\Protocolo.c **** 					print_totales(val);
 1652              		.loc 1 412 0
 1653 05b0 2046     		mov	r0, r4
 1654 05b2 FFF7FEFF 		bl	print_totales
 1655              	.LVL164:
 413:.\Protocolo.c **** 					for(z=1;z<=8;z++){
 1656              		.loc 1 413 0
 1657 05b6 0122     		movs	r2, #1
 1658 05b8 094B     		ldr	r3, .L594+32
 1659 05ba 1A60     		str	r2, [r3]
 1660 05bc 2DE0     		b	.L134
 1661              	.L595:
 1662 05be 00BF     		.align	2
 1663              	.L594:
 1664 05c0 00000000 		.word	resultado
 1665 05c4 00000000 		.word	rventa
 1666 05c8 00000000 		.word	diesel
 1667 05cc 00000000 		.word	lado
 1668 05d0 00000000 		.word	diesel2
 1669 05d4 00000000 		.word	x
 1670 05d8 00000000 		.word	.LANCHOR1
 1671 05dc 00000000 		.word	producto2n
 1672 05e0 00000000 		.word	z
 1673 05e4 FFFFFFFF 		.word	rventa-1
 1674 05e8 00000000 		.word	buffer_i2c
 1675 05ec 00000000 		.word	extra
 1676 05f0 00000000 		.word	extra2
 1677 05f4 00000000 		.word	producto3n
 1678              	.L135:
 414:.\Protocolo.c **** 						minuendo[z]=rventa.tdinero[z-1];
 1679              		.loc 1 414 0 discriminator 3
 1680 05f8 A94A     		ldr	r2, .L596
 1681 05fa 1A44     		add	r2, r2, r3
 1682 05fc 92F8CA10 		ldrb	r1, [r2, #202]	@ zero_extendqisi2
 1683 0600 10AA     		add	r2, sp, #64
 1684 0602 1A44     		add	r2, r2, r3
 1685 0604 02F82C1C 		strb	r1, [r2, #-44]
 415:.\Protocolo.c **** 						sustraendo[z]=buffer_i2c[z+8];
 1686              		.loc 1 415 0 discriminator 3
ARM GAS  C:\Users\IN-002~1\AppData\Local\Temp\ccxO8rjh.s 			page 40


 1687 0608 03F10801 		add	r1, r3, #8
 1688 060c A548     		ldr	r0, .L596+4
 1689 060e 415C     		ldrb	r1, [r0, r1]	@ zero_extendqisi2
 1690 0610 02F83C1C 		strb	r1, [r2, #-60]
 413:.\Protocolo.c **** 					for(z=1;z<=8;z++){
 1691              		.loc 1 413 0 discriminator 3
 1692 0614 0133     		adds	r3, r3, #1
 1693 0616 A44A     		ldr	r2, .L596+8
 1694 0618 1360     		str	r3, [r2]
 1695              	.L134:
 413:.\Protocolo.c **** 					for(z=1;z<=8;z++){
 1696              		.loc 1 413 0 is_stmt 0 discriminator 1
 1697 061a A34B     		ldr	r3, .L596+8
 1698 061c 1B68     		ldr	r3, [r3]
 1699 061e 082B     		cmp	r3, #8
 1700 0620 EAD9     		bls	.L135
 416:.\Protocolo.c **** 					}
 417:.\Protocolo.c **** 					minuendo[0]=8;
 1701              		.loc 1 417 0 is_stmt 1
 1702 0622 10A9     		add	r1, sp, #64
 1703 0624 0823     		movs	r3, #8
 1704 0626 01F82C3D 		strb	r3, [r1, #-44]!
 418:.\Protocolo.c **** 					operacion(2,minuendo,sustraendo);
 1705              		.loc 1 418 0
 1706 062a 0220     		movs	r0, #2
 1707 062c 01AA     		add	r2, sp, #4
 1708 062e FFF7FEFF 		bl	operacion
 1709              	.LVL165:
 419:.\Protocolo.c **** 					for(x=0;x<=17;x++){									
 1710              		.loc 1 419 0
 1711 0632 0022     		movs	r2, #0
 1712 0634 9D4B     		ldr	r3, .L596+12
 1713 0636 1A60     		str	r2, [r3]
 1714 0638 0AE0     		b	.L136
 1715              	.L137:
 420:.\Protocolo.c **** 						write_psoc1(val,msn_tventas[x]);				//Total de ventas
 1716              		.loc 1 420 0 discriminator 3
 1717 063a 9D4A     		ldr	r2, .L596+16
 1718 063c 1344     		add	r3, r3, r2
 1719 063e 2046     		mov	r0, r4
 1720 0640 93F82C10 		ldrb	r1, [r3, #44]	@ zero_extendqisi2
 1721 0644 FFF7FEFF 		bl	write_psoc1
 1722              	.LVL166:
 419:.\Protocolo.c **** 					for(x=0;x<=17;x++){									
 1723              		.loc 1 419 0 discriminator 3
 1724 0648 984A     		ldr	r2, .L596+12
 1725 064a 1368     		ldr	r3, [r2]
 1726 064c 0133     		adds	r3, r3, #1
 1727 064e 1360     		str	r3, [r2]
 1728              	.L136:
 419:.\Protocolo.c **** 					for(x=0;x<=17;x++){									
 1729              		.loc 1 419 0 is_stmt 0 discriminator 1
 1730 0650 964B     		ldr	r3, .L596+12
 1731 0652 1B68     		ldr	r3, [r3]
 1732 0654 112B     		cmp	r3, #17
 1733 0656 F0D9     		bls	.L137
 421:.\Protocolo.c **** 					}
ARM GAS  C:\Users\IN-002~1\AppData\Local\Temp\ccxO8rjh.s 			page 41


 422:.\Protocolo.c **** 					print_valor(resultado,val);							
 1734              		.loc 1 422 0 is_stmt 1
 1735 0658 9648     		ldr	r0, .L596+20
 1736 065a 2146     		mov	r1, r4
 1737 065c FFF7FEFF 		bl	print_valor
 1738              	.LVL167:
 423:.\Protocolo.c **** 					if(dir==lado.a.dir){
 1739              		.loc 1 423 0
 1740 0660 954B     		ldr	r3, .L596+24
 1741 0662 1B78     		ldrb	r3, [r3]	@ zero_extendqisi2
 1742 0664 AB42     		cmp	r3, r5
 1743 0666 0AD1     		bne	.L138
 424:.\Protocolo.c **** 						write_eeprom(256,corte);
 1744              		.loc 1 424 0
 1745 0668 4FF48070 		mov	r0, #256
 1746 066c 09A9     		add	r1, sp, #36
 1747 066e FFF7FEFF 		bl	write_eeprom
 1748              	.LVL168:
 425:.\Protocolo.c **** 						write_eeprom(525,resultado);
 1749              		.loc 1 425 0
 1750 0672 40F20D20 		movw	r0, #525
 1751 0676 8F49     		ldr	r1, .L596+20
 1752 0678 FFF7FEFF 		bl	write_eeprom
 1753              	.LVL169:
 1754 067c 09E0     		b	.L123
 1755              	.L138:
 426:.\Protocolo.c **** 					}
 427:.\Protocolo.c **** 					else{
 428:.\Protocolo.c **** 						write_eeprom(345,corte);
 1756              		.loc 1 428 0
 1757 067e 40F25910 		movw	r0, #345
 1758 0682 09A9     		add	r1, sp, #36
 1759 0684 FFF7FEFF 		bl	write_eeprom
 1760              	.LVL170:
 429:.\Protocolo.c **** 						write_eeprom(589,resultado);
 1761              		.loc 1 429 0
 1762 0688 40F24D20 		movw	r0, #589
 1763 068c 8949     		ldr	r1, .L596+20
 1764 068e FFF7FEFF 		bl	write_eeprom
 1765              	.LVL171:
 1766              	.L123:
 430:.\Protocolo.c **** 					}					
 431:.\Protocolo.c **** 				}
 432:.\Protocolo.c ****                 
 433:.\Protocolo.c ****                 if(((rventa.manguera==(kero&0x0F))&&(dir==lado.a.dir))||((rventa.manguera==(kero2&0
 1767              		.loc 1 433 0
 1768 0692 8A4B     		ldr	r3, .L596+28
 1769 0694 93F8E020 		ldrb	r2, [r3, #224]	@ zero_extendqisi2
 1770 0698 894B     		ldr	r3, .L596+32
 1771 069a 1B78     		ldrb	r3, [r3]	@ zero_extendqisi2
 1772 069c 03F00F03 		and	r3, r3, #15
 1773 06a0 9342     		cmp	r3, r2
 1774 06a2 03D1     		bne	.L139
 1775              		.loc 1 433 0 is_stmt 0 discriminator 1
 1776 06a4 844B     		ldr	r3, .L596+24
 1777 06a6 1B78     		ldrb	r3, [r3]	@ zero_extendqisi2
 1778 06a8 AB42     		cmp	r3, r5
ARM GAS  C:\Users\IN-002~1\AppData\Local\Temp\ccxO8rjh.s 			page 42


 1779 06aa 0BD0     		beq	.L140
 1780              	.L139:
 1781              		.loc 1 433 0 discriminator 3
 1782 06ac 854B     		ldr	r3, .L596+36
 1783 06ae 1B78     		ldrb	r3, [r3]	@ zero_extendqisi2
 1784 06b0 03F00F03 		and	r3, r3, #15
 1785 06b4 9A42     		cmp	r2, r3
 1786 06b6 40F0C280 		bne	.L141
 1787              		.loc 1 433 0 discriminator 4
 1788 06ba 7F4B     		ldr	r3, .L596+24
 1789 06bc 1B79     		ldrb	r3, [r3, #4]	@ zero_extendqisi2
 1790 06be AB42     		cmp	r3, r5
 1791 06c0 40F0BD80 		bne	.L141
 1792              	.L140:
 434:.\Protocolo.c **** 					for(x=0;x<=5;x++){									
 1793              		.loc 1 434 0 is_stmt 1
 1794 06c4 0022     		movs	r2, #0
 1795 06c6 794B     		ldr	r3, .L596+12
 1796 06c8 1A60     		str	r2, [r3]
 1797 06ca 08E0     		b	.L142
 1798              	.L143:
 435:.\Protocolo.c **** 						    write_psoc1(val,msn_tc[x]);
 1799              		.loc 1 435 0 discriminator 3
 1800 06cc 2046     		mov	r0, r4
 1801 06ce 784A     		ldr	r2, .L596+16
 1802 06d0 D15C     		ldrb	r1, [r2, r3]	@ zero_extendqisi2
 1803 06d2 FFF7FEFF 		bl	write_psoc1
 1804              	.LVL172:
 434:.\Protocolo.c **** 					for(x=0;x<=5;x++){									
 1805              		.loc 1 434 0 discriminator 3
 1806 06d6 754A     		ldr	r2, .L596+12
 1807 06d8 1368     		ldr	r3, [r2]
 1808 06da 0133     		adds	r3, r3, #1
 1809 06dc 1360     		str	r3, [r2]
 1810              	.L142:
 434:.\Protocolo.c **** 					for(x=0;x<=5;x++){									
 1811              		.loc 1 434 0 is_stmt 0 discriminator 1
 1812 06de 734B     		ldr	r3, .L596+12
 1813 06e0 1B68     		ldr	r3, [r3]
 1814 06e2 052B     		cmp	r3, #5
 1815 06e4 F2D9     		bls	.L143
 436:.\Protocolo.c **** 					    }
 437:.\Protocolo.c **** 					    write_psoc1(val,10);
 1816              		.loc 1 437 0 is_stmt 1
 1817 06e6 2046     		mov	r0, r4
 1818 06e8 0A21     		movs	r1, #10
 1819 06ea FFF7FEFF 		bl	write_psoc1
 1820              	.LVL173:
 438:.\Protocolo.c ****                     for(x=0;x<=10;x++){									
 1821              		.loc 1 438 0
 1822 06ee 0022     		movs	r2, #0
 1823 06f0 6E4B     		ldr	r3, .L596+12
 1824 06f2 1A60     		str	r2, [r3]
 1825 06f4 08E0     		b	.L144
 1826              	.L145:
 439:.\Protocolo.c **** 						    write_psoc1(val,producto4n[x]);
 1827              		.loc 1 439 0 discriminator 3
ARM GAS  C:\Users\IN-002~1\AppData\Local\Temp\ccxO8rjh.s 			page 43


 1828 06f6 2046     		mov	r0, r4
 1829 06f8 734A     		ldr	r2, .L596+40
 1830 06fa D15C     		ldrb	r1, [r2, r3]	@ zero_extendqisi2
 1831 06fc FFF7FEFF 		bl	write_psoc1
 1832              	.LVL174:
 438:.\Protocolo.c ****                     for(x=0;x<=10;x++){									
 1833              		.loc 1 438 0 discriminator 3
 1834 0700 6A4A     		ldr	r2, .L596+12
 1835 0702 1368     		ldr	r3, [r2]
 1836 0704 0133     		adds	r3, r3, #1
 1837 0706 1360     		str	r3, [r2]
 1838              	.L144:
 438:.\Protocolo.c ****                     for(x=0;x<=10;x++){									
 1839              		.loc 1 438 0 is_stmt 0 discriminator 1
 1840 0708 684B     		ldr	r3, .L596+12
 1841 070a 1B68     		ldr	r3, [r3]
 1842 070c 0A2B     		cmp	r3, #10
 1843 070e F2D9     		bls	.L145
 440:.\Protocolo.c **** 					    }
 441:.\Protocolo.c ****                     write_psoc1(val,10);
 1844              		.loc 1 441 0 is_stmt 1
 1845 0710 2046     		mov	r0, r4
 1846 0712 0A21     		movs	r1, #10
 1847 0714 FFF7FEFF 		bl	write_psoc1
 1848              	.LVL175:
 442:.\Protocolo.c **** 					for(x=0;x<=14;x++){									
 1849              		.loc 1 442 0
 1850 0718 0022     		movs	r2, #0
 1851 071a 644B     		ldr	r3, .L596+12
 1852 071c 1A60     		str	r2, [r3]
 1853 071e 09E0     		b	.L146
 1854              	.L147:
 443:.\Protocolo.c **** 						write_psoc1(val,msn_lecact[x]);				//LECTURA ACTUAL
 1855              		.loc 1 443 0 discriminator 3
 1856 0720 634A     		ldr	r2, .L596+16
 1857 0722 1344     		add	r3, r3, r2
 1858 0724 2046     		mov	r0, r4
 1859 0726 197A     		ldrb	r1, [r3, #8]	@ zero_extendqisi2
 1860 0728 FFF7FEFF 		bl	write_psoc1
 1861              	.LVL176:
 442:.\Protocolo.c **** 					for(x=0;x<=14;x++){									
 1862              		.loc 1 442 0 discriminator 3
 1863 072c 5F4A     		ldr	r2, .L596+12
 1864 072e 1368     		ldr	r3, [r2]
 1865 0730 0133     		adds	r3, r3, #1
 1866 0732 1360     		str	r3, [r2]
 1867              	.L146:
 442:.\Protocolo.c **** 					for(x=0;x<=14;x++){									
 1868              		.loc 1 442 0 is_stmt 0 discriminator 1
 1869 0734 5D4B     		ldr	r3, .L596+12
 1870 0736 1B68     		ldr	r3, [r3]
 1871 0738 0E2B     		cmp	r3, #14
 1872 073a F1D9     		bls	.L147
 444:.\Protocolo.c **** 					}
 445:.\Protocolo.c **** 					write_psoc1(val,10);
 1873              		.loc 1 445 0 is_stmt 1
 1874 073c 2046     		mov	r0, r4
ARM GAS  C:\Users\IN-002~1\AppData\Local\Temp\ccxO8rjh.s 			page 44


 1875 073e 0A21     		movs	r1, #10
 1876 0740 FFF7FEFF 		bl	write_psoc1
 1877              	.LVL177:
 446:.\Protocolo.c **** 					print_totalesac(8,val);	
 1878              		.loc 1 446 0
 1879 0744 0820     		movs	r0, #8
 1880 0746 2146     		mov	r1, r4
 1881 0748 FFF7FEFF 		bl	print_totalesac
 1882              	.LVL178:
 447:.\Protocolo.c **** 					for(x=0;x<=16;x++){												
 1883              		.loc 1 447 0
 1884 074c 0022     		movs	r2, #0
 1885 074e 574B     		ldr	r3, .L596+12
 1886 0750 1A60     		str	r2, [r3]
 1887 0752 09E0     		b	.L148
 1888              	.L149:
 448:.\Protocolo.c **** 						write_psoc1(val,msn_lecaan[x]);				//LECTURA ANTERIOR
 1889              		.loc 1 448 0 discriminator 3
 1890 0754 564A     		ldr	r2, .L596+16
 1891 0756 1344     		add	r3, r3, r2
 1892 0758 2046     		mov	r0, r4
 1893 075a 197E     		ldrb	r1, [r3, #24]	@ zero_extendqisi2
 1894 075c FFF7FEFF 		bl	write_psoc1
 1895              	.LVL179:
 447:.\Protocolo.c **** 					for(x=0;x<=16;x++){												
 1896              		.loc 1 447 0 discriminator 3
 1897 0760 524A     		ldr	r2, .L596+12
 1898 0762 1368     		ldr	r3, [r2]
 1899 0764 0133     		adds	r3, r3, #1
 1900 0766 1360     		str	r3, [r2]
 1901              	.L148:
 447:.\Protocolo.c **** 					for(x=0;x<=16;x++){												
 1902              		.loc 1 447 0 is_stmt 0 discriminator 1
 1903 0768 504B     		ldr	r3, .L596+12
 1904 076a 1B68     		ldr	r3, [r3]
 1905 076c 102B     		cmp	r3, #16
 1906 076e F1D9     		bls	.L149
 449:.\Protocolo.c **** 					}
 450:.\Protocolo.c **** 					write_psoc1(val,10);
 1907              		.loc 1 450 0 is_stmt 1
 1908 0770 2046     		mov	r0, r4
 1909 0772 0A21     		movs	r1, #10
 1910 0774 FFF7FEFF 		bl	write_psoc1
 1911              	.LVL180:
 451:.\Protocolo.c **** 					if(dir==lado.a.dir){
 1912              		.loc 1 451 0
 1913 0778 4F4B     		ldr	r3, .L596+24
 1914 077a 1B78     		ldrb	r3, [r3]	@ zero_extendqisi2
 1915 077c AB42     		cmp	r3, r5
 1916 077e 05D1     		bne	.L150
 452:.\Protocolo.c **** 						leer_eeprom(1096,25);
 1917              		.loc 1 452 0
 1918 0780 4FF48960 		mov	r0, #1096
 1919 0784 1921     		movs	r1, #25
 1920 0786 FFF7FEFF 		bl	leer_eeprom
 1921              	.LVL181:
 1922 078a 04E0     		b	.L151
ARM GAS  C:\Users\IN-002~1\AppData\Local\Temp\ccxO8rjh.s 			page 45


 1923              	.L150:
 453:.\Protocolo.c **** 					}
 454:.\Protocolo.c **** 					else{
 455:.\Protocolo.c **** 						leer_eeprom(1054,25);
 1924              		.loc 1 455 0
 1925 078c 40F21E40 		movw	r0, #1054
 1926 0790 1921     		movs	r1, #25
 1927 0792 FFF7FEFF 		bl	leer_eeprom
 1928              	.LVL182:
 1929              	.L151:
 456:.\Protocolo.c **** 					}
 457:.\Protocolo.c **** 					print_totales(val);
 1930              		.loc 1 457 0
 1931 0796 2046     		mov	r0, r4
 1932 0798 FFF7FEFF 		bl	print_totales
 1933              	.LVL183:
 458:.\Protocolo.c **** 					for(z=1;z<=8;z++){
 1934              		.loc 1 458 0
 1935 079c 0122     		movs	r2, #1
 1936 079e 424B     		ldr	r3, .L596+8
 1937 07a0 1A60     		str	r2, [r3]
 1938 07a2 10E0     		b	.L152
 1939              	.L153:
 459:.\Protocolo.c **** 						minuendo[z]=rventa.tdinero[z-1];
 1940              		.loc 1 459 0 discriminator 3
 1941 07a4 3E4A     		ldr	r2, .L596
 1942 07a6 1A44     		add	r2, r2, r3
 1943 07a8 92F8CA10 		ldrb	r1, [r2, #202]	@ zero_extendqisi2
 1944 07ac 10AA     		add	r2, sp, #64
 1945 07ae 1A44     		add	r2, r2, r3
 1946 07b0 02F82C1C 		strb	r1, [r2, #-44]
 460:.\Protocolo.c **** 						sustraendo[z]=buffer_i2c[z+8];
 1947              		.loc 1 460 0 discriminator 3
 1948 07b4 03F10801 		add	r1, r3, #8
 1949 07b8 3A48     		ldr	r0, .L596+4
 1950 07ba 415C     		ldrb	r1, [r0, r1]	@ zero_extendqisi2
 1951 07bc 02F83C1C 		strb	r1, [r2, #-60]
 458:.\Protocolo.c **** 					for(z=1;z<=8;z++){
 1952              		.loc 1 458 0 discriminator 3
 1953 07c0 0133     		adds	r3, r3, #1
 1954 07c2 394A     		ldr	r2, .L596+8
 1955 07c4 1360     		str	r3, [r2]
 1956              	.L152:
 458:.\Protocolo.c **** 					for(z=1;z<=8;z++){
 1957              		.loc 1 458 0 is_stmt 0 discriminator 1
 1958 07c6 384B     		ldr	r3, .L596+8
 1959 07c8 1B68     		ldr	r3, [r3]
 1960 07ca 082B     		cmp	r3, #8
 1961 07cc EAD9     		bls	.L153
 461:.\Protocolo.c **** 					}
 462:.\Protocolo.c **** 					minuendo[0]=8;
 1962              		.loc 1 462 0 is_stmt 1
 1963 07ce 10A9     		add	r1, sp, #64
 1964 07d0 0823     		movs	r3, #8
 1965 07d2 01F82C3D 		strb	r3, [r1, #-44]!
 463:.\Protocolo.c **** 					operacion(2,minuendo,sustraendo);
 1966              		.loc 1 463 0
ARM GAS  C:\Users\IN-002~1\AppData\Local\Temp\ccxO8rjh.s 			page 46


 1967 07d6 0220     		movs	r0, #2
 1968 07d8 01AA     		add	r2, sp, #4
 1969 07da FFF7FEFF 		bl	operacion
 1970              	.LVL184:
 464:.\Protocolo.c **** 					for(x=0;x<=17;x++){									
 1971              		.loc 1 464 0
 1972 07de 0022     		movs	r2, #0
 1973 07e0 324B     		ldr	r3, .L596+12
 1974 07e2 1A60     		str	r2, [r3]
 1975 07e4 0AE0     		b	.L154
 1976              	.L155:
 465:.\Protocolo.c **** 						write_psoc1(val,msn_tventas[x]);				//Total de ventas
 1977              		.loc 1 465 0 discriminator 3
 1978 07e6 324A     		ldr	r2, .L596+16
 1979 07e8 1344     		add	r3, r3, r2
 1980 07ea 2046     		mov	r0, r4
 1981 07ec 93F82C10 		ldrb	r1, [r3, #44]	@ zero_extendqisi2
 1982 07f0 FFF7FEFF 		bl	write_psoc1
 1983              	.LVL185:
 464:.\Protocolo.c **** 					for(x=0;x<=17;x++){									
 1984              		.loc 1 464 0 discriminator 3
 1985 07f4 2D4A     		ldr	r2, .L596+12
 1986 07f6 1368     		ldr	r3, [r2]
 1987 07f8 0133     		adds	r3, r3, #1
 1988 07fa 1360     		str	r3, [r2]
 1989              	.L154:
 464:.\Protocolo.c **** 					for(x=0;x<=17;x++){									
 1990              		.loc 1 464 0 is_stmt 0 discriminator 1
 1991 07fc 2B4B     		ldr	r3, .L596+12
 1992 07fe 1B68     		ldr	r3, [r3]
 1993 0800 112B     		cmp	r3, #17
 1994 0802 F0D9     		bls	.L155
 466:.\Protocolo.c **** 					}
 467:.\Protocolo.c **** 					print_valor(resultado,val);							
 1995              		.loc 1 467 0 is_stmt 1
 1996 0804 2B48     		ldr	r0, .L596+20
 1997 0806 2146     		mov	r1, r4
 1998 0808 FFF7FEFF 		bl	print_valor
 1999              	.LVL186:
 468:.\Protocolo.c **** 					if(dir==lado.a.dir){
 2000              		.loc 1 468 0
 2001 080c 2A4B     		ldr	r3, .L596+24
 2002 080e 1B78     		ldrb	r3, [r3]	@ zero_extendqisi2
 2003 0810 AB42     		cmp	r3, r5
 2004 0812 0AD1     		bne	.L156
 469:.\Protocolo.c **** 						write_eeprom(1096,corte);
 2005              		.loc 1 469 0
 2006 0814 4FF48960 		mov	r0, #1096
 2007 0818 09A9     		add	r1, sp, #36
 2008 081a FFF7FEFF 		bl	write_eeprom
 2009              	.LVL187:
 470:.\Protocolo.c **** 						write_eeprom(1038,resultado);
 2010              		.loc 1 470 0
 2011 081e 40F20E40 		movw	r0, #1038
 2012 0822 2449     		ldr	r1, .L596+20
 2013 0824 FFF7FEFF 		bl	write_eeprom
 2014              	.LVL188:
ARM GAS  C:\Users\IN-002~1\AppData\Local\Temp\ccxO8rjh.s 			page 47


 2015 0828 09E0     		b	.L141
 2016              	.L156:
 471:.\Protocolo.c **** 					}
 472:.\Protocolo.c **** 					else{
 473:.\Protocolo.c **** 						write_eeprom(1054,corte);
 2017              		.loc 1 473 0
 2018 082a 40F21E40 		movw	r0, #1054
 2019 082e 09A9     		add	r1, sp, #36
 2020 0830 FFF7FEFF 		bl	write_eeprom
 2021              	.LVL189:
 474:.\Protocolo.c **** 						write_eeprom(1081,resultado);
 2022              		.loc 1 474 0
 2023 0834 40F23940 		movw	r0, #1081
 2024 0838 1E49     		ldr	r1, .L596+20
 2025 083a FFF7FEFF 		bl	write_eeprom
 2026              	.LVL190:
 2027              	.L141:
 475:.\Protocolo.c **** 					}					
 476:.\Protocolo.c **** 				}
 477:.\Protocolo.c **** 				
 478:.\Protocolo.c **** 				Surtidor_ClearRxBuffer();
 2028              		.loc 1 478 0
 2029 083e FFF7FEFF 		bl	Surtidor_ClearRxBuffer
 2030              	.LVL191:
 479:.\Protocolo.c **** 				return 1;
 2031              		.loc 1 479 0
 2032 0842 0120     		movs	r0, #1
 2033 0844 02F004BD 		b	.L76
 2034              	.L69:
 480:.\Protocolo.c **** 			}
 481:.\Protocolo.c **** 			else{
 482:.\Protocolo.c **** 				return 0;
 483:.\Protocolo.c **** 			}
 484:.\Protocolo.c **** 		break;
 485:.\Protocolo.c **** 
 486:.\Protocolo.c **** 		case 64:
 487:.\Protocolo.c **** 			if((Surtidor_rxBuffer[0]==0xFF)&&(Surtidor_rxBuffer[1]==0xF6)&&(Surtidor_rxBuffer[63]==0xF0)&&(S
 2035              		.loc 1 487 0
 2036 0848 204B     		ldr	r3, .L596+44
 2037 084a 1B78     		ldrb	r3, [r3]	@ zero_extendqisi2
 2038 084c DBB2     		uxtb	r3, r3
 2039 084e FF2B     		cmp	r3, #255
 2040 0850 42F0D784 		bne	.L571
 2041              		.loc 1 487 0 is_stmt 0 discriminator 1
 2042 0854 1D4B     		ldr	r3, .L596+44
 2043 0856 5B78     		ldrb	r3, [r3, #1]	@ zero_extendqisi2
 2044 0858 DBB2     		uxtb	r3, r3
 2045 085a F62B     		cmp	r3, #246
 2046 085c 42F0D384 		bne	.L572
 2047              		.loc 1 487 0 discriminator 2
 2048 0860 1A4B     		ldr	r3, .L596+44
 2049 0862 93F83F30 		ldrb	r3, [r3, #63]	@ zero_extendqisi2
 2050 0866 DBB2     		uxtb	r3, r3
 2051 0868 F02B     		cmp	r3, #240
 2052 086a 42F0CE84 		bne	.L573
 2053              		.loc 1 487 0 discriminator 3
 2054 086e 174B     		ldr	r3, .L596+44
ARM GAS  C:\Users\IN-002~1\AppData\Local\Temp\ccxO8rjh.s 			page 48


 2055 0870 DB78     		ldrb	r3, [r3, #3]	@ zero_extendqisi2
 2056 0872 DBB2     		uxtb	r3, r3
 2057 0874 F92B     		cmp	r3, #249
 2058 0876 42F0CA84 		bne	.L574
 488:.\Protocolo.c **** 				for(y=0;y<=30;y+=30){
 2059              		.loc 1 488 0 is_stmt 1
 2060 087a 0022     		movs	r2, #0
 2061 087c 144B     		ldr	r3, .L596+48
 2062 087e 1A60     		str	r2, [r3]
 2063 0880 00F002BC 		b	.L157
 2064              	.L238:
 489:.\Protocolo.c **** 					rventa.manguera=(Surtidor_rxBuffer[y+2]&0x0F)+1;
 2065              		.loc 1 489 0
 2066 0884 B31C     		adds	r3, r6, #2
 2067 0886 114A     		ldr	r2, .L596+44
 2068 0888 D15C     		ldrb	r1, [r2, r3]	@ zero_extendqisi2
 2069 088a 01F00F01 		and	r1, r1, #15
 2070 088e 0131     		adds	r1, r1, #1
 2071 0890 0A4B     		ldr	r3, .L596+28
 2072 0892 83F8E010 		strb	r1, [r3, #224]
 490:.\Protocolo.c **** 					for(x=0;x<=7;x++){
 2073              		.loc 1 490 0
 2074 0896 0022     		movs	r2, #0
 2075 0898 044B     		ldr	r3, .L596+12
 2076 089a 1A60     		str	r2, [r3]
 2077 089c 27E0     		b	.L158
 2078              	.L597:
 2079 089e 00BF     		.align	2
 2080              	.L596:
 2081 08a0 FFFFFFFF 		.word	rventa-1
 2082 08a4 00000000 		.word	buffer_i2c
 2083 08a8 00000000 		.word	z
 2084 08ac 00000000 		.word	x
 2085 08b0 00000000 		.word	.LANCHOR1
 2086 08b4 00000000 		.word	resultado
 2087 08b8 00000000 		.word	lado
 2088 08bc 00000000 		.word	rventa
 2089 08c0 00000000 		.word	kero
 2090 08c4 00000000 		.word	kero2
 2091 08c8 00000000 		.word	producto4n
 2092 08cc 00000000 		.word	Surtidor_rxBuffer
 2093 08d0 00000000 		.word	y
 2094              	.L159:
 491:.\Protocolo.c **** 						rventa.tvolumen[x]=(Surtidor_rxBuffer[y+4+x]&0x0F);
 2095              		.loc 1 491 0 discriminator 3
 2096 08d4 F218     		adds	r2, r6, r3
 2097 08d6 0432     		adds	r2, r2, #4
 2098 08d8 A748     		ldr	r0, .L598
 2099 08da 805C     		ldrb	r0, [r0, r2]	@ zero_extendqisi2
 2100 08dc A74A     		ldr	r2, .L598+4
 2101 08de 1A44     		add	r2, r2, r3
 2102 08e0 00F00F00 		and	r0, r0, #15
 2103 08e4 82F8BD00 		strb	r0, [r2, #189]
 490:.\Protocolo.c **** 					for(x=0;x<=7;x++){
 2104              		.loc 1 490 0 discriminator 3
 2105 08e8 0133     		adds	r3, r3, #1
 2106 08ea A54A     		ldr	r2, .L598+8
ARM GAS  C:\Users\IN-002~1\AppData\Local\Temp\ccxO8rjh.s 			page 49


 2107 08ec 1360     		str	r3, [r2]
 2108              	.L158:
 490:.\Protocolo.c **** 					for(x=0;x<=7;x++){
 2109              		.loc 1 490 0 is_stmt 0 discriminator 1
 2110 08ee A44B     		ldr	r3, .L598+8
 2111 08f0 1B68     		ldr	r3, [r3]
 2112 08f2 072B     		cmp	r3, #7
 2113 08f4 EED9     		bls	.L159
 492:.\Protocolo.c **** 					}
 493:.\Protocolo.c **** 					for(x=0;x<=7;x++){
 2114              		.loc 1 493 0 is_stmt 1
 2115 08f6 0022     		movs	r2, #0
 2116 08f8 A14B     		ldr	r3, .L598+8
 2117 08fa 1A60     		str	r2, [r3]
 2118 08fc 0CE0     		b	.L160
 2119              	.L161:
 494:.\Protocolo.c **** 						rventa.tdinero[x]=(Surtidor_rxBuffer[y+13+x]&0x0F);
 2120              		.loc 1 494 0 discriminator 3
 2121 08fe F218     		adds	r2, r6, r3
 2122 0900 0D32     		adds	r2, r2, #13
 2123 0902 9D48     		ldr	r0, .L598
 2124 0904 805C     		ldrb	r0, [r0, r2]	@ zero_extendqisi2
 2125 0906 9D4A     		ldr	r2, .L598+4
 2126 0908 1A44     		add	r2, r2, r3
 2127 090a 00F00F00 		and	r0, r0, #15
 2128 090e 82F8CA00 		strb	r0, [r2, #202]
 493:.\Protocolo.c **** 						rventa.tdinero[x]=(Surtidor_rxBuffer[y+13+x]&0x0F);
 2129              		.loc 1 493 0 discriminator 3
 2130 0912 0133     		adds	r3, r3, #1
 2131 0914 9A4A     		ldr	r2, .L598+8
 2132 0916 1360     		str	r3, [r2]
 2133              	.L160:
 493:.\Protocolo.c **** 						rventa.tdinero[x]=(Surtidor_rxBuffer[y+13+x]&0x0F);
 2134              		.loc 1 493 0 is_stmt 0 discriminator 1
 2135 0918 994B     		ldr	r3, .L598+8
 2136 091a 1B68     		ldr	r3, [r3]
 2137 091c 072B     		cmp	r3, #7
 2138 091e EED9     		bls	.L161
 495:.\Protocolo.c ****                         
 496:.\Protocolo.c **** 					}
 497:.\Protocolo.c **** 					for(z=0;z<=7;z++){
 2139              		.loc 1 497 0 is_stmt 1
 2140 0920 0022     		movs	r2, #0
 2141 0922 984B     		ldr	r3, .L598+12
 2142 0924 1A60     		str	r2, [r3]
 2143 0926 0AE0     		b	.L162
 2144              	.L163:
 498:.\Protocolo.c **** 						corte[z+1]=rventa.tvolumen[z];
 2145              		.loc 1 498 0 discriminator 3
 2146 0928 5A1C     		adds	r2, r3, #1
 2147 092a 9448     		ldr	r0, .L598+4
 2148 092c 0344     		add	r3, r3, r0
 2149 092e 93F8BD00 		ldrb	r0, [r3, #189]	@ zero_extendqisi2
 2150 0932 10AB     		add	r3, sp, #64
 2151 0934 1344     		add	r3, r3, r2
 2152 0936 03F81C0C 		strb	r0, [r3, #-28]
 497:.\Protocolo.c **** 						corte[z+1]=rventa.tvolumen[z];
ARM GAS  C:\Users\IN-002~1\AppData\Local\Temp\ccxO8rjh.s 			page 50


 2153              		.loc 1 497 0 discriminator 3
 2154 093a 924B     		ldr	r3, .L598+12
 2155 093c 1A60     		str	r2, [r3]
 2156              	.L162:
 497:.\Protocolo.c **** 						corte[z+1]=rventa.tvolumen[z];
 2157              		.loc 1 497 0 is_stmt 0 discriminator 1
 2158 093e 914B     		ldr	r3, .L598+12
 2159 0940 1B68     		ldr	r3, [r3]
 2160 0942 072B     		cmp	r3, #7
 2161 0944 F0D9     		bls	.L163
 499:.\Protocolo.c **** 					}
 500:.\Protocolo.c **** 					for(z=9;z<=16;z++){
 2162              		.loc 1 500 0 is_stmt 1
 2163 0946 0922     		movs	r2, #9
 2164 0948 8E4B     		ldr	r3, .L598+12
 2165 094a 1A60     		str	r2, [r3]
 2166 094c 0AE0     		b	.L164
 2167              	.L165:
 501:.\Protocolo.c **** 						corte[z]=rventa.tdinero[z-9];
 2168              		.loc 1 501 0 discriminator 3
 2169 094e 8E4A     		ldr	r2, .L598+16
 2170 0950 1A44     		add	r2, r2, r3
 2171 0952 92F8CA00 		ldrb	r0, [r2, #202]	@ zero_extendqisi2
 2172 0956 10AA     		add	r2, sp, #64
 2173 0958 1A44     		add	r2, r2, r3
 2174 095a 02F81C0C 		strb	r0, [r2, #-28]
 500:.\Protocolo.c **** 						corte[z]=rventa.tdinero[z-9];
 2175              		.loc 1 500 0 discriminator 3
 2176 095e 0133     		adds	r3, r3, #1
 2177 0960 884A     		ldr	r2, .L598+12
 2178 0962 1360     		str	r3, [r2]
 2179              	.L164:
 500:.\Protocolo.c **** 						corte[z]=rventa.tdinero[z-9];
 2180              		.loc 1 500 0 is_stmt 0 discriminator 1
 2181 0964 874B     		ldr	r3, .L598+12
 2182 0966 1B68     		ldr	r3, [r3]
 2183 0968 102B     		cmp	r3, #16
 2184 096a F0D9     		bls	.L165
 502:.\Protocolo.c **** 					}
 503:.\Protocolo.c **** 					corte[0]=16;							
 2185              		.loc 1 503 0 is_stmt 1
 2186 096c 1023     		movs	r3, #16
 2187 096e 8DF82430 		strb	r3, [sp, #36]
 504:.\Protocolo.c **** 					if(((rventa.manguera==(corriente&0x0F))&&(dir==lado.a.dir))||((rventa.manguera==(corriente2&0x
 2188              		.loc 1 504 0
 2189 0972 864B     		ldr	r3, .L598+20
 2190 0974 1B78     		ldrb	r3, [r3]	@ zero_extendqisi2
 2191 0976 03F00F03 		and	r3, r3, #15
 2192 097a 8B42     		cmp	r3, r1
 2193 097c 03D1     		bne	.L166
 2194              		.loc 1 504 0 is_stmt 0 discriminator 1
 2195 097e 844B     		ldr	r3, .L598+24
 2196 0980 1B78     		ldrb	r3, [r3]	@ zero_extendqisi2
 2197 0982 AB42     		cmp	r3, r5
 2198 0984 0BD0     		beq	.L167
 2199              	.L166:
 2200              		.loc 1 504 0 discriminator 3
ARM GAS  C:\Users\IN-002~1\AppData\Local\Temp\ccxO8rjh.s 			page 51


 2201 0986 834B     		ldr	r3, .L598+28
 2202 0988 1B78     		ldrb	r3, [r3]	@ zero_extendqisi2
 2203 098a 03F00F03 		and	r3, r3, #15
 2204 098e 9942     		cmp	r1, r3
 2205 0990 40F0C080 		bne	.L168
 2206              		.loc 1 504 0 discriminator 4
 2207 0994 7E4B     		ldr	r3, .L598+24
 2208 0996 1B79     		ldrb	r3, [r3, #4]	@ zero_extendqisi2
 2209 0998 AB42     		cmp	r3, r5
 2210 099a 40F0BB80 		bne	.L168
 2211              	.L167:
 505:.\Protocolo.c **** 						for(x=0;x<=5;x++){									
 2212              		.loc 1 505 0 is_stmt 1
 2213 099e 0022     		movs	r2, #0
 2214 09a0 774B     		ldr	r3, .L598+8
 2215 09a2 1A60     		str	r2, [r3]
 2216 09a4 08E0     		b	.L169
 2217              	.L170:
 506:.\Protocolo.c **** 							write_psoc1(val,msn_tc[x]);
 2218              		.loc 1 506 0 discriminator 3
 2219 09a6 2046     		mov	r0, r4
 2220 09a8 7B4A     		ldr	r2, .L598+32
 2221 09aa D15C     		ldrb	r1, [r2, r3]	@ zero_extendqisi2
 2222 09ac FFF7FEFF 		bl	write_psoc1
 2223              	.LVL192:
 505:.\Protocolo.c **** 						for(x=0;x<=5;x++){									
 2224              		.loc 1 505 0 discriminator 3
 2225 09b0 734A     		ldr	r2, .L598+8
 2226 09b2 1368     		ldr	r3, [r2]
 2227 09b4 0133     		adds	r3, r3, #1
 2228 09b6 1360     		str	r3, [r2]
 2229              	.L169:
 505:.\Protocolo.c **** 						for(x=0;x<=5;x++){									
 2230              		.loc 1 505 0 is_stmt 0 discriminator 1
 2231 09b8 714B     		ldr	r3, .L598+8
 2232 09ba 1B68     		ldr	r3, [r3]
 2233 09bc 052B     		cmp	r3, #5
 2234 09be F2D9     		bls	.L170
 507:.\Protocolo.c **** 						}
 508:.\Protocolo.c **** 						write_psoc1(val,10);
 2235              		.loc 1 508 0 is_stmt 1
 2236 09c0 2046     		mov	r0, r4
 2237 09c2 0A21     		movs	r1, #10
 2238 09c4 FFF7FEFF 		bl	write_psoc1
 2239              	.LVL193:
 509:.\Protocolo.c ****                         for(x=0;x<=10;x++){									
 2240              		.loc 1 509 0
 2241 09c8 0022     		movs	r2, #0
 2242 09ca 6D4B     		ldr	r3, .L598+8
 2243 09cc 1A60     		str	r2, [r3]
 2244 09ce 08E0     		b	.L171
 2245              	.L172:
 510:.\Protocolo.c **** 						write_psoc1(val,producto1n[x]);
 2246              		.loc 1 510 0 discriminator 3
 2247 09d0 2046     		mov	r0, r4
 2248 09d2 724A     		ldr	r2, .L598+36
 2249 09d4 D15C     		ldrb	r1, [r2, r3]	@ zero_extendqisi2
ARM GAS  C:\Users\IN-002~1\AppData\Local\Temp\ccxO8rjh.s 			page 52


 2250 09d6 FFF7FEFF 		bl	write_psoc1
 2251              	.LVL194:
 509:.\Protocolo.c ****                         for(x=0;x<=10;x++){									
 2252              		.loc 1 509 0 discriminator 3
 2253 09da 694A     		ldr	r2, .L598+8
 2254 09dc 1368     		ldr	r3, [r2]
 2255 09de 0133     		adds	r3, r3, #1
 2256 09e0 1360     		str	r3, [r2]
 2257              	.L171:
 509:.\Protocolo.c ****                         for(x=0;x<=10;x++){									
 2258              		.loc 1 509 0 is_stmt 0 discriminator 1
 2259 09e2 674B     		ldr	r3, .L598+8
 2260 09e4 1B68     		ldr	r3, [r3]
 2261 09e6 0A2B     		cmp	r3, #10
 2262 09e8 F2D9     		bls	.L172
 511:.\Protocolo.c **** 					    }
 512:.\Protocolo.c ****                         write_psoc1(val,10);
 2263              		.loc 1 512 0 is_stmt 1
 2264 09ea 2046     		mov	r0, r4
 2265 09ec 0A21     		movs	r1, #10
 2266 09ee FFF7FEFF 		bl	write_psoc1
 2267              	.LVL195:
 513:.\Protocolo.c **** 						for(x=0;x<=14;x++){									
 2268              		.loc 1 513 0
 2269 09f2 0022     		movs	r2, #0
 2270 09f4 624B     		ldr	r3, .L598+8
 2271 09f6 1A60     		str	r2, [r3]
 2272 09f8 09E0     		b	.L173
 2273              	.L174:
 514:.\Protocolo.c **** 							write_psoc1(val,msn_lecact[x]);				//LECTURA ACTUAL
 2274              		.loc 1 514 0 discriminator 3
 2275 09fa 674A     		ldr	r2, .L598+32
 2276 09fc 1344     		add	r3, r3, r2
 2277 09fe 2046     		mov	r0, r4
 2278 0a00 197A     		ldrb	r1, [r3, #8]	@ zero_extendqisi2
 2279 0a02 FFF7FEFF 		bl	write_psoc1
 2280              	.LVL196:
 513:.\Protocolo.c **** 						for(x=0;x<=14;x++){									
 2281              		.loc 1 513 0 discriminator 3
 2282 0a06 5E4A     		ldr	r2, .L598+8
 2283 0a08 1368     		ldr	r3, [r2]
 2284 0a0a 0133     		adds	r3, r3, #1
 2285 0a0c 1360     		str	r3, [r2]
 2286              	.L173:
 513:.\Protocolo.c **** 						for(x=0;x<=14;x++){									
 2287              		.loc 1 513 0 is_stmt 0 discriminator 1
 2288 0a0e 5C4B     		ldr	r3, .L598+8
 2289 0a10 1B68     		ldr	r3, [r3]
 2290 0a12 0E2B     		cmp	r3, #14
 2291 0a14 F1D9     		bls	.L174
 515:.\Protocolo.c **** 						}
 516:.\Protocolo.c **** 						write_psoc1(val,10);
 2292              		.loc 1 516 0 is_stmt 1
 2293 0a16 2046     		mov	r0, r4
 2294 0a18 0A21     		movs	r1, #10
 2295 0a1a FFF7FEFF 		bl	write_psoc1
 2296              	.LVL197:
ARM GAS  C:\Users\IN-002~1\AppData\Local\Temp\ccxO8rjh.s 			page 53


 517:.\Protocolo.c **** 						print_totalesac(8,val);	
 2297              		.loc 1 517 0
 2298 0a1e 0820     		movs	r0, #8
 2299 0a20 2146     		mov	r1, r4
 2300 0a22 FFF7FEFF 		bl	print_totalesac
 2301              	.LVL198:
 518:.\Protocolo.c **** 						for(x=0;x<=16;x++){												
 2302              		.loc 1 518 0
 2303 0a26 0022     		movs	r2, #0
 2304 0a28 554B     		ldr	r3, .L598+8
 2305 0a2a 1A60     		str	r2, [r3]
 2306 0a2c 09E0     		b	.L175
 2307              	.L176:
 519:.\Protocolo.c **** 							write_psoc1(val,msn_lecaan[x]);				//LECTURA ANTERIOR
 2308              		.loc 1 519 0 discriminator 3
 2309 0a2e 5A4A     		ldr	r2, .L598+32
 2310 0a30 1344     		add	r3, r3, r2
 2311 0a32 2046     		mov	r0, r4
 2312 0a34 197E     		ldrb	r1, [r3, #24]	@ zero_extendqisi2
 2313 0a36 FFF7FEFF 		bl	write_psoc1
 2314              	.LVL199:
 518:.\Protocolo.c **** 						for(x=0;x<=16;x++){												
 2315              		.loc 1 518 0 discriminator 3
 2316 0a3a 514A     		ldr	r2, .L598+8
 2317 0a3c 1368     		ldr	r3, [r2]
 2318 0a3e 0133     		adds	r3, r3, #1
 2319 0a40 1360     		str	r3, [r2]
 2320              	.L175:
 518:.\Protocolo.c **** 						for(x=0;x<=16;x++){												
 2321              		.loc 1 518 0 is_stmt 0 discriminator 1
 2322 0a42 4F4B     		ldr	r3, .L598+8
 2323 0a44 1B68     		ldr	r3, [r3]
 2324 0a46 102B     		cmp	r3, #16
 2325 0a48 F1D9     		bls	.L176
 520:.\Protocolo.c **** 						}
 521:.\Protocolo.c **** 						write_psoc1(val,10);
 2326              		.loc 1 521 0 is_stmt 1
 2327 0a4a 2046     		mov	r0, r4
 2328 0a4c 0A21     		movs	r1, #10
 2329 0a4e FFF7FEFF 		bl	write_psoc1
 2330              	.LVL200:
 522:.\Protocolo.c **** 						if(dir==lado.a.dir){
 2331              		.loc 1 522 0
 2332 0a52 4F4B     		ldr	r3, .L598+24
 2333 0a54 1B78     		ldrb	r3, [r3]	@ zero_extendqisi2
 2334 0a56 AB42     		cmp	r3, r5
 2335 0a58 04D1     		bne	.L177
 523:.\Protocolo.c **** 							leer_eeprom(192,25);
 2336              		.loc 1 523 0
 2337 0a5a C020     		movs	r0, #192
 2338 0a5c 1921     		movs	r1, #25
 2339 0a5e FFF7FEFF 		bl	leer_eeprom
 2340              	.LVL201:
 2341 0a62 04E0     		b	.L178
 2342              	.L177:
 524:.\Protocolo.c **** 						}
 525:.\Protocolo.c **** 						else{
ARM GAS  C:\Users\IN-002~1\AppData\Local\Temp\ccxO8rjh.s 			page 54


 526:.\Protocolo.c **** 							leer_eeprom(281,25);
 2343              		.loc 1 526 0
 2344 0a64 40F21910 		movw	r0, #281
 2345 0a68 1921     		movs	r1, #25
 2346 0a6a FFF7FEFF 		bl	leer_eeprom
 2347              	.LVL202:
 2348              	.L178:
 527:.\Protocolo.c **** 						}
 528:.\Protocolo.c **** 						print_totales(val);
 2349              		.loc 1 528 0
 2350 0a6e 2046     		mov	r0, r4
 2351 0a70 FFF7FEFF 		bl	print_totales
 2352              	.LVL203:
 529:.\Protocolo.c **** 						for(z=1;z<=8;z++){
 2353              		.loc 1 529 0
 2354 0a74 0122     		movs	r2, #1
 2355 0a76 434B     		ldr	r3, .L598+12
 2356 0a78 1A60     		str	r2, [r3]
 2357 0a7a 10E0     		b	.L179
 2358              	.L180:
 530:.\Protocolo.c **** 							minuendo[z]=rventa.tdinero[z-1];
 2359              		.loc 1 530 0 discriminator 3
 2360 0a7c 484A     		ldr	r2, .L598+40
 2361 0a7e 1A44     		add	r2, r2, r3
 2362 0a80 92F8CA10 		ldrb	r1, [r2, #202]	@ zero_extendqisi2
 2363 0a84 10AA     		add	r2, sp, #64
 2364 0a86 1A44     		add	r2, r2, r3
 2365 0a88 02F82C1C 		strb	r1, [r2, #-44]
 531:.\Protocolo.c **** 							sustraendo[z]=buffer_i2c[z+8];
 2366              		.loc 1 531 0 discriminator 3
 2367 0a8c 03F10801 		add	r1, r3, #8
 2368 0a90 4448     		ldr	r0, .L598+44
 2369 0a92 415C     		ldrb	r1, [r0, r1]	@ zero_extendqisi2
 2370 0a94 02F83C1C 		strb	r1, [r2, #-60]
 529:.\Protocolo.c **** 						for(z=1;z<=8;z++){
 2371              		.loc 1 529 0 discriminator 3
 2372 0a98 0133     		adds	r3, r3, #1
 2373 0a9a 3A4A     		ldr	r2, .L598+12
 2374 0a9c 1360     		str	r3, [r2]
 2375              	.L179:
 529:.\Protocolo.c **** 						for(z=1;z<=8;z++){
 2376              		.loc 1 529 0 is_stmt 0 discriminator 1
 2377 0a9e 394B     		ldr	r3, .L598+12
 2378 0aa0 1B68     		ldr	r3, [r3]
 2379 0aa2 082B     		cmp	r3, #8
 2380 0aa4 EAD9     		bls	.L180
 532:.\Protocolo.c **** 						}
 533:.\Protocolo.c **** 						minuendo[0]=8;
 2381              		.loc 1 533 0 is_stmt 1
 2382 0aa6 10A9     		add	r1, sp, #64
 2383 0aa8 0823     		movs	r3, #8
 2384 0aaa 01F82C3D 		strb	r3, [r1, #-44]!
 534:.\Protocolo.c **** 						operacion(2,minuendo,sustraendo);
 2385              		.loc 1 534 0
 2386 0aae 0220     		movs	r0, #2
 2387 0ab0 01AA     		add	r2, sp, #4
 2388 0ab2 FFF7FEFF 		bl	operacion
ARM GAS  C:\Users\IN-002~1\AppData\Local\Temp\ccxO8rjh.s 			page 55


 2389              	.LVL204:
 535:.\Protocolo.c **** 						for(x=0;x<=17;x++){									
 2390              		.loc 1 535 0
 2391 0ab6 0022     		movs	r2, #0
 2392 0ab8 314B     		ldr	r3, .L598+8
 2393 0aba 1A60     		str	r2, [r3]
 2394 0abc 0AE0     		b	.L181
 2395              	.L182:
 536:.\Protocolo.c **** 							write_psoc1(val,msn_tventas[x]);				//Total de ventas
 2396              		.loc 1 536 0 discriminator 3
 2397 0abe 364A     		ldr	r2, .L598+32
 2398 0ac0 1344     		add	r3, r3, r2
 2399 0ac2 2046     		mov	r0, r4
 2400 0ac4 93F82C10 		ldrb	r1, [r3, #44]	@ zero_extendqisi2
 2401 0ac8 FFF7FEFF 		bl	write_psoc1
 2402              	.LVL205:
 535:.\Protocolo.c **** 						for(x=0;x<=17;x++){									
 2403              		.loc 1 535 0 discriminator 3
 2404 0acc 2C4A     		ldr	r2, .L598+8
 2405 0ace 1368     		ldr	r3, [r2]
 2406 0ad0 0133     		adds	r3, r3, #1
 2407 0ad2 1360     		str	r3, [r2]
 2408              	.L181:
 535:.\Protocolo.c **** 						for(x=0;x<=17;x++){									
 2409              		.loc 1 535 0 is_stmt 0 discriminator 1
 2410 0ad4 2A4B     		ldr	r3, .L598+8
 2411 0ad6 1B68     		ldr	r3, [r3]
 2412 0ad8 112B     		cmp	r3, #17
 2413 0ada F0D9     		bls	.L182
 537:.\Protocolo.c **** 						}
 538:.\Protocolo.c **** 						print_valor(resultado,val);
 2414              		.loc 1 538 0 is_stmt 1
 2415 0adc 3248     		ldr	r0, .L598+48
 2416 0ade 2146     		mov	r1, r4
 2417 0ae0 FFF7FEFF 		bl	print_valor
 2418              	.LVL206:
 539:.\Protocolo.c **** 						if(dir==lado.a.dir){
 2419              		.loc 1 539 0
 2420 0ae4 2A4B     		ldr	r3, .L598+24
 2421 0ae6 1B78     		ldrb	r3, [r3]	@ zero_extendqisi2
 2422 0ae8 AB42     		cmp	r3, r5
 2423 0aea 09D1     		bne	.L183
 540:.\Protocolo.c **** 							write_eeprom(192,corte);	
 2424              		.loc 1 540 0
 2425 0aec C020     		movs	r0, #192
 2426 0aee 09A9     		add	r1, sp, #36
 2427 0af0 FFF7FEFF 		bl	write_eeprom
 2428              	.LVL207:
 541:.\Protocolo.c **** 							write_eeprom(512,resultado);
 2429              		.loc 1 541 0
 2430 0af4 4FF40070 		mov	r0, #512
 2431 0af8 2B49     		ldr	r1, .L598+48
 2432 0afa FFF7FEFF 		bl	write_eeprom
 2433              	.LVL208:
 2434 0afe 09E0     		b	.L168
 2435              	.L183:
 542:.\Protocolo.c **** 						}
ARM GAS  C:\Users\IN-002~1\AppData\Local\Temp\ccxO8rjh.s 			page 56


 543:.\Protocolo.c **** 						else{
 544:.\Protocolo.c **** 							write_eeprom(281,corte);
 2436              		.loc 1 544 0
 2437 0b00 40F21910 		movw	r0, #281
 2438 0b04 09A9     		add	r1, sp, #36
 2439 0b06 FFF7FEFF 		bl	write_eeprom
 2440              	.LVL209:
 545:.\Protocolo.c **** 							write_eeprom(551,resultado);
 2441              		.loc 1 545 0
 2442 0b0a 40F22720 		movw	r0, #551
 2443 0b0e 2649     		ldr	r1, .L598+48
 2444 0b10 FFF7FEFF 		bl	write_eeprom
 2445              	.LVL210:
 2446              	.L168:
 546:.\Protocolo.c **** 						}
 547:.\Protocolo.c **** 					}
 548:.\Protocolo.c **** 					if(((rventa.manguera==(diesel&0x0F))&&(dir==lado.a.dir))||((rventa.manguera==(diesel2&0x0F))&&
 2447              		.loc 1 548 0
 2448 0b14 194B     		ldr	r3, .L598+4
 2449 0b16 93F8E020 		ldrb	r2, [r3, #224]	@ zero_extendqisi2
 2450 0b1a 244B     		ldr	r3, .L598+52
 2451 0b1c 1B78     		ldrb	r3, [r3]	@ zero_extendqisi2
 2452 0b1e 03F00F03 		and	r3, r3, #15
 2453 0b22 9342     		cmp	r3, r2
 2454 0b24 03D1     		bne	.L184
 2455              		.loc 1 548 0 is_stmt 0 discriminator 1
 2456 0b26 1A4B     		ldr	r3, .L598+24
 2457 0b28 1B78     		ldrb	r3, [r3]	@ zero_extendqisi2
 2458 0b2a AB42     		cmp	r3, r5
 2459 0b2c 0BD0     		beq	.L185
 2460              	.L184:
 2461              		.loc 1 548 0 discriminator 3
 2462 0b2e 204B     		ldr	r3, .L598+56
 2463 0b30 1B78     		ldrb	r3, [r3]	@ zero_extendqisi2
 2464 0b32 03F00F03 		and	r3, r3, #15
 2465 0b36 9A42     		cmp	r2, r3
 2466 0b38 40F0DE80 		bne	.L186
 2467              		.loc 1 548 0 discriminator 4
 2468 0b3c 144B     		ldr	r3, .L598+24
 2469 0b3e 1B79     		ldrb	r3, [r3, #4]	@ zero_extendqisi2
 2470 0b40 AB42     		cmp	r3, r5
 2471 0b42 40F0D980 		bne	.L186
 2472              	.L185:
 549:.\Protocolo.c **** 						for(x=0;x<=5;x++){									
 2473              		.loc 1 549 0 is_stmt 1
 2474 0b46 0022     		movs	r2, #0
 2475 0b48 0D4B     		ldr	r3, .L598+8
 2476 0b4a 1A60     		str	r2, [r3]
 2477 0b4c 08E0     		b	.L187
 2478              	.L188:
 550:.\Protocolo.c **** 						    write_psoc1(val,msn_tc[x]);
 2479              		.loc 1 550 0 discriminator 3
 2480 0b4e 2046     		mov	r0, r4
 2481 0b50 114A     		ldr	r2, .L598+32
 2482 0b52 D15C     		ldrb	r1, [r2, r3]	@ zero_extendqisi2
 2483 0b54 FFF7FEFF 		bl	write_psoc1
 2484              	.LVL211:
ARM GAS  C:\Users\IN-002~1\AppData\Local\Temp\ccxO8rjh.s 			page 57


 549:.\Protocolo.c **** 						for(x=0;x<=5;x++){									
 2485              		.loc 1 549 0 discriminator 3
 2486 0b58 094A     		ldr	r2, .L598+8
 2487 0b5a 1368     		ldr	r3, [r2]
 2488 0b5c 0133     		adds	r3, r3, #1
 2489 0b5e 1360     		str	r3, [r2]
 2490              	.L187:
 549:.\Protocolo.c **** 						for(x=0;x<=5;x++){									
 2491              		.loc 1 549 0 is_stmt 0 discriminator 1
 2492 0b60 074B     		ldr	r3, .L598+8
 2493 0b62 1B68     		ldr	r3, [r3]
 2494 0b64 052B     		cmp	r3, #5
 2495 0b66 F2D9     		bls	.L188
 551:.\Protocolo.c **** 					    }
 552:.\Protocolo.c **** 					    write_psoc1(val,10);
 2496              		.loc 1 552 0 is_stmt 1
 2497 0b68 2046     		mov	r0, r4
 2498 0b6a 0A21     		movs	r1, #10
 2499 0b6c FFF7FEFF 		bl	write_psoc1
 2500              	.LVL212:
 553:.\Protocolo.c ****                         for(x=0;x<=10;x++){									
 2501              		.loc 1 553 0
 2502 0b70 0022     		movs	r2, #0
 2503 0b72 034B     		ldr	r3, .L598+8
 2504 0b74 1A60     		str	r2, [r3]
 2505 0b76 26E0     		b	.L189
 2506              	.L599:
 2507              		.align	2
 2508              	.L598:
 2509 0b78 00000000 		.word	Surtidor_rxBuffer
 2510 0b7c 00000000 		.word	rventa
 2511 0b80 00000000 		.word	x
 2512 0b84 00000000 		.word	z
 2513 0b88 F7FFFFFF 		.word	rventa-9
 2514 0b8c 00000000 		.word	corriente
 2515 0b90 00000000 		.word	lado
 2516 0b94 00000000 		.word	corriente2
 2517 0b98 00000000 		.word	.LANCHOR1
 2518 0b9c 00000000 		.word	producto1n
 2519 0ba0 FFFFFFFF 		.word	rventa-1
 2520 0ba4 00000000 		.word	buffer_i2c
 2521 0ba8 00000000 		.word	resultado
 2522 0bac 00000000 		.word	diesel
 2523 0bb0 00000000 		.word	diesel2
 2524              	.L190:
 554:.\Protocolo.c **** 						    write_psoc1(val,producto2n[x]);
 2525              		.loc 1 554 0 discriminator 3
 2526 0bb4 2046     		mov	r0, r4
 2527 0bb6 A54A     		ldr	r2, .L600
 2528 0bb8 D15C     		ldrb	r1, [r2, r3]	@ zero_extendqisi2
 2529 0bba FFF7FEFF 		bl	write_psoc1
 2530              	.LVL213:
 553:.\Protocolo.c ****                         for(x=0;x<=10;x++){									
 2531              		.loc 1 553 0 discriminator 3
 2532 0bbe A44A     		ldr	r2, .L600+4
 2533 0bc0 1368     		ldr	r3, [r2]
 2534 0bc2 0133     		adds	r3, r3, #1
ARM GAS  C:\Users\IN-002~1\AppData\Local\Temp\ccxO8rjh.s 			page 58


 2535 0bc4 1360     		str	r3, [r2]
 2536              	.L189:
 553:.\Protocolo.c ****                         for(x=0;x<=10;x++){									
 2537              		.loc 1 553 0 is_stmt 0 discriminator 1
 2538 0bc6 A24B     		ldr	r3, .L600+4
 2539 0bc8 1B68     		ldr	r3, [r3]
 2540 0bca 0A2B     		cmp	r3, #10
 2541 0bcc F2D9     		bls	.L190
 555:.\Protocolo.c **** 					    }
 556:.\Protocolo.c ****                         write_psoc1(val,10);
 2542              		.loc 1 556 0 is_stmt 1
 2543 0bce 2046     		mov	r0, r4
 2544 0bd0 0A21     		movs	r1, #10
 2545 0bd2 FFF7FEFF 		bl	write_psoc1
 2546              	.LVL214:
 557:.\Protocolo.c **** 						for(x=0;x<=14;x++){									
 2547              		.loc 1 557 0
 2548 0bd6 0022     		movs	r2, #0
 2549 0bd8 9D4B     		ldr	r3, .L600+4
 2550 0bda 1A60     		str	r2, [r3]
 2551 0bdc 09E0     		b	.L191
 2552              	.L192:
 558:.\Protocolo.c **** 							write_psoc1(val,msn_lecact[x]);				//LECTURA ACTUAL
 2553              		.loc 1 558 0 discriminator 3
 2554 0bde 9D4A     		ldr	r2, .L600+8
 2555 0be0 1344     		add	r3, r3, r2
 2556 0be2 2046     		mov	r0, r4
 2557 0be4 197A     		ldrb	r1, [r3, #8]	@ zero_extendqisi2
 2558 0be6 FFF7FEFF 		bl	write_psoc1
 2559              	.LVL215:
 557:.\Protocolo.c **** 						for(x=0;x<=14;x++){									
 2560              		.loc 1 557 0 discriminator 3
 2561 0bea 994A     		ldr	r2, .L600+4
 2562 0bec 1368     		ldr	r3, [r2]
 2563 0bee 0133     		adds	r3, r3, #1
 2564 0bf0 1360     		str	r3, [r2]
 2565              	.L191:
 557:.\Protocolo.c **** 						for(x=0;x<=14;x++){									
 2566              		.loc 1 557 0 is_stmt 0 discriminator 1
 2567 0bf2 974B     		ldr	r3, .L600+4
 2568 0bf4 1B68     		ldr	r3, [r3]
 2569 0bf6 0E2B     		cmp	r3, #14
 2570 0bf8 F1D9     		bls	.L192
 559:.\Protocolo.c **** 						}
 560:.\Protocolo.c **** 						write_psoc1(val,10);
 2571              		.loc 1 560 0 is_stmt 1
 2572 0bfa 2046     		mov	r0, r4
 2573 0bfc 0A21     		movs	r1, #10
 2574 0bfe FFF7FEFF 		bl	write_psoc1
 2575              	.LVL216:
 561:.\Protocolo.c **** 						print_totalesac(8,val);	
 2576              		.loc 1 561 0
 2577 0c02 0820     		movs	r0, #8
 2578 0c04 2146     		mov	r1, r4
 2579 0c06 FFF7FEFF 		bl	print_totalesac
 2580              	.LVL217:
 562:.\Protocolo.c **** 						for(x=0;x<=16;x++){												
ARM GAS  C:\Users\IN-002~1\AppData\Local\Temp\ccxO8rjh.s 			page 59


 2581              		.loc 1 562 0
 2582 0c0a 0022     		movs	r2, #0
 2583 0c0c 904B     		ldr	r3, .L600+4
 2584 0c0e 1A60     		str	r2, [r3]
 2585 0c10 09E0     		b	.L193
 2586              	.L194:
 563:.\Protocolo.c **** 							write_psoc1(val,msn_lecaan[x]);				//LECTURA ANTERIOR
 2587              		.loc 1 563 0 discriminator 3
 2588 0c12 904A     		ldr	r2, .L600+8
 2589 0c14 1344     		add	r3, r3, r2
 2590 0c16 2046     		mov	r0, r4
 2591 0c18 197E     		ldrb	r1, [r3, #24]	@ zero_extendqisi2
 2592 0c1a FFF7FEFF 		bl	write_psoc1
 2593              	.LVL218:
 562:.\Protocolo.c **** 						for(x=0;x<=16;x++){												
 2594              		.loc 1 562 0 discriminator 3
 2595 0c1e 8C4A     		ldr	r2, .L600+4
 2596 0c20 1368     		ldr	r3, [r2]
 2597 0c22 0133     		adds	r3, r3, #1
 2598 0c24 1360     		str	r3, [r2]
 2599              	.L193:
 562:.\Protocolo.c **** 						for(x=0;x<=16;x++){												
 2600              		.loc 1 562 0 is_stmt 0 discriminator 1
 2601 0c26 8A4B     		ldr	r3, .L600+4
 2602 0c28 1B68     		ldr	r3, [r3]
 2603 0c2a 102B     		cmp	r3, #16
 2604 0c2c F1D9     		bls	.L194
 564:.\Protocolo.c **** 						}
 565:.\Protocolo.c **** 						write_psoc1(val,10);
 2605              		.loc 1 565 0 is_stmt 1
 2606 0c2e 2046     		mov	r0, r4
 2607 0c30 0A21     		movs	r1, #10
 2608 0c32 FFF7FEFF 		bl	write_psoc1
 2609              	.LVL219:
 566:.\Protocolo.c **** 						if(dir==lado.a.dir){
 2610              		.loc 1 566 0
 2611 0c36 884B     		ldr	r3, .L600+12
 2612 0c38 1B78     		ldrb	r3, [r3]	@ zero_extendqisi2
 2613 0c3a AB42     		cmp	r3, r5
 2614 0c3c 04D1     		bne	.L195
 567:.\Protocolo.c **** 							leer_eeprom(217,25);
 2615              		.loc 1 567 0
 2616 0c3e D920     		movs	r0, #217
 2617 0c40 1921     		movs	r1, #25
 2618 0c42 FFF7FEFF 		bl	leer_eeprom
 2619              	.LVL220:
 2620 0c46 04E0     		b	.L196
 2621              	.L195:
 568:.\Protocolo.c **** 						}
 569:.\Protocolo.c **** 						else{
 570:.\Protocolo.c **** 							leer_eeprom(320,25);
 2622              		.loc 1 570 0
 2623 0c48 4FF4A070 		mov	r0, #320
 2624 0c4c 1921     		movs	r1, #25
 2625 0c4e FFF7FEFF 		bl	leer_eeprom
 2626              	.LVL221:
 2627              	.L196:
ARM GAS  C:\Users\IN-002~1\AppData\Local\Temp\ccxO8rjh.s 			page 60


 571:.\Protocolo.c **** 						}
 572:.\Protocolo.c **** 						print_totales(val);
 2628              		.loc 1 572 0
 2629 0c52 2046     		mov	r0, r4
 2630 0c54 FFF7FEFF 		bl	print_totales
 2631              	.LVL222:
 573:.\Protocolo.c **** 						for(z=1;z<=8;z++){
 2632              		.loc 1 573 0
 2633 0c58 0122     		movs	r2, #1
 2634 0c5a 804B     		ldr	r3, .L600+16
 2635 0c5c 1A60     		str	r2, [r3]
 2636 0c5e 10E0     		b	.L197
 2637              	.L198:
 574:.\Protocolo.c **** 							minuendo[z]=rventa.tdinero[z-1];
 2638              		.loc 1 574 0 discriminator 3
 2639 0c60 7F4A     		ldr	r2, .L600+20
 2640 0c62 1A44     		add	r2, r2, r3
 2641 0c64 92F8CA10 		ldrb	r1, [r2, #202]	@ zero_extendqisi2
 2642 0c68 10AA     		add	r2, sp, #64
 2643 0c6a 1A44     		add	r2, r2, r3
 2644 0c6c 02F82C1C 		strb	r1, [r2, #-44]
 575:.\Protocolo.c **** 							sustraendo[z]=buffer_i2c[z+8];
 2645              		.loc 1 575 0 discriminator 3
 2646 0c70 03F10801 		add	r1, r3, #8
 2647 0c74 7B48     		ldr	r0, .L600+24
 2648 0c76 415C     		ldrb	r1, [r0, r1]	@ zero_extendqisi2
 2649 0c78 02F83C1C 		strb	r1, [r2, #-60]
 573:.\Protocolo.c **** 						for(z=1;z<=8;z++){
 2650              		.loc 1 573 0 discriminator 3
 2651 0c7c 0133     		adds	r3, r3, #1
 2652 0c7e 774A     		ldr	r2, .L600+16
 2653 0c80 1360     		str	r3, [r2]
 2654              	.L197:
 573:.\Protocolo.c **** 						for(z=1;z<=8;z++){
 2655              		.loc 1 573 0 is_stmt 0 discriminator 1
 2656 0c82 764B     		ldr	r3, .L600+16
 2657 0c84 1B68     		ldr	r3, [r3]
 2658 0c86 082B     		cmp	r3, #8
 2659 0c88 EAD9     		bls	.L198
 576:.\Protocolo.c **** 						}
 577:.\Protocolo.c **** 						minuendo[0]=8;
 2660              		.loc 1 577 0 is_stmt 1
 2661 0c8a 10A9     		add	r1, sp, #64
 2662 0c8c 0823     		movs	r3, #8
 2663 0c8e 01F82C3D 		strb	r3, [r1, #-44]!
 578:.\Protocolo.c **** 						operacion(2,minuendo,sustraendo);
 2664              		.loc 1 578 0
 2665 0c92 0220     		movs	r0, #2
 2666 0c94 01AA     		add	r2, sp, #4
 2667 0c96 FFF7FEFF 		bl	operacion
 2668              	.LVL223:
 579:.\Protocolo.c **** 						for(x=0;x<=17;x++){									
 2669              		.loc 1 579 0
 2670 0c9a 0022     		movs	r2, #0
 2671 0c9c 6C4B     		ldr	r3, .L600+4
 2672 0c9e 1A60     		str	r2, [r3]
 2673 0ca0 0AE0     		b	.L199
ARM GAS  C:\Users\IN-002~1\AppData\Local\Temp\ccxO8rjh.s 			page 61


 2674              	.L200:
 580:.\Protocolo.c **** 							write_psoc1(val,msn_tventas[x]);				//Total de ventas
 2675              		.loc 1 580 0 discriminator 3
 2676 0ca2 6C4A     		ldr	r2, .L600+8
 2677 0ca4 1344     		add	r3, r3, r2
 2678 0ca6 2046     		mov	r0, r4
 2679 0ca8 93F82C10 		ldrb	r1, [r3, #44]	@ zero_extendqisi2
 2680 0cac FFF7FEFF 		bl	write_psoc1
 2681              	.LVL224:
 579:.\Protocolo.c **** 						for(x=0;x<=17;x++){									
 2682              		.loc 1 579 0 discriminator 3
 2683 0cb0 674A     		ldr	r2, .L600+4
 2684 0cb2 1368     		ldr	r3, [r2]
 2685 0cb4 0133     		adds	r3, r3, #1
 2686 0cb6 1360     		str	r3, [r2]
 2687              	.L199:
 579:.\Protocolo.c **** 						for(x=0;x<=17;x++){									
 2688              		.loc 1 579 0 is_stmt 0 discriminator 1
 2689 0cb8 654B     		ldr	r3, .L600+4
 2690 0cba 1B68     		ldr	r3, [r3]
 2691 0cbc 112B     		cmp	r3, #17
 2692 0cbe F0D9     		bls	.L200
 581:.\Protocolo.c **** 						}
 582:.\Protocolo.c **** 						print_valor(resultado,val);				
 2693              		.loc 1 582 0 is_stmt 1
 2694 0cc0 6948     		ldr	r0, .L600+28
 2695 0cc2 2146     		mov	r1, r4
 2696 0cc4 FFF7FEFF 		bl	print_valor
 2697              	.LVL225:
 583:.\Protocolo.c **** 						if(dir==lado.a.dir){
 2698              		.loc 1 583 0
 2699 0cc8 634B     		ldr	r3, .L600+12
 2700 0cca 1B78     		ldrb	r3, [r3]	@ zero_extendqisi2
 2701 0ccc AB42     		cmp	r3, r5
 2702 0cce 09D1     		bne	.L201
 584:.\Protocolo.c **** 							write_eeprom(217,corte);
 2703              		.loc 1 584 0
 2704 0cd0 D920     		movs	r0, #217
 2705 0cd2 09A9     		add	r1, sp, #36
 2706 0cd4 FFF7FEFF 		bl	write_eeprom
 2707              	.LVL226:
 585:.\Protocolo.c **** 							write_eeprom(538,resultado);
 2708              		.loc 1 585 0
 2709 0cd8 40F21A20 		movw	r0, #538
 2710 0cdc 6249     		ldr	r1, .L600+28
 2711 0cde FFF7FEFF 		bl	write_eeprom
 2712              	.LVL227:
 2713 0ce2 09E0     		b	.L186
 2714              	.L201:
 586:.\Protocolo.c **** 						}
 587:.\Protocolo.c **** 						else{
 588:.\Protocolo.c **** 							write_eeprom(320,corte);
 2715              		.loc 1 588 0
 2716 0ce4 4FF4A070 		mov	r0, #320
 2717 0ce8 09A9     		add	r1, sp, #36
 2718 0cea FFF7FEFF 		bl	write_eeprom
 2719              	.LVL228:
ARM GAS  C:\Users\IN-002~1\AppData\Local\Temp\ccxO8rjh.s 			page 62


 589:.\Protocolo.c **** 							write_eeprom(576,resultado);
 2720              		.loc 1 589 0
 2721 0cee 4FF41070 		mov	r0, #576
 2722 0cf2 5D49     		ldr	r1, .L600+28
 2723 0cf4 FFF7FEFF 		bl	write_eeprom
 2724              	.LVL229:
 2725              	.L186:
 590:.\Protocolo.c **** 						}				
 591:.\Protocolo.c **** 					}
 592:.\Protocolo.c **** 					if(((rventa.manguera==(extra&0x0F))&&(dir==lado.a.dir))||((rventa.manguera==(extra2&0x0F))&&(d
 2726              		.loc 1 592 0
 2727 0cf8 5C4B     		ldr	r3, .L600+32
 2728 0cfa 93F8E020 		ldrb	r2, [r3, #224]	@ zero_extendqisi2
 2729 0cfe 5C4B     		ldr	r3, .L600+36
 2730 0d00 1B78     		ldrb	r3, [r3]	@ zero_extendqisi2
 2731 0d02 03F00F03 		and	r3, r3, #15
 2732 0d06 9342     		cmp	r3, r2
 2733 0d08 03D1     		bne	.L202
 2734              		.loc 1 592 0 is_stmt 0 discriminator 1
 2735 0d0a 534B     		ldr	r3, .L600+12
 2736 0d0c 1B78     		ldrb	r3, [r3]	@ zero_extendqisi2
 2737 0d0e AB42     		cmp	r3, r5
 2738 0d10 0BD0     		beq	.L203
 2739              	.L202:
 2740              		.loc 1 592 0 discriminator 3
 2741 0d12 584B     		ldr	r3, .L600+40
 2742 0d14 1B78     		ldrb	r3, [r3]	@ zero_extendqisi2
 2743 0d16 03F00F03 		and	r3, r3, #15
 2744 0d1a 9A42     		cmp	r2, r3
 2745 0d1c 40F0DA80 		bne	.L204
 2746              		.loc 1 592 0 discriminator 4
 2747 0d20 4D4B     		ldr	r3, .L600+12
 2748 0d22 1B79     		ldrb	r3, [r3, #4]	@ zero_extendqisi2
 2749 0d24 AB42     		cmp	r3, r5
 2750 0d26 40F0D580 		bne	.L204
 2751              	.L203:
 593:.\Protocolo.c **** 						for(x=0;x<=5;x++){									
 2752              		.loc 1 593 0 is_stmt 1
 2753 0d2a 0022     		movs	r2, #0
 2754 0d2c 484B     		ldr	r3, .L600+4
 2755 0d2e 1A60     		str	r2, [r3]
 2756 0d30 08E0     		b	.L205
 2757              	.L206:
 594:.\Protocolo.c **** 						    write_psoc1(val,msn_tc[x]);
 2758              		.loc 1 594 0 discriminator 3
 2759 0d32 2046     		mov	r0, r4
 2760 0d34 474A     		ldr	r2, .L600+8
 2761 0d36 D15C     		ldrb	r1, [r2, r3]	@ zero_extendqisi2
 2762 0d38 FFF7FEFF 		bl	write_psoc1
 2763              	.LVL230:
 593:.\Protocolo.c **** 						for(x=0;x<=5;x++){									
 2764              		.loc 1 593 0 discriminator 3
 2765 0d3c 444A     		ldr	r2, .L600+4
 2766 0d3e 1368     		ldr	r3, [r2]
 2767 0d40 0133     		adds	r3, r3, #1
 2768 0d42 1360     		str	r3, [r2]
 2769              	.L205:
ARM GAS  C:\Users\IN-002~1\AppData\Local\Temp\ccxO8rjh.s 			page 63


 593:.\Protocolo.c **** 						for(x=0;x<=5;x++){									
 2770              		.loc 1 593 0 is_stmt 0 discriminator 1
 2771 0d44 424B     		ldr	r3, .L600+4
 2772 0d46 1B68     		ldr	r3, [r3]
 2773 0d48 052B     		cmp	r3, #5
 2774 0d4a F2D9     		bls	.L206
 595:.\Protocolo.c **** 					    }
 596:.\Protocolo.c **** 					    write_psoc1(val,10);
 2775              		.loc 1 596 0 is_stmt 1
 2776 0d4c 2046     		mov	r0, r4
 2777 0d4e 0A21     		movs	r1, #10
 2778 0d50 FFF7FEFF 		bl	write_psoc1
 2779              	.LVL231:
 597:.\Protocolo.c ****                         for(x=0;x<=10;x++){									
 2780              		.loc 1 597 0
 2781 0d54 0022     		movs	r2, #0
 2782 0d56 3E4B     		ldr	r3, .L600+4
 2783 0d58 1A60     		str	r2, [r3]
 2784 0d5a 08E0     		b	.L207
 2785              	.L208:
 598:.\Protocolo.c **** 						    write_psoc1(val,producto3n[x]);
 2786              		.loc 1 598 0 discriminator 3
 2787 0d5c 2046     		mov	r0, r4
 2788 0d5e 464A     		ldr	r2, .L600+44
 2789 0d60 D15C     		ldrb	r1, [r2, r3]	@ zero_extendqisi2
 2790 0d62 FFF7FEFF 		bl	write_psoc1
 2791              	.LVL232:
 597:.\Protocolo.c ****                         for(x=0;x<=10;x++){									
 2792              		.loc 1 597 0 discriminator 3
 2793 0d66 3A4A     		ldr	r2, .L600+4
 2794 0d68 1368     		ldr	r3, [r2]
 2795 0d6a 0133     		adds	r3, r3, #1
 2796 0d6c 1360     		str	r3, [r2]
 2797              	.L207:
 597:.\Protocolo.c ****                         for(x=0;x<=10;x++){									
 2798              		.loc 1 597 0 is_stmt 0 discriminator 1
 2799 0d6e 384B     		ldr	r3, .L600+4
 2800 0d70 1B68     		ldr	r3, [r3]
 2801 0d72 0A2B     		cmp	r3, #10
 2802 0d74 F2D9     		bls	.L208
 599:.\Protocolo.c **** 					    }
 600:.\Protocolo.c ****                         write_psoc1(val,10);
 2803              		.loc 1 600 0 is_stmt 1
 2804 0d76 2046     		mov	r0, r4
 2805 0d78 0A21     		movs	r1, #10
 2806 0d7a FFF7FEFF 		bl	write_psoc1
 2807              	.LVL233:
 601:.\Protocolo.c **** 						for(x=0;x<=14;x++){									
 2808              		.loc 1 601 0
 2809 0d7e 0022     		movs	r2, #0
 2810 0d80 334B     		ldr	r3, .L600+4
 2811 0d82 1A60     		str	r2, [r3]
 2812 0d84 09E0     		b	.L209
 2813              	.L210:
 602:.\Protocolo.c **** 							write_psoc1(val,msn_lecact[x]);				//LECTURA ACTUAL
 2814              		.loc 1 602 0 discriminator 3
 2815 0d86 334A     		ldr	r2, .L600+8
ARM GAS  C:\Users\IN-002~1\AppData\Local\Temp\ccxO8rjh.s 			page 64


 2816 0d88 1344     		add	r3, r3, r2
 2817 0d8a 2046     		mov	r0, r4
 2818 0d8c 197A     		ldrb	r1, [r3, #8]	@ zero_extendqisi2
 2819 0d8e FFF7FEFF 		bl	write_psoc1
 2820              	.LVL234:
 601:.\Protocolo.c **** 						for(x=0;x<=14;x++){									
 2821              		.loc 1 601 0 discriminator 3
 2822 0d92 2F4A     		ldr	r2, .L600+4
 2823 0d94 1368     		ldr	r3, [r2]
 2824 0d96 0133     		adds	r3, r3, #1
 2825 0d98 1360     		str	r3, [r2]
 2826              	.L209:
 601:.\Protocolo.c **** 						for(x=0;x<=14;x++){									
 2827              		.loc 1 601 0 is_stmt 0 discriminator 1
 2828 0d9a 2D4B     		ldr	r3, .L600+4
 2829 0d9c 1B68     		ldr	r3, [r3]
 2830 0d9e 0E2B     		cmp	r3, #14
 2831 0da0 F1D9     		bls	.L210
 603:.\Protocolo.c **** 						}
 604:.\Protocolo.c **** 						write_psoc1(val,10);
 2832              		.loc 1 604 0 is_stmt 1
 2833 0da2 2046     		mov	r0, r4
 2834 0da4 0A21     		movs	r1, #10
 2835 0da6 FFF7FEFF 		bl	write_psoc1
 2836              	.LVL235:
 605:.\Protocolo.c **** 						print_totalesac(8,val);	
 2837              		.loc 1 605 0
 2838 0daa 0820     		movs	r0, #8
 2839 0dac 2146     		mov	r1, r4
 2840 0dae FFF7FEFF 		bl	print_totalesac
 2841              	.LVL236:
 606:.\Protocolo.c **** 						for(x=0;x<=16;x++){												
 2842              		.loc 1 606 0
 2843 0db2 0022     		movs	r2, #0
 2844 0db4 264B     		ldr	r3, .L600+4
 2845 0db6 1A60     		str	r2, [r3]
 2846 0db8 09E0     		b	.L211
 2847              	.L212:
 607:.\Protocolo.c **** 							write_psoc1(val,msn_lecaan[x]);				//LECTURA ANTERIOR
 2848              		.loc 1 607 0 discriminator 3
 2849 0dba 264A     		ldr	r2, .L600+8
 2850 0dbc 1344     		add	r3, r3, r2
 2851 0dbe 2046     		mov	r0, r4
 2852 0dc0 197E     		ldrb	r1, [r3, #24]	@ zero_extendqisi2
 2853 0dc2 FFF7FEFF 		bl	write_psoc1
 2854              	.LVL237:
 606:.\Protocolo.c **** 						for(x=0;x<=16;x++){												
 2855              		.loc 1 606 0 discriminator 3
 2856 0dc6 224A     		ldr	r2, .L600+4
 2857 0dc8 1368     		ldr	r3, [r2]
 2858 0dca 0133     		adds	r3, r3, #1
 2859 0dcc 1360     		str	r3, [r2]
 2860              	.L211:
 606:.\Protocolo.c **** 						for(x=0;x<=16;x++){												
 2861              		.loc 1 606 0 is_stmt 0 discriminator 1
 2862 0dce 204B     		ldr	r3, .L600+4
 2863 0dd0 1B68     		ldr	r3, [r3]
ARM GAS  C:\Users\IN-002~1\AppData\Local\Temp\ccxO8rjh.s 			page 65


 2864 0dd2 102B     		cmp	r3, #16
 2865 0dd4 F1D9     		bls	.L212
 608:.\Protocolo.c **** 						}
 609:.\Protocolo.c **** 						write_psoc1(val,10);
 2866              		.loc 1 609 0 is_stmt 1
 2867 0dd6 2046     		mov	r0, r4
 2868 0dd8 0A21     		movs	r1, #10
 2869 0dda FFF7FEFF 		bl	write_psoc1
 2870              	.LVL238:
 610:.\Protocolo.c **** 						if(dir==lado.a.dir){
 2871              		.loc 1 610 0
 2872 0dde 1E4B     		ldr	r3, .L600+12
 2873 0de0 1B78     		ldrb	r3, [r3]	@ zero_extendqisi2
 2874 0de2 AB42     		cmp	r3, r5
 2875 0de4 05D1     		bne	.L213
 611:.\Protocolo.c **** 							leer_eeprom(256,25);
 2876              		.loc 1 611 0
 2877 0de6 4FF48070 		mov	r0, #256
 2878 0dea 1921     		movs	r1, #25
 2879 0dec FFF7FEFF 		bl	leer_eeprom
 2880              	.LVL239:
 2881 0df0 04E0     		b	.L214
 2882              	.L213:
 612:.\Protocolo.c **** 						}
 613:.\Protocolo.c **** 						else{
 614:.\Protocolo.c **** 							leer_eeprom(345,25);
 2883              		.loc 1 614 0
 2884 0df2 40F25910 		movw	r0, #345
 2885 0df6 1921     		movs	r1, #25
 2886 0df8 FFF7FEFF 		bl	leer_eeprom
 2887              	.LVL240:
 2888              	.L214:
 615:.\Protocolo.c **** 						}
 616:.\Protocolo.c **** 						print_totales(val);
 2889              		.loc 1 616 0
 2890 0dfc 2046     		mov	r0, r4
 2891 0dfe FFF7FEFF 		bl	print_totales
 2892              	.LVL241:
 617:.\Protocolo.c **** 						for(z=1;z<=8;z++){
 2893              		.loc 1 617 0
 2894 0e02 0122     		movs	r2, #1
 2895 0e04 154B     		ldr	r3, .L600+16
 2896 0e06 1A60     		str	r2, [r3]
 2897 0e08 10E0     		b	.L215
 2898              	.L216:
 618:.\Protocolo.c **** 							minuendo[z]=rventa.tdinero[z-1];
 2899              		.loc 1 618 0 discriminator 3
 2900 0e0a 154A     		ldr	r2, .L600+20
 2901 0e0c 1A44     		add	r2, r2, r3
 2902 0e0e 92F8CA10 		ldrb	r1, [r2, #202]	@ zero_extendqisi2
 2903 0e12 10AA     		add	r2, sp, #64
 2904 0e14 1A44     		add	r2, r2, r3
 2905 0e16 02F82C1C 		strb	r1, [r2, #-44]
 619:.\Protocolo.c **** 							sustraendo[z]=buffer_i2c[z+8];
 2906              		.loc 1 619 0 discriminator 3
 2907 0e1a 03F10801 		add	r1, r3, #8
 2908 0e1e 1148     		ldr	r0, .L600+24
ARM GAS  C:\Users\IN-002~1\AppData\Local\Temp\ccxO8rjh.s 			page 66


 2909 0e20 415C     		ldrb	r1, [r0, r1]	@ zero_extendqisi2
 2910 0e22 02F83C1C 		strb	r1, [r2, #-60]
 617:.\Protocolo.c **** 						for(z=1;z<=8;z++){
 2911              		.loc 1 617 0 discriminator 3
 2912 0e26 0133     		adds	r3, r3, #1
 2913 0e28 0C4A     		ldr	r2, .L600+16
 2914 0e2a 1360     		str	r3, [r2]
 2915              	.L215:
 617:.\Protocolo.c **** 						for(z=1;z<=8;z++){
 2916              		.loc 1 617 0 is_stmt 0 discriminator 1
 2917 0e2c 0B4B     		ldr	r3, .L600+16
 2918 0e2e 1B68     		ldr	r3, [r3]
 2919 0e30 082B     		cmp	r3, #8
 2920 0e32 EAD9     		bls	.L216
 620:.\Protocolo.c **** 						}
 621:.\Protocolo.c **** 						minuendo[0]=8;
 2921              		.loc 1 621 0 is_stmt 1
 2922 0e34 10A9     		add	r1, sp, #64
 2923 0e36 0823     		movs	r3, #8
 2924 0e38 01F82C3D 		strb	r3, [r1, #-44]!
 622:.\Protocolo.c **** 						operacion(2,minuendo,sustraendo);
 2925              		.loc 1 622 0
 2926 0e3c 0220     		movs	r0, #2
 2927 0e3e 01AA     		add	r2, sp, #4
 2928 0e40 FFF7FEFF 		bl	operacion
 2929              	.LVL242:
 623:.\Protocolo.c **** 						for(x=0;x<=17;x++){									
 2930              		.loc 1 623 0
 2931 0e44 0022     		movs	r2, #0
 2932 0e46 024B     		ldr	r3, .L600+4
 2933 0e48 1A60     		str	r2, [r3]
 2934 0e4a 22E0     		b	.L217
 2935              	.L601:
 2936              		.align	2
 2937              	.L600:
 2938 0e4c 00000000 		.word	producto2n
 2939 0e50 00000000 		.word	x
 2940 0e54 00000000 		.word	.LANCHOR1
 2941 0e58 00000000 		.word	lado
 2942 0e5c 00000000 		.word	z
 2943 0e60 FFFFFFFF 		.word	rventa-1
 2944 0e64 00000000 		.word	buffer_i2c
 2945 0e68 00000000 		.word	resultado
 2946 0e6c 00000000 		.word	rventa
 2947 0e70 00000000 		.word	extra
 2948 0e74 00000000 		.word	extra2
 2949 0e78 00000000 		.word	producto3n
 2950              	.L218:
 624:.\Protocolo.c **** 							write_psoc1(val,msn_tventas[x]);				//Total de ventas
 2951              		.loc 1 624 0 discriminator 3
 2952 0e7c A74A     		ldr	r2, .L602
 2953 0e7e 1344     		add	r3, r3, r2
 2954 0e80 2046     		mov	r0, r4
 2955 0e82 93F82C10 		ldrb	r1, [r3, #44]	@ zero_extendqisi2
 2956 0e86 FFF7FEFF 		bl	write_psoc1
 2957              	.LVL243:
 623:.\Protocolo.c **** 						for(x=0;x<=17;x++){									
ARM GAS  C:\Users\IN-002~1\AppData\Local\Temp\ccxO8rjh.s 			page 67


 2958              		.loc 1 623 0 discriminator 3
 2959 0e8a A54A     		ldr	r2, .L602+4
 2960 0e8c 1368     		ldr	r3, [r2]
 2961 0e8e 0133     		adds	r3, r3, #1
 2962 0e90 1360     		str	r3, [r2]
 2963              	.L217:
 623:.\Protocolo.c **** 						for(x=0;x<=17;x++){									
 2964              		.loc 1 623 0 is_stmt 0 discriminator 1
 2965 0e92 A34B     		ldr	r3, .L602+4
 2966 0e94 1B68     		ldr	r3, [r3]
 2967 0e96 112B     		cmp	r3, #17
 2968 0e98 F0D9     		bls	.L218
 625:.\Protocolo.c **** 						}
 626:.\Protocolo.c **** 						print_valor(resultado,val);							
 2969              		.loc 1 626 0 is_stmt 1
 2970 0e9a A248     		ldr	r0, .L602+8
 2971 0e9c 2146     		mov	r1, r4
 2972 0e9e FFF7FEFF 		bl	print_valor
 2973              	.LVL244:
 627:.\Protocolo.c **** 						if(dir==lado.a.dir){
 2974              		.loc 1 627 0
 2975 0ea2 A14B     		ldr	r3, .L602+12
 2976 0ea4 1B78     		ldrb	r3, [r3]	@ zero_extendqisi2
 2977 0ea6 AB42     		cmp	r3, r5
 2978 0ea8 0AD1     		bne	.L219
 628:.\Protocolo.c **** 							write_eeprom(256,corte);
 2979              		.loc 1 628 0
 2980 0eaa 4FF48070 		mov	r0, #256
 2981 0eae 09A9     		add	r1, sp, #36
 2982 0eb0 FFF7FEFF 		bl	write_eeprom
 2983              	.LVL245:
 629:.\Protocolo.c **** 							write_eeprom(525,resultado);
 2984              		.loc 1 629 0
 2985 0eb4 40F20D20 		movw	r0, #525
 2986 0eb8 9A49     		ldr	r1, .L602+8
 2987 0eba FFF7FEFF 		bl	write_eeprom
 2988              	.LVL246:
 2989 0ebe 09E0     		b	.L204
 2990              	.L219:
 630:.\Protocolo.c **** 						}
 631:.\Protocolo.c **** 						else{
 632:.\Protocolo.c **** 							write_eeprom(345,corte);
 2991              		.loc 1 632 0
 2992 0ec0 40F25910 		movw	r0, #345
 2993 0ec4 09A9     		add	r1, sp, #36
 2994 0ec6 FFF7FEFF 		bl	write_eeprom
 2995              	.LVL247:
 633:.\Protocolo.c **** 							write_eeprom(589,resultado);
 2996              		.loc 1 633 0
 2997 0eca 40F24D20 		movw	r0, #589
 2998 0ece 9549     		ldr	r1, .L602+8
 2999 0ed0 FFF7FEFF 		bl	write_eeprom
 3000              	.LVL248:
 3001              	.L204:
 634:.\Protocolo.c **** 						}					
 635:.\Protocolo.c **** 					}	
 636:.\Protocolo.c ****                     
ARM GAS  C:\Users\IN-002~1\AppData\Local\Temp\ccxO8rjh.s 			page 68


 637:.\Protocolo.c ****                     if(((rventa.manguera==(kero&0x0F))&&(dir==lado.a.dir))||((rventa.manguera==(ker
 3002              		.loc 1 637 0
 3003 0ed4 954B     		ldr	r3, .L602+16
 3004 0ed6 93F8E020 		ldrb	r2, [r3, #224]	@ zero_extendqisi2
 3005 0eda 954B     		ldr	r3, .L602+20
 3006 0edc 1B78     		ldrb	r3, [r3]	@ zero_extendqisi2
 3007 0ede 03F00F03 		and	r3, r3, #15
 3008 0ee2 9342     		cmp	r3, r2
 3009 0ee4 03D1     		bne	.L220
 3010              		.loc 1 637 0 is_stmt 0 discriminator 1
 3011 0ee6 904B     		ldr	r3, .L602+12
 3012 0ee8 1B78     		ldrb	r3, [r3]	@ zero_extendqisi2
 3013 0eea AB42     		cmp	r3, r5
 3014 0eec 0BD0     		beq	.L221
 3015              	.L220:
 3016              		.loc 1 637 0 discriminator 3
 3017 0eee 914B     		ldr	r3, .L602+24
 3018 0ef0 1B78     		ldrb	r3, [r3]	@ zero_extendqisi2
 3019 0ef2 03F00F03 		and	r3, r3, #15
 3020 0ef6 9A42     		cmp	r2, r3
 3021 0ef8 40F0C280 		bne	.L222
 3022              		.loc 1 637 0 discriminator 4
 3023 0efc 8A4B     		ldr	r3, .L602+12
 3024 0efe 1B79     		ldrb	r3, [r3, #4]	@ zero_extendqisi2
 3025 0f00 AB42     		cmp	r3, r5
 3026 0f02 40F0BD80 		bne	.L222
 3027              	.L221:
 638:.\Protocolo.c **** 						for(x=0;x<=5;x++){									
 3028              		.loc 1 638 0 is_stmt 1
 3029 0f06 0022     		movs	r2, #0
 3030 0f08 854B     		ldr	r3, .L602+4
 3031 0f0a 1A60     		str	r2, [r3]
 3032 0f0c 08E0     		b	.L223
 3033              	.L224:
 639:.\Protocolo.c **** 						    write_psoc1(val,msn_tc[x]);
 3034              		.loc 1 639 0 discriminator 3
 3035 0f0e 2046     		mov	r0, r4
 3036 0f10 824A     		ldr	r2, .L602
 3037 0f12 D15C     		ldrb	r1, [r2, r3]	@ zero_extendqisi2
 3038 0f14 FFF7FEFF 		bl	write_psoc1
 3039              	.LVL249:
 638:.\Protocolo.c **** 						for(x=0;x<=5;x++){									
 3040              		.loc 1 638 0 discriminator 3
 3041 0f18 814A     		ldr	r2, .L602+4
 3042 0f1a 1368     		ldr	r3, [r2]
 3043 0f1c 0133     		adds	r3, r3, #1
 3044 0f1e 1360     		str	r3, [r2]
 3045              	.L223:
 638:.\Protocolo.c **** 						for(x=0;x<=5;x++){									
 3046              		.loc 1 638 0 is_stmt 0 discriminator 1
 3047 0f20 7F4B     		ldr	r3, .L602+4
 3048 0f22 1B68     		ldr	r3, [r3]
 3049 0f24 052B     		cmp	r3, #5
 3050 0f26 F2D9     		bls	.L224
 640:.\Protocolo.c **** 					    }
 641:.\Protocolo.c **** 					    write_psoc1(val,10);
 3051              		.loc 1 641 0 is_stmt 1
ARM GAS  C:\Users\IN-002~1\AppData\Local\Temp\ccxO8rjh.s 			page 69


 3052 0f28 2046     		mov	r0, r4
 3053 0f2a 0A21     		movs	r1, #10
 3054 0f2c FFF7FEFF 		bl	write_psoc1
 3055              	.LVL250:
 642:.\Protocolo.c ****                         for(x=0;x<=10;x++){									
 3056              		.loc 1 642 0
 3057 0f30 0022     		movs	r2, #0
 3058 0f32 7B4B     		ldr	r3, .L602+4
 3059 0f34 1A60     		str	r2, [r3]
 3060 0f36 08E0     		b	.L225
 3061              	.L226:
 643:.\Protocolo.c **** 						    write_psoc1(val,producto4n[x]);
 3062              		.loc 1 643 0 discriminator 3
 3063 0f38 2046     		mov	r0, r4
 3064 0f3a 7F4A     		ldr	r2, .L602+28
 3065 0f3c D15C     		ldrb	r1, [r2, r3]	@ zero_extendqisi2
 3066 0f3e FFF7FEFF 		bl	write_psoc1
 3067              	.LVL251:
 642:.\Protocolo.c ****                         for(x=0;x<=10;x++){									
 3068              		.loc 1 642 0 discriminator 3
 3069 0f42 774A     		ldr	r2, .L602+4
 3070 0f44 1368     		ldr	r3, [r2]
 3071 0f46 0133     		adds	r3, r3, #1
 3072 0f48 1360     		str	r3, [r2]
 3073              	.L225:
 642:.\Protocolo.c ****                         for(x=0;x<=10;x++){									
 3074              		.loc 1 642 0 is_stmt 0 discriminator 1
 3075 0f4a 754B     		ldr	r3, .L602+4
 3076 0f4c 1B68     		ldr	r3, [r3]
 3077 0f4e 0A2B     		cmp	r3, #10
 3078 0f50 F2D9     		bls	.L226
 644:.\Protocolo.c **** 					    }
 645:.\Protocolo.c ****                         write_psoc1(val,10);
 3079              		.loc 1 645 0 is_stmt 1
 3080 0f52 2046     		mov	r0, r4
 3081 0f54 0A21     		movs	r1, #10
 3082 0f56 FFF7FEFF 		bl	write_psoc1
 3083              	.LVL252:
 646:.\Protocolo.c **** 						for(x=0;x<=14;x++){									
 3084              		.loc 1 646 0
 3085 0f5a 0022     		movs	r2, #0
 3086 0f5c 704B     		ldr	r3, .L602+4
 3087 0f5e 1A60     		str	r2, [r3]
 3088 0f60 09E0     		b	.L227
 3089              	.L228:
 647:.\Protocolo.c **** 							write_psoc1(val,msn_lecact[x]);				//LECTURA ACTUAL
 3090              		.loc 1 647 0 discriminator 3
 3091 0f62 6E4A     		ldr	r2, .L602
 3092 0f64 1344     		add	r3, r3, r2
 3093 0f66 2046     		mov	r0, r4
 3094 0f68 197A     		ldrb	r1, [r3, #8]	@ zero_extendqisi2
 3095 0f6a FFF7FEFF 		bl	write_psoc1
 3096              	.LVL253:
 646:.\Protocolo.c **** 						for(x=0;x<=14;x++){									
 3097              		.loc 1 646 0 discriminator 3
 3098 0f6e 6C4A     		ldr	r2, .L602+4
 3099 0f70 1368     		ldr	r3, [r2]
ARM GAS  C:\Users\IN-002~1\AppData\Local\Temp\ccxO8rjh.s 			page 70


 3100 0f72 0133     		adds	r3, r3, #1
 3101 0f74 1360     		str	r3, [r2]
 3102              	.L227:
 646:.\Protocolo.c **** 						for(x=0;x<=14;x++){									
 3103              		.loc 1 646 0 is_stmt 0 discriminator 1
 3104 0f76 6A4B     		ldr	r3, .L602+4
 3105 0f78 1B68     		ldr	r3, [r3]
 3106 0f7a 0E2B     		cmp	r3, #14
 3107 0f7c F1D9     		bls	.L228
 648:.\Protocolo.c **** 						}
 649:.\Protocolo.c **** 						write_psoc1(val,10);
 3108              		.loc 1 649 0 is_stmt 1
 3109 0f7e 2046     		mov	r0, r4
 3110 0f80 0A21     		movs	r1, #10
 3111 0f82 FFF7FEFF 		bl	write_psoc1
 3112              	.LVL254:
 650:.\Protocolo.c **** 						print_totalesac(8,val);	
 3113              		.loc 1 650 0
 3114 0f86 0820     		movs	r0, #8
 3115 0f88 2146     		mov	r1, r4
 3116 0f8a FFF7FEFF 		bl	print_totalesac
 3117              	.LVL255:
 651:.\Protocolo.c **** 						for(x=0;x<=16;x++){												
 3118              		.loc 1 651 0
 3119 0f8e 0022     		movs	r2, #0
 3120 0f90 634B     		ldr	r3, .L602+4
 3121 0f92 1A60     		str	r2, [r3]
 3122 0f94 09E0     		b	.L229
 3123              	.L230:
 652:.\Protocolo.c **** 							write_psoc1(val,msn_lecaan[x]);				//LECTURA ANTERIOR
 3124              		.loc 1 652 0 discriminator 3
 3125 0f96 614A     		ldr	r2, .L602
 3126 0f98 1344     		add	r3, r3, r2
 3127 0f9a 2046     		mov	r0, r4
 3128 0f9c 197E     		ldrb	r1, [r3, #24]	@ zero_extendqisi2
 3129 0f9e FFF7FEFF 		bl	write_psoc1
 3130              	.LVL256:
 651:.\Protocolo.c **** 						for(x=0;x<=16;x++){												
 3131              		.loc 1 651 0 discriminator 3
 3132 0fa2 5F4A     		ldr	r2, .L602+4
 3133 0fa4 1368     		ldr	r3, [r2]
 3134 0fa6 0133     		adds	r3, r3, #1
 3135 0fa8 1360     		str	r3, [r2]
 3136              	.L229:
 651:.\Protocolo.c **** 						for(x=0;x<=16;x++){												
 3137              		.loc 1 651 0 is_stmt 0 discriminator 1
 3138 0faa 5D4B     		ldr	r3, .L602+4
 3139 0fac 1B68     		ldr	r3, [r3]
 3140 0fae 102B     		cmp	r3, #16
 3141 0fb0 F1D9     		bls	.L230
 653:.\Protocolo.c **** 						}
 654:.\Protocolo.c **** 						write_psoc1(val,10);
 3142              		.loc 1 654 0 is_stmt 1
 3143 0fb2 2046     		mov	r0, r4
 3144 0fb4 0A21     		movs	r1, #10
 3145 0fb6 FFF7FEFF 		bl	write_psoc1
 3146              	.LVL257:
ARM GAS  C:\Users\IN-002~1\AppData\Local\Temp\ccxO8rjh.s 			page 71


 655:.\Protocolo.c **** 						if(dir==lado.a.dir){
 3147              		.loc 1 655 0
 3148 0fba 5B4B     		ldr	r3, .L602+12
 3149 0fbc 1B78     		ldrb	r3, [r3]	@ zero_extendqisi2
 3150 0fbe AB42     		cmp	r3, r5
 3151 0fc0 05D1     		bne	.L231
 656:.\Protocolo.c **** 							leer_eeprom(1096,25);
 3152              		.loc 1 656 0
 3153 0fc2 4FF48960 		mov	r0, #1096
 3154 0fc6 1921     		movs	r1, #25
 3155 0fc8 FFF7FEFF 		bl	leer_eeprom
 3156              	.LVL258:
 3157 0fcc 04E0     		b	.L232
 3158              	.L231:
 657:.\Protocolo.c **** 						}
 658:.\Protocolo.c **** 						else{
 659:.\Protocolo.c **** 							leer_eeprom(1054,25);
 3159              		.loc 1 659 0
 3160 0fce 40F21E40 		movw	r0, #1054
 3161 0fd2 1921     		movs	r1, #25
 3162 0fd4 FFF7FEFF 		bl	leer_eeprom
 3163              	.LVL259:
 3164              	.L232:
 660:.\Protocolo.c **** 						}
 661:.\Protocolo.c **** 						print_totales(val);
 3165              		.loc 1 661 0
 3166 0fd8 2046     		mov	r0, r4
 3167 0fda FFF7FEFF 		bl	print_totales
 3168              	.LVL260:
 662:.\Protocolo.c **** 						for(z=1;z<=8;z++){
 3169              		.loc 1 662 0
 3170 0fde 0122     		movs	r2, #1
 3171 0fe0 564B     		ldr	r3, .L602+32
 3172 0fe2 1A60     		str	r2, [r3]
 3173 0fe4 10E0     		b	.L233
 3174              	.L234:
 663:.\Protocolo.c **** 							minuendo[z]=rventa.tdinero[z-1];
 3175              		.loc 1 663 0 discriminator 3
 3176 0fe6 564A     		ldr	r2, .L602+36
 3177 0fe8 1A44     		add	r2, r2, r3
 3178 0fea 92F8CA10 		ldrb	r1, [r2, #202]	@ zero_extendqisi2
 3179 0fee 10AA     		add	r2, sp, #64
 3180 0ff0 1A44     		add	r2, r2, r3
 3181 0ff2 02F82C1C 		strb	r1, [r2, #-44]
 664:.\Protocolo.c **** 							sustraendo[z]=buffer_i2c[z+8];
 3182              		.loc 1 664 0 discriminator 3
 3183 0ff6 03F10801 		add	r1, r3, #8
 3184 0ffa 5248     		ldr	r0, .L602+40
 3185 0ffc 415C     		ldrb	r1, [r0, r1]	@ zero_extendqisi2
 3186 0ffe 02F83C1C 		strb	r1, [r2, #-60]
 662:.\Protocolo.c **** 						for(z=1;z<=8;z++){
 3187              		.loc 1 662 0 discriminator 3
 3188 1002 0133     		adds	r3, r3, #1
 3189 1004 4D4A     		ldr	r2, .L602+32
 3190 1006 1360     		str	r3, [r2]
 3191              	.L233:
 662:.\Protocolo.c **** 						for(z=1;z<=8;z++){
ARM GAS  C:\Users\IN-002~1\AppData\Local\Temp\ccxO8rjh.s 			page 72


 3192              		.loc 1 662 0 is_stmt 0 discriminator 1
 3193 1008 4C4B     		ldr	r3, .L602+32
 3194 100a 1B68     		ldr	r3, [r3]
 3195 100c 082B     		cmp	r3, #8
 3196 100e EAD9     		bls	.L234
 665:.\Protocolo.c **** 						}
 666:.\Protocolo.c **** 						minuendo[0]=8;
 3197              		.loc 1 666 0 is_stmt 1
 3198 1010 10A9     		add	r1, sp, #64
 3199 1012 0823     		movs	r3, #8
 3200 1014 01F82C3D 		strb	r3, [r1, #-44]!
 667:.\Protocolo.c **** 						operacion(2,minuendo,sustraendo);
 3201              		.loc 1 667 0
 3202 1018 0220     		movs	r0, #2
 3203 101a 01AA     		add	r2, sp, #4
 3204 101c FFF7FEFF 		bl	operacion
 3205              	.LVL261:
 668:.\Protocolo.c **** 						for(x=0;x<=17;x++){									
 3206              		.loc 1 668 0
 3207 1020 0022     		movs	r2, #0
 3208 1022 3F4B     		ldr	r3, .L602+4
 3209 1024 1A60     		str	r2, [r3]
 3210 1026 0AE0     		b	.L235
 3211              	.L236:
 669:.\Protocolo.c **** 							write_psoc1(val,msn_tventas[x]);				//Total de ventas
 3212              		.loc 1 669 0 discriminator 3
 3213 1028 3C4A     		ldr	r2, .L602
 3214 102a 1344     		add	r3, r3, r2
 3215 102c 2046     		mov	r0, r4
 3216 102e 93F82C10 		ldrb	r1, [r3, #44]	@ zero_extendqisi2
 3217 1032 FFF7FEFF 		bl	write_psoc1
 3218              	.LVL262:
 668:.\Protocolo.c **** 						for(x=0;x<=17;x++){									
 3219              		.loc 1 668 0 discriminator 3
 3220 1036 3A4A     		ldr	r2, .L602+4
 3221 1038 1368     		ldr	r3, [r2]
 3222 103a 0133     		adds	r3, r3, #1
 3223 103c 1360     		str	r3, [r2]
 3224              	.L235:
 668:.\Protocolo.c **** 						for(x=0;x<=17;x++){									
 3225              		.loc 1 668 0 is_stmt 0 discriminator 1
 3226 103e 384B     		ldr	r3, .L602+4
 3227 1040 1B68     		ldr	r3, [r3]
 3228 1042 112B     		cmp	r3, #17
 3229 1044 F0D9     		bls	.L236
 670:.\Protocolo.c **** 						}
 671:.\Protocolo.c **** 						print_valor(resultado,val);							
 3230              		.loc 1 671 0 is_stmt 1
 3231 1046 3748     		ldr	r0, .L602+8
 3232 1048 2146     		mov	r1, r4
 3233 104a FFF7FEFF 		bl	print_valor
 3234              	.LVL263:
 672:.\Protocolo.c **** 						if(dir==lado.a.dir){
 3235              		.loc 1 672 0
 3236 104e 364B     		ldr	r3, .L602+12
 3237 1050 1B78     		ldrb	r3, [r3]	@ zero_extendqisi2
 3238 1052 AB42     		cmp	r3, r5
ARM GAS  C:\Users\IN-002~1\AppData\Local\Temp\ccxO8rjh.s 			page 73


 3239 1054 0AD1     		bne	.L237
 673:.\Protocolo.c **** 						    write_eeprom(1096,corte);
 3240              		.loc 1 673 0
 3241 1056 4FF48960 		mov	r0, #1096
 3242 105a 09A9     		add	r1, sp, #36
 3243 105c FFF7FEFF 		bl	write_eeprom
 3244              	.LVL264:
 674:.\Protocolo.c **** 						    write_eeprom(1038,resultado);
 3245              		.loc 1 674 0
 3246 1060 40F20E40 		movw	r0, #1038
 3247 1064 2F49     		ldr	r1, .L602+8
 3248 1066 FFF7FEFF 		bl	write_eeprom
 3249              	.LVL265:
 3250 106a 09E0     		b	.L222
 3251              	.L237:
 675:.\Protocolo.c **** 					    }
 676:.\Protocolo.c **** 					    else{
 677:.\Protocolo.c **** 						    write_eeprom(1054,corte);
 3252              		.loc 1 677 0
 3253 106c 40F21E40 		movw	r0, #1054
 3254 1070 09A9     		add	r1, sp, #36
 3255 1072 FFF7FEFF 		bl	write_eeprom
 3256              	.LVL266:
 678:.\Protocolo.c **** 						    write_eeprom(1081,resultado);
 3257              		.loc 1 678 0
 3258 1076 40F23940 		movw	r0, #1081
 3259 107a 2A49     		ldr	r1, .L602+8
 3260 107c FFF7FEFF 		bl	write_eeprom
 3261              	.LVL267:
 3262              	.L222:
 488:.\Protocolo.c **** 					rventa.manguera=(Surtidor_rxBuffer[y+2]&0x0F)+1;
 3263              		.loc 1 488 0 discriminator 2
 3264 1080 314A     		ldr	r2, .L602+44
 3265 1082 1368     		ldr	r3, [r2]
 3266 1084 1E33     		adds	r3, r3, #30
 3267 1086 1360     		str	r3, [r2]
 3268              	.L157:
 488:.\Protocolo.c **** 					rventa.manguera=(Surtidor_rxBuffer[y+2]&0x0F)+1;
 3269              		.loc 1 488 0 is_stmt 0 discriminator 1
 3270 1088 2F4B     		ldr	r3, .L602+44
 3271 108a 1E68     		ldr	r6, [r3]
 3272 108c 1E2E     		cmp	r6, #30
 3273 108e 7FF6F9AB 		bls	.L238
 679:.\Protocolo.c **** 						}					
 680:.\Protocolo.c **** 					}
 681:.\Protocolo.c **** 				}
 682:.\Protocolo.c **** 				Surtidor_ClearRxBuffer();
 3274              		.loc 1 682 0 is_stmt 1
 3275 1092 FFF7FEFF 		bl	Surtidor_ClearRxBuffer
 3276              	.LVL268:
 683:.\Protocolo.c **** 				return 2;					
 3277              		.loc 1 683 0
 3278 1096 0220     		movs	r0, #2
 3279 1098 02F0DAB8 		b	.L76
 3280              	.L73:
 684:.\Protocolo.c **** 			}			
 685:.\Protocolo.c **** 			else{
ARM GAS  C:\Users\IN-002~1\AppData\Local\Temp\ccxO8rjh.s 			page 74


 686:.\Protocolo.c **** 				return 0;
 687:.\Protocolo.c **** 			}
 688:.\Protocolo.c **** 		break;
 689:.\Protocolo.c **** 		
 690:.\Protocolo.c **** 		case 94:
 691:.\Protocolo.c **** 			if((Surtidor_rxBuffer[0]==0xFF)&&(Surtidor_rxBuffer[1]==0xF6)&&(Surtidor_rxBuffer[93]==0xF0)&&(S
 3281              		.loc 1 691 0
 3282 109c 2B4B     		ldr	r3, .L602+48
 3283 109e 1B78     		ldrb	r3, [r3]	@ zero_extendqisi2
 3284 10a0 DBB2     		uxtb	r3, r3
 3285 10a2 FF2B     		cmp	r3, #255
 3286 10a4 42F0B580 		bne	.L575
 3287              		.loc 1 691 0 is_stmt 0 discriminator 1
 3288 10a8 284B     		ldr	r3, .L602+48
 3289 10aa 5B78     		ldrb	r3, [r3, #1]	@ zero_extendqisi2
 3290 10ac DBB2     		uxtb	r3, r3
 3291 10ae F62B     		cmp	r3, #246
 3292 10b0 42F0B180 		bne	.L576
 3293              		.loc 1 691 0 discriminator 2
 3294 10b4 254B     		ldr	r3, .L602+48
 3295 10b6 93F85D30 		ldrb	r3, [r3, #93]	@ zero_extendqisi2
 3296 10ba DBB2     		uxtb	r3, r3
 3297 10bc F02B     		cmp	r3, #240
 3298 10be 42F0AC80 		bne	.L577
 3299              		.loc 1 691 0 discriminator 3
 3300 10c2 224B     		ldr	r3, .L602+48
 3301 10c4 DB78     		ldrb	r3, [r3, #3]	@ zero_extendqisi2
 3302 10c6 DBB2     		uxtb	r3, r3
 3303 10c8 F92B     		cmp	r3, #249
 3304 10ca 42F0A880 		bne	.L578
 692:.\Protocolo.c **** 				for(y=0;y<=60;y+=30){
 3305              		.loc 1 692 0 is_stmt 1
 3306 10ce 0022     		movs	r2, #0
 3307 10d0 1D4B     		ldr	r3, .L602+44
 3308 10d2 1A60     		str	r2, [r3]
 3309 10d4 00F002BC 		b	.L239
 3310              	.L320:
 693:.\Protocolo.c **** 					rventa.manguera=(Surtidor_rxBuffer[y+2]&0x0F)+1;
 3311              		.loc 1 693 0
 3312 10d8 B31C     		adds	r3, r6, #2
 3313 10da 1C4A     		ldr	r2, .L602+48
 3314 10dc D15C     		ldrb	r1, [r2, r3]	@ zero_extendqisi2
 3315 10de 01F00F01 		and	r1, r1, #15
 3316 10e2 0131     		adds	r1, r1, #1
 3317 10e4 114B     		ldr	r3, .L602+16
 3318 10e6 83F8E010 		strb	r1, [r3, #224]
 694:.\Protocolo.c **** 					for(x=0;x<=7;x++){
 3319              		.loc 1 694 0
 3320 10ea 0022     		movs	r2, #0
 3321 10ec 0C4B     		ldr	r3, .L602+4
 3322 10ee 1A60     		str	r2, [r3]
 3323 10f0 0CE0     		b	.L240
 3324              	.L241:
 695:.\Protocolo.c **** 						rventa.tvolumen[x]=(Surtidor_rxBuffer[y+4+x]&0x0F);						
 3325              		.loc 1 695 0 discriminator 3
 3326 10f2 F218     		adds	r2, r6, r3
 3327 10f4 0432     		adds	r2, r2, #4
ARM GAS  C:\Users\IN-002~1\AppData\Local\Temp\ccxO8rjh.s 			page 75


 3328 10f6 1548     		ldr	r0, .L602+48
 3329 10f8 805C     		ldrb	r0, [r0, r2]	@ zero_extendqisi2
 3330 10fa 0C4A     		ldr	r2, .L602+16
 3331 10fc 1A44     		add	r2, r2, r3
 3332 10fe 00F00F00 		and	r0, r0, #15
 3333 1102 82F8BD00 		strb	r0, [r2, #189]
 694:.\Protocolo.c **** 					for(x=0;x<=7;x++){
 3334              		.loc 1 694 0 discriminator 3
 3335 1106 0133     		adds	r3, r3, #1
 3336 1108 054A     		ldr	r2, .L602+4
 3337 110a 1360     		str	r3, [r2]
 3338              	.L240:
 694:.\Protocolo.c **** 					for(x=0;x<=7;x++){
 3339              		.loc 1 694 0 is_stmt 0 discriminator 1
 3340 110c 044B     		ldr	r3, .L602+4
 3341 110e 1B68     		ldr	r3, [r3]
 3342 1110 072B     		cmp	r3, #7
 3343 1112 EED9     		bls	.L241
 696:.\Protocolo.c **** 					}
 697:.\Protocolo.c **** 					for(x=0;x<=7;x++){
 3344              		.loc 1 697 0 is_stmt 1
 3345 1114 0022     		movs	r2, #0
 3346 1116 024B     		ldr	r3, .L602+4
 3347 1118 1A60     		str	r2, [r3]
 3348 111a 26E0     		b	.L242
 3349              	.L603:
 3350              		.align	2
 3351              	.L602:
 3352 111c 00000000 		.word	.LANCHOR1
 3353 1120 00000000 		.word	x
 3354 1124 00000000 		.word	resultado
 3355 1128 00000000 		.word	lado
 3356 112c 00000000 		.word	rventa
 3357 1130 00000000 		.word	kero
 3358 1134 00000000 		.word	kero2
 3359 1138 00000000 		.word	producto4n
 3360 113c 00000000 		.word	z
 3361 1140 FFFFFFFF 		.word	rventa-1
 3362 1144 00000000 		.word	buffer_i2c
 3363 1148 00000000 		.word	y
 3364 114c 00000000 		.word	Surtidor_rxBuffer
 3365              	.L243:
 698:.\Protocolo.c **** 						rventa.tdinero[x]=(Surtidor_rxBuffer[y+13+x]&0x0F);					
 3366              		.loc 1 698 0 discriminator 3
 3367 1150 F218     		adds	r2, r6, r3
 3368 1152 0D32     		adds	r2, r2, #13
 3369 1154 A748     		ldr	r0, .L604
 3370 1156 805C     		ldrb	r0, [r0, r2]	@ zero_extendqisi2
 3371 1158 A74A     		ldr	r2, .L604+4
 3372 115a 1A44     		add	r2, r2, r3
 3373 115c 00F00F00 		and	r0, r0, #15
 3374 1160 82F8CA00 		strb	r0, [r2, #202]
 697:.\Protocolo.c **** 						rventa.tdinero[x]=(Surtidor_rxBuffer[y+13+x]&0x0F);					
 3375              		.loc 1 697 0 discriminator 3
 3376 1164 0133     		adds	r3, r3, #1
 3377 1166 A54A     		ldr	r2, .L604+8
 3378 1168 1360     		str	r3, [r2]
ARM GAS  C:\Users\IN-002~1\AppData\Local\Temp\ccxO8rjh.s 			page 76


 3379              	.L242:
 697:.\Protocolo.c **** 						rventa.tdinero[x]=(Surtidor_rxBuffer[y+13+x]&0x0F);					
 3380              		.loc 1 697 0 is_stmt 0 discriminator 1
 3381 116a A44B     		ldr	r3, .L604+8
 3382 116c 1B68     		ldr	r3, [r3]
 3383 116e 072B     		cmp	r3, #7
 3384 1170 EED9     		bls	.L243
 699:.\Protocolo.c **** 					}
 700:.\Protocolo.c **** 					for(z=0;z<=7;z++){
 3385              		.loc 1 700 0 is_stmt 1
 3386 1172 0022     		movs	r2, #0
 3387 1174 A24B     		ldr	r3, .L604+12
 3388 1176 1A60     		str	r2, [r3]
 3389 1178 0AE0     		b	.L244
 3390              	.L245:
 701:.\Protocolo.c **** 						corte[z+1]=rventa.tvolumen[z];
 3391              		.loc 1 701 0 discriminator 3
 3392 117a 5A1C     		adds	r2, r3, #1
 3393 117c 9E48     		ldr	r0, .L604+4
 3394 117e 0344     		add	r3, r3, r0
 3395 1180 93F8BD00 		ldrb	r0, [r3, #189]	@ zero_extendqisi2
 3396 1184 10AB     		add	r3, sp, #64
 3397 1186 1344     		add	r3, r3, r2
 3398 1188 03F81C0C 		strb	r0, [r3, #-28]
 700:.\Protocolo.c **** 						corte[z+1]=rventa.tvolumen[z];
 3399              		.loc 1 700 0 discriminator 3
 3400 118c 9C4B     		ldr	r3, .L604+12
 3401 118e 1A60     		str	r2, [r3]
 3402              	.L244:
 700:.\Protocolo.c **** 						corte[z+1]=rventa.tvolumen[z];
 3403              		.loc 1 700 0 is_stmt 0 discriminator 1
 3404 1190 9B4B     		ldr	r3, .L604+12
 3405 1192 1B68     		ldr	r3, [r3]
 3406 1194 072B     		cmp	r3, #7
 3407 1196 F0D9     		bls	.L245
 702:.\Protocolo.c **** 					}
 703:.\Protocolo.c **** 					for(z=9;z<=16;z++){
 3408              		.loc 1 703 0 is_stmt 1
 3409 1198 0922     		movs	r2, #9
 3410 119a 994B     		ldr	r3, .L604+12
 3411 119c 1A60     		str	r2, [r3]
 3412 119e 0AE0     		b	.L246
 3413              	.L247:
 704:.\Protocolo.c **** 						corte[z]=rventa.tdinero[z-9];
 3414              		.loc 1 704 0 discriminator 3
 3415 11a0 984A     		ldr	r2, .L604+16
 3416 11a2 1A44     		add	r2, r2, r3
 3417 11a4 92F8CA00 		ldrb	r0, [r2, #202]	@ zero_extendqisi2
 3418 11a8 10AA     		add	r2, sp, #64
 3419 11aa 1A44     		add	r2, r2, r3
 3420 11ac 02F81C0C 		strb	r0, [r2, #-28]
 703:.\Protocolo.c **** 						corte[z]=rventa.tdinero[z-9];
 3421              		.loc 1 703 0 discriminator 3
 3422 11b0 0133     		adds	r3, r3, #1
 3423 11b2 934A     		ldr	r2, .L604+12
 3424 11b4 1360     		str	r3, [r2]
 3425              	.L246:
ARM GAS  C:\Users\IN-002~1\AppData\Local\Temp\ccxO8rjh.s 			page 77


 703:.\Protocolo.c **** 						corte[z]=rventa.tdinero[z-9];
 3426              		.loc 1 703 0 is_stmt 0 discriminator 1
 3427 11b6 924B     		ldr	r3, .L604+12
 3428 11b8 1B68     		ldr	r3, [r3]
 3429 11ba 102B     		cmp	r3, #16
 3430 11bc F0D9     		bls	.L247
 705:.\Protocolo.c **** 					}
 706:.\Protocolo.c **** 					corte[0]=16;		
 3431              		.loc 1 706 0 is_stmt 1
 3432 11be 1023     		movs	r3, #16
 3433 11c0 8DF82430 		strb	r3, [sp, #36]
 707:.\Protocolo.c **** 					if(((rventa.manguera==(corriente&0x0F))&&(dir==lado.a.dir))||((rventa.manguera==(corriente2&0x
 3434              		.loc 1 707 0
 3435 11c4 904B     		ldr	r3, .L604+20
 3436 11c6 1B78     		ldrb	r3, [r3]	@ zero_extendqisi2
 3437 11c8 03F00F03 		and	r3, r3, #15
 3438 11cc 8B42     		cmp	r3, r1
 3439 11ce 03D1     		bne	.L248
 3440              		.loc 1 707 0 is_stmt 0 discriminator 1
 3441 11d0 8E4B     		ldr	r3, .L604+24
 3442 11d2 1B78     		ldrb	r3, [r3]	@ zero_extendqisi2
 3443 11d4 AB42     		cmp	r3, r5
 3444 11d6 0BD0     		beq	.L249
 3445              	.L248:
 3446              		.loc 1 707 0 discriminator 3
 3447 11d8 8D4B     		ldr	r3, .L604+28
 3448 11da 1B78     		ldrb	r3, [r3]	@ zero_extendqisi2
 3449 11dc 03F00F03 		and	r3, r3, #15
 3450 11e0 9942     		cmp	r1, r3
 3451 11e2 40F0C080 		bne	.L250
 3452              		.loc 1 707 0 discriminator 4
 3453 11e6 894B     		ldr	r3, .L604+24
 3454 11e8 1B79     		ldrb	r3, [r3, #4]	@ zero_extendqisi2
 3455 11ea AB42     		cmp	r3, r5
 3456 11ec 40F0BB80 		bne	.L250
 3457              	.L249:
 708:.\Protocolo.c **** 						for(x=0;x<=5;x++){									
 3458              		.loc 1 708 0 is_stmt 1
 3459 11f0 0022     		movs	r2, #0
 3460 11f2 824B     		ldr	r3, .L604+8
 3461 11f4 1A60     		str	r2, [r3]
 3462 11f6 08E0     		b	.L251
 3463              	.L252:
 709:.\Protocolo.c **** 							write_psoc1(val,msn_tc[x]);
 3464              		.loc 1 709 0 discriminator 3
 3465 11f8 2046     		mov	r0, r4
 3466 11fa 864A     		ldr	r2, .L604+32
 3467 11fc D15C     		ldrb	r1, [r2, r3]	@ zero_extendqisi2
 3468 11fe FFF7FEFF 		bl	write_psoc1
 3469              	.LVL269:
 708:.\Protocolo.c **** 						for(x=0;x<=5;x++){									
 3470              		.loc 1 708 0 discriminator 3
 3471 1202 7E4A     		ldr	r2, .L604+8
 3472 1204 1368     		ldr	r3, [r2]
 3473 1206 0133     		adds	r3, r3, #1
 3474 1208 1360     		str	r3, [r2]
 3475              	.L251:
ARM GAS  C:\Users\IN-002~1\AppData\Local\Temp\ccxO8rjh.s 			page 78


 708:.\Protocolo.c **** 						for(x=0;x<=5;x++){									
 3476              		.loc 1 708 0 is_stmt 0 discriminator 1
 3477 120a 7C4B     		ldr	r3, .L604+8
 3478 120c 1B68     		ldr	r3, [r3]
 3479 120e 052B     		cmp	r3, #5
 3480 1210 F2D9     		bls	.L252
 710:.\Protocolo.c **** 						}
 711:.\Protocolo.c **** 						write_psoc1(val,10);
 3481              		.loc 1 711 0 is_stmt 1
 3482 1212 2046     		mov	r0, r4
 3483 1214 0A21     		movs	r1, #10
 3484 1216 FFF7FEFF 		bl	write_psoc1
 3485              	.LVL270:
 712:.\Protocolo.c ****                         for(x=0;x<=10;x++){									
 3486              		.loc 1 712 0
 3487 121a 0022     		movs	r2, #0
 3488 121c 774B     		ldr	r3, .L604+8
 3489 121e 1A60     		str	r2, [r3]
 3490 1220 08E0     		b	.L253
 3491              	.L254:
 713:.\Protocolo.c **** 						write_psoc1(val,producto1n[x]);
 3492              		.loc 1 713 0 discriminator 3
 3493 1222 2046     		mov	r0, r4
 3494 1224 7C4A     		ldr	r2, .L604+36
 3495 1226 D15C     		ldrb	r1, [r2, r3]	@ zero_extendqisi2
 3496 1228 FFF7FEFF 		bl	write_psoc1
 3497              	.LVL271:
 712:.\Protocolo.c ****                         for(x=0;x<=10;x++){									
 3498              		.loc 1 712 0 discriminator 3
 3499 122c 734A     		ldr	r2, .L604+8
 3500 122e 1368     		ldr	r3, [r2]
 3501 1230 0133     		adds	r3, r3, #1
 3502 1232 1360     		str	r3, [r2]
 3503              	.L253:
 712:.\Protocolo.c ****                         for(x=0;x<=10;x++){									
 3504              		.loc 1 712 0 is_stmt 0 discriminator 1
 3505 1234 714B     		ldr	r3, .L604+8
 3506 1236 1B68     		ldr	r3, [r3]
 3507 1238 0A2B     		cmp	r3, #10
 3508 123a F2D9     		bls	.L254
 714:.\Protocolo.c **** 					    }
 715:.\Protocolo.c ****                         write_psoc1(val,10);
 3509              		.loc 1 715 0 is_stmt 1
 3510 123c 2046     		mov	r0, r4
 3511 123e 0A21     		movs	r1, #10
 3512 1240 FFF7FEFF 		bl	write_psoc1
 3513              	.LVL272:
 716:.\Protocolo.c **** 						for(x=0;x<=14;x++){									
 3514              		.loc 1 716 0
 3515 1244 0022     		movs	r2, #0
 3516 1246 6D4B     		ldr	r3, .L604+8
 3517 1248 1A60     		str	r2, [r3]
 3518 124a 09E0     		b	.L255
 3519              	.L256:
 717:.\Protocolo.c **** 							write_psoc1(val,msn_lecact[x]);				//LECTURA ACTUAL
 3520              		.loc 1 717 0 discriminator 3
 3521 124c 714A     		ldr	r2, .L604+32
ARM GAS  C:\Users\IN-002~1\AppData\Local\Temp\ccxO8rjh.s 			page 79


 3522 124e 1344     		add	r3, r3, r2
 3523 1250 2046     		mov	r0, r4
 3524 1252 197A     		ldrb	r1, [r3, #8]	@ zero_extendqisi2
 3525 1254 FFF7FEFF 		bl	write_psoc1
 3526              	.LVL273:
 716:.\Protocolo.c **** 						for(x=0;x<=14;x++){									
 3527              		.loc 1 716 0 discriminator 3
 3528 1258 684A     		ldr	r2, .L604+8
 3529 125a 1368     		ldr	r3, [r2]
 3530 125c 0133     		adds	r3, r3, #1
 3531 125e 1360     		str	r3, [r2]
 3532              	.L255:
 716:.\Protocolo.c **** 						for(x=0;x<=14;x++){									
 3533              		.loc 1 716 0 is_stmt 0 discriminator 1
 3534 1260 664B     		ldr	r3, .L604+8
 3535 1262 1B68     		ldr	r3, [r3]
 3536 1264 0E2B     		cmp	r3, #14
 3537 1266 F1D9     		bls	.L256
 718:.\Protocolo.c **** 						}
 719:.\Protocolo.c **** 						write_psoc1(val,10);
 3538              		.loc 1 719 0 is_stmt 1
 3539 1268 2046     		mov	r0, r4
 3540 126a 0A21     		movs	r1, #10
 3541 126c FFF7FEFF 		bl	write_psoc1
 3542              	.LVL274:
 720:.\Protocolo.c **** 						print_totalesac(8,val);	
 3543              		.loc 1 720 0
 3544 1270 0820     		movs	r0, #8
 3545 1272 2146     		mov	r1, r4
 3546 1274 FFF7FEFF 		bl	print_totalesac
 3547              	.LVL275:
 721:.\Protocolo.c **** 						for(x=0;x<=16;x++){												
 3548              		.loc 1 721 0
 3549 1278 0022     		movs	r2, #0
 3550 127a 604B     		ldr	r3, .L604+8
 3551 127c 1A60     		str	r2, [r3]
 3552 127e 09E0     		b	.L257
 3553              	.L258:
 722:.\Protocolo.c **** 							write_psoc1(val,msn_lecaan[x]);				//LECTURA ANTERIOR
 3554              		.loc 1 722 0 discriminator 3
 3555 1280 644A     		ldr	r2, .L604+32
 3556 1282 1344     		add	r3, r3, r2
 3557 1284 2046     		mov	r0, r4
 3558 1286 197E     		ldrb	r1, [r3, #24]	@ zero_extendqisi2
 3559 1288 FFF7FEFF 		bl	write_psoc1
 3560              	.LVL276:
 721:.\Protocolo.c **** 						for(x=0;x<=16;x++){												
 3561              		.loc 1 721 0 discriminator 3
 3562 128c 5B4A     		ldr	r2, .L604+8
 3563 128e 1368     		ldr	r3, [r2]
 3564 1290 0133     		adds	r3, r3, #1
 3565 1292 1360     		str	r3, [r2]
 3566              	.L257:
 721:.\Protocolo.c **** 						for(x=0;x<=16;x++){												
 3567              		.loc 1 721 0 is_stmt 0 discriminator 1
 3568 1294 594B     		ldr	r3, .L604+8
 3569 1296 1B68     		ldr	r3, [r3]
ARM GAS  C:\Users\IN-002~1\AppData\Local\Temp\ccxO8rjh.s 			page 80


 3570 1298 102B     		cmp	r3, #16
 3571 129a F1D9     		bls	.L258
 723:.\Protocolo.c **** 						}
 724:.\Protocolo.c **** 						write_psoc1(val,10);
 3572              		.loc 1 724 0 is_stmt 1
 3573 129c 2046     		mov	r0, r4
 3574 129e 0A21     		movs	r1, #10
 3575 12a0 FFF7FEFF 		bl	write_psoc1
 3576              	.LVL277:
 725:.\Protocolo.c **** 						if(dir==lado.a.dir){
 3577              		.loc 1 725 0
 3578 12a4 594B     		ldr	r3, .L604+24
 3579 12a6 1B78     		ldrb	r3, [r3]	@ zero_extendqisi2
 3580 12a8 AB42     		cmp	r3, r5
 3581 12aa 04D1     		bne	.L259
 726:.\Protocolo.c **** 							leer_eeprom(192,25);
 3582              		.loc 1 726 0
 3583 12ac C020     		movs	r0, #192
 3584 12ae 1921     		movs	r1, #25
 3585 12b0 FFF7FEFF 		bl	leer_eeprom
 3586              	.LVL278:
 3587 12b4 04E0     		b	.L260
 3588              	.L259:
 727:.\Protocolo.c **** 						}
 728:.\Protocolo.c **** 						else{
 729:.\Protocolo.c **** 							leer_eeprom(281,25);
 3589              		.loc 1 729 0
 3590 12b6 40F21910 		movw	r0, #281
 3591 12ba 1921     		movs	r1, #25
 3592 12bc FFF7FEFF 		bl	leer_eeprom
 3593              	.LVL279:
 3594              	.L260:
 730:.\Protocolo.c **** 						}
 731:.\Protocolo.c **** 						print_totales(val);
 3595              		.loc 1 731 0
 3596 12c0 2046     		mov	r0, r4
 3597 12c2 FFF7FEFF 		bl	print_totales
 3598              	.LVL280:
 732:.\Protocolo.c **** 						for(z=1;z<=8;z++){
 3599              		.loc 1 732 0
 3600 12c6 0122     		movs	r2, #1
 3601 12c8 4D4B     		ldr	r3, .L604+12
 3602 12ca 1A60     		str	r2, [r3]
 3603 12cc 10E0     		b	.L261
 3604              	.L262:
 733:.\Protocolo.c **** 							minuendo[z]=rventa.tdinero[z-1];
 3605              		.loc 1 733 0 discriminator 3
 3606 12ce 534A     		ldr	r2, .L604+40
 3607 12d0 1A44     		add	r2, r2, r3
 3608 12d2 92F8CA10 		ldrb	r1, [r2, #202]	@ zero_extendqisi2
 3609 12d6 10AA     		add	r2, sp, #64
 3610 12d8 1A44     		add	r2, r2, r3
 3611 12da 02F82C1C 		strb	r1, [r2, #-44]
 734:.\Protocolo.c **** 							sustraendo[z]=buffer_i2c[z+8];
 3612              		.loc 1 734 0 discriminator 3
 3613 12de 03F10801 		add	r1, r3, #8
 3614 12e2 4F48     		ldr	r0, .L604+44
ARM GAS  C:\Users\IN-002~1\AppData\Local\Temp\ccxO8rjh.s 			page 81


 3615 12e4 415C     		ldrb	r1, [r0, r1]	@ zero_extendqisi2
 3616 12e6 02F83C1C 		strb	r1, [r2, #-60]
 732:.\Protocolo.c **** 						for(z=1;z<=8;z++){
 3617              		.loc 1 732 0 discriminator 3
 3618 12ea 0133     		adds	r3, r3, #1
 3619 12ec 444A     		ldr	r2, .L604+12
 3620 12ee 1360     		str	r3, [r2]
 3621              	.L261:
 732:.\Protocolo.c **** 						for(z=1;z<=8;z++){
 3622              		.loc 1 732 0 is_stmt 0 discriminator 1
 3623 12f0 434B     		ldr	r3, .L604+12
 3624 12f2 1B68     		ldr	r3, [r3]
 3625 12f4 082B     		cmp	r3, #8
 3626 12f6 EAD9     		bls	.L262
 735:.\Protocolo.c **** 						}
 736:.\Protocolo.c **** 						minuendo[0]=8;
 3627              		.loc 1 736 0 is_stmt 1
 3628 12f8 10A9     		add	r1, sp, #64
 3629 12fa 0823     		movs	r3, #8
 3630 12fc 01F82C3D 		strb	r3, [r1, #-44]!
 737:.\Protocolo.c **** 						operacion(2,minuendo,sustraendo);
 3631              		.loc 1 737 0
 3632 1300 0220     		movs	r0, #2
 3633 1302 01AA     		add	r2, sp, #4
 3634 1304 FFF7FEFF 		bl	operacion
 3635              	.LVL281:
 738:.\Protocolo.c **** 						for(x=0;x<=17;x++){									
 3636              		.loc 1 738 0
 3637 1308 0022     		movs	r2, #0
 3638 130a 3C4B     		ldr	r3, .L604+8
 3639 130c 1A60     		str	r2, [r3]
 3640 130e 0AE0     		b	.L263
 3641              	.L264:
 739:.\Protocolo.c **** 							write_psoc1(val,msn_tventas[x]);				//Total de ventas
 3642              		.loc 1 739 0 discriminator 3
 3643 1310 404A     		ldr	r2, .L604+32
 3644 1312 1344     		add	r3, r3, r2
 3645 1314 2046     		mov	r0, r4
 3646 1316 93F82C10 		ldrb	r1, [r3, #44]	@ zero_extendqisi2
 3647 131a FFF7FEFF 		bl	write_psoc1
 3648              	.LVL282:
 738:.\Protocolo.c **** 						for(x=0;x<=17;x++){									
 3649              		.loc 1 738 0 discriminator 3
 3650 131e 374A     		ldr	r2, .L604+8
 3651 1320 1368     		ldr	r3, [r2]
 3652 1322 0133     		adds	r3, r3, #1
 3653 1324 1360     		str	r3, [r2]
 3654              	.L263:
 738:.\Protocolo.c **** 						for(x=0;x<=17;x++){									
 3655              		.loc 1 738 0 is_stmt 0 discriminator 1
 3656 1326 354B     		ldr	r3, .L604+8
 3657 1328 1B68     		ldr	r3, [r3]
 3658 132a 112B     		cmp	r3, #17
 3659 132c F0D9     		bls	.L264
 740:.\Protocolo.c **** 						}
 741:.\Protocolo.c **** 						print_valor(resultado,val);
 3660              		.loc 1 741 0 is_stmt 1
ARM GAS  C:\Users\IN-002~1\AppData\Local\Temp\ccxO8rjh.s 			page 82


 3661 132e 3D48     		ldr	r0, .L604+48
 3662 1330 2146     		mov	r1, r4
 3663 1332 FFF7FEFF 		bl	print_valor
 3664              	.LVL283:
 742:.\Protocolo.c **** 						if(dir==lado.a.dir){
 3665              		.loc 1 742 0
 3666 1336 354B     		ldr	r3, .L604+24
 3667 1338 1B78     		ldrb	r3, [r3]	@ zero_extendqisi2
 3668 133a AB42     		cmp	r3, r5
 3669 133c 09D1     		bne	.L265
 743:.\Protocolo.c **** 							write_eeprom(192,corte);	
 3670              		.loc 1 743 0
 3671 133e C020     		movs	r0, #192
 3672 1340 09A9     		add	r1, sp, #36
 3673 1342 FFF7FEFF 		bl	write_eeprom
 3674              	.LVL284:
 744:.\Protocolo.c **** 							write_eeprom(512,resultado);
 3675              		.loc 1 744 0
 3676 1346 4FF40070 		mov	r0, #512
 3677 134a 3649     		ldr	r1, .L604+48
 3678 134c FFF7FEFF 		bl	write_eeprom
 3679              	.LVL285:
 3680 1350 09E0     		b	.L250
 3681              	.L265:
 745:.\Protocolo.c **** 						}
 746:.\Protocolo.c **** 						else{
 747:.\Protocolo.c **** 							write_eeprom(281,corte);
 3682              		.loc 1 747 0
 3683 1352 40F21910 		movw	r0, #281
 3684 1356 09A9     		add	r1, sp, #36
 3685 1358 FFF7FEFF 		bl	write_eeprom
 3686              	.LVL286:
 748:.\Protocolo.c **** 							write_eeprom(551,resultado);
 3687              		.loc 1 748 0
 3688 135c 40F22720 		movw	r0, #551
 3689 1360 3049     		ldr	r1, .L604+48
 3690 1362 FFF7FEFF 		bl	write_eeprom
 3691              	.LVL287:
 3692              	.L250:
 749:.\Protocolo.c **** 						}
 750:.\Protocolo.c **** 					}
 751:.\Protocolo.c **** 					if(((rventa.manguera==(diesel&0x0F))&&(dir==lado.a.dir))||((rventa.manguera==(diesel2&0x0F))&&
 3693              		.loc 1 751 0
 3694 1366 244B     		ldr	r3, .L604+4
 3695 1368 93F8E020 		ldrb	r2, [r3, #224]	@ zero_extendqisi2
 3696 136c 2E4B     		ldr	r3, .L604+52
 3697 136e 1B78     		ldrb	r3, [r3]	@ zero_extendqisi2
 3698 1370 03F00F03 		and	r3, r3, #15
 3699 1374 9342     		cmp	r3, r2
 3700 1376 03D1     		bne	.L266
 3701              		.loc 1 751 0 is_stmt 0 discriminator 1
 3702 1378 244B     		ldr	r3, .L604+24
 3703 137a 1B78     		ldrb	r3, [r3]	@ zero_extendqisi2
 3704 137c AB42     		cmp	r3, r5
 3705 137e 0BD0     		beq	.L267
 3706              	.L266:
 3707              		.loc 1 751 0 discriminator 3
ARM GAS  C:\Users\IN-002~1\AppData\Local\Temp\ccxO8rjh.s 			page 83


 3708 1380 2A4B     		ldr	r3, .L604+56
 3709 1382 1B78     		ldrb	r3, [r3]	@ zero_extendqisi2
 3710 1384 03F00F03 		and	r3, r3, #15
 3711 1388 9A42     		cmp	r2, r3
 3712 138a 40F0E080 		bne	.L268
 3713              		.loc 1 751 0 discriminator 4
 3714 138e 1F4B     		ldr	r3, .L604+24
 3715 1390 1B79     		ldrb	r3, [r3, #4]	@ zero_extendqisi2
 3716 1392 AB42     		cmp	r3, r5
 3717 1394 40F0DB80 		bne	.L268
 3718              	.L267:
 752:.\Protocolo.c **** 						for(x=0;x<=5;x++){									
 3719              		.loc 1 752 0 is_stmt 1
 3720 1398 0022     		movs	r2, #0
 3721 139a 184B     		ldr	r3, .L604+8
 3722 139c 1A60     		str	r2, [r3]
 3723 139e 08E0     		b	.L269
 3724              	.L270:
 753:.\Protocolo.c **** 						    write_psoc1(val,msn_tc[x]);
 3725              		.loc 1 753 0 discriminator 3
 3726 13a0 2046     		mov	r0, r4
 3727 13a2 1C4A     		ldr	r2, .L604+32
 3728 13a4 D15C     		ldrb	r1, [r2, r3]	@ zero_extendqisi2
 3729 13a6 FFF7FEFF 		bl	write_psoc1
 3730              	.LVL288:
 752:.\Protocolo.c **** 						for(x=0;x<=5;x++){									
 3731              		.loc 1 752 0 discriminator 3
 3732 13aa 144A     		ldr	r2, .L604+8
 3733 13ac 1368     		ldr	r3, [r2]
 3734 13ae 0133     		adds	r3, r3, #1
 3735 13b0 1360     		str	r3, [r2]
 3736              	.L269:
 752:.\Protocolo.c **** 						for(x=0;x<=5;x++){									
 3737              		.loc 1 752 0 is_stmt 0 discriminator 1
 3738 13b2 124B     		ldr	r3, .L604+8
 3739 13b4 1B68     		ldr	r3, [r3]
 3740 13b6 052B     		cmp	r3, #5
 3741 13b8 F2D9     		bls	.L270
 754:.\Protocolo.c **** 					    }
 755:.\Protocolo.c **** 					    write_psoc1(val,10);
 3742              		.loc 1 755 0 is_stmt 1
 3743 13ba 2046     		mov	r0, r4
 3744 13bc 0A21     		movs	r1, #10
 3745 13be FFF7FEFF 		bl	write_psoc1
 3746              	.LVL289:
 756:.\Protocolo.c ****                         for(x=0;x<=10;x++){									
 3747              		.loc 1 756 0
 3748 13c2 0022     		movs	r2, #0
 3749 13c4 0D4B     		ldr	r3, .L604+8
 3750 13c6 1A60     		str	r2, [r3]
 3751 13c8 08E0     		b	.L271
 3752              	.L272:
 757:.\Protocolo.c **** 						    write_psoc1(val,producto2n[x]);
 3753              		.loc 1 757 0 discriminator 3
 3754 13ca 2046     		mov	r0, r4
 3755 13cc 184A     		ldr	r2, .L604+60
 3756 13ce D15C     		ldrb	r1, [r2, r3]	@ zero_extendqisi2
ARM GAS  C:\Users\IN-002~1\AppData\Local\Temp\ccxO8rjh.s 			page 84


 3757 13d0 FFF7FEFF 		bl	write_psoc1
 3758              	.LVL290:
 756:.\Protocolo.c ****                         for(x=0;x<=10;x++){									
 3759              		.loc 1 756 0 discriminator 3
 3760 13d4 094A     		ldr	r2, .L604+8
 3761 13d6 1368     		ldr	r3, [r2]
 3762 13d8 0133     		adds	r3, r3, #1
 3763 13da 1360     		str	r3, [r2]
 3764              	.L271:
 756:.\Protocolo.c ****                         for(x=0;x<=10;x++){									
 3765              		.loc 1 756 0 is_stmt 0 discriminator 1
 3766 13dc 074B     		ldr	r3, .L604+8
 3767 13de 1B68     		ldr	r3, [r3]
 3768 13e0 0A2B     		cmp	r3, #10
 3769 13e2 F2D9     		bls	.L272
 758:.\Protocolo.c **** 					    }
 759:.\Protocolo.c ****                         write_psoc1(val,10);
 3770              		.loc 1 759 0 is_stmt 1
 3771 13e4 2046     		mov	r0, r4
 3772 13e6 0A21     		movs	r1, #10
 3773 13e8 FFF7FEFF 		bl	write_psoc1
 3774              	.LVL291:
 760:.\Protocolo.c **** 						for(x=0;x<=14;x++){									
 3775              		.loc 1 760 0
 3776 13ec 0022     		movs	r2, #0
 3777 13ee 034B     		ldr	r3, .L604+8
 3778 13f0 1A60     		str	r2, [r3]
 3779 13f2 29E0     		b	.L273
 3780              	.L605:
 3781              		.align	2
 3782              	.L604:
 3783 13f4 00000000 		.word	Surtidor_rxBuffer
 3784 13f8 00000000 		.word	rventa
 3785 13fc 00000000 		.word	x
 3786 1400 00000000 		.word	z
 3787 1404 F7FFFFFF 		.word	rventa-9
 3788 1408 00000000 		.word	corriente
 3789 140c 00000000 		.word	lado
 3790 1410 00000000 		.word	corriente2
 3791 1414 00000000 		.word	.LANCHOR1
 3792 1418 00000000 		.word	producto1n
 3793 141c FFFFFFFF 		.word	rventa-1
 3794 1420 00000000 		.word	buffer_i2c
 3795 1424 00000000 		.word	resultado
 3796 1428 00000000 		.word	diesel
 3797 142c 00000000 		.word	diesel2
 3798 1430 00000000 		.word	producto2n
 3799              	.L274:
 761:.\Protocolo.c **** 							write_psoc1(val,msn_lecact[x]);				//LECTURA ACTUAL
 3800              		.loc 1 761 0 discriminator 3
 3801 1434 AC4A     		ldr	r2, .L606
 3802 1436 1344     		add	r3, r3, r2
 3803 1438 2046     		mov	r0, r4
 3804 143a 197A     		ldrb	r1, [r3, #8]	@ zero_extendqisi2
 3805 143c FFF7FEFF 		bl	write_psoc1
 3806              	.LVL292:
 760:.\Protocolo.c **** 						for(x=0;x<=14;x++){									
ARM GAS  C:\Users\IN-002~1\AppData\Local\Temp\ccxO8rjh.s 			page 85


 3807              		.loc 1 760 0 discriminator 3
 3808 1440 AA4A     		ldr	r2, .L606+4
 3809 1442 1368     		ldr	r3, [r2]
 3810 1444 0133     		adds	r3, r3, #1
 3811 1446 1360     		str	r3, [r2]
 3812              	.L273:
 760:.\Protocolo.c **** 						for(x=0;x<=14;x++){									
 3813              		.loc 1 760 0 is_stmt 0 discriminator 1
 3814 1448 A84B     		ldr	r3, .L606+4
 3815 144a 1B68     		ldr	r3, [r3]
 3816 144c 0E2B     		cmp	r3, #14
 3817 144e F1D9     		bls	.L274
 762:.\Protocolo.c **** 						}
 763:.\Protocolo.c **** 						write_psoc1(val,10);
 3818              		.loc 1 763 0 is_stmt 1
 3819 1450 2046     		mov	r0, r4
 3820 1452 0A21     		movs	r1, #10
 3821 1454 FFF7FEFF 		bl	write_psoc1
 3822              	.LVL293:
 764:.\Protocolo.c **** 						print_totalesac(8,val);	
 3823              		.loc 1 764 0
 3824 1458 0820     		movs	r0, #8
 3825 145a 2146     		mov	r1, r4
 3826 145c FFF7FEFF 		bl	print_totalesac
 3827              	.LVL294:
 765:.\Protocolo.c **** 						for(x=0;x<=16;x++){												
 3828              		.loc 1 765 0
 3829 1460 0022     		movs	r2, #0
 3830 1462 A24B     		ldr	r3, .L606+4
 3831 1464 1A60     		str	r2, [r3]
 3832 1466 09E0     		b	.L275
 3833              	.L276:
 766:.\Protocolo.c **** 							write_psoc1(val,msn_lecaan[x]);				//LECTURA ANTERIOR
 3834              		.loc 1 766 0 discriminator 3
 3835 1468 9F4A     		ldr	r2, .L606
 3836 146a 1344     		add	r3, r3, r2
 3837 146c 2046     		mov	r0, r4
 3838 146e 197E     		ldrb	r1, [r3, #24]	@ zero_extendqisi2
 3839 1470 FFF7FEFF 		bl	write_psoc1
 3840              	.LVL295:
 765:.\Protocolo.c **** 						for(x=0;x<=16;x++){												
 3841              		.loc 1 765 0 discriminator 3
 3842 1474 9D4A     		ldr	r2, .L606+4
 3843 1476 1368     		ldr	r3, [r2]
 3844 1478 0133     		adds	r3, r3, #1
 3845 147a 1360     		str	r3, [r2]
 3846              	.L275:
 765:.\Protocolo.c **** 						for(x=0;x<=16;x++){												
 3847              		.loc 1 765 0 is_stmt 0 discriminator 1
 3848 147c 9B4B     		ldr	r3, .L606+4
 3849 147e 1B68     		ldr	r3, [r3]
 3850 1480 102B     		cmp	r3, #16
 3851 1482 F1D9     		bls	.L276
 767:.\Protocolo.c **** 						}
 768:.\Protocolo.c **** 						write_psoc1(val,10);
 3852              		.loc 1 768 0 is_stmt 1
 3853 1484 2046     		mov	r0, r4
ARM GAS  C:\Users\IN-002~1\AppData\Local\Temp\ccxO8rjh.s 			page 86


 3854 1486 0A21     		movs	r1, #10
 3855 1488 FFF7FEFF 		bl	write_psoc1
 3856              	.LVL296:
 769:.\Protocolo.c **** 						if(dir==lado.a.dir){
 3857              		.loc 1 769 0
 3858 148c 984B     		ldr	r3, .L606+8
 3859 148e 1B78     		ldrb	r3, [r3]	@ zero_extendqisi2
 3860 1490 AB42     		cmp	r3, r5
 3861 1492 04D1     		bne	.L277
 770:.\Protocolo.c **** 							leer_eeprom(217,25);
 3862              		.loc 1 770 0
 3863 1494 D920     		movs	r0, #217
 3864 1496 1921     		movs	r1, #25
 3865 1498 FFF7FEFF 		bl	leer_eeprom
 3866              	.LVL297:
 3867 149c 04E0     		b	.L278
 3868              	.L277:
 771:.\Protocolo.c **** 						}
 772:.\Protocolo.c **** 						else{
 773:.\Protocolo.c **** 							leer_eeprom(320,25);
 3869              		.loc 1 773 0
 3870 149e 4FF4A070 		mov	r0, #320
 3871 14a2 1921     		movs	r1, #25
 3872 14a4 FFF7FEFF 		bl	leer_eeprom
 3873              	.LVL298:
 3874              	.L278:
 774:.\Protocolo.c **** 						}
 775:.\Protocolo.c **** 						print_totales(val);
 3875              		.loc 1 775 0
 3876 14a8 2046     		mov	r0, r4
 3877 14aa FFF7FEFF 		bl	print_totales
 3878              	.LVL299:
 776:.\Protocolo.c **** 						for(z=1;z<=8;z++){
 3879              		.loc 1 776 0
 3880 14ae 0122     		movs	r2, #1
 3881 14b0 904B     		ldr	r3, .L606+12
 3882 14b2 1A60     		str	r2, [r3]
 3883 14b4 10E0     		b	.L279
 3884              	.L280:
 777:.\Protocolo.c **** 							minuendo[z]=rventa.tdinero[z-1];
 3885              		.loc 1 777 0 discriminator 3
 3886 14b6 904A     		ldr	r2, .L606+16
 3887 14b8 1A44     		add	r2, r2, r3
 3888 14ba 92F8CA10 		ldrb	r1, [r2, #202]	@ zero_extendqisi2
 3889 14be 10AA     		add	r2, sp, #64
 3890 14c0 1A44     		add	r2, r2, r3
 3891 14c2 02F82C1C 		strb	r1, [r2, #-44]
 778:.\Protocolo.c **** 							sustraendo[z]=buffer_i2c[z+8];
 3892              		.loc 1 778 0 discriminator 3
 3893 14c6 03F10801 		add	r1, r3, #8
 3894 14ca 8C48     		ldr	r0, .L606+20
 3895 14cc 415C     		ldrb	r1, [r0, r1]	@ zero_extendqisi2
 3896 14ce 02F83C1C 		strb	r1, [r2, #-60]
 776:.\Protocolo.c **** 						for(z=1;z<=8;z++){
 3897              		.loc 1 776 0 discriminator 3
 3898 14d2 0133     		adds	r3, r3, #1
 3899 14d4 874A     		ldr	r2, .L606+12
ARM GAS  C:\Users\IN-002~1\AppData\Local\Temp\ccxO8rjh.s 			page 87


 3900 14d6 1360     		str	r3, [r2]
 3901              	.L279:
 776:.\Protocolo.c **** 						for(z=1;z<=8;z++){
 3902              		.loc 1 776 0 is_stmt 0 discriminator 1
 3903 14d8 864B     		ldr	r3, .L606+12
 3904 14da 1B68     		ldr	r3, [r3]
 3905 14dc 082B     		cmp	r3, #8
 3906 14de EAD9     		bls	.L280
 779:.\Protocolo.c **** 						}
 780:.\Protocolo.c **** 						minuendo[0]=8;
 3907              		.loc 1 780 0 is_stmt 1
 3908 14e0 10A9     		add	r1, sp, #64
 3909 14e2 0823     		movs	r3, #8
 3910 14e4 01F82C3D 		strb	r3, [r1, #-44]!
 781:.\Protocolo.c **** 						operacion(2,minuendo,sustraendo);
 3911              		.loc 1 781 0
 3912 14e8 0220     		movs	r0, #2
 3913 14ea 01AA     		add	r2, sp, #4
 3914 14ec FFF7FEFF 		bl	operacion
 3915              	.LVL300:
 782:.\Protocolo.c **** 						for(x=0;x<=17;x++){									
 3916              		.loc 1 782 0
 3917 14f0 0022     		movs	r2, #0
 3918 14f2 7E4B     		ldr	r3, .L606+4
 3919 14f4 1A60     		str	r2, [r3]
 3920 14f6 0AE0     		b	.L281
 3921              	.L282:
 783:.\Protocolo.c **** 							write_psoc1(val,msn_tventas[x]);				//Total de ventas
 3922              		.loc 1 783 0 discriminator 3
 3923 14f8 7B4A     		ldr	r2, .L606
 3924 14fa 1344     		add	r3, r3, r2
 3925 14fc 2046     		mov	r0, r4
 3926 14fe 93F82C10 		ldrb	r1, [r3, #44]	@ zero_extendqisi2
 3927 1502 FFF7FEFF 		bl	write_psoc1
 3928              	.LVL301:
 782:.\Protocolo.c **** 						for(x=0;x<=17;x++){									
 3929              		.loc 1 782 0 discriminator 3
 3930 1506 794A     		ldr	r2, .L606+4
 3931 1508 1368     		ldr	r3, [r2]
 3932 150a 0133     		adds	r3, r3, #1
 3933 150c 1360     		str	r3, [r2]
 3934              	.L281:
 782:.\Protocolo.c **** 						for(x=0;x<=17;x++){									
 3935              		.loc 1 782 0 is_stmt 0 discriminator 1
 3936 150e 774B     		ldr	r3, .L606+4
 3937 1510 1B68     		ldr	r3, [r3]
 3938 1512 112B     		cmp	r3, #17
 3939 1514 F0D9     		bls	.L282
 784:.\Protocolo.c **** 						}
 785:.\Protocolo.c **** 						print_valor(resultado,val);				
 3940              		.loc 1 785 0 is_stmt 1
 3941 1516 7A48     		ldr	r0, .L606+24
 3942 1518 2146     		mov	r1, r4
 3943 151a FFF7FEFF 		bl	print_valor
 3944              	.LVL302:
 786:.\Protocolo.c **** 						if(dir==lado.a.dir){
 3945              		.loc 1 786 0
ARM GAS  C:\Users\IN-002~1\AppData\Local\Temp\ccxO8rjh.s 			page 88


 3946 151e 744B     		ldr	r3, .L606+8
 3947 1520 1B78     		ldrb	r3, [r3]	@ zero_extendqisi2
 3948 1522 AB42     		cmp	r3, r5
 3949 1524 09D1     		bne	.L283
 787:.\Protocolo.c **** 							write_eeprom(217,corte);
 3950              		.loc 1 787 0
 3951 1526 D920     		movs	r0, #217
 3952 1528 09A9     		add	r1, sp, #36
 3953 152a FFF7FEFF 		bl	write_eeprom
 3954              	.LVL303:
 788:.\Protocolo.c **** 							write_eeprom(538,resultado);
 3955              		.loc 1 788 0
 3956 152e 40F21A20 		movw	r0, #538
 3957 1532 7349     		ldr	r1, .L606+24
 3958 1534 FFF7FEFF 		bl	write_eeprom
 3959              	.LVL304:
 3960 1538 09E0     		b	.L268
 3961              	.L283:
 789:.\Protocolo.c **** 						}
 790:.\Protocolo.c **** 						else{
 791:.\Protocolo.c **** 							write_eeprom(320,corte);
 3962              		.loc 1 791 0
 3963 153a 4FF4A070 		mov	r0, #320
 3964 153e 09A9     		add	r1, sp, #36
 3965 1540 FFF7FEFF 		bl	write_eeprom
 3966              	.LVL305:
 792:.\Protocolo.c **** 							write_eeprom(576,resultado);
 3967              		.loc 1 792 0
 3968 1544 4FF41070 		mov	r0, #576
 3969 1548 6D49     		ldr	r1, .L606+24
 3970 154a FFF7FEFF 		bl	write_eeprom
 3971              	.LVL306:
 3972              	.L268:
 793:.\Protocolo.c **** 						}				
 794:.\Protocolo.c **** 					}
 795:.\Protocolo.c **** 					if(((rventa.manguera==(extra&0x0F))&&(dir==lado.a.dir))||((rventa.manguera==(extra2&0x0F))&&(d
 3973              		.loc 1 795 0
 3974 154e 6D4B     		ldr	r3, .L606+28
 3975 1550 93F8E020 		ldrb	r2, [r3, #224]	@ zero_extendqisi2
 3976 1554 6C4B     		ldr	r3, .L606+32
 3977 1556 1B78     		ldrb	r3, [r3]	@ zero_extendqisi2
 3978 1558 03F00F03 		and	r3, r3, #15
 3979 155c 9342     		cmp	r3, r2
 3980 155e 03D1     		bne	.L284
 3981              		.loc 1 795 0 is_stmt 0 discriminator 1
 3982 1560 634B     		ldr	r3, .L606+8
 3983 1562 1B78     		ldrb	r3, [r3]	@ zero_extendqisi2
 3984 1564 AB42     		cmp	r3, r5
 3985 1566 0BD0     		beq	.L285
 3986              	.L284:
 3987              		.loc 1 795 0 discriminator 3
 3988 1568 684B     		ldr	r3, .L606+36
 3989 156a 1B78     		ldrb	r3, [r3]	@ zero_extendqisi2
 3990 156c 03F00F03 		and	r3, r3, #15
 3991 1570 9A42     		cmp	r2, r3
 3992 1572 40F0D980 		bne	.L286
 3993              		.loc 1 795 0 discriminator 4
ARM GAS  C:\Users\IN-002~1\AppData\Local\Temp\ccxO8rjh.s 			page 89


 3994 1576 5E4B     		ldr	r3, .L606+8
 3995 1578 1B79     		ldrb	r3, [r3, #4]	@ zero_extendqisi2
 3996 157a AB42     		cmp	r3, r5
 3997 157c 40F0D480 		bne	.L286
 3998              	.L285:
 796:.\Protocolo.c **** 						for(x=0;x<=5;x++){									
 3999              		.loc 1 796 0 is_stmt 1
 4000 1580 0022     		movs	r2, #0
 4001 1582 5A4B     		ldr	r3, .L606+4
 4002 1584 1A60     		str	r2, [r3]
 4003 1586 08E0     		b	.L287
 4004              	.L288:
 797:.\Protocolo.c **** 						    write_psoc1(val,msn_tc[x]);
 4005              		.loc 1 797 0 discriminator 3
 4006 1588 2046     		mov	r0, r4
 4007 158a 574A     		ldr	r2, .L606
 4008 158c D15C     		ldrb	r1, [r2, r3]	@ zero_extendqisi2
 4009 158e FFF7FEFF 		bl	write_psoc1
 4010              	.LVL307:
 796:.\Protocolo.c **** 						for(x=0;x<=5;x++){									
 4011              		.loc 1 796 0 discriminator 3
 4012 1592 564A     		ldr	r2, .L606+4
 4013 1594 1368     		ldr	r3, [r2]
 4014 1596 0133     		adds	r3, r3, #1
 4015 1598 1360     		str	r3, [r2]
 4016              	.L287:
 796:.\Protocolo.c **** 						for(x=0;x<=5;x++){									
 4017              		.loc 1 796 0 is_stmt 0 discriminator 1
 4018 159a 544B     		ldr	r3, .L606+4
 4019 159c 1B68     		ldr	r3, [r3]
 4020 159e 052B     		cmp	r3, #5
 4021 15a0 F2D9     		bls	.L288
 798:.\Protocolo.c **** 					    }
 799:.\Protocolo.c **** 					    write_psoc1(val,10);
 4022              		.loc 1 799 0 is_stmt 1
 4023 15a2 2046     		mov	r0, r4
 4024 15a4 0A21     		movs	r1, #10
 4025 15a6 FFF7FEFF 		bl	write_psoc1
 4026              	.LVL308:
 800:.\Protocolo.c ****                         for(x=0;x<=10;x++){									
 4027              		.loc 1 800 0
 4028 15aa 0022     		movs	r2, #0
 4029 15ac 4F4B     		ldr	r3, .L606+4
 4030 15ae 1A60     		str	r2, [r3]
 4031 15b0 08E0     		b	.L289
 4032              	.L290:
 801:.\Protocolo.c **** 						    write_psoc1(val,producto3n[x]);
 4033              		.loc 1 801 0 discriminator 3
 4034 15b2 2046     		mov	r0, r4
 4035 15b4 564A     		ldr	r2, .L606+40
 4036 15b6 D15C     		ldrb	r1, [r2, r3]	@ zero_extendqisi2
 4037 15b8 FFF7FEFF 		bl	write_psoc1
 4038              	.LVL309:
 800:.\Protocolo.c ****                         for(x=0;x<=10;x++){									
 4039              		.loc 1 800 0 discriminator 3
 4040 15bc 4B4A     		ldr	r2, .L606+4
 4041 15be 1368     		ldr	r3, [r2]
ARM GAS  C:\Users\IN-002~1\AppData\Local\Temp\ccxO8rjh.s 			page 90


 4042 15c0 0133     		adds	r3, r3, #1
 4043 15c2 1360     		str	r3, [r2]
 4044              	.L289:
 800:.\Protocolo.c ****                         for(x=0;x<=10;x++){									
 4045              		.loc 1 800 0 is_stmt 0 discriminator 1
 4046 15c4 494B     		ldr	r3, .L606+4
 4047 15c6 1B68     		ldr	r3, [r3]
 4048 15c8 0A2B     		cmp	r3, #10
 4049 15ca F2D9     		bls	.L290
 802:.\Protocolo.c **** 					    }
 803:.\Protocolo.c ****                         write_psoc1(val,10);
 4050              		.loc 1 803 0 is_stmt 1
 4051 15cc 2046     		mov	r0, r4
 4052 15ce 0A21     		movs	r1, #10
 4053 15d0 FFF7FEFF 		bl	write_psoc1
 4054              	.LVL310:
 804:.\Protocolo.c **** 						for(x=0;x<=14;x++){									
 4055              		.loc 1 804 0
 4056 15d4 0022     		movs	r2, #0
 4057 15d6 454B     		ldr	r3, .L606+4
 4058 15d8 1A60     		str	r2, [r3]
 4059 15da 09E0     		b	.L291
 4060              	.L292:
 805:.\Protocolo.c **** 							write_psoc1(val,msn_lecact[x]);				//LECTURA ACTUAL
 4061              		.loc 1 805 0 discriminator 3
 4062 15dc 424A     		ldr	r2, .L606
 4063 15de 1344     		add	r3, r3, r2
 4064 15e0 2046     		mov	r0, r4
 4065 15e2 197A     		ldrb	r1, [r3, #8]	@ zero_extendqisi2
 4066 15e4 FFF7FEFF 		bl	write_psoc1
 4067              	.LVL311:
 804:.\Protocolo.c **** 						for(x=0;x<=14;x++){									
 4068              		.loc 1 804 0 discriminator 3
 4069 15e8 404A     		ldr	r2, .L606+4
 4070 15ea 1368     		ldr	r3, [r2]
 4071 15ec 0133     		adds	r3, r3, #1
 4072 15ee 1360     		str	r3, [r2]
 4073              	.L291:
 804:.\Protocolo.c **** 						for(x=0;x<=14;x++){									
 4074              		.loc 1 804 0 is_stmt 0 discriminator 1
 4075 15f0 3E4B     		ldr	r3, .L606+4
 4076 15f2 1B68     		ldr	r3, [r3]
 4077 15f4 0E2B     		cmp	r3, #14
 4078 15f6 F1D9     		bls	.L292
 806:.\Protocolo.c **** 						}
 807:.\Protocolo.c **** 						write_psoc1(val,10);
 4079              		.loc 1 807 0 is_stmt 1
 4080 15f8 2046     		mov	r0, r4
 4081 15fa 0A21     		movs	r1, #10
 4082 15fc FFF7FEFF 		bl	write_psoc1
 4083              	.LVL312:
 808:.\Protocolo.c **** 						print_totalesac(8,val);	
 4084              		.loc 1 808 0
 4085 1600 0820     		movs	r0, #8
 4086 1602 2146     		mov	r1, r4
 4087 1604 FFF7FEFF 		bl	print_totalesac
 4088              	.LVL313:
ARM GAS  C:\Users\IN-002~1\AppData\Local\Temp\ccxO8rjh.s 			page 91


 809:.\Protocolo.c **** 						for(x=0;x<=16;x++){												
 4089              		.loc 1 809 0
 4090 1608 0022     		movs	r2, #0
 4091 160a 384B     		ldr	r3, .L606+4
 4092 160c 1A60     		str	r2, [r3]
 4093 160e 09E0     		b	.L293
 4094              	.L294:
 810:.\Protocolo.c **** 							write_psoc1(val,msn_lecaan[x]);				//LECTURA ANTERIOR
 4095              		.loc 1 810 0 discriminator 3
 4096 1610 354A     		ldr	r2, .L606
 4097 1612 1344     		add	r3, r3, r2
 4098 1614 2046     		mov	r0, r4
 4099 1616 197E     		ldrb	r1, [r3, #24]	@ zero_extendqisi2
 4100 1618 FFF7FEFF 		bl	write_psoc1
 4101              	.LVL314:
 809:.\Protocolo.c **** 						for(x=0;x<=16;x++){												
 4102              		.loc 1 809 0 discriminator 3
 4103 161c 334A     		ldr	r2, .L606+4
 4104 161e 1368     		ldr	r3, [r2]
 4105 1620 0133     		adds	r3, r3, #1
 4106 1622 1360     		str	r3, [r2]
 4107              	.L293:
 809:.\Protocolo.c **** 						for(x=0;x<=16;x++){												
 4108              		.loc 1 809 0 is_stmt 0 discriminator 1
 4109 1624 314B     		ldr	r3, .L606+4
 4110 1626 1B68     		ldr	r3, [r3]
 4111 1628 102B     		cmp	r3, #16
 4112 162a F1D9     		bls	.L294
 811:.\Protocolo.c **** 						}
 812:.\Protocolo.c **** 						write_psoc1(val,10);
 4113              		.loc 1 812 0 is_stmt 1
 4114 162c 2046     		mov	r0, r4
 4115 162e 0A21     		movs	r1, #10
 4116 1630 FFF7FEFF 		bl	write_psoc1
 4117              	.LVL315:
 813:.\Protocolo.c **** 						if(dir==lado.a.dir){
 4118              		.loc 1 813 0
 4119 1634 2E4B     		ldr	r3, .L606+8
 4120 1636 1B78     		ldrb	r3, [r3]	@ zero_extendqisi2
 4121 1638 AB42     		cmp	r3, r5
 4122 163a 05D1     		bne	.L295
 814:.\Protocolo.c **** 							leer_eeprom(256,25);
 4123              		.loc 1 814 0
 4124 163c 4FF48070 		mov	r0, #256
 4125 1640 1921     		movs	r1, #25
 4126 1642 FFF7FEFF 		bl	leer_eeprom
 4127              	.LVL316:
 4128 1646 04E0     		b	.L296
 4129              	.L295:
 815:.\Protocolo.c **** 						}
 816:.\Protocolo.c **** 						else{
 817:.\Protocolo.c **** 							leer_eeprom(345,25);
 4130              		.loc 1 817 0
 4131 1648 40F25910 		movw	r0, #345
 4132 164c 1921     		movs	r1, #25
 4133 164e FFF7FEFF 		bl	leer_eeprom
 4134              	.LVL317:
ARM GAS  C:\Users\IN-002~1\AppData\Local\Temp\ccxO8rjh.s 			page 92


 4135              	.L296:
 818:.\Protocolo.c **** 						}
 819:.\Protocolo.c **** 						print_totales(val);
 4136              		.loc 1 819 0
 4137 1652 2046     		mov	r0, r4
 4138 1654 FFF7FEFF 		bl	print_totales
 4139              	.LVL318:
 820:.\Protocolo.c **** 						for(z=1;z<=8;z++){
 4140              		.loc 1 820 0
 4141 1658 0122     		movs	r2, #1
 4142 165a 264B     		ldr	r3, .L606+12
 4143 165c 1A60     		str	r2, [r3]
 4144 165e 10E0     		b	.L297
 4145              	.L298:
 821:.\Protocolo.c **** 							minuendo[z]=rventa.tdinero[z-1];
 4146              		.loc 1 821 0 discriminator 3
 4147 1660 254A     		ldr	r2, .L606+16
 4148 1662 1A44     		add	r2, r2, r3
 4149 1664 92F8CA10 		ldrb	r1, [r2, #202]	@ zero_extendqisi2
 4150 1668 10AA     		add	r2, sp, #64
 4151 166a 1A44     		add	r2, r2, r3
 4152 166c 02F82C1C 		strb	r1, [r2, #-44]
 822:.\Protocolo.c **** 							sustraendo[z]=buffer_i2c[z+8];
 4153              		.loc 1 822 0 discriminator 3
 4154 1670 03F10801 		add	r1, r3, #8
 4155 1674 2148     		ldr	r0, .L606+20
 4156 1676 415C     		ldrb	r1, [r0, r1]	@ zero_extendqisi2
 4157 1678 02F83C1C 		strb	r1, [r2, #-60]
 820:.\Protocolo.c **** 						for(z=1;z<=8;z++){
 4158              		.loc 1 820 0 discriminator 3
 4159 167c 0133     		adds	r3, r3, #1
 4160 167e 1D4A     		ldr	r2, .L606+12
 4161 1680 1360     		str	r3, [r2]
 4162              	.L297:
 820:.\Protocolo.c **** 						for(z=1;z<=8;z++){
 4163              		.loc 1 820 0 is_stmt 0 discriminator 1
 4164 1682 1C4B     		ldr	r3, .L606+12
 4165 1684 1B68     		ldr	r3, [r3]
 4166 1686 082B     		cmp	r3, #8
 4167 1688 EAD9     		bls	.L298
 823:.\Protocolo.c **** 						}
 824:.\Protocolo.c **** 						minuendo[0]=8;
 4168              		.loc 1 824 0 is_stmt 1
 4169 168a 10A9     		add	r1, sp, #64
 4170 168c 0823     		movs	r3, #8
 4171 168e 01F82C3D 		strb	r3, [r1, #-44]!
 825:.\Protocolo.c **** 						operacion(2,minuendo,sustraendo);
 4172              		.loc 1 825 0
 4173 1692 0220     		movs	r0, #2
 4174 1694 01AA     		add	r2, sp, #4
 4175 1696 FFF7FEFF 		bl	operacion
 4176              	.LVL319:
 826:.\Protocolo.c **** 						for(x=0;x<=17;x++){									
 4177              		.loc 1 826 0
 4178 169a 0022     		movs	r2, #0
 4179 169c 134B     		ldr	r3, .L606+4
 4180 169e 1A60     		str	r2, [r3]
ARM GAS  C:\Users\IN-002~1\AppData\Local\Temp\ccxO8rjh.s 			page 93


 4181 16a0 0AE0     		b	.L299
 4182              	.L300:
 827:.\Protocolo.c **** 							write_psoc1(val,msn_tventas[x]);				//Total de ventas
 4183              		.loc 1 827 0 discriminator 3
 4184 16a2 114A     		ldr	r2, .L606
 4185 16a4 1344     		add	r3, r3, r2
 4186 16a6 2046     		mov	r0, r4
 4187 16a8 93F82C10 		ldrb	r1, [r3, #44]	@ zero_extendqisi2
 4188 16ac FFF7FEFF 		bl	write_psoc1
 4189              	.LVL320:
 826:.\Protocolo.c **** 						for(x=0;x<=17;x++){									
 4190              		.loc 1 826 0 discriminator 3
 4191 16b0 0E4A     		ldr	r2, .L606+4
 4192 16b2 1368     		ldr	r3, [r2]
 4193 16b4 0133     		adds	r3, r3, #1
 4194 16b6 1360     		str	r3, [r2]
 4195              	.L299:
 826:.\Protocolo.c **** 						for(x=0;x<=17;x++){									
 4196              		.loc 1 826 0 is_stmt 0 discriminator 1
 4197 16b8 0C4B     		ldr	r3, .L606+4
 4198 16ba 1B68     		ldr	r3, [r3]
 4199 16bc 112B     		cmp	r3, #17
 4200 16be F0D9     		bls	.L300
 828:.\Protocolo.c **** 						}
 829:.\Protocolo.c **** 						print_valor(resultado,val);							
 4201              		.loc 1 829 0 is_stmt 1
 4202 16c0 0F48     		ldr	r0, .L606+24
 4203 16c2 2146     		mov	r1, r4
 4204 16c4 FFF7FEFF 		bl	print_valor
 4205              	.LVL321:
 830:.\Protocolo.c **** 						if(dir==lado.a.dir){
 4206              		.loc 1 830 0
 4207 16c8 094B     		ldr	r3, .L606+8
 4208 16ca 1B78     		ldrb	r3, [r3]	@ zero_extendqisi2
 4209 16cc AB42     		cmp	r3, r5
 4210 16ce 21D1     		bne	.L301
 831:.\Protocolo.c **** 							write_eeprom(256,corte);
 4211              		.loc 1 831 0
 4212 16d0 4FF48070 		mov	r0, #256
 4213 16d4 09A9     		add	r1, sp, #36
 4214 16d6 FFF7FEFF 		bl	write_eeprom
 4215              	.LVL322:
 832:.\Protocolo.c **** 							write_eeprom(525,resultado);
 4216              		.loc 1 832 0
 4217 16da 40F20D20 		movw	r0, #525
 4218 16de 0849     		ldr	r1, .L606+24
 4219 16e0 FFF7FEFF 		bl	write_eeprom
 4220              	.LVL323:
 4221 16e4 20E0     		b	.L286
 4222              	.L607:
 4223 16e6 00BF     		.align	2
 4224              	.L606:
 4225 16e8 00000000 		.word	.LANCHOR1
 4226 16ec 00000000 		.word	x
 4227 16f0 00000000 		.word	lado
 4228 16f4 00000000 		.word	z
 4229 16f8 FFFFFFFF 		.word	rventa-1
ARM GAS  C:\Users\IN-002~1\AppData\Local\Temp\ccxO8rjh.s 			page 94


 4230 16fc 00000000 		.word	buffer_i2c
 4231 1700 00000000 		.word	resultado
 4232 1704 00000000 		.word	rventa
 4233 1708 00000000 		.word	extra
 4234 170c 00000000 		.word	extra2
 4235 1710 00000000 		.word	producto3n
 4236              	.L301:
 833:.\Protocolo.c **** 						}
 834:.\Protocolo.c **** 						else{
 835:.\Protocolo.c **** 							write_eeprom(345,corte);
 4237              		.loc 1 835 0
 4238 1714 40F25910 		movw	r0, #345
 4239 1718 09A9     		add	r1, sp, #36
 4240 171a FFF7FEFF 		bl	write_eeprom
 4241              	.LVL324:
 836:.\Protocolo.c **** 							write_eeprom(589,resultado);
 4242              		.loc 1 836 0
 4243 171e 40F24D20 		movw	r0, #589
 4244 1722 A449     		ldr	r1, .L608
 4245 1724 FFF7FEFF 		bl	write_eeprom
 4246              	.LVL325:
 4247              	.L286:
 837:.\Protocolo.c **** 						}					
 838:.\Protocolo.c **** 					}
 839:.\Protocolo.c ****                     
 840:.\Protocolo.c ****                     if(((rventa.manguera==(kero&0x0F))&&(dir==lado.a.dir))||((rventa.manguera==(ker
 4248              		.loc 1 840 0
 4249 1728 A34B     		ldr	r3, .L608+4
 4250 172a 93F8E020 		ldrb	r2, [r3, #224]	@ zero_extendqisi2
 4251 172e A34B     		ldr	r3, .L608+8
 4252 1730 1B78     		ldrb	r3, [r3]	@ zero_extendqisi2
 4253 1732 03F00F03 		and	r3, r3, #15
 4254 1736 9342     		cmp	r3, r2
 4255 1738 03D1     		bne	.L302
 4256              		.loc 1 840 0 is_stmt 0 discriminator 1
 4257 173a A14B     		ldr	r3, .L608+12
 4258 173c 1B78     		ldrb	r3, [r3]	@ zero_extendqisi2
 4259 173e AB42     		cmp	r3, r5
 4260 1740 0BD0     		beq	.L303
 4261              	.L302:
 4262              		.loc 1 840 0 discriminator 3
 4263 1742 A04B     		ldr	r3, .L608+16
 4264 1744 1B78     		ldrb	r3, [r3]	@ zero_extendqisi2
 4265 1746 03F00F03 		and	r3, r3, #15
 4266 174a 9A42     		cmp	r2, r3
 4267 174c 40F0C280 		bne	.L304
 4268              		.loc 1 840 0 discriminator 4
 4269 1750 9B4B     		ldr	r3, .L608+12
 4270 1752 1B79     		ldrb	r3, [r3, #4]	@ zero_extendqisi2
 4271 1754 AB42     		cmp	r3, r5
 4272 1756 40F0BD80 		bne	.L304
 4273              	.L303:
 841:.\Protocolo.c **** 						for(x=0;x<=5;x++){									
 4274              		.loc 1 841 0 is_stmt 1
 4275 175a 0022     		movs	r2, #0
 4276 175c 9A4B     		ldr	r3, .L608+20
 4277 175e 1A60     		str	r2, [r3]
ARM GAS  C:\Users\IN-002~1\AppData\Local\Temp\ccxO8rjh.s 			page 95


 4278 1760 08E0     		b	.L305
 4279              	.L306:
 842:.\Protocolo.c **** 						    write_psoc1(val,msn_tc[x]);
 4280              		.loc 1 842 0 discriminator 3
 4281 1762 2046     		mov	r0, r4
 4282 1764 994A     		ldr	r2, .L608+24
 4283 1766 D15C     		ldrb	r1, [r2, r3]	@ zero_extendqisi2
 4284 1768 FFF7FEFF 		bl	write_psoc1
 4285              	.LVL326:
 841:.\Protocolo.c **** 						for(x=0;x<=5;x++){									
 4286              		.loc 1 841 0 discriminator 3
 4287 176c 964A     		ldr	r2, .L608+20
 4288 176e 1368     		ldr	r3, [r2]
 4289 1770 0133     		adds	r3, r3, #1
 4290 1772 1360     		str	r3, [r2]
 4291              	.L305:
 841:.\Protocolo.c **** 						for(x=0;x<=5;x++){									
 4292              		.loc 1 841 0 is_stmt 0 discriminator 1
 4293 1774 944B     		ldr	r3, .L608+20
 4294 1776 1B68     		ldr	r3, [r3]
 4295 1778 052B     		cmp	r3, #5
 4296 177a F2D9     		bls	.L306
 843:.\Protocolo.c **** 					    }
 844:.\Protocolo.c **** 					    write_psoc1(val,10);
 4297              		.loc 1 844 0 is_stmt 1
 4298 177c 2046     		mov	r0, r4
 4299 177e 0A21     		movs	r1, #10
 4300 1780 FFF7FEFF 		bl	write_psoc1
 4301              	.LVL327:
 845:.\Protocolo.c ****                         for(x=0;x<=10;x++){									
 4302              		.loc 1 845 0
 4303 1784 0022     		movs	r2, #0
 4304 1786 904B     		ldr	r3, .L608+20
 4305 1788 1A60     		str	r2, [r3]
 4306 178a 08E0     		b	.L307
 4307              	.L308:
 846:.\Protocolo.c **** 						    write_psoc1(val,producto4n[x]);
 4308              		.loc 1 846 0 discriminator 3
 4309 178c 2046     		mov	r0, r4
 4310 178e 904A     		ldr	r2, .L608+28
 4311 1790 D15C     		ldrb	r1, [r2, r3]	@ zero_extendqisi2
 4312 1792 FFF7FEFF 		bl	write_psoc1
 4313              	.LVL328:
 845:.\Protocolo.c ****                         for(x=0;x<=10;x++){									
 4314              		.loc 1 845 0 discriminator 3
 4315 1796 8C4A     		ldr	r2, .L608+20
 4316 1798 1368     		ldr	r3, [r2]
 4317 179a 0133     		adds	r3, r3, #1
 4318 179c 1360     		str	r3, [r2]
 4319              	.L307:
 845:.\Protocolo.c ****                         for(x=0;x<=10;x++){									
 4320              		.loc 1 845 0 is_stmt 0 discriminator 1
 4321 179e 8A4B     		ldr	r3, .L608+20
 4322 17a0 1B68     		ldr	r3, [r3]
 4323 17a2 0A2B     		cmp	r3, #10
 4324 17a4 F2D9     		bls	.L308
 847:.\Protocolo.c **** 					    }
ARM GAS  C:\Users\IN-002~1\AppData\Local\Temp\ccxO8rjh.s 			page 96


 848:.\Protocolo.c ****                         write_psoc1(val,10);
 4325              		.loc 1 848 0 is_stmt 1
 4326 17a6 2046     		mov	r0, r4
 4327 17a8 0A21     		movs	r1, #10
 4328 17aa FFF7FEFF 		bl	write_psoc1
 4329              	.LVL329:
 849:.\Protocolo.c **** 						for(x=0;x<=14;x++){									
 4330              		.loc 1 849 0
 4331 17ae 0022     		movs	r2, #0
 4332 17b0 854B     		ldr	r3, .L608+20
 4333 17b2 1A60     		str	r2, [r3]
 4334 17b4 09E0     		b	.L309
 4335              	.L310:
 850:.\Protocolo.c **** 							write_psoc1(val,msn_lecact[x]);				//LECTURA ACTUAL
 4336              		.loc 1 850 0 discriminator 3
 4337 17b6 854A     		ldr	r2, .L608+24
 4338 17b8 1344     		add	r3, r3, r2
 4339 17ba 2046     		mov	r0, r4
 4340 17bc 197A     		ldrb	r1, [r3, #8]	@ zero_extendqisi2
 4341 17be FFF7FEFF 		bl	write_psoc1
 4342              	.LVL330:
 849:.\Protocolo.c **** 						for(x=0;x<=14;x++){									
 4343              		.loc 1 849 0 discriminator 3
 4344 17c2 814A     		ldr	r2, .L608+20
 4345 17c4 1368     		ldr	r3, [r2]
 4346 17c6 0133     		adds	r3, r3, #1
 4347 17c8 1360     		str	r3, [r2]
 4348              	.L309:
 849:.\Protocolo.c **** 						for(x=0;x<=14;x++){									
 4349              		.loc 1 849 0 is_stmt 0 discriminator 1
 4350 17ca 7F4B     		ldr	r3, .L608+20
 4351 17cc 1B68     		ldr	r3, [r3]
 4352 17ce 0E2B     		cmp	r3, #14
 4353 17d0 F1D9     		bls	.L310
 851:.\Protocolo.c **** 						}
 852:.\Protocolo.c **** 						write_psoc1(val,10);
 4354              		.loc 1 852 0 is_stmt 1
 4355 17d2 2046     		mov	r0, r4
 4356 17d4 0A21     		movs	r1, #10
 4357 17d6 FFF7FEFF 		bl	write_psoc1
 4358              	.LVL331:
 853:.\Protocolo.c **** 						print_totalesac(8,val);	
 4359              		.loc 1 853 0
 4360 17da 0820     		movs	r0, #8
 4361 17dc 2146     		mov	r1, r4
 4362 17de FFF7FEFF 		bl	print_totalesac
 4363              	.LVL332:
 854:.\Protocolo.c **** 						for(x=0;x<=16;x++){												
 4364              		.loc 1 854 0
 4365 17e2 0022     		movs	r2, #0
 4366 17e4 784B     		ldr	r3, .L608+20
 4367 17e6 1A60     		str	r2, [r3]
 4368 17e8 09E0     		b	.L311
 4369              	.L312:
 855:.\Protocolo.c **** 							write_psoc1(val,msn_lecaan[x]);				//LECTURA ANTERIOR
 4370              		.loc 1 855 0 discriminator 3
 4371 17ea 784A     		ldr	r2, .L608+24
ARM GAS  C:\Users\IN-002~1\AppData\Local\Temp\ccxO8rjh.s 			page 97


 4372 17ec 1344     		add	r3, r3, r2
 4373 17ee 2046     		mov	r0, r4
 4374 17f0 197E     		ldrb	r1, [r3, #24]	@ zero_extendqisi2
 4375 17f2 FFF7FEFF 		bl	write_psoc1
 4376              	.LVL333:
 854:.\Protocolo.c **** 						for(x=0;x<=16;x++){												
 4377              		.loc 1 854 0 discriminator 3
 4378 17f6 744A     		ldr	r2, .L608+20
 4379 17f8 1368     		ldr	r3, [r2]
 4380 17fa 0133     		adds	r3, r3, #1
 4381 17fc 1360     		str	r3, [r2]
 4382              	.L311:
 854:.\Protocolo.c **** 						for(x=0;x<=16;x++){												
 4383              		.loc 1 854 0 is_stmt 0 discriminator 1
 4384 17fe 724B     		ldr	r3, .L608+20
 4385 1800 1B68     		ldr	r3, [r3]
 4386 1802 102B     		cmp	r3, #16
 4387 1804 F1D9     		bls	.L312
 856:.\Protocolo.c **** 						}
 857:.\Protocolo.c **** 						write_psoc1(val,10);
 4388              		.loc 1 857 0 is_stmt 1
 4389 1806 2046     		mov	r0, r4
 4390 1808 0A21     		movs	r1, #10
 4391 180a FFF7FEFF 		bl	write_psoc1
 4392              	.LVL334:
 858:.\Protocolo.c **** 						if(dir==lado.a.dir){
 4393              		.loc 1 858 0
 4394 180e 6C4B     		ldr	r3, .L608+12
 4395 1810 1B78     		ldrb	r3, [r3]	@ zero_extendqisi2
 4396 1812 AB42     		cmp	r3, r5
 4397 1814 05D1     		bne	.L313
 859:.\Protocolo.c **** 							leer_eeprom(1096,25);
 4398              		.loc 1 859 0
 4399 1816 4FF48960 		mov	r0, #1096
 4400 181a 1921     		movs	r1, #25
 4401 181c FFF7FEFF 		bl	leer_eeprom
 4402              	.LVL335:
 4403 1820 04E0     		b	.L314
 4404              	.L313:
 860:.\Protocolo.c **** 						}
 861:.\Protocolo.c **** 						else{
 862:.\Protocolo.c **** 							leer_eeprom(1054,25);
 4405              		.loc 1 862 0
 4406 1822 40F21E40 		movw	r0, #1054
 4407 1826 1921     		movs	r1, #25
 4408 1828 FFF7FEFF 		bl	leer_eeprom
 4409              	.LVL336:
 4410              	.L314:
 863:.\Protocolo.c **** 						}
 864:.\Protocolo.c **** 						print_totales(val);
 4411              		.loc 1 864 0
 4412 182c 2046     		mov	r0, r4
 4413 182e FFF7FEFF 		bl	print_totales
 4414              	.LVL337:
 865:.\Protocolo.c **** 						for(z=1;z<=8;z++){
 4415              		.loc 1 865 0
 4416 1832 0122     		movs	r2, #1
ARM GAS  C:\Users\IN-002~1\AppData\Local\Temp\ccxO8rjh.s 			page 98


 4417 1834 674B     		ldr	r3, .L608+32
 4418 1836 1A60     		str	r2, [r3]
 4419 1838 10E0     		b	.L315
 4420              	.L316:
 866:.\Protocolo.c **** 							minuendo[z]=rventa.tdinero[z-1];
 4421              		.loc 1 866 0 discriminator 3
 4422 183a 674A     		ldr	r2, .L608+36
 4423 183c 1A44     		add	r2, r2, r3
 4424 183e 92F8CA10 		ldrb	r1, [r2, #202]	@ zero_extendqisi2
 4425 1842 10AA     		add	r2, sp, #64
 4426 1844 1A44     		add	r2, r2, r3
 4427 1846 02F82C1C 		strb	r1, [r2, #-44]
 867:.\Protocolo.c **** 							sustraendo[z]=buffer_i2c[z+8];
 4428              		.loc 1 867 0 discriminator 3
 4429 184a 03F10801 		add	r1, r3, #8
 4430 184e 6348     		ldr	r0, .L608+40
 4431 1850 415C     		ldrb	r1, [r0, r1]	@ zero_extendqisi2
 4432 1852 02F83C1C 		strb	r1, [r2, #-60]
 865:.\Protocolo.c **** 						for(z=1;z<=8;z++){
 4433              		.loc 1 865 0 discriminator 3
 4434 1856 0133     		adds	r3, r3, #1
 4435 1858 5E4A     		ldr	r2, .L608+32
 4436 185a 1360     		str	r3, [r2]
 4437              	.L315:
 865:.\Protocolo.c **** 						for(z=1;z<=8;z++){
 4438              		.loc 1 865 0 is_stmt 0 discriminator 1
 4439 185c 5D4B     		ldr	r3, .L608+32
 4440 185e 1B68     		ldr	r3, [r3]
 4441 1860 082B     		cmp	r3, #8
 4442 1862 EAD9     		bls	.L316
 868:.\Protocolo.c **** 						}
 869:.\Protocolo.c **** 						minuendo[0]=8;
 4443              		.loc 1 869 0 is_stmt 1
 4444 1864 10A9     		add	r1, sp, #64
 4445 1866 0823     		movs	r3, #8
 4446 1868 01F82C3D 		strb	r3, [r1, #-44]!
 870:.\Protocolo.c **** 						operacion(2,minuendo,sustraendo);
 4447              		.loc 1 870 0
 4448 186c 0220     		movs	r0, #2
 4449 186e 01AA     		add	r2, sp, #4
 4450 1870 FFF7FEFF 		bl	operacion
 4451              	.LVL338:
 871:.\Protocolo.c **** 						for(x=0;x<=17;x++){									
 4452              		.loc 1 871 0
 4453 1874 0022     		movs	r2, #0
 4454 1876 544B     		ldr	r3, .L608+20
 4455 1878 1A60     		str	r2, [r3]
 4456 187a 0AE0     		b	.L317
 4457              	.L318:
 872:.\Protocolo.c **** 							write_psoc1(val,msn_tventas[x]);				//Total de ventas
 4458              		.loc 1 872 0 discriminator 3
 4459 187c 534A     		ldr	r2, .L608+24
 4460 187e 1344     		add	r3, r3, r2
 4461 1880 2046     		mov	r0, r4
 4462 1882 93F82C10 		ldrb	r1, [r3, #44]	@ zero_extendqisi2
 4463 1886 FFF7FEFF 		bl	write_psoc1
 4464              	.LVL339:
ARM GAS  C:\Users\IN-002~1\AppData\Local\Temp\ccxO8rjh.s 			page 99


 871:.\Protocolo.c **** 						for(x=0;x<=17;x++){									
 4465              		.loc 1 871 0 discriminator 3
 4466 188a 4F4A     		ldr	r2, .L608+20
 4467 188c 1368     		ldr	r3, [r2]
 4468 188e 0133     		adds	r3, r3, #1
 4469 1890 1360     		str	r3, [r2]
 4470              	.L317:
 871:.\Protocolo.c **** 						for(x=0;x<=17;x++){									
 4471              		.loc 1 871 0 is_stmt 0 discriminator 1
 4472 1892 4D4B     		ldr	r3, .L608+20
 4473 1894 1B68     		ldr	r3, [r3]
 4474 1896 112B     		cmp	r3, #17
 4475 1898 F0D9     		bls	.L318
 873:.\Protocolo.c **** 						}
 874:.\Protocolo.c **** 						print_valor(resultado,val);							
 4476              		.loc 1 874 0 is_stmt 1
 4477 189a 4648     		ldr	r0, .L608
 4478 189c 2146     		mov	r1, r4
 4479 189e FFF7FEFF 		bl	print_valor
 4480              	.LVL340:
 875:.\Protocolo.c **** 						if(dir==lado.a.dir){
 4481              		.loc 1 875 0
 4482 18a2 474B     		ldr	r3, .L608+12
 4483 18a4 1B78     		ldrb	r3, [r3]	@ zero_extendqisi2
 4484 18a6 AB42     		cmp	r3, r5
 4485 18a8 0AD1     		bne	.L319
 876:.\Protocolo.c **** 						    write_eeprom(1096,corte);
 4486              		.loc 1 876 0
 4487 18aa 4FF48960 		mov	r0, #1096
 4488 18ae 09A9     		add	r1, sp, #36
 4489 18b0 FFF7FEFF 		bl	write_eeprom
 4490              	.LVL341:
 877:.\Protocolo.c **** 						    write_eeprom(1038,resultado);
 4491              		.loc 1 877 0
 4492 18b4 40F20E40 		movw	r0, #1038
 4493 18b8 3E49     		ldr	r1, .L608
 4494 18ba FFF7FEFF 		bl	write_eeprom
 4495              	.LVL342:
 4496 18be 09E0     		b	.L304
 4497              	.L319:
 878:.\Protocolo.c **** 					    }
 879:.\Protocolo.c **** 					    else{
 880:.\Protocolo.c **** 						    write_eeprom(1054,corte);
 4498              		.loc 1 880 0
 4499 18c0 40F21E40 		movw	r0, #1054
 4500 18c4 09A9     		add	r1, sp, #36
 4501 18c6 FFF7FEFF 		bl	write_eeprom
 4502              	.LVL343:
 881:.\Protocolo.c **** 						    write_eeprom(1081,resultado);
 4503              		.loc 1 881 0
 4504 18ca 40F23940 		movw	r0, #1081
 4505 18ce 3949     		ldr	r1, .L608
 4506 18d0 FFF7FEFF 		bl	write_eeprom
 4507              	.LVL344:
 4508              	.L304:
 692:.\Protocolo.c **** 					rventa.manguera=(Surtidor_rxBuffer[y+2]&0x0F)+1;
 4509              		.loc 1 692 0 discriminator 2
ARM GAS  C:\Users\IN-002~1\AppData\Local\Temp\ccxO8rjh.s 			page 100


 4510 18d4 424A     		ldr	r2, .L608+44
 4511 18d6 1368     		ldr	r3, [r2]
 4512 18d8 1E33     		adds	r3, r3, #30
 4513 18da 1360     		str	r3, [r2]
 4514              	.L239:
 692:.\Protocolo.c **** 					rventa.manguera=(Surtidor_rxBuffer[y+2]&0x0F)+1;
 4515              		.loc 1 692 0 is_stmt 0 discriminator 1
 4516 18dc 404B     		ldr	r3, .L608+44
 4517 18de 1E68     		ldr	r6, [r3]
 4518 18e0 3C2E     		cmp	r6, #60
 4519 18e2 7FF6F9AB 		bls	.L320
 882:.\Protocolo.c **** 						}					
 883:.\Protocolo.c **** 					}
 884:.\Protocolo.c ****                     
 885:.\Protocolo.c **** 				}
 886:.\Protocolo.c **** 				Surtidor_ClearRxBuffer();
 4520              		.loc 1 886 0 is_stmt 1
 4521 18e6 FFF7FEFF 		bl	Surtidor_ClearRxBuffer
 4522              	.LVL345:
 887:.\Protocolo.c **** 				return 3;					
 4523              		.loc 1 887 0
 4524 18ea 0320     		movs	r0, #3
 4525 18ec 01F0B0BC 		b	.L76
 4526              	.L72:
 888:.\Protocolo.c **** 			}			
 889:.\Protocolo.c **** 			else{
 890:.\Protocolo.c **** 				return 0;
 891:.\Protocolo.c **** 			}			
 892:.\Protocolo.c **** 		break;
 893:.\Protocolo.c **** 
 894:.\Protocolo.c **** 		case 46:
 895:.\Protocolo.c **** 			if((Surtidor_rxBuffer[0]==0xFF)&&(Surtidor_rxBuffer[1]==0xF6)&&(Surtidor_rxBuffer[45]==0xF0)&&(S
 4527              		.loc 1 895 0
 4528 18f0 3C4B     		ldr	r3, .L608+48
 4529 18f2 1B78     		ldrb	r3, [r3]	@ zero_extendqisi2
 4530 18f4 DBB2     		uxtb	r3, r3
 4531 18f6 FF2B     		cmp	r3, #255
 4532 18f8 41F09384 		bne	.L579
 4533              		.loc 1 895 0 is_stmt 0 discriminator 1
 4534 18fc 394B     		ldr	r3, .L608+48
 4535 18fe 5B78     		ldrb	r3, [r3, #1]	@ zero_extendqisi2
 4536 1900 DBB2     		uxtb	r3, r3
 4537 1902 F62B     		cmp	r3, #246
 4538 1904 41F08F84 		bne	.L580
 4539              		.loc 1 895 0 discriminator 2
 4540 1908 364B     		ldr	r3, .L608+48
 4541 190a 93F82D30 		ldrb	r3, [r3, #45]	@ zero_extendqisi2
 4542 190e DBB2     		uxtb	r3, r3
 4543 1910 F02B     		cmp	r3, #240
 4544 1912 41F08A84 		bne	.L581
 4545              		.loc 1 895 0 discriminator 3
 4546 1916 334B     		ldr	r3, .L608+48
 4547 1918 DB78     		ldrb	r3, [r3, #3]	@ zero_extendqisi2
 4548 191a DBB2     		uxtb	r3, r3
 4549 191c F92B     		cmp	r3, #249
 4550 191e 41F08684 		bne	.L582
 896:.\Protocolo.c **** 				rventa.manguera=(Surtidor_rxBuffer[2]&0x0F)+1;
ARM GAS  C:\Users\IN-002~1\AppData\Local\Temp\ccxO8rjh.s 			page 101


 4551              		.loc 1 896 0 is_stmt 1
 4552 1922 304B     		ldr	r3, .L608+48
 4553 1924 9978     		ldrb	r1, [r3, #2]	@ zero_extendqisi2
 4554 1926 01F00F01 		and	r1, r1, #15
 4555 192a 0131     		adds	r1, r1, #1
 4556 192c 224B     		ldr	r3, .L608+4
 4557 192e 83F8E010 		strb	r1, [r3, #224]
 897:.\Protocolo.c **** 				for(x=0;x<=11;x++){
 4558              		.loc 1 897 0
 4559 1932 0022     		movs	r2, #0
 4560 1934 244B     		ldr	r3, .L608+20
 4561 1936 1A60     		str	r2, [r3]
 4562 1938 0BE0     		b	.L321
 4563              	.L322:
 898:.\Protocolo.c **** 					rventa.tvolumen[x]=(Surtidor_rxBuffer[x+4]&0x0F);
 4564              		.loc 1 898 0 discriminator 3
 4565 193a 1A1D     		adds	r2, r3, #4
 4566 193c 2948     		ldr	r0, .L608+48
 4567 193e 805C     		ldrb	r0, [r0, r2]	@ zero_extendqisi2
 4568 1940 1D4A     		ldr	r2, .L608+4
 4569 1942 1A44     		add	r2, r2, r3
 4570 1944 00F00F00 		and	r0, r0, #15
 4571 1948 82F8BD00 		strb	r0, [r2, #189]
 897:.\Protocolo.c **** 				for(x=0;x<=11;x++){
 4572              		.loc 1 897 0 discriminator 3
 4573 194c 0133     		adds	r3, r3, #1
 4574 194e 1E4A     		ldr	r2, .L608+20
 4575 1950 1360     		str	r3, [r2]
 4576              	.L321:
 897:.\Protocolo.c **** 				for(x=0;x<=11;x++){
 4577              		.loc 1 897 0 is_stmt 0 discriminator 1
 4578 1952 1D4B     		ldr	r3, .L608+20
 4579 1954 1B68     		ldr	r3, [r3]
 4580 1956 0B2B     		cmp	r3, #11
 4581 1958 EFD9     		bls	.L322
 899:.\Protocolo.c **** 				}
 900:.\Protocolo.c **** 				for(x=0;x<=11;x++){
 4582              		.loc 1 900 0 is_stmt 1
 4583 195a 0022     		movs	r2, #0
 4584 195c 1A4B     		ldr	r3, .L608+20
 4585 195e 1A60     		str	r2, [r3]
 4586 1960 0CE0     		b	.L323
 4587              	.L324:
 901:.\Protocolo.c **** 					rventa.tdinero[x]=(Surtidor_rxBuffer[x+17]&0x0F);
 4588              		.loc 1 901 0 discriminator 3
 4589 1962 03F11102 		add	r2, r3, #17
 4590 1966 1F48     		ldr	r0, .L608+48
 4591 1968 805C     		ldrb	r0, [r0, r2]	@ zero_extendqisi2
 4592 196a 134A     		ldr	r2, .L608+4
 4593 196c 1A44     		add	r2, r2, r3
 4594 196e 00F00F00 		and	r0, r0, #15
 4595 1972 82F8CA00 		strb	r0, [r2, #202]
 900:.\Protocolo.c **** 					rventa.tdinero[x]=(Surtidor_rxBuffer[x+17]&0x0F);
 4596              		.loc 1 900 0 discriminator 3
 4597 1976 0133     		adds	r3, r3, #1
 4598 1978 134A     		ldr	r2, .L608+20
 4599 197a 1360     		str	r3, [r2]
ARM GAS  C:\Users\IN-002~1\AppData\Local\Temp\ccxO8rjh.s 			page 102


 4600              	.L323:
 900:.\Protocolo.c **** 					rventa.tdinero[x]=(Surtidor_rxBuffer[x+17]&0x0F);
 4601              		.loc 1 900 0 is_stmt 0 discriminator 1
 4602 197c 124B     		ldr	r3, .L608+20
 4603 197e 1B68     		ldr	r3, [r3]
 4604 1980 0B2B     		cmp	r3, #11
 4605 1982 EED9     		bls	.L324
 902:.\Protocolo.c **** 				}
 903:.\Protocolo.c **** 				for(z=0;z<=11;z++){
 4606              		.loc 1 903 0 is_stmt 1
 4607 1984 0022     		movs	r2, #0
 4608 1986 134B     		ldr	r3, .L608+32
 4609 1988 1A60     		str	r2, [r3]
 4610 198a 0AE0     		b	.L325
 4611              	.L326:
 904:.\Protocolo.c **** 					corte[z+1]=rventa.tvolumen[z];
 4612              		.loc 1 904 0 discriminator 3
 4613 198c 5A1C     		adds	r2, r3, #1
 4614 198e 0A48     		ldr	r0, .L608+4
 4615 1990 0344     		add	r3, r3, r0
 4616 1992 93F8BD00 		ldrb	r0, [r3, #189]	@ zero_extendqisi2
 4617 1996 10AB     		add	r3, sp, #64
 4618 1998 1344     		add	r3, r3, r2
 4619 199a 03F81C0C 		strb	r0, [r3, #-28]
 903:.\Protocolo.c **** 					corte[z+1]=rventa.tvolumen[z];
 4620              		.loc 1 903 0 discriminator 3
 4621 199e 0D4B     		ldr	r3, .L608+32
 4622 19a0 1A60     		str	r2, [r3]
 4623              	.L325:
 903:.\Protocolo.c **** 					corte[z+1]=rventa.tvolumen[z];
 4624              		.loc 1 903 0 is_stmt 0 discriminator 1
 4625 19a2 0C4B     		ldr	r3, .L608+32
 4626 19a4 1B68     		ldr	r3, [r3]
 4627 19a6 0B2B     		cmp	r3, #11
 4628 19a8 F0D9     		bls	.L326
 905:.\Protocolo.c **** 				}
 906:.\Protocolo.c **** 				for(z=13;z<=24;z++){
 4629              		.loc 1 906 0 is_stmt 1
 4630 19aa 0D22     		movs	r2, #13
 4631 19ac 094B     		ldr	r3, .L608+32
 4632 19ae 1A60     		str	r2, [r3]
 4633 19b0 25E0     		b	.L327
 4634              	.L609:
 4635 19b2 00BF     		.align	2
 4636              	.L608:
 4637 19b4 00000000 		.word	resultado
 4638 19b8 00000000 		.word	rventa
 4639 19bc 00000000 		.word	kero
 4640 19c0 00000000 		.word	lado
 4641 19c4 00000000 		.word	kero2
 4642 19c8 00000000 		.word	x
 4643 19cc 00000000 		.word	.LANCHOR1
 4644 19d0 00000000 		.word	producto4n
 4645 19d4 00000000 		.word	z
 4646 19d8 FFFFFFFF 		.word	rventa-1
 4647 19dc 00000000 		.word	buffer_i2c
 4648 19e0 00000000 		.word	y
ARM GAS  C:\Users\IN-002~1\AppData\Local\Temp\ccxO8rjh.s 			page 103


 4649 19e4 00000000 		.word	Surtidor_rxBuffer
 4650              	.L328:
 907:.\Protocolo.c **** 					corte[z]=rventa.tdinero[z-13];
 4651              		.loc 1 907 0 discriminator 3
 4652 19e8 AF4A     		ldr	r2, .L610
 4653 19ea 1A44     		add	r2, r2, r3
 4654 19ec 92F8CA00 		ldrb	r0, [r2, #202]	@ zero_extendqisi2
 4655 19f0 10AA     		add	r2, sp, #64
 4656 19f2 1A44     		add	r2, r2, r3
 4657 19f4 02F81C0C 		strb	r0, [r2, #-28]
 906:.\Protocolo.c **** 					corte[z]=rventa.tdinero[z-13];
 4658              		.loc 1 906 0 discriminator 3
 4659 19f8 0133     		adds	r3, r3, #1
 4660 19fa AC4A     		ldr	r2, .L610+4
 4661 19fc 1360     		str	r3, [r2]
 4662              	.L327:
 906:.\Protocolo.c **** 					corte[z]=rventa.tdinero[z-13];
 4663              		.loc 1 906 0 is_stmt 0 discriminator 1
 4664 19fe AB4B     		ldr	r3, .L610+4
 4665 1a00 1B68     		ldr	r3, [r3]
 4666 1a02 182B     		cmp	r3, #24
 4667 1a04 F0D9     		bls	.L328
 908:.\Protocolo.c **** 				}
 909:.\Protocolo.c **** 				corte[0]=24;				
 4668              		.loc 1 909 0 is_stmt 1
 4669 1a06 1823     		movs	r3, #24
 4670 1a08 8DF82430 		strb	r3, [sp, #36]
 910:.\Protocolo.c **** 				if(((rventa.manguera==(corriente&0x0F))&&(dir==lado.a.dir))||((rventa.manguera==(corriente2&0x0
 4671              		.loc 1 910 0
 4672 1a0c A84B     		ldr	r3, .L610+8
 4673 1a0e 1B78     		ldrb	r3, [r3]	@ zero_extendqisi2
 4674 1a10 03F00F03 		and	r3, r3, #15
 4675 1a14 8B42     		cmp	r3, r1
 4676 1a16 03D1     		bne	.L329
 4677              		.loc 1 910 0 is_stmt 0 discriminator 1
 4678 1a18 A64B     		ldr	r3, .L610+12
 4679 1a1a 1B78     		ldrb	r3, [r3]	@ zero_extendqisi2
 4680 1a1c AB42     		cmp	r3, r5
 4681 1a1e 0BD0     		beq	.L330
 4682              	.L329:
 4683              		.loc 1 910 0 discriminator 3
 4684 1a20 A54B     		ldr	r3, .L610+16
 4685 1a22 1B78     		ldrb	r3, [r3]	@ zero_extendqisi2
 4686 1a24 03F00F03 		and	r3, r3, #15
 4687 1a28 9942     		cmp	r1, r3
 4688 1a2a 40F0C080 		bne	.L331
 4689              		.loc 1 910 0 discriminator 4
 4690 1a2e A14B     		ldr	r3, .L610+12
 4691 1a30 1B79     		ldrb	r3, [r3, #4]	@ zero_extendqisi2
 4692 1a32 AB42     		cmp	r3, r5
 4693 1a34 40F0BB80 		bne	.L331
 4694              	.L330:
 911:.\Protocolo.c **** 					for(x=0;x<=5;x++){									
 4695              		.loc 1 911 0 is_stmt 1
 4696 1a38 0022     		movs	r2, #0
 4697 1a3a A04B     		ldr	r3, .L610+20
 4698 1a3c 1A60     		str	r2, [r3]
ARM GAS  C:\Users\IN-002~1\AppData\Local\Temp\ccxO8rjh.s 			page 104


 4699 1a3e 08E0     		b	.L332
 4700              	.L333:
 912:.\Protocolo.c **** 						write_psoc1(val,msn_tc[x]);
 4701              		.loc 1 912 0 discriminator 3
 4702 1a40 2046     		mov	r0, r4
 4703 1a42 9F4A     		ldr	r2, .L610+24
 4704 1a44 D15C     		ldrb	r1, [r2, r3]	@ zero_extendqisi2
 4705 1a46 FFF7FEFF 		bl	write_psoc1
 4706              	.LVL346:
 911:.\Protocolo.c **** 					for(x=0;x<=5;x++){									
 4707              		.loc 1 911 0 discriminator 3
 4708 1a4a 9C4A     		ldr	r2, .L610+20
 4709 1a4c 1368     		ldr	r3, [r2]
 4710 1a4e 0133     		adds	r3, r3, #1
 4711 1a50 1360     		str	r3, [r2]
 4712              	.L332:
 911:.\Protocolo.c **** 					for(x=0;x<=5;x++){									
 4713              		.loc 1 911 0 is_stmt 0 discriminator 1
 4714 1a52 9A4B     		ldr	r3, .L610+20
 4715 1a54 1B68     		ldr	r3, [r3]
 4716 1a56 052B     		cmp	r3, #5
 4717 1a58 F2D9     		bls	.L333
 913:.\Protocolo.c **** 					}
 914:.\Protocolo.c **** 					write_psoc1(val,10);
 4718              		.loc 1 914 0 is_stmt 1
 4719 1a5a 2046     		mov	r0, r4
 4720 1a5c 0A21     		movs	r1, #10
 4721 1a5e FFF7FEFF 		bl	write_psoc1
 4722              	.LVL347:
 915:.\Protocolo.c ****                     for(x=0;x<=10;x++){									
 4723              		.loc 1 915 0
 4724 1a62 0022     		movs	r2, #0
 4725 1a64 954B     		ldr	r3, .L610+20
 4726 1a66 1A60     		str	r2, [r3]
 4727 1a68 08E0     		b	.L334
 4728              	.L335:
 916:.\Protocolo.c **** 						write_psoc1(val,producto1n[x]);
 4729              		.loc 1 916 0 discriminator 3
 4730 1a6a 2046     		mov	r0, r4
 4731 1a6c 954A     		ldr	r2, .L610+28
 4732 1a6e D15C     		ldrb	r1, [r2, r3]	@ zero_extendqisi2
 4733 1a70 FFF7FEFF 		bl	write_psoc1
 4734              	.LVL348:
 915:.\Protocolo.c ****                     for(x=0;x<=10;x++){									
 4735              		.loc 1 915 0 discriminator 3
 4736 1a74 914A     		ldr	r2, .L610+20
 4737 1a76 1368     		ldr	r3, [r2]
 4738 1a78 0133     		adds	r3, r3, #1
 4739 1a7a 1360     		str	r3, [r2]
 4740              	.L334:
 915:.\Protocolo.c ****                     for(x=0;x<=10;x++){									
 4741              		.loc 1 915 0 is_stmt 0 discriminator 1
 4742 1a7c 8F4B     		ldr	r3, .L610+20
 4743 1a7e 1B68     		ldr	r3, [r3]
 4744 1a80 0A2B     		cmp	r3, #10
 4745 1a82 F2D9     		bls	.L335
 917:.\Protocolo.c **** 					}
ARM GAS  C:\Users\IN-002~1\AppData\Local\Temp\ccxO8rjh.s 			page 105


 918:.\Protocolo.c ****                     write_psoc1(val,10);
 4746              		.loc 1 918 0 is_stmt 1
 4747 1a84 2046     		mov	r0, r4
 4748 1a86 0A21     		movs	r1, #10
 4749 1a88 FFF7FEFF 		bl	write_psoc1
 4750              	.LVL349:
 919:.\Protocolo.c **** 					for(x=0;x<=14;x++){									
 4751              		.loc 1 919 0
 4752 1a8c 0022     		movs	r2, #0
 4753 1a8e 8B4B     		ldr	r3, .L610+20
 4754 1a90 1A60     		str	r2, [r3]
 4755 1a92 09E0     		b	.L336
 4756              	.L337:
 920:.\Protocolo.c **** 						write_psoc1(val,msn_lecact[x]);				//LECTURA ACTUAL
 4757              		.loc 1 920 0 discriminator 3
 4758 1a94 8A4A     		ldr	r2, .L610+24
 4759 1a96 1344     		add	r3, r3, r2
 4760 1a98 2046     		mov	r0, r4
 4761 1a9a 197A     		ldrb	r1, [r3, #8]	@ zero_extendqisi2
 4762 1a9c FFF7FEFF 		bl	write_psoc1
 4763              	.LVL350:
 919:.\Protocolo.c **** 					for(x=0;x<=14;x++){									
 4764              		.loc 1 919 0 discriminator 3
 4765 1aa0 864A     		ldr	r2, .L610+20
 4766 1aa2 1368     		ldr	r3, [r2]
 4767 1aa4 0133     		adds	r3, r3, #1
 4768 1aa6 1360     		str	r3, [r2]
 4769              	.L336:
 919:.\Protocolo.c **** 					for(x=0;x<=14;x++){									
 4770              		.loc 1 919 0 is_stmt 0 discriminator 1
 4771 1aa8 844B     		ldr	r3, .L610+20
 4772 1aaa 1B68     		ldr	r3, [r3]
 4773 1aac 0E2B     		cmp	r3, #14
 4774 1aae F1D9     		bls	.L337
 921:.\Protocolo.c **** 					}
 922:.\Protocolo.c **** 					write_psoc1(val,10);
 4775              		.loc 1 922 0 is_stmt 1
 4776 1ab0 2046     		mov	r0, r4
 4777 1ab2 0A21     		movs	r1, #10
 4778 1ab4 FFF7FEFF 		bl	write_psoc1
 4779              	.LVL351:
 923:.\Protocolo.c **** 					print_totalesac(12,val);	
 4780              		.loc 1 923 0
 4781 1ab8 0C20     		movs	r0, #12
 4782 1aba 2146     		mov	r1, r4
 4783 1abc FFF7FEFF 		bl	print_totalesac
 4784              	.LVL352:
 924:.\Protocolo.c **** 					for(x=0;x<=16;x++){												
 4785              		.loc 1 924 0
 4786 1ac0 0022     		movs	r2, #0
 4787 1ac2 7E4B     		ldr	r3, .L610+20
 4788 1ac4 1A60     		str	r2, [r3]
 4789 1ac6 09E0     		b	.L338
 4790              	.L339:
 925:.\Protocolo.c **** 						write_psoc1(val,msn_lecaan[x]);				//LECTURA ANTERIOR
 4791              		.loc 1 925 0 discriminator 3
 4792 1ac8 7D4A     		ldr	r2, .L610+24
ARM GAS  C:\Users\IN-002~1\AppData\Local\Temp\ccxO8rjh.s 			page 106


 4793 1aca 1344     		add	r3, r3, r2
 4794 1acc 2046     		mov	r0, r4
 4795 1ace 197E     		ldrb	r1, [r3, #24]	@ zero_extendqisi2
 4796 1ad0 FFF7FEFF 		bl	write_psoc1
 4797              	.LVL353:
 924:.\Protocolo.c **** 					for(x=0;x<=16;x++){												
 4798              		.loc 1 924 0 discriminator 3
 4799 1ad4 794A     		ldr	r2, .L610+20
 4800 1ad6 1368     		ldr	r3, [r2]
 4801 1ad8 0133     		adds	r3, r3, #1
 4802 1ada 1360     		str	r3, [r2]
 4803              	.L338:
 924:.\Protocolo.c **** 					for(x=0;x<=16;x++){												
 4804              		.loc 1 924 0 is_stmt 0 discriminator 1
 4805 1adc 774B     		ldr	r3, .L610+20
 4806 1ade 1B68     		ldr	r3, [r3]
 4807 1ae0 102B     		cmp	r3, #16
 4808 1ae2 F1D9     		bls	.L339
 926:.\Protocolo.c **** 					}
 927:.\Protocolo.c **** 					write_psoc1(val,10);
 4809              		.loc 1 927 0 is_stmt 1
 4810 1ae4 2046     		mov	r0, r4
 4811 1ae6 0A21     		movs	r1, #10
 4812 1ae8 FFF7FEFF 		bl	write_psoc1
 4813              	.LVL354:
 928:.\Protocolo.c **** 					if(dir==lado.a.dir){
 4814              		.loc 1 928 0
 4815 1aec 714B     		ldr	r3, .L610+12
 4816 1aee 1B78     		ldrb	r3, [r3]	@ zero_extendqisi2
 4817 1af0 AB42     		cmp	r3, r5
 4818 1af2 04D1     		bne	.L340
 929:.\Protocolo.c **** 						leer_eeprom(192,25);
 4819              		.loc 1 929 0
