ARM GAS  C:\Users\IN-002~1\AppData\Local\Temp\ccxO8rjh.s 			page 1


   1              		.syntax unified
   2              		.cpu cortex-m3
   3              		.fpu softvfp
   4              		.eabi_attribute 20, 1
   5              		.eabi_attribute 21, 1
   6              		.eabi_attribute 23, 3
   7              		.eabi_attribute 24, 1
   8              		.eabi_attribute 25, 1
   9              		.eabi_attribute 26, 1
  10              		.eabi_attribute 30, 1
  11              		.eabi_attribute 34, 1
  12              		.eabi_attribute 18, 4
  13              		.thumb
  14              		.file	"Protocolo.c"
  15              		.text
  16              	.Ltext0:
  17              		.cfi_sections	.debug_frame
  18              		.section	.text.ver_pos,"ax",%progbits
  19              		.align	2
  20              		.global	ver_pos
  21              		.thumb
  22              		.thumb_func
  23              		.type	ver_pos, %function
  24              	ver_pos:
  25              	.LFB63:
  26              		.file 1 ".\\Protocolo.c"
   1:.\Protocolo.c **** /**
   2:.\Protocolo.c **** * @file Protocolo.c
   3:.\Protocolo.c **** * @Author Insepet LTDA
   4:.\Protocolo.c **** * @date 28/2/2016
   5:.\Protocolo.c **** * @brief Archivo para el manejo de la impresora
   6:.\Protocolo.c **** */
   7:.\Protocolo.c **** 
   8:.\Protocolo.c **** 
   9:.\Protocolo.c **** /*
  10:.\Protocolo.c **** ***************************************************************************************************
  11:.\Protocolo.c **** *                                             INCLUDE FILES
  12:.\Protocolo.c **** ***************************************************************************************************
  13:.\Protocolo.c **** */
  14:.\Protocolo.c **** #include <device.h>
  15:.\Protocolo.c **** #include "VariablesG.h"
  16:.\Protocolo.c **** #include "i2c.h"
  17:.\Protocolo.c **** #include "Print.h"
  18:.\Protocolo.c **** #include <string.h>
  19:.\Protocolo.c **** 
  20:.\Protocolo.c **** /*
  21:.\Protocolo.c **** ***************************************************************************************************
  22:.\Protocolo.c **** *                                            	MENSAJES
  23:.\Protocolo.c **** ***************************************************************************************************
  24:.\Protocolo.c **** */
  25:.\Protocolo.c **** 
  26:.\Protocolo.c **** uint8 msn_tc[6]="TOTAL";
  27:.\Protocolo.c **** uint8 msn_te[13]="DIESEL TOTAL";
  28:.\Protocolo.c **** uint8 msn_td[14]="SANS P TOTAL";
  29:.\Protocolo.c **** uint8 msn_tk[10]="KERO TOTAL";
  30:.\Protocolo.c **** uint8 msn_lecact[15]="Valor actual: ";
  31:.\Protocolo.c **** uint8 msn_lecaan[17]="Valor anterior:  ";
ARM GAS  C:\Users\IN-002~1\AppData\Local\Temp\ccxO8rjh.s 			page 2


  32:.\Protocolo.c **** uint8 msn_tventas[18]="Dinero total: $   ";
  33:.\Protocolo.c **** uint8 msn_totalcero[15]="NO TOMO TOTALES";
  34:.\Protocolo.c **** 
  35:.\Protocolo.c **** /**
  36:.\Protocolo.c **** * ver_pos
  37:.\Protocolo.c **** * @brief detecta las posiciones del equipo
  38:.\Protocolo.c **** * @return 1 si detecta las dos posiciones 0 si no
  39:.\Protocolo.c **** *
  40:.\Protocolo.c **** */
  41:.\Protocolo.c **** uint8 ver_pos (void){
  27              		.loc 1 41 0
  28              		.cfi_startproc
  29              		@ args = 0, pretend = 0, frame = 0
  30              		@ frame_needed = 0, uses_anonymous_args = 0
  31 0000 10B5     		push	{r4, lr}
  32              		.cfi_def_cfa_offset 8
  33              		.cfi_offset 4, -8
  34              		.cfi_offset 14, -4
  42:.\Protocolo.c **** uint8 x;
  43:.\Protocolo.c **** lado.a.dir=0xff;
  35              		.loc 1 43 0
  36 0002 1E4B     		ldr	r3, .L12
  37 0004 FF22     		movs	r2, #255
  38 0006 1A70     		strb	r2, [r3]
  44:.\Protocolo.c **** lado.b.dir=0xff;
  39              		.loc 1 44 0
  40 0008 1A71     		strb	r2, [r3, #4]
  41              	.LVL0:
  45:.\Protocolo.c ****     for(x=0;x<=15;x++){
  42              		.loc 1 45 0
  43 000a 0024     		movs	r4, #0
  44 000c 1DE0     		b	.L2
  45              	.LVL1:
  46              	.L5:
  46:.\Protocolo.c ****         Surtidor_PutChar(x);
  47              		.loc 1 46 0
  48 000e 2046     		mov	r0, r4
  49 0010 FFF7FEFF 		bl	Surtidor_PutChar
  50              	.LVL2:
  47:.\Protocolo.c ****         CyDelay(100);
  51              		.loc 1 47 0
  52 0014 6420     		movs	r0, #100
  53 0016 FFF7FEFF 		bl	CyDelay
  54              	.LVL3:
  48:.\Protocolo.c ****         if((Surtidor_GetRxBufferSize()>=1)&&(lado.a.dir==0xff)){
  55              		.loc 1 48 0
  56 001a FFF7FEFF 		bl	Surtidor_GetRxBufferSize
  57              	.LVL4:
  58 001e 38B1     		cbz	r0, .L3
  59              		.loc 1 48 0 is_stmt 0 discriminator 1
  60 0020 164B     		ldr	r3, .L12
  61 0022 1B78     		ldrb	r3, [r3]	@ zero_extendqisi2
  62 0024 FF2B     		cmp	r3, #255
  63 0026 03D1     		bne	.L3
  49:.\Protocolo.c ****            lado.a.dir=x;	
  64              		.loc 1 49 0 is_stmt 1
  65 0028 144B     		ldr	r3, .L12
ARM GAS  C:\Users\IN-002~1\AppData\Local\Temp\ccxO8rjh.s 			page 3


  66 002a 1C70     		strb	r4, [r3]
  50:.\Protocolo.c ****            Surtidor_ClearRxBuffer();
  67              		.loc 1 50 0
  68 002c FFF7FEFF 		bl	Surtidor_ClearRxBuffer
  69              	.LVL5:
  70              	.L3:
  51:.\Protocolo.c ****         }
  52:.\Protocolo.c ****         if((Surtidor_GetRxBufferSize()>=1)&&(x!=lado.a.dir)){
  71              		.loc 1 52 0
  72 0030 FFF7FEFF 		bl	Surtidor_GetRxBufferSize
  73              	.LVL6:
  74 0034 38B1     		cbz	r0, .L4
  75              		.loc 1 52 0 is_stmt 0 discriminator 1
  76 0036 114B     		ldr	r3, .L12
  77 0038 1B78     		ldrb	r3, [r3]	@ zero_extendqisi2
  78 003a A342     		cmp	r3, r4
  79 003c 03D0     		beq	.L4
  53:.\Protocolo.c ****            lado.b.dir=x;
  80              		.loc 1 53 0 is_stmt 1
  81 003e 0F4B     		ldr	r3, .L12
  82 0040 1C71     		strb	r4, [r3, #4]
  54:.\Protocolo.c ****            Surtidor_ClearRxBuffer();
  83              		.loc 1 54 0
  84 0042 FFF7FEFF 		bl	Surtidor_ClearRxBuffer
  85              	.LVL7:
  86              	.L4:
  45:.\Protocolo.c ****         Surtidor_PutChar(x);
  87              		.loc 1 45 0 discriminator 2
  88 0046 0134     		adds	r4, r4, #1
  89              	.LVL8:
  90 0048 E4B2     		uxtb	r4, r4
  91              	.LVL9:
  92              	.L2:
  45:.\Protocolo.c ****         Surtidor_PutChar(x);
  93              		.loc 1 45 0 is_stmt 0 discriminator 1
  94 004a 0F2C     		cmp	r4, #15
  95 004c DFD9     		bls	.L5
  55:.\Protocolo.c ****         }
  56:.\Protocolo.c ****     }
  57:.\Protocolo.c ****     if((lado.a.dir!=0xff)&&(lado.b.dir!=0xff)){
  96              		.loc 1 57 0 is_stmt 1
  97 004e 0B4B     		ldr	r3, .L12
  98 0050 1B78     		ldrb	r3, [r3]	@ zero_extendqisi2
  99 0052 FF2B     		cmp	r3, #255
 100 0054 03D0     		beq	.L6
 101              		.loc 1 57 0 is_stmt 0 discriminator 1
 102 0056 094A     		ldr	r2, .L12
 103 0058 1279     		ldrb	r2, [r2, #4]	@ zero_extendqisi2
 104 005a FF2A     		cmp	r2, #255
 105 005c 07D1     		bne	.L8
 106              	.L6:
  58:.\Protocolo.c ****         return 2;
  59:.\Protocolo.c ****     }
  60:.\Protocolo.c ****     else{
  61:.\Protocolo.c ****         if((lado.a.dir!=0xff)||(lado.b.dir!=0xff)){
 107              		.loc 1 61 0 is_stmt 1
 108 005e FF2B     		cmp	r3, #255
ARM GAS  C:\Users\IN-002~1\AppData\Local\Temp\ccxO8rjh.s 			page 4


 109 0060 07D1     		bne	.L9
 110              		.loc 1 61 0 is_stmt 0 discriminator 1
 111 0062 064B     		ldr	r3, .L12
 112 0064 1B79     		ldrb	r3, [r3, #4]	@ zero_extendqisi2
 113 0066 FF2B     		cmp	r3, #255
 114 0068 05D0     		beq	.L10
  62:.\Protocolo.c ****             return 1;
 115              		.loc 1 62 0 is_stmt 1
 116 006a 0120     		movs	r0, #1
 117 006c 10BD     		pop	{r4, pc}
 118              	.LVL10:
 119              	.L8:
  58:.\Protocolo.c ****         return 2;
 120              		.loc 1 58 0
 121 006e 0220     		movs	r0, #2
 122 0070 10BD     		pop	{r4, pc}
 123              	.LVL11:
 124              	.L9:
 125              		.loc 1 62 0
 126 0072 0120     		movs	r0, #1
 127 0074 10BD     		pop	{r4, pc}
 128              	.LVL12:
 129              	.L10:
  63:.\Protocolo.c ****         }
  64:.\Protocolo.c ****         else{
  65:.\Protocolo.c ****             return 0;
 130              		.loc 1 65 0
 131 0076 0020     		movs	r0, #0
  66:.\Protocolo.c ****         }
  67:.\Protocolo.c ****     }
  68:.\Protocolo.c **** }
 132              		.loc 1 68 0
 133 0078 10BD     		pop	{r4, pc}
 134              	.LVL13:
 135              	.L13:
 136 007a 00BF     		.align	2
 137              	.L12:
 138 007c 00000000 		.word	lado
 139              		.cfi_endproc
 140              	.LFE63:
 141              		.size	ver_pos, .-ver_pos
 142              		.section	.text.get_estado,"ax",%progbits
 143              		.align	2
 144              		.global	get_estado
 145              		.thumb
 146              		.thumb_func
 147              		.type	get_estado, %function
 148              	get_estado:
 149              	.LFB64:
  69:.\Protocolo.c **** 
  70:.\Protocolo.c **** 
  71:.\Protocolo.c **** /**
  72:.\Protocolo.c **** * get_estado
  73:.\Protocolo.c **** * @brief obtiene el estado de la posicion a la que se pregunte
  74:.\Protocolo.c **** * @param dir direccion de la posicion
  75:.\Protocolo.c **** * @return estado si hay respuesta del dispensador 0 si no
  76:.\Protocolo.c **** *
ARM GAS  C:\Users\IN-002~1\AppData\Local\Temp\ccxO8rjh.s 			page 5


  77:.\Protocolo.c **** */
  78:.\Protocolo.c **** uint8 get_estado(uint8 dir){
 150              		.loc 1 78 0
 151              		.cfi_startproc
 152              		@ args = 0, pretend = 0, frame = 0
 153              		@ frame_needed = 0, uses_anonymous_args = 0
 154              	.LVL14:
 155 0000 10B5     		push	{r4, lr}
 156              		.cfi_def_cfa_offset 8
 157              		.cfi_offset 4, -8
 158              		.cfi_offset 14, -4
  79:.\Protocolo.c ****     uint8 estado;
  80:.\Protocolo.c ****     Surtidor_PutChar(dir);
 159              		.loc 1 80 0
 160 0002 FFF7FEFF 		bl	Surtidor_PutChar
 161              	.LVL15:
  81:.\Protocolo.c ****     CyDelay(50);
 162              		.loc 1 81 0
 163 0006 3220     		movs	r0, #50
 164 0008 FFF7FEFF 		bl	CyDelay
 165              	.LVL16:
  82:.\Protocolo.c ****     if(Surtidor_GetRxBufferSize()>=1){
 166              		.loc 1 82 0
 167 000c FFF7FEFF 		bl	Surtidor_GetRxBufferSize
 168              	.LVL17:
 169 0010 38B1     		cbz	r0, .L16
  83:.\Protocolo.c ****        estado=(Surtidor_ReadRxData()&0xF0)>>4;
 170              		.loc 1 83 0
 171 0012 FFF7FEFF 		bl	Surtidor_ReadRxData
 172              	.LVL18:
 173 0016 C0F30714 		ubfx	r4, r0, #4, #8
 174              	.LVL19:
  84:.\Protocolo.c ****        Surtidor_ClearRxBuffer();
 175              		.loc 1 84 0
 176 001a FFF7FEFF 		bl	Surtidor_ClearRxBuffer
 177              	.LVL20:
  85:.\Protocolo.c ****        return estado;
 178              		.loc 1 85 0
 179 001e 2046     		mov	r0, r4
 180 0020 10BD     		pop	{r4, pc}
 181              	.LVL21:
 182              	.L16:
  86:.\Protocolo.c ****     }
  87:.\Protocolo.c ****     else{
  88:.\Protocolo.c ****         return 0;
 183              		.loc 1 88 0
 184 0022 0020     		movs	r0, #0
  89:.\Protocolo.c ****     }
  90:.\Protocolo.c **** }
 185              		.loc 1 90 0
 186 0024 10BD     		pop	{r4, pc}
 187              		.cfi_endproc
 188              	.LFE64:
 189              		.size	get_estado, .-get_estado
 190 0026 00BF     		.section	.text.estado_ex,"ax",%progbits
 191              		.align	2
 192              		.global	estado_ex
ARM GAS  C:\Users\IN-002~1\AppData\Local\Temp\ccxO8rjh.s 			page 6


 193              		.thumb
 194              		.thumb_func
 195              		.type	estado_ex, %function
 196              	estado_ex:
 197              	.LFB65:
  91:.\Protocolo.c **** 
  92:.\Protocolo.c **** /**
  93:.\Protocolo.c **** * ver_error
  94:.\Protocolo.c **** * @brief función no implementada
  95:.\Protocolo.c **** *
  96:.\Protocolo.c **** */
  97:.\Protocolo.c **** uint8 estado_ex(uint8 val){
 198              		.loc 1 97 0
 199              		.cfi_startproc
 200              		@ args = 0, pretend = 0, frame = 32
 201              		@ frame_needed = 0, uses_anonymous_args = 0
 202              	.LVL22:
 203 0000 10B5     		push	{r4, lr}
 204              		.cfi_def_cfa_offset 8
 205              		.cfi_offset 4, -8
 206              		.cfi_offset 14, -4
 207 0002 88B0     		sub	sp, sp, #32
 208              		.cfi_def_cfa_offset 40
 209 0004 0446     		mov	r4, r0
  98:.\Protocolo.c ****     uint8 rx_extend[19],x,comand_exten[9]={0xFF,0xE9,0xFE,0xE0,0xE1,0xE0,0xFB,0xEE,0xF0};
 210              		.loc 1 98 0
 211 0006 364A     		ldr	r2, .L37
 212 0008 6B46     		mov	r3, sp
 213 000a 1068     		ldr	r0, [r2]	@ unaligned
 214              	.LVL23:
 215 000c 5168     		ldr	r1, [r2, #4]	@ unaligned
 216 000e 03C3     		stmia	r3!, {r0, r1}
 217 0010 127A     		ldrb	r2, [r2, #8]	@ zero_extendqisi2
 218 0012 1A70     		strb	r2, [r3]
  99:.\Protocolo.c ****     Surtidor_PutChar(0x20|val);
 219              		.loc 1 99 0
 220 0014 44F02000 		orr	r0, r4, #32
 221 0018 FFF7FEFF 		bl	Surtidor_PutChar
 222              	.LVL24:
 100:.\Protocolo.c ****     producto=0xff;
 223              		.loc 1 100 0
 224 001c FF22     		movs	r2, #255
 225 001e 314B     		ldr	r3, .L37+4
 226 0020 1A70     		strb	r2, [r3]
 101:.\Protocolo.c ****     CyDelay(100);
 227              		.loc 1 101 0
 228 0022 6420     		movs	r0, #100
 229 0024 FFF7FEFF 		bl	CyDelay
 230              	.LVL25:
 102:.\Protocolo.c ****     if(Surtidor_GetRxBufferSize()>=1){
 231              		.loc 1 102 0
 232 0028 FFF7FEFF 		bl	Surtidor_GetRxBufferSize
 233              	.LVL26:
 234 002c 0028     		cmp	r0, #0
 235 002e 48D0     		beq	.L27
 103:.\Protocolo.c ****         if(Surtidor_ReadRxData()==(0xD0|val)){
 236              		.loc 1 103 0
ARM GAS  C:\Users\IN-002~1\AppData\Local\Temp\ccxO8rjh.s 			page 7


 237 0030 FFF7FEFF 		bl	Surtidor_ReadRxData
 238              	.LVL27:
 239 0034 44F0D004 		orr	r4, r4, #208
 240 0038 A042     		cmp	r0, r4
 241 003a 44D1     		bne	.L28
 104:.\Protocolo.c ****             Surtidor_ClearRxBuffer();
 242              		.loc 1 104 0
 243 003c FFF7FEFF 		bl	Surtidor_ClearRxBuffer
 244              	.LVL28:
 105:.\Protocolo.c ****             for(x=0;x<=8;x++){
 245              		.loc 1 105 0
 246 0040 0024     		movs	r4, #0
 247 0042 07E0     		b	.L20
 248              	.LVL29:
 249              	.L21:
 106:.\Protocolo.c ****                Surtidor_PutChar(comand_exten[x]); 
 250              		.loc 1 106 0 discriminator 3
 251 0044 08AB     		add	r3, sp, #32
 252 0046 2344     		add	r3, r3, r4
 253 0048 13F8200C 		ldrb	r0, [r3, #-32]	@ zero_extendqisi2
 254 004c FFF7FEFF 		bl	Surtidor_PutChar
 255              	.LVL30:
 105:.\Protocolo.c ****             for(x=0;x<=8;x++){
 256              		.loc 1 105 0 discriminator 3
 257 0050 0134     		adds	r4, r4, #1
 258              	.LVL31:
 259 0052 E4B2     		uxtb	r4, r4
 260              	.LVL32:
 261              	.L20:
 105:.\Protocolo.c ****             for(x=0;x<=8;x++){
 262              		.loc 1 105 0 is_stmt 0 discriminator 1
 263 0054 082C     		cmp	r4, #8
 264 0056 F5D9     		bls	.L21
 107:.\Protocolo.c ****             }
 108:.\Protocolo.c ****             CyDelay(200);
 265              		.loc 1 108 0 is_stmt 1
 266 0058 C820     		movs	r0, #200
 267 005a FFF7FEFF 		bl	CyDelay
 268              	.LVL33:
 109:.\Protocolo.c ****             if(Surtidor_GetRxBufferSize()>=19){
 269              		.loc 1 109 0
 270 005e FFF7FEFF 		bl	Surtidor_GetRxBufferSize
 271              	.LVL34:
 272 0062 1228     		cmp	r0, #18
 273 0064 0AD8     		bhi	.L29
 110:.\Protocolo.c ****                 for(x=0;x<=18;x++){
 111:.\Protocolo.c ****                    rx_extend[x]=Surtidor_ReadRxData(); 
 112:.\Protocolo.c ****                 }
 113:.\Protocolo.c ****                 Surtidor_ClearRxBuffer();
 114:.\Protocolo.c ****                 if((rx_extend[0]==0xBA)&&(rx_extend[17]==0x8D)&&(rx_extend[18]==0x8A)&&(rx_extend[1
 115:.\Protocolo.c ****                     switch(rx_extend[14]){
 116:.\Protocolo.c ****                         case 0xB1:
 117:.\Protocolo.c ****                             return 1;
 118:.\Protocolo.c ****                             break;
 119:.\Protocolo.c ****                         case 0xB2:
 120:.\Protocolo.c ****                             return 2;
 121:.\Protocolo.c ****                             break;
ARM GAS  C:\Users\IN-002~1\AppData\Local\Temp\ccxO8rjh.s 			page 8


 122:.\Protocolo.c ****                         case 0xB3:
 123:.\Protocolo.c ****                             return 3;
 124:.\Protocolo.c ****                             break;
 125:.\Protocolo.c ****                         default:
 126:.\Protocolo.c ****                             return 0;
 127:.\Protocolo.c ****                     }
 128:.\Protocolo.c ****                 }
 129:.\Protocolo.c ****                 else{
 130:.\Protocolo.c ****                     return 0;
 131:.\Protocolo.c ****                 }
 132:.\Protocolo.c ****             }
 133:.\Protocolo.c ****             else{
 134:.\Protocolo.c ****                 return 0;
 274              		.loc 1 134 0
 275 0066 0020     		movs	r0, #0
 276 0068 38E0     		b	.L19
 277              	.L23:
 111:.\Protocolo.c ****                 }
 278              		.loc 1 111 0 discriminator 3
 279 006a FFF7FEFF 		bl	Surtidor_ReadRxData
 280              	.LVL35:
 281 006e 08AB     		add	r3, sp, #32
 282 0070 2344     		add	r3, r3, r4
 283 0072 03F8140C 		strb	r0, [r3, #-20]
 110:.\Protocolo.c ****                 for(x=0;x<=18;x++){
 284              		.loc 1 110 0 discriminator 3
 285 0076 0134     		adds	r4, r4, #1
 286              	.LVL36:
 287 0078 E4B2     		uxtb	r4, r4
 288              	.LVL37:
 289 007a 00E0     		b	.L22
 290              	.L29:
 291 007c 0024     		movs	r4, #0
 292              	.LVL38:
 293              	.L22:
 110:.\Protocolo.c ****                 for(x=0;x<=18;x++){
 294              		.loc 1 110 0 is_stmt 0 discriminator 1
 295 007e 122C     		cmp	r4, #18
 296 0080 F3D9     		bls	.L23
 113:.\Protocolo.c ****                 if((rx_extend[0]==0xBA)&&(rx_extend[17]==0x8D)&&(rx_extend[18]==0x8A)&&(rx_extend[1
 297              		.loc 1 113 0 is_stmt 1
 298 0082 FFF7FEFF 		bl	Surtidor_ClearRxBuffer
 299              	.LVL39:
 114:.\Protocolo.c ****                     switch(rx_extend[14]){
 300              		.loc 1 114 0
 301 0086 9DF80C30 		ldrb	r3, [sp, #12]	@ zero_extendqisi2
 302 008a BA2B     		cmp	r3, #186
 303 008c 1DD1     		bne	.L30
 114:.\Protocolo.c ****                     switch(rx_extend[14]){
 304              		.loc 1 114 0 is_stmt 0 discriminator 1
 305 008e 9DF81D30 		ldrb	r3, [sp, #29]	@ zero_extendqisi2
 306 0092 8D2B     		cmp	r3, #141
 307 0094 1BD1     		bne	.L31
 114:.\Protocolo.c ****                     switch(rx_extend[14]){
 308              		.loc 1 114 0 discriminator 2
 309 0096 9DF81E30 		ldrb	r3, [sp, #30]	@ zero_extendqisi2
 310 009a 8A2B     		cmp	r3, #138
ARM GAS  C:\Users\IN-002~1\AppData\Local\Temp\ccxO8rjh.s 			page 9


 311 009c 19D1     		bne	.L32
 114:.\Protocolo.c ****                     switch(rx_extend[14]){
 312              		.loc 1 114 0 discriminator 3
 313 009e 9DF81830 		ldrb	r3, [sp, #24]	@ zero_extendqisi2
 314 00a2 B12B     		cmp	r3, #177
 315 00a4 17D1     		bne	.L33
 115:.\Protocolo.c ****                         case 0xB1:
 316              		.loc 1 115 0 is_stmt 1
 317 00a6 9DF81A30 		ldrb	r3, [sp, #26]	@ zero_extendqisi2
 318 00aa B22B     		cmp	r3, #178
 319 00ac 15D0     		beq	.L34
 320 00ae B32B     		cmp	r3, #179
 321 00b0 03D0     		beq	.L25
 322 00b2 B12B     		cmp	r3, #177
 323 00b4 03D1     		bne	.L35
 117:.\Protocolo.c ****                             break;
 324              		.loc 1 117 0
 325 00b6 0120     		movs	r0, #1
 326 00b8 10E0     		b	.L19
 327              	.L25:
 123:.\Protocolo.c ****                             break;
 328              		.loc 1 123 0
 329 00ba 0320     		movs	r0, #3
 330 00bc 0EE0     		b	.L19
 331              	.L35:
 126:.\Protocolo.c ****                     }
 332              		.loc 1 126 0
 333 00be 0020     		movs	r0, #0
 334 00c0 0CE0     		b	.L19
 335              	.LVL40:
 336              	.L27:
 135:.\Protocolo.c ****             }
 136:.\Protocolo.c ****         }
 137:.\Protocolo.c ****         else{
 138:.\Protocolo.c ****             return 0;
 139:.\Protocolo.c ****         }
 140:.\Protocolo.c ****     }
 141:.\Protocolo.c ****     else{
 142:.\Protocolo.c ****         return 0;
 337              		.loc 1 142 0
 338 00c2 0020     		movs	r0, #0
 339 00c4 0AE0     		b	.L19
 340              	.L28:
 138:.\Protocolo.c ****         }
 341              		.loc 1 138 0
 342 00c6 0020     		movs	r0, #0
 343 00c8 08E0     		b	.L19
 344              	.LVL41:
 345              	.L30:
 130:.\Protocolo.c ****                 }
 346              		.loc 1 130 0
 347 00ca 0020     		movs	r0, #0
 348 00cc 06E0     		b	.L19
 349              	.L31:
 350 00ce 0020     		movs	r0, #0
 351 00d0 04E0     		b	.L19
 352              	.L32:
ARM GAS  C:\Users\IN-002~1\AppData\Local\Temp\ccxO8rjh.s 			page 10


 353 00d2 0020     		movs	r0, #0
 354 00d4 02E0     		b	.L19
 355              	.L33:
 356 00d6 0020     		movs	r0, #0
 357 00d8 00E0     		b	.L19
 358              	.L34:
 120:.\Protocolo.c ****                             break;
 359              		.loc 1 120 0
 360 00da 0220     		movs	r0, #2
 361              	.LVL42:
 362              	.L19:
 143:.\Protocolo.c ****     }
 144:.\Protocolo.c **** }
 363              		.loc 1 144 0 discriminator 1
 364 00dc 08B0     		add	sp, sp, #32
 365              		.cfi_def_cfa_offset 8
 366              		@ sp needed
 367 00de 10BD     		pop	{r4, pc}
 368              	.L38:
 369              		.align	2
 370              	.L37:
 371 00e0 00000000 		.word	.LANCHOR0
 372 00e4 00000000 		.word	producto
 373              		.cfi_endproc
 374              	.LFE65:
 375              		.size	estado_ex, .-estado_ex
 376              		.section	.text.detener,"ax",%progbits
 377              		.align	2
 378              		.global	detener
 379              		.thumb
 380              		.thumb_func
 381              		.type	detener, %function
 382              	detener:
 383              	.LFB66:
 145:.\Protocolo.c **** 
 146:.\Protocolo.c **** /*
 147:.\Protocolo.c **** ***************************************************************************************************
 148:.\Protocolo.c **** *                                         void detener(uint8 val)
 149:.\Protocolo.c **** *
 150:.\Protocolo.c **** * Description : 
 151:.\Protocolo.c **** *               
 152:.\Protocolo.c **** *
 153:.\Protocolo.c **** * Argument(s) : none
 154:.\Protocolo.c **** *
 155:.\Protocolo.c **** * Return(s)   : none
 156:.\Protocolo.c **** *
 157:.\Protocolo.c **** * Caller(s)   : 
 158:.\Protocolo.c **** *
 159:.\Protocolo.c **** * Note(s)     : none.
 160:.\Protocolo.c **** ***************************************************************************************************
 161:.\Protocolo.c **** */
 162:.\Protocolo.c **** void detener(uint8 val){
 384              		.loc 1 162 0
 385              		.cfi_startproc
 386              		@ args = 0, pretend = 0, frame = 0
 387              		@ frame_needed = 0, uses_anonymous_args = 0
 388              	.LVL43:
ARM GAS  C:\Users\IN-002~1\AppData\Local\Temp\ccxO8rjh.s 			page 11


 389 0000 08B5     		push	{r3, lr}
 390              		.cfi_def_cfa_offset 8
 391              		.cfi_offset 3, -8
 392              		.cfi_offset 14, -4
 163:.\Protocolo.c ****     Surtidor_PutChar(0x30|val);
 393              		.loc 1 163 0
 394 0002 40F03000 		orr	r0, r0, #48
 395              	.LVL44:
 396 0006 FFF7FEFF 		bl	Surtidor_PutChar
 397              	.LVL45:
 164:.\Protocolo.c ****     CyDelay(200);
 398              		.loc 1 164 0
 399 000a C820     		movs	r0, #200
 400 000c FFF7FEFF 		bl	CyDelay
 401              	.LVL46:
 402 0010 08BD     		pop	{r3, pc}
 403              		.cfi_endproc
 404              	.LFE66:
 405              		.size	detener, .-detener
 406 0012 00BF     		.section	.text.venta,"ax",%progbits
 407              		.align	2
 408              		.global	venta
 409              		.thumb
 410              		.thumb_func
 411              		.type	venta, %function
 412              	venta:
 413              	.LFB67:
 165:.\Protocolo.c **** }
 166:.\Protocolo.c **** 
 167:.\Protocolo.c **** /*
 168:.\Protocolo.c **** ***************************************************************************************************
 169:.\Protocolo.c **** *                                         void venta(uint8 val)
 170:.\Protocolo.c **** *
 171:.\Protocolo.c **** * Description : 
 172:.\Protocolo.c **** *               
 173:.\Protocolo.c **** *
 174:.\Protocolo.c **** * Argument(s) : none
 175:.\Protocolo.c **** *
 176:.\Protocolo.c **** * Return(s)   : none
 177:.\Protocolo.c **** *
 178:.\Protocolo.c **** * Caller(s)   : 
 179:.\Protocolo.c **** *
 180:.\Protocolo.c **** * Note(s)     : none.
 181:.\Protocolo.c **** ***************************************************************************************************
 182:.\Protocolo.c **** */
 183:.\Protocolo.c **** uint8 venta(uint8 val){
 414              		.loc 1 183 0
 415              		.cfi_startproc
 416              		@ args = 0, pretend = 0, frame = 40
 417              		@ frame_needed = 0, uses_anonymous_args = 0
 418              	.LVL47:
 419 0000 30B5     		push	{r4, r5, lr}
 420              		.cfi_def_cfa_offset 12
 421              		.cfi_offset 4, -12
 422              		.cfi_offset 5, -8
 423              		.cfi_offset 14, -4
 424 0002 8BB0     		sub	sp, sp, #44
ARM GAS  C:\Users\IN-002~1\AppData\Local\Temp\ccxO8rjh.s 			page 12


 425              		.cfi_def_cfa_offset 56
 426 0004 0446     		mov	r4, r0
 427              	.LVL48:
 184:.\Protocolo.c ****     uint8 rx_venta[39],x=0,pos,y; 
 185:.\Protocolo.c ****     Surtidor_PutChar(0x40|val);
 428              		.loc 1 185 0
 429 0006 40F04000 		orr	r0, r0, #64
 430              	.LVL49:
 431 000a FFF7FEFF 		bl	Surtidor_PutChar
 432              	.LVL50:
 186:.\Protocolo.c ****     CyDelay(300);
 433              		.loc 1 186 0
 434 000e 4FF49670 		mov	r0, #300
 435 0012 FFF7FEFF 		bl	CyDelay
 436              	.LVL51:
 187:.\Protocolo.c ****     if(Surtidor_GetRxBufferSize()<=39){
 437              		.loc 1 187 0
 438 0016 FFF7FEFF 		bl	Surtidor_GetRxBufferSize
 439              	.LVL52:
 440 001a 2728     		cmp	r0, #39
 441 001c 0AD9     		bls	.L58
 188:.\Protocolo.c ****         while(Surtidor_GetRxBufferSize()>0){
 189:.\Protocolo.c ****             rx_venta[x]=Surtidor_ReadRxData();  
 190:.\Protocolo.c ****             x++;
 191:.\Protocolo.c ****         }
 192:.\Protocolo.c ****         Surtidor_ClearRxBuffer();
 193:.\Protocolo.c ****         if(val==0){
 194:.\Protocolo.c ****             pos=0x10;
 195:.\Protocolo.c ****             rventa.posicion=pos;
 196:.\Protocolo.c ****         }
 197:.\Protocolo.c ****         else{
 198:.\Protocolo.c ****             pos=val;
 199:.\Protocolo.c ****             rventa.posicion=pos;
 200:.\Protocolo.c ****         }
 201:.\Protocolo.c ****         if((rx_venta[0]==0xFF)&&(rx_venta[2]==0xF8)&&((rx_venta[4]&0x0F)==(pos-1))){
 202:.\Protocolo.c ****             x=0;
 203:.\Protocolo.c ****             while((rx_venta[x]!=0xF6)||(x>=39)){
 204:.\Protocolo.c ****                 x++;
 205:.\Protocolo.c ****             }
 206:.\Protocolo.c ****             x++;
 207:.\Protocolo.c ****             rventa.producto=(rx_venta[x]&0x0F)+1;
 208:.\Protocolo.c ****             while((rx_venta[x]!=0xF7)||(x>=39)){
 209:.\Protocolo.c ****                 x++;
 210:.\Protocolo.c ****             }
 211:.\Protocolo.c ****             x++;
 212:.\Protocolo.c ****             y=1;
 213:.\Protocolo.c ****             while((rx_venta[x]!=0xF9)||(x>=39)){    
 214:.\Protocolo.c ****                 rventa.ppu[y]=(rx_venta[x]&0x0F);
 215:.\Protocolo.c ****                 x++;
 216:.\Protocolo.c ****                 y++;
 217:.\Protocolo.c ****             }
 218:.\Protocolo.c **** 			rventa.ppu[0]=y-1;
 219:.\Protocolo.c ****             x++;
 220:.\Protocolo.c ****             y=1;
 221:.\Protocolo.c ****             while((rx_venta[x]!=0xFA)||(x>=39)){
 222:.\Protocolo.c ****                 rventa.volumen[y]=(rx_venta[x]&0x0F);
 223:.\Protocolo.c ****                 x++;
ARM GAS  C:\Users\IN-002~1\AppData\Local\Temp\ccxO8rjh.s 			page 13


 224:.\Protocolo.c ****                 y++;    
 225:.\Protocolo.c ****             }
 226:.\Protocolo.c **** 			rventa.volumen[0]=y-1;
 227:.\Protocolo.c ****             x++;
 228:.\Protocolo.c ****             y=1;
 229:.\Protocolo.c ****             while((rx_venta[x]!=0xFB)||(x>=39)){
 230:.\Protocolo.c ****                 rventa.dinero[y]=(rx_venta[x]&0x0F);
 231:.\Protocolo.c ****                 x++;
 232:.\Protocolo.c ****                 y++;    
 233:.\Protocolo.c ****             }
 234:.\Protocolo.c **** 			rventa.dinero[0]=y-1;
 235:.\Protocolo.c ****             x+=2;
 236:.\Protocolo.c ****             if((rx_venta[x]==0xF0)&&(x<=38)){								
 237:.\Protocolo.c **** 				if(val==lado.a.dir){
 238:.\Protocolo.c **** 					write_eeprom(457,rventa.dinero);
 239:.\Protocolo.c **** 					write_eeprom(466,rventa.volumen);
 240:.\Protocolo.c **** 					write_eeprom(475,rventa.ppu);
 241:.\Protocolo.c **** 				}				
 242:.\Protocolo.c **** 				else{
 243:.\Protocolo.c **** 					write_eeprom(482,rventa.dinero);
 244:.\Protocolo.c **** 					write_eeprom(500,rventa.ppu);
 245:.\Protocolo.c **** 					write_eeprom(491,rventa.volumen);				
 246:.\Protocolo.c **** 				}
 247:.\Protocolo.c ****                 return 1;
 248:.\Protocolo.c ****             }
 249:.\Protocolo.c ****             else{
 250:.\Protocolo.c ****                 return 0;
 251:.\Protocolo.c ****             }
 252:.\Protocolo.c ****         }
 253:.\Protocolo.c ****         else{
 254:.\Protocolo.c ****             return 0;
 255:.\Protocolo.c ****         }
 256:.\Protocolo.c ****     }
 257:.\Protocolo.c ****     else{
 258:.\Protocolo.c ****         return 0;
 442              		.loc 1 258 0
 443 001e 0020     		movs	r0, #0
 444 0020 D9E0     		b	.L43
 445              	.LVL53:
 446              	.L44:
 189:.\Protocolo.c ****             x++;
 447              		.loc 1 189 0
 448 0022 FFF7FEFF 		bl	Surtidor_ReadRxData
 449              	.LVL54:
 450 0026 0AAB     		add	r3, sp, #40
 451 0028 2B44     		add	r3, r3, r5
 452 002a 03F8280C 		strb	r0, [r3, #-40]
 190:.\Protocolo.c ****         }
 453              		.loc 1 190 0
 454 002e 0135     		adds	r5, r5, #1
 455              	.LVL55:
 456 0030 EDB2     		uxtb	r5, r5
 457              	.LVL56:
 458 0032 00E0     		b	.L42
 459              	.LVL57:
 460              	.L58:
 461 0034 0025     		movs	r5, #0
ARM GAS  C:\Users\IN-002~1\AppData\Local\Temp\ccxO8rjh.s 			page 14


 462              	.LVL58:
 463              	.L42:
 188:.\Protocolo.c ****         while(Surtidor_GetRxBufferSize()>0){
 464              		.loc 1 188 0
 465 0036 FFF7FEFF 		bl	Surtidor_GetRxBufferSize
 466              	.LVL59:
 467 003a 0028     		cmp	r0, #0
 468 003c F1D1     		bne	.L44
 192:.\Protocolo.c ****         if(val==0){
 469              		.loc 1 192 0
 470 003e FFF7FEFF 		bl	Surtidor_ClearRxBuffer
 471              	.LVL60:
 193:.\Protocolo.c ****             pos=0x10;
 472              		.loc 1 193 0
 473 0042 24B9     		cbnz	r4, .L45
 474              	.LVL61:
 195:.\Protocolo.c ****         }
 475              		.loc 1 195 0
 476 0044 1023     		movs	r3, #16
 477 0046 654A     		ldr	r2, .L65
 478 0048 82F8A230 		strb	r3, [r2, #162]
 479 004c 03E0     		b	.L46
 480              	.LVL62:
 481              	.L45:
 199:.\Protocolo.c ****         }
 482              		.loc 1 199 0
 483 004e 634B     		ldr	r3, .L65
 484 0050 83F8A240 		strb	r4, [r3, #162]
 198:.\Protocolo.c ****             rventa.posicion=pos;
 485              		.loc 1 198 0
 486 0054 2346     		mov	r3, r4
 487              	.LVL63:
 488              	.L46:
 201:.\Protocolo.c ****             x=0;
 489              		.loc 1 201 0
 490 0056 9DF80020 		ldrb	r2, [sp]	@ zero_extendqisi2
 491 005a FF2A     		cmp	r2, #255
 492 005c 40F0B480 		bne	.L59
 201:.\Protocolo.c ****             x=0;
 493              		.loc 1 201 0 is_stmt 0 discriminator 1
 494 0060 9DF80220 		ldrb	r2, [sp, #2]	@ zero_extendqisi2
 495 0064 F82A     		cmp	r2, #248
 496 0066 40F0B180 		bne	.L60
 201:.\Protocolo.c ****             x=0;
 497              		.loc 1 201 0 discriminator 2
 498 006a 9DF80420 		ldrb	r2, [sp, #4]	@ zero_extendqisi2
 499 006e 02F00F02 		and	r2, r2, #15
 500 0072 013B     		subs	r3, r3, #1
 501              	.LVL64:
 502 0074 9A42     		cmp	r2, r3
 503 0076 04D0     		beq	.L61
 254:.\Protocolo.c ****         }
 504              		.loc 1 254 0 is_stmt 1
 505 0078 0020     		movs	r0, #0
 506 007a ACE0     		b	.L43
 507              	.LVL65:
 508              	.L48:
ARM GAS  C:\Users\IN-002~1\AppData\Local\Temp\ccxO8rjh.s 			page 15


 204:.\Protocolo.c ****             }
 509              		.loc 1 204 0
 510 007c 0133     		adds	r3, r3, #1
 511              	.LVL66:
 512 007e DBB2     		uxtb	r3, r3
 513              	.LVL67:
 514 0080 00E0     		b	.L47
 515              	.LVL68:
 516              	.L61:
 517 0082 0023     		movs	r3, #0
 518              	.LVL69:
 519              	.L47:
 203:.\Protocolo.c ****                 x++;
 520              		.loc 1 203 0
 521 0084 0AAA     		add	r2, sp, #40
 522 0086 1A44     		add	r2, r2, r3
 523 0088 12F8282C 		ldrb	r2, [r2, #-40]	@ zero_extendqisi2
 524 008c F62A     		cmp	r2, #246
 525 008e F5D1     		bne	.L48
 203:.\Protocolo.c ****                 x++;
 526              		.loc 1 203 0 is_stmt 0 discriminator 1
 527 0090 262B     		cmp	r3, #38
 528 0092 F3D8     		bhi	.L48
 206:.\Protocolo.c ****             rventa.producto=(rx_venta[x]&0x0F)+1;
 529              		.loc 1 206 0 is_stmt 1
 530 0094 0133     		adds	r3, r3, #1
 531              	.LVL70:
 532 0096 DBB2     		uxtb	r3, r3
 533              	.LVL71:
 207:.\Protocolo.c ****             while((rx_venta[x]!=0xF7)||(x>=39)){
 534              		.loc 1 207 0
 535 0098 0AAA     		add	r2, sp, #40
 536 009a 1A44     		add	r2, r2, r3
 537 009c 12F8282C 		ldrb	r2, [r2, #-40]	@ zero_extendqisi2
 538 00a0 02F00F02 		and	r2, r2, #15
 539 00a4 0132     		adds	r2, r2, #1
 540 00a6 4D49     		ldr	r1, .L65
 541 00a8 81F8A320 		strb	r2, [r1, #163]
 208:.\Protocolo.c ****                 x++;
 542              		.loc 1 208 0
 543 00ac 01E0     		b	.L49
 544              	.L50:
 209:.\Protocolo.c ****             }
 545              		.loc 1 209 0
 546 00ae 0133     		adds	r3, r3, #1
 547              	.LVL72:
 548 00b0 DBB2     		uxtb	r3, r3
 549              	.LVL73:
 550              	.L49:
 208:.\Protocolo.c ****                 x++;
 551              		.loc 1 208 0
 552 00b2 0AAA     		add	r2, sp, #40
 553 00b4 1A44     		add	r2, r2, r3
 554 00b6 12F8282C 		ldrb	r2, [r2, #-40]	@ zero_extendqisi2
 555 00ba F72A     		cmp	r2, #247
 556 00bc F7D1     		bne	.L50
 208:.\Protocolo.c ****                 x++;
ARM GAS  C:\Users\IN-002~1\AppData\Local\Temp\ccxO8rjh.s 			page 16


 557              		.loc 1 208 0 is_stmt 0 discriminator 1
 558 00be 262B     		cmp	r3, #38
 559 00c0 F5D8     		bhi	.L50
 211:.\Protocolo.c ****             y=1;
 560              		.loc 1 211 0 is_stmt 1
 561 00c2 0133     		adds	r3, r3, #1
 562              	.LVL74:
 563 00c4 DBB2     		uxtb	r3, r3
 564              	.LVL75:
 212:.\Protocolo.c ****             while((rx_venta[x]!=0xF9)||(x>=39)){    
 565              		.loc 1 212 0
 566 00c6 0122     		movs	r2, #1
 213:.\Protocolo.c ****                 rventa.ppu[y]=(rx_venta[x]&0x0F);
 567              		.loc 1 213 0
 568 00c8 09E0     		b	.L51
 569              	.LVL76:
 570              	.L52:
 214:.\Protocolo.c ****                 x++;
 571              		.loc 1 214 0
 572 00ca 4448     		ldr	r0, .L65
 573 00cc 1044     		add	r0, r0, r2
 574 00ce 01F00F01 		and	r1, r1, #15
 575 00d2 80F8A410 		strb	r1, [r0, #164]
 215:.\Protocolo.c ****                 y++;
 576              		.loc 1 215 0
 577 00d6 0133     		adds	r3, r3, #1
 578              	.LVL77:
 579 00d8 DBB2     		uxtb	r3, r3
 580              	.LVL78:
 216:.\Protocolo.c ****             }
 581              		.loc 1 216 0
 582 00da 0132     		adds	r2, r2, #1
 583              	.LVL79:
 584 00dc D2B2     		uxtb	r2, r2
 585              	.LVL80:
 586              	.L51:
 213:.\Protocolo.c ****                 rventa.ppu[y]=(rx_venta[x]&0x0F);
 587              		.loc 1 213 0
 588 00de 0AA9     		add	r1, sp, #40
 589 00e0 1944     		add	r1, r1, r3
 590 00e2 11F8281C 		ldrb	r1, [r1, #-40]	@ zero_extendqisi2
 591 00e6 F929     		cmp	r1, #249
 592 00e8 EFD1     		bne	.L52
 213:.\Protocolo.c ****                 rventa.ppu[y]=(rx_venta[x]&0x0F);
 593              		.loc 1 213 0 is_stmt 0 discriminator 1
 594 00ea 262B     		cmp	r3, #38
 595 00ec EDD8     		bhi	.L52
 218:.\Protocolo.c ****             x++;
 596              		.loc 1 218 0 is_stmt 1
 597 00ee 013A     		subs	r2, r2, #1
 598              	.LVL81:
 599 00f0 3A49     		ldr	r1, .L65
 600 00f2 81F8A420 		strb	r2, [r1, #164]
 219:.\Protocolo.c ****             y=1;
 601              		.loc 1 219 0
 602 00f6 0133     		adds	r3, r3, #1
 603              	.LVL82:
ARM GAS  C:\Users\IN-002~1\AppData\Local\Temp\ccxO8rjh.s 			page 17


 604 00f8 DBB2     		uxtb	r3, r3
 605              	.LVL83:
 220:.\Protocolo.c ****             while((rx_venta[x]!=0xFA)||(x>=39)){
 606              		.loc 1 220 0
 607 00fa 0122     		movs	r2, #1
 221:.\Protocolo.c ****                 rventa.volumen[y]=(rx_venta[x]&0x0F);
 608              		.loc 1 221 0
 609 00fc 09E0     		b	.L53
 610              	.LVL84:
 611              	.L54:
 222:.\Protocolo.c ****                 x++;
 612              		.loc 1 222 0
 613 00fe 3748     		ldr	r0, .L65
 614 0100 1044     		add	r0, r0, r2
 615 0102 01F00F01 		and	r1, r1, #15
 616 0106 80F8B410 		strb	r1, [r0, #180]
 223:.\Protocolo.c ****                 y++;    
 617              		.loc 1 223 0
 618 010a 0133     		adds	r3, r3, #1
 619              	.LVL85:
 620 010c DBB2     		uxtb	r3, r3
 621              	.LVL86:
 224:.\Protocolo.c ****             }
 622              		.loc 1 224 0
 623 010e 0132     		adds	r2, r2, #1
 624              	.LVL87:
 625 0110 D2B2     		uxtb	r2, r2
 626              	.LVL88:
 627              	.L53:
 221:.\Protocolo.c ****                 rventa.volumen[y]=(rx_venta[x]&0x0F);
 628              		.loc 1 221 0
 629 0112 0AA9     		add	r1, sp, #40
 630 0114 1944     		add	r1, r1, r3
 631 0116 11F8281C 		ldrb	r1, [r1, #-40]	@ zero_extendqisi2
 632 011a FA29     		cmp	r1, #250
 633 011c EFD1     		bne	.L54
 221:.\Protocolo.c ****                 rventa.volumen[y]=(rx_venta[x]&0x0F);
 634              		.loc 1 221 0 is_stmt 0 discriminator 1
 635 011e 262B     		cmp	r3, #38
 636 0120 EDD8     		bhi	.L54
 226:.\Protocolo.c ****             x++;
 637              		.loc 1 226 0 is_stmt 1
 638 0122 013A     		subs	r2, r2, #1
 639              	.LVL89:
 640 0124 2D49     		ldr	r1, .L65
 641 0126 81F8B420 		strb	r2, [r1, #180]
 227:.\Protocolo.c ****             y=1;
 642              		.loc 1 227 0
 643 012a 0133     		adds	r3, r3, #1
 644              	.LVL90:
 645 012c DBB2     		uxtb	r3, r3
 646              	.LVL91:
 228:.\Protocolo.c ****             while((rx_venta[x]!=0xFB)||(x>=39)){
 647              		.loc 1 228 0
 648 012e 0122     		movs	r2, #1
 229:.\Protocolo.c ****                 rventa.dinero[y]=(rx_venta[x]&0x0F);
 649              		.loc 1 229 0
ARM GAS  C:\Users\IN-002~1\AppData\Local\Temp\ccxO8rjh.s 			page 18


 650 0130 09E0     		b	.L55
 651              	.LVL92:
 652              	.L56:
 230:.\Protocolo.c ****                 x++;
 653              		.loc 1 230 0
 654 0132 2A48     		ldr	r0, .L65
 655 0134 1044     		add	r0, r0, r2
 656 0136 01F00F01 		and	r1, r1, #15
 657 013a 80F8AB10 		strb	r1, [r0, #171]
 231:.\Protocolo.c ****                 y++;    
 658              		.loc 1 231 0
 659 013e 0133     		adds	r3, r3, #1
 660              	.LVL93:
 661 0140 DBB2     		uxtb	r3, r3
 662              	.LVL94:
 232:.\Protocolo.c ****             }
 663              		.loc 1 232 0
 664 0142 0132     		adds	r2, r2, #1
 665              	.LVL95:
 666 0144 D2B2     		uxtb	r2, r2
 667              	.LVL96:
 668              	.L55:
 229:.\Protocolo.c ****                 rventa.dinero[y]=(rx_venta[x]&0x0F);
 669              		.loc 1 229 0
 670 0146 0AA9     		add	r1, sp, #40
 671 0148 1944     		add	r1, r1, r3
 672 014a 11F8281C 		ldrb	r1, [r1, #-40]	@ zero_extendqisi2
 673 014e FB29     		cmp	r1, #251
 674 0150 EFD1     		bne	.L56
 229:.\Protocolo.c ****                 rventa.dinero[y]=(rx_venta[x]&0x0F);
 675              		.loc 1 229 0 is_stmt 0 discriminator 1
 676 0152 262B     		cmp	r3, #38
 677 0154 EDD8     		bhi	.L56
 234:.\Protocolo.c ****             x+=2;
 678              		.loc 1 234 0 is_stmt 1
 679 0156 013A     		subs	r2, r2, #1
 680              	.LVL97:
 681 0158 2049     		ldr	r1, .L65
 682 015a 81F8AB20 		strb	r2, [r1, #171]
 235:.\Protocolo.c ****             if((rx_venta[x]==0xF0)&&(x<=38)){								
 683              		.loc 1 235 0
 684 015e 0233     		adds	r3, r3, #2
 685              	.LVL98:
 686 0160 DBB2     		uxtb	r3, r3
 687              	.LVL99:
 236:.\Protocolo.c **** 				if(val==lado.a.dir){
 688              		.loc 1 236 0
 689 0162 0AAA     		add	r2, sp, #40
 690 0164 1A44     		add	r2, r2, r3
 691 0166 12F8282C 		ldrb	r2, [r2, #-40]	@ zero_extendqisi2
 692 016a F02A     		cmp	r2, #240
 693 016c 30D1     		bne	.L62
 236:.\Protocolo.c **** 				if(val==lado.a.dir){
 694              		.loc 1 236 0 is_stmt 0 discriminator 1
 695 016e 262B     		cmp	r3, #38
 696 0170 30D8     		bhi	.L63
 237:.\Protocolo.c **** 					write_eeprom(457,rventa.dinero);
ARM GAS  C:\Users\IN-002~1\AppData\Local\Temp\ccxO8rjh.s 			page 19


 697              		.loc 1 237 0 is_stmt 1
 698 0172 1B4B     		ldr	r3, .L65+4
 699              	.LVL100:
 700 0174 1B78     		ldrb	r3, [r3]	@ zero_extendqisi2
 701 0176 A342     		cmp	r3, r4
 702 0178 13D1     		bne	.L57
 238:.\Protocolo.c **** 					write_eeprom(466,rventa.volumen);
 703              		.loc 1 238 0
 704 017a 01F1AB04 		add	r4, r1, #171
 705 017e 40F2C910 		movw	r0, #457
 706 0182 2146     		mov	r1, r4
 707 0184 FFF7FEFF 		bl	write_eeprom
 708              	.LVL101:
 239:.\Protocolo.c **** 					write_eeprom(475,rventa.ppu);
 709              		.loc 1 239 0
 710 0188 4FF4E970 		mov	r0, #466
 711 018c 04F10901 		add	r1, r4, #9
 712 0190 FFF7FEFF 		bl	write_eeprom
 713              	.LVL102:
 240:.\Protocolo.c **** 				}				
 714              		.loc 1 240 0
 715 0194 40F2DB10 		movw	r0, #475
 716 0198 E11F     		subs	r1, r4, #7
 717 019a FFF7FEFF 		bl	write_eeprom
 718              	.LVL103:
 247:.\Protocolo.c ****             }
 719              		.loc 1 247 0
 720 019e 0120     		movs	r0, #1
 721 01a0 19E0     		b	.L43
 722              	.L57:
 243:.\Protocolo.c **** 					write_eeprom(500,rventa.ppu);
 723              		.loc 1 243 0
 724 01a2 104C     		ldr	r4, .L65+8
 725 01a4 4FF4F170 		mov	r0, #482
 726 01a8 2146     		mov	r1, r4
 727 01aa FFF7FEFF 		bl	write_eeprom
 728              	.LVL104:
 244:.\Protocolo.c **** 					write_eeprom(491,rventa.volumen);				
 729              		.loc 1 244 0
 730 01ae 4FF4FA70 		mov	r0, #500
 731 01b2 E11F     		subs	r1, r4, #7
 732 01b4 FFF7FEFF 		bl	write_eeprom
 733              	.LVL105:
 245:.\Protocolo.c **** 				}
 734              		.loc 1 245 0
 735 01b8 40F2EB10 		movw	r0, #491
 736 01bc 04F10901 		add	r1, r4, #9
 737 01c0 FFF7FEFF 		bl	write_eeprom
 738              	.LVL106:
 247:.\Protocolo.c ****             }
 739              		.loc 1 247 0
 740 01c4 0120     		movs	r0, #1
 741 01c6 06E0     		b	.L43
 742              	.LVL107:
 743              	.L59:
 254:.\Protocolo.c ****         }
 744              		.loc 1 254 0
ARM GAS  C:\Users\IN-002~1\AppData\Local\Temp\ccxO8rjh.s 			page 20


 745 01c8 0020     		movs	r0, #0
 746 01ca 04E0     		b	.L43
 747              	.L60:
 748 01cc 0020     		movs	r0, #0
 749 01ce 02E0     		b	.L43
 750              	.LVL108:
 751              	.L62:
 250:.\Protocolo.c ****             }
 752              		.loc 1 250 0
 753 01d0 0020     		movs	r0, #0
 754 01d2 00E0     		b	.L43
 755              	.L63:
 756 01d4 0020     		movs	r0, #0
 757              	.LVL109:
 758              	.L43:
 259:.\Protocolo.c ****     }
 260:.\Protocolo.c **** }
 759              		.loc 1 260 0
 760 01d6 0BB0     		add	sp, sp, #44
 761              		.cfi_def_cfa_offset 12
 762              		@ sp needed
 763 01d8 30BD     		pop	{r4, r5, pc}
 764              	.L66:
 765 01da 00BF     		.align	2
 766              	.L65:
 767 01dc 00000000 		.word	rventa
 768 01e0 00000000 		.word	lado
 769 01e4 AB000000 		.word	rventa+171
 770              		.cfi_endproc
 771              	.LFE67:
 772              		.size	venta, .-venta
 773              		.section	.text.get_totales,"ax",%progbits
 774              		.align	2
 775              		.global	get_totales
 776              		.thumb
 777              		.thumb_func
 778              		.type	get_totales, %function
 779              	get_totales:
 780              	.LFB68:
 261:.\Protocolo.c **** 
 262:.\Protocolo.c **** /*
 263:.\Protocolo.c **** ***************************************************************************************************
 264:.\Protocolo.c **** *                                         uint8 get_totales(uint8 dir)
 265:.\Protocolo.c **** *
 266:.\Protocolo.c **** * Description : 
 267:.\Protocolo.c **** *               
 268:.\Protocolo.c **** *
 269:.\Protocolo.c **** * Argument(s) : none
 270:.\Protocolo.c **** *
 271:.\Protocolo.c **** * Return(s)   : none
 272:.\Protocolo.c **** *
 273:.\Protocolo.c **** * Caller(s)   : 
 274:.\Protocolo.c **** *
 275:.\Protocolo.c **** * Note(s)     : none.
 276:.\Protocolo.c **** ***************************************************************************************************
 277:.\Protocolo.c **** */
 278:.\Protocolo.c **** uint8 get_totales(uint8 dir,uint8 val){ 
ARM GAS  C:\Users\IN-002~1\AppData\Local\Temp\ccxO8rjh.s 			page 21


 781              		.loc 1 278 0
 782              		.cfi_startproc
 783              		@ args = 0, pretend = 0, frame = 64
 784              		@ frame_needed = 0, uses_anonymous_args = 0
 785              	.LVL110:
 786 0000 70B5     		push	{r4, r5, r6, lr}
 787              		.cfi_def_cfa_offset 16
 788              		.cfi_offset 4, -16
 789              		.cfi_offset 5, -12
 790              		.cfi_offset 6, -8
 791              		.cfi_offset 14, -4
 792 0002 90B0     		sub	sp, sp, #64
 793              		.cfi_def_cfa_offset 80
 794 0004 0546     		mov	r5, r0
 795 0006 0C46     		mov	r4, r1
 279:.\Protocolo.c **** 	uint8 corte[25], minuendo[14],sustraendo[14]; 
 280:.\Protocolo.c ****     Surtidor_PutChar(0x50|dir);
 796              		.loc 1 280 0
 797 0008 40F05000 		orr	r0, r0, #80
 798              	.LVL111:
 799 000c FFF7FEFF 		bl	Surtidor_PutChar
 800              	.LVL112:
 281:.\Protocolo.c **** 
 282:.\Protocolo.c ****     CyDelay(1000);
 801              		.loc 1 282 0
 802 0010 4FF47A70 		mov	r0, #1000
 803 0014 FFF7FEFF 		bl	CyDelay
 804              	.LVL113:
 283:.\Protocolo.c **** 	switch(Surtidor_GetRxBufferSize()){
 805              		.loc 1 283 0
 806 0018 FFF7FEFF 		bl	Surtidor_GetRxBufferSize
 807              	.LVL114:
 808 001c 4028     		cmp	r0, #64
 809 001e 00F01384 		beq	.L69
 810 0022 06D8     		bhi	.L70
 811 0024 2228     		cmp	r0, #34
 812 0026 0FD0     		beq	.L71
 813 0028 2E28     		cmp	r0, #46
 814 002a 01F06184 		beq	.L72
 815 002e 03F0CBB8 		b	.L68
 816              	.L70:
 817 0032 5E28     		cmp	r0, #94
 818 0034 01F03280 		beq	.L73
 819 0038 8228     		cmp	r0, #130
 820 003a 02F09C84 		beq	.L74
 821 003e 5828     		cmp	r0, #88
 822 0040 43F0C280 		bne	.L68
 823 0044 02F071B8 		b	.L75
 824              	.L71:
 284:.\Protocolo.c **** 		case 34:
 285:.\Protocolo.c **** 			if((Surtidor_rxBuffer[0]==0xFF)&&(Surtidor_rxBuffer[1]==0xF6)&&(Surtidor_rxBuffer[33]==0xF0)&&(S
 825              		.loc 1 285 0
 826 0048 9C4B     		ldr	r3, .L592
 827 004a 1B78     		ldrb	r3, [r3]	@ zero_extendqisi2
 828 004c DBB2     		uxtb	r3, r3
 829 004e FF2B     		cmp	r3, #255
 830 0050 43F0CF80 		bne	.L567
ARM GAS  C:\Users\IN-002~1\AppData\Local\Temp\ccxO8rjh.s 			page 22


 831              		.loc 1 285 0 is_stmt 0 discriminator 1
 832 0054 994B     		ldr	r3, .L592
 833 0056 5B78     		ldrb	r3, [r3, #1]	@ zero_extendqisi2
 834 0058 DBB2     		uxtb	r3, r3
 835 005a F62B     		cmp	r3, #246
 836 005c 43F0CB80 		bne	.L568
 837              		.loc 1 285 0 discriminator 2
 838 0060 964B     		ldr	r3, .L592
 839 0062 93F82130 		ldrb	r3, [r3, #33]	@ zero_extendqisi2
 840 0066 DBB2     		uxtb	r3, r3
 841 0068 F02B     		cmp	r3, #240
 842 006a 43F0C680 		bne	.L569
 843              		.loc 1 285 0 discriminator 3
 844 006e 934B     		ldr	r3, .L592
 845 0070 DB78     		ldrb	r3, [r3, #3]	@ zero_extendqisi2
 846 0072 DBB2     		uxtb	r3, r3
 847 0074 F92B     		cmp	r3, #249
 848 0076 43F0C280 		bne	.L570
 286:.\Protocolo.c **** 				rventa.manguera=(Surtidor_rxBuffer[2]&0x0F)+1;			
 849              		.loc 1 286 0 is_stmt 1
 850 007a 904B     		ldr	r3, .L592
 851 007c 9978     		ldrb	r1, [r3, #2]	@ zero_extendqisi2
 852 007e 01F00F01 		and	r1, r1, #15
 853 0082 0131     		adds	r1, r1, #1
 854 0084 8E4B     		ldr	r3, .L592+4
 855 0086 83F8E010 		strb	r1, [r3, #224]
 287:.\Protocolo.c **** 				for(x=0;x<=7;x++){												
 856              		.loc 1 287 0
 857 008a 0022     		movs	r2, #0
 858 008c 8D4B     		ldr	r3, .L592+8
 859 008e 1A60     		str	r2, [r3]
 860 0090 0BE0     		b	.L77
 861              	.L78:
 288:.\Protocolo.c **** 					rventa.tvolumen[x]=(Surtidor_rxBuffer[x+4]&0x0F);
 862              		.loc 1 288 0 discriminator 3
 863 0092 1A1D     		adds	r2, r3, #4
 864 0094 8948     		ldr	r0, .L592
 865 0096 805C     		ldrb	r0, [r0, r2]	@ zero_extendqisi2
 866 0098 894A     		ldr	r2, .L592+4
 867 009a 1A44     		add	r2, r2, r3
 868 009c 00F00F00 		and	r0, r0, #15
 869 00a0 82F8BD00 		strb	r0, [r2, #189]
 287:.\Protocolo.c **** 				for(x=0;x<=7;x++){												
 870              		.loc 1 287 0 discriminator 3
 871 00a4 0133     		adds	r3, r3, #1
 872 00a6 874A     		ldr	r2, .L592+8
 873 00a8 1360     		str	r3, [r2]
 874              	.L77:
 287:.\Protocolo.c **** 				for(x=0;x<=7;x++){												
 875              		.loc 1 287 0 is_stmt 0 discriminator 1
 876 00aa 864B     		ldr	r3, .L592+8
 877 00ac 1B68     		ldr	r3, [r3]
 878 00ae 072B     		cmp	r3, #7
 879 00b0 EFD9     		bls	.L78
 289:.\Protocolo.c **** 				}
 290:.\Protocolo.c **** 				for(x=0;x<=7;x++){
 880              		.loc 1 290 0 is_stmt 1
ARM GAS  C:\Users\IN-002~1\AppData\Local\Temp\ccxO8rjh.s 			page 23


 881 00b2 0022     		movs	r2, #0
 882 00b4 834B     		ldr	r3, .L592+8
 883 00b6 1A60     		str	r2, [r3]
 884 00b8 0CE0     		b	.L79
 885              	.L80:
 291:.\Protocolo.c **** 					rventa.tdinero[x]=(Surtidor_rxBuffer[x+13]&0x0F);
 886              		.loc 1 291 0 discriminator 3
 887 00ba 03F10D02 		add	r2, r3, #13
 888 00be 7F48     		ldr	r0, .L592
 889 00c0 805C     		ldrb	r0, [r0, r2]	@ zero_extendqisi2
 890 00c2 7F4A     		ldr	r2, .L592+4
 891 00c4 1A44     		add	r2, r2, r3
 892 00c6 00F00F00 		and	r0, r0, #15
 893 00ca 82F8CA00 		strb	r0, [r2, #202]
 290:.\Protocolo.c **** 					rventa.tdinero[x]=(Surtidor_rxBuffer[x+13]&0x0F);
 894              		.loc 1 290 0 discriminator 3
 895 00ce 0133     		adds	r3, r3, #1
 896 00d0 7C4A     		ldr	r2, .L592+8
 897 00d2 1360     		str	r3, [r2]
 898              	.L79:
 290:.\Protocolo.c **** 					rventa.tdinero[x]=(Surtidor_rxBuffer[x+13]&0x0F);
 899              		.loc 1 290 0 is_stmt 0 discriminator 1
 900 00d4 7B4B     		ldr	r3, .L592+8
 901 00d6 1B68     		ldr	r3, [r3]
 902 00d8 072B     		cmp	r3, #7
 903 00da EED9     		bls	.L80
 292:.\Protocolo.c **** 				}
 293:.\Protocolo.c **** 				for(z=0;z<=7;z++){
 904              		.loc 1 293 0 is_stmt 1
 905 00dc 0022     		movs	r2, #0
 906 00de 7A4B     		ldr	r3, .L592+12
 907 00e0 1A60     		str	r2, [r3]
 908 00e2 0AE0     		b	.L81
 909              	.L82:
 294:.\Protocolo.c **** 					corte[z+1]=rventa.tvolumen[z];
 910              		.loc 1 294 0 discriminator 3
 911 00e4 5A1C     		adds	r2, r3, #1
 912 00e6 7648     		ldr	r0, .L592+4
 913 00e8 0344     		add	r3, r3, r0
 914 00ea 93F8BD00 		ldrb	r0, [r3, #189]	@ zero_extendqisi2
 915 00ee 10AB     		add	r3, sp, #64
 916 00f0 1344     		add	r3, r3, r2
 917 00f2 03F81C0C 		strb	r0, [r3, #-28]
 293:.\Protocolo.c **** 					corte[z+1]=rventa.tvolumen[z];
 918              		.loc 1 293 0 discriminator 3
 919 00f6 744B     		ldr	r3, .L592+12
 920 00f8 1A60     		str	r2, [r3]
 921              	.L81:
 293:.\Protocolo.c **** 					corte[z+1]=rventa.tvolumen[z];
 922              		.loc 1 293 0 is_stmt 0 discriminator 1
 923 00fa 734B     		ldr	r3, .L592+12
 924 00fc 1B68     		ldr	r3, [r3]
 925 00fe 072B     		cmp	r3, #7
 926 0100 F0D9     		bls	.L82
 295:.\Protocolo.c **** 				}
 296:.\Protocolo.c **** 				for(z=9;z<=16;z++){
 927              		.loc 1 296 0 is_stmt 1
ARM GAS  C:\Users\IN-002~1\AppData\Local\Temp\ccxO8rjh.s 			page 24


 928 0102 0922     		movs	r2, #9
 929 0104 704B     		ldr	r3, .L592+12
 930 0106 1A60     		str	r2, [r3]
 931 0108 0AE0     		b	.L83
 932              	.L84:
 297:.\Protocolo.c **** 					corte[z]=rventa.tdinero[z-9];
 933              		.loc 1 297 0 discriminator 3
 934 010a 704A     		ldr	r2, .L592+16
 935 010c 1A44     		add	r2, r2, r3
 936 010e 92F8CA00 		ldrb	r0, [r2, #202]	@ zero_extendqisi2
 937 0112 10AA     		add	r2, sp, #64
 938 0114 1A44     		add	r2, r2, r3
 939 0116 02F81C0C 		strb	r0, [r2, #-28]
 296:.\Protocolo.c **** 					corte[z]=rventa.tdinero[z-9];
 940              		.loc 1 296 0 discriminator 3
 941 011a 0133     		adds	r3, r3, #1
 942 011c 6A4A     		ldr	r2, .L592+12
 943 011e 1360     		str	r3, [r2]
 944              	.L83:
 296:.\Protocolo.c **** 					corte[z]=rventa.tdinero[z-9];
 945              		.loc 1 296 0 is_stmt 0 discriminator 1
 946 0120 694B     		ldr	r3, .L592+12
 947 0122 1B68     		ldr	r3, [r3]
 948 0124 102B     		cmp	r3, #16
 949 0126 F0D9     		bls	.L84
 298:.\Protocolo.c **** 				}
 299:.\Protocolo.c **** 				corte[0]=16;				
 950              		.loc 1 299 0 is_stmt 1
 951 0128 1023     		movs	r3, #16
 952 012a 8DF82430 		strb	r3, [sp, #36]
 300:.\Protocolo.c **** 				if(((rventa.manguera==(corriente&0x0F))&&(dir==lado.a.dir))||((rventa.manguera==(corriente2&0x0
 953              		.loc 1 300 0
 954 012e 684B     		ldr	r3, .L592+20
 955 0130 1B78     		ldrb	r3, [r3]	@ zero_extendqisi2
 956 0132 03F00F03 		and	r3, r3, #15
 957 0136 9942     		cmp	r1, r3
 958 0138 03D1     		bne	.L85
 959              		.loc 1 300 0 is_stmt 0 discriminator 1
 960 013a 664B     		ldr	r3, .L592+24
 961 013c 1B78     		ldrb	r3, [r3]	@ zero_extendqisi2
 962 013e AB42     		cmp	r3, r5
 963 0140 0BD0     		beq	.L86
 964              	.L85:
 965              		.loc 1 300 0 discriminator 3
 966 0142 654B     		ldr	r3, .L592+28
 967 0144 1B78     		ldrb	r3, [r3]	@ zero_extendqisi2
 968 0146 03F00F03 		and	r3, r3, #15
 969 014a 9942     		cmp	r1, r3
 970 014c 40F0DA80 		bne	.L87
 971              		.loc 1 300 0 discriminator 4
 972 0150 604B     		ldr	r3, .L592+24
 973 0152 1B79     		ldrb	r3, [r3, #4]	@ zero_extendqisi2
 974 0154 AB42     		cmp	r3, r5
 975 0156 40F0D580 		bne	.L87
 976              	.L86:
 301:.\Protocolo.c **** 					for(x=0;x<=5;x++){									
 977              		.loc 1 301 0 is_stmt 1
ARM GAS  C:\Users\IN-002~1\AppData\Local\Temp\ccxO8rjh.s 			page 25


 978 015a 0022     		movs	r2, #0
 979 015c 594B     		ldr	r3, .L592+8
 980 015e 1A60     		str	r2, [r3]
 981 0160 08E0     		b	.L88
 982              	.L89:
 302:.\Protocolo.c **** 						write_psoc1(val,msn_tc[x]);
 983              		.loc 1 302 0 discriminator 3
 984 0162 2046     		mov	r0, r4
 985 0164 5D4A     		ldr	r2, .L592+32
 986 0166 D15C     		ldrb	r1, [r2, r3]	@ zero_extendqisi2
 987 0168 FFF7FEFF 		bl	write_psoc1
 988              	.LVL115:
 301:.\Protocolo.c **** 					for(x=0;x<=5;x++){									
 989              		.loc 1 301 0 discriminator 3
 990 016c 554A     		ldr	r2, .L592+8
 991 016e 1368     		ldr	r3, [r2]
 992 0170 0133     		adds	r3, r3, #1
 993 0172 1360     		str	r3, [r2]
 994              	.L88:
 301:.\Protocolo.c **** 					for(x=0;x<=5;x++){									
 995              		.loc 1 301 0 is_stmt 0 discriminator 1
 996 0174 534B     		ldr	r3, .L592+8
 997 0176 1B68     		ldr	r3, [r3]
 998 0178 052B     		cmp	r3, #5
 999 017a F2D9     		bls	.L89
 303:.\Protocolo.c **** 					}
 304:.\Protocolo.c **** 					write_psoc1(val,10);
 1000              		.loc 1 304 0 is_stmt 1
 1001 017c 2046     		mov	r0, r4
 1002 017e 0A21     		movs	r1, #10
 1003 0180 FFF7FEFF 		bl	write_psoc1
 1004              	.LVL116:
 305:.\Protocolo.c ****                     for(x=0;x<=10;x++){									
 1005              		.loc 1 305 0
 1006 0184 0022     		movs	r2, #0
 1007 0186 4F4B     		ldr	r3, .L592+8
 1008 0188 1A60     		str	r2, [r3]
 1009 018a 08E0     		b	.L90
 1010              	.L91:
 306:.\Protocolo.c **** 						write_psoc1(val,producto1n[x]);
 1011              		.loc 1 306 0 discriminator 3
 1012 018c 2046     		mov	r0, r4
 1013 018e 544A     		ldr	r2, .L592+36
 1014 0190 D15C     		ldrb	r1, [r2, r3]	@ zero_extendqisi2
 1015 0192 FFF7FEFF 		bl	write_psoc1
 1016              	.LVL117:
 305:.\Protocolo.c ****                     for(x=0;x<=10;x++){									
 1017              		.loc 1 305 0 discriminator 3
 1018 0196 4B4A     		ldr	r2, .L592+8
 1019 0198 1368     		ldr	r3, [r2]
 1020 019a 0133     		adds	r3, r3, #1
 1021 019c 1360     		str	r3, [r2]
 1022              	.L90:
 305:.\Protocolo.c ****                     for(x=0;x<=10;x++){									
 1023              		.loc 1 305 0 is_stmt 0 discriminator 1
 1024 019e 494B     		ldr	r3, .L592+8
 1025 01a0 1B68     		ldr	r3, [r3]
ARM GAS  C:\Users\IN-002~1\AppData\Local\Temp\ccxO8rjh.s 			page 26


 1026 01a2 0A2B     		cmp	r3, #10
 1027 01a4 F2D9     		bls	.L91
 307:.\Protocolo.c **** 					}
 308:.\Protocolo.c ****                     write_psoc1(val,10);
 1028              		.loc 1 308 0 is_stmt 1
 1029 01a6 2046     		mov	r0, r4
 1030 01a8 0A21     		movs	r1, #10
 1031 01aa FFF7FEFF 		bl	write_psoc1
 1032              	.LVL118:
 309:.\Protocolo.c **** 					for(x=0;x<=14;x++){									
 1033              		.loc 1 309 0
 1034 01ae 0022     		movs	r2, #0
 1035 01b0 444B     		ldr	r3, .L592+8
 1036 01b2 1A60     		str	r2, [r3]
 1037 01b4 09E0     		b	.L92
 1038              	.L93:
 310:.\Protocolo.c **** 						write_psoc1(val,msn_lecact[x]);				//LECTURA ACTUAL
 1039              		.loc 1 310 0 discriminator 3
 1040 01b6 494A     		ldr	r2, .L592+32
 1041 01b8 1344     		add	r3, r3, r2
 1042 01ba 2046     		mov	r0, r4
 1043 01bc 197A     		ldrb	r1, [r3, #8]	@ zero_extendqisi2
 1044 01be FFF7FEFF 		bl	write_psoc1
 1045              	.LVL119:
 309:.\Protocolo.c **** 					for(x=0;x<=14;x++){									
 1046              		.loc 1 309 0 discriminator 3
 1047 01c2 404A     		ldr	r2, .L592+8
 1048 01c4 1368     		ldr	r3, [r2]
 1049 01c6 0133     		adds	r3, r3, #1
 1050 01c8 1360     		str	r3, [r2]
 1051              	.L92:
 309:.\Protocolo.c **** 					for(x=0;x<=14;x++){									
 1052              		.loc 1 309 0 is_stmt 0 discriminator 1
 1053 01ca 3E4B     		ldr	r3, .L592+8
 1054 01cc 1B68     		ldr	r3, [r3]
 1055 01ce 0E2B     		cmp	r3, #14
 1056 01d0 F1D9     		bls	.L93
 311:.\Protocolo.c **** 					}
 312:.\Protocolo.c **** 					write_psoc1(val,10);
 1057              		.loc 1 312 0 is_stmt 1
 1058 01d2 2046     		mov	r0, r4
 1059 01d4 0A21     		movs	r1, #10
 1060 01d6 FFF7FEFF 		bl	write_psoc1
 1061              	.LVL120:
 313:.\Protocolo.c **** 					print_totalesac(8,val);	
 1062              		.loc 1 313 0
 1063 01da 0820     		movs	r0, #8
 1064 01dc 2146     		mov	r1, r4
 1065 01de FFF7FEFF 		bl	print_totalesac
 1066              	.LVL121:
 314:.\Protocolo.c **** 					for(x=0;x<=16;x++){												
 1067              		.loc 1 314 0
 1068 01e2 0022     		movs	r2, #0
 1069 01e4 374B     		ldr	r3, .L592+8
 1070 01e6 1A60     		str	r2, [r3]
 1071 01e8 09E0     		b	.L94
 1072              	.L95:
ARM GAS  C:\Users\IN-002~1\AppData\Local\Temp\ccxO8rjh.s 			page 27


 315:.\Protocolo.c **** 						write_psoc1(val,msn_lecaan[x]);				//LECTURA ANTERIOR
 1073              		.loc 1 315 0 discriminator 3
 1074 01ea 3C4A     		ldr	r2, .L592+32
 1075 01ec 1344     		add	r3, r3, r2
 1076 01ee 2046     		mov	r0, r4
 1077 01f0 197E     		ldrb	r1, [r3, #24]	@ zero_extendqisi2
 1078 01f2 FFF7FEFF 		bl	write_psoc1
 1079              	.LVL122:
 314:.\Protocolo.c **** 					for(x=0;x<=16;x++){												
 1080              		.loc 1 314 0 discriminator 3
 1081 01f6 334A     		ldr	r2, .L592+8
 1082 01f8 1368     		ldr	r3, [r2]
 1083 01fa 0133     		adds	r3, r3, #1
 1084 01fc 1360     		str	r3, [r2]
 1085              	.L94:
 314:.\Protocolo.c **** 					for(x=0;x<=16;x++){												
 1086              		.loc 1 314 0 is_stmt 0 discriminator 1
 1087 01fe 314B     		ldr	r3, .L592+8
 1088 0200 1B68     		ldr	r3, [r3]
 1089 0202 102B     		cmp	r3, #16
 1090 0204 F1D9     		bls	.L95
 316:.\Protocolo.c **** 					}
 317:.\Protocolo.c **** 					write_psoc1(val,10);
 1091              		.loc 1 317 0 is_stmt 1
 1092 0206 2046     		mov	r0, r4
 1093 0208 0A21     		movs	r1, #10
 1094 020a FFF7FEFF 		bl	write_psoc1
 1095              	.LVL123:
 318:.\Protocolo.c **** 					if(dir==lado.a.dir){
 1096              		.loc 1 318 0
 1097 020e 314B     		ldr	r3, .L592+24
 1098 0210 1B78     		ldrb	r3, [r3]	@ zero_extendqisi2
 1099 0212 AB42     		cmp	r3, r5
 1100 0214 04D1     		bne	.L96
 319:.\Protocolo.c **** 						leer_eeprom(192,25);
 1101              		.loc 1 319 0
 1102 0216 C020     		movs	r0, #192
 1103 0218 1921     		movs	r1, #25
 1104 021a FFF7FEFF 		bl	leer_eeprom
 1105              	.LVL124:
 1106 021e 04E0     		b	.L97
 1107              	.L96:
 320:.\Protocolo.c **** 					}
 321:.\Protocolo.c **** 					else{
 322:.\Protocolo.c **** 						leer_eeprom(281,25);
 1108              		.loc 1 322 0
 1109 0220 40F21910 		movw	r0, #281
 1110 0224 1921     		movs	r1, #25
 1111 0226 FFF7FEFF 		bl	leer_eeprom
 1112              	.LVL125:
 1113              	.L97:
 323:.\Protocolo.c **** 					}
 324:.\Protocolo.c **** 					print_totales(val);
 1114              		.loc 1 324 0
 1115 022a 2046     		mov	r0, r4
 1116 022c FFF7FEFF 		bl	print_totales
 1117              	.LVL126:
ARM GAS  C:\Users\IN-002~1\AppData\Local\Temp\ccxO8rjh.s 			page 28


 325:.\Protocolo.c **** 					for(z=1;z<=8;z++){
 1118              		.loc 1 325 0
 1119 0230 0122     		movs	r2, #1
 1120 0232 254B     		ldr	r3, .L592+12
 1121 0234 1A60     		str	r2, [r3]
 1122 0236 10E0     		b	.L98
 1123              	.L99:
 326:.\Protocolo.c **** 						minuendo[z]=rventa.tdinero[z-1];
 1124              		.loc 1 326 0 discriminator 3
 1125 0238 2A4A     		ldr	r2, .L592+40
 1126 023a 1A44     		add	r2, r2, r3
 1127 023c 92F8CA10 		ldrb	r1, [r2, #202]	@ zero_extendqisi2
 1128 0240 10AA     		add	r2, sp, #64
 1129 0242 1A44     		add	r2, r2, r3
 1130 0244 02F82C1C 		strb	r1, [r2, #-44]
 327:.\Protocolo.c **** 						sustraendo[z]=buffer_i2c[z+8];
 1131              		.loc 1 327 0 discriminator 3
 1132 0248 03F10801 		add	r1, r3, #8
 1133 024c 2648     		ldr	r0, .L592+44
 1134 024e 415C     		ldrb	r1, [r0, r1]	@ zero_extendqisi2
 1135 0250 02F83C1C 		strb	r1, [r2, #-60]
 325:.\Protocolo.c **** 					for(z=1;z<=8;z++){
 1136              		.loc 1 325 0 discriminator 3
 1137 0254 0133     		adds	r3, r3, #1
 1138 0256 1C4A     		ldr	r2, .L592+12
 1139 0258 1360     		str	r3, [r2]
 1140              	.L98:
 325:.\Protocolo.c **** 					for(z=1;z<=8;z++){
 1141              		.loc 1 325 0 is_stmt 0 discriminator 1
 1142 025a 1B4B     		ldr	r3, .L592+12
 1143 025c 1B68     		ldr	r3, [r3]
 1144 025e 082B     		cmp	r3, #8
 1145 0260 EAD9     		bls	.L99
 328:.\Protocolo.c **** 					}
 329:.\Protocolo.c **** 					minuendo[0]=8;
 1146              		.loc 1 329 0 is_stmt 1
 1147 0262 10A9     		add	r1, sp, #64
 1148 0264 0823     		movs	r3, #8
 1149 0266 01F82C3D 		strb	r3, [r1, #-44]!
 330:.\Protocolo.c **** 					operacion(2,minuendo,sustraendo);
 1150              		.loc 1 330 0
 1151 026a 0220     		movs	r0, #2
 1152 026c 01AA     		add	r2, sp, #4
 1153 026e FFF7FEFF 		bl	operacion
 1154              	.LVL127:
 331:.\Protocolo.c **** 					for(x=0;x<=17;x++){									
 1155              		.loc 1 331 0
 1156 0272 0022     		movs	r2, #0
 1157 0274 134B     		ldr	r3, .L592+8
 1158 0276 1A60     		str	r2, [r3]
 1159 0278 0AE0     		b	.L100
 1160              	.L101:
 332:.\Protocolo.c **** 						write_psoc1(val,msn_tventas[x]);				//Total de ventas
 1161              		.loc 1 332 0 discriminator 3
 1162 027a 184A     		ldr	r2, .L592+32
 1163 027c 1344     		add	r3, r3, r2
 1164 027e 2046     		mov	r0, r4
ARM GAS  C:\Users\IN-002~1\AppData\Local\Temp\ccxO8rjh.s 			page 29


 1165 0280 93F82C10 		ldrb	r1, [r3, #44]	@ zero_extendqisi2
 1166 0284 FFF7FEFF 		bl	write_psoc1
 1167              	.LVL128:
 331:.\Protocolo.c **** 					for(x=0;x<=17;x++){									
 1168              		.loc 1 331 0 discriminator 3
 1169 0288 0E4A     		ldr	r2, .L592+8
 1170 028a 1368     		ldr	r3, [r2]
 1171 028c 0133     		adds	r3, r3, #1
 1172 028e 1360     		str	r3, [r2]
 1173              	.L100:
 331:.\Protocolo.c **** 					for(x=0;x<=17;x++){									
 1174              		.loc 1 331 0 is_stmt 0 discriminator 1
 1175 0290 0C4B     		ldr	r3, .L592+8
 1176 0292 1B68     		ldr	r3, [r3]
 1177 0294 112B     		cmp	r3, #17
 1178 0296 F0D9     		bls	.L101
 333:.\Protocolo.c **** 					}
 334:.\Protocolo.c **** 					print_valor(resultado,val);
 1179              		.loc 1 334 0 is_stmt 1
 1180 0298 1448     		ldr	r0, .L592+48
 1181 029a 2146     		mov	r1, r4
 1182 029c FFF7FEFF 		bl	print_valor
 1183              	.LVL129:
 335:.\Protocolo.c **** 					if(dir==lado.a.dir){
 1184              		.loc 1 335 0
 1185 02a0 0C4B     		ldr	r3, .L592+24
 1186 02a2 1B78     		ldrb	r3, [r3]	@ zero_extendqisi2
 1187 02a4 AB42     		cmp	r3, r5
 1188 02a6 23D1     		bne	.L102
 336:.\Protocolo.c **** 						write_eeprom(192,corte);	
 1189              		.loc 1 336 0
 1190 02a8 C020     		movs	r0, #192
 1191 02aa 09A9     		add	r1, sp, #36
 1192 02ac FFF7FEFF 		bl	write_eeprom
 1193              	.LVL130:
 337:.\Protocolo.c **** 						write_eeprom(512,resultado);
 1194              		.loc 1 337 0
 1195 02b0 4FF40070 		mov	r0, #512
 1196 02b4 0D49     		ldr	r1, .L592+48
 1197 02b6 FFF7FEFF 		bl	write_eeprom
 1198              	.LVL131:
 1199 02ba 23E0     		b	.L87
 1200              	.L593:
 1201              		.align	2
 1202              	.L592:
 1203 02bc 00000000 		.word	Surtidor_rxBuffer
 1204 02c0 00000000 		.word	rventa
 1205 02c4 00000000 		.word	x
 1206 02c8 00000000 		.word	z
 1207 02cc F7FFFFFF 		.word	rventa-9
 1208 02d0 00000000 		.word	corriente
 1209 02d4 00000000 		.word	lado
 1210 02d8 00000000 		.word	corriente2
 1211 02dc 00000000 		.word	.LANCHOR1
 1212 02e0 00000000 		.word	producto1n
 1213 02e4 FFFFFFFF 		.word	rventa-1
 1214 02e8 00000000 		.word	buffer_i2c
ARM GAS  C:\Users\IN-002~1\AppData\Local\Temp\ccxO8rjh.s 			page 30


 1215 02ec 00000000 		.word	resultado
 1216              	.L102:
 338:.\Protocolo.c **** 					}
 339:.\Protocolo.c **** 					else{
 340:.\Protocolo.c **** 						write_eeprom(281,corte);
 1217              		.loc 1 340 0
 1218 02f0 40F21910 		movw	r0, #281
 1219 02f4 09A9     		add	r1, sp, #36
 1220 02f6 FFF7FEFF 		bl	write_eeprom
 1221              	.LVL132:
 341:.\Protocolo.c **** 						write_eeprom(551,resultado);
 1222              		.loc 1 341 0
 1223 02fa 40F22720 		movw	r0, #551
 1224 02fe B049     		ldr	r1, .L594
 1225 0300 FFF7FEFF 		bl	write_eeprom
 1226              	.LVL133:
 1227              	.L87:
 342:.\Protocolo.c **** 					}
 343:.\Protocolo.c **** 				}
 344:.\Protocolo.c **** 				if(((rventa.manguera==(diesel&0x0F))&&(dir==lado.a.dir))||((rventa.manguera==(diesel2&0x0F))&&(
 1228              		.loc 1 344 0
 1229 0304 AF4B     		ldr	r3, .L594+4
 1230 0306 93F8E020 		ldrb	r2, [r3, #224]	@ zero_extendqisi2
 1231 030a AF4B     		ldr	r3, .L594+8
 1232 030c 1B78     		ldrb	r3, [r3]	@ zero_extendqisi2
 1233 030e 03F00F03 		and	r3, r3, #15
 1234 0312 9342     		cmp	r3, r2
 1235 0314 03D1     		bne	.L103
 1236              		.loc 1 344 0 is_stmt 0 discriminator 1
 1237 0316 AD4B     		ldr	r3, .L594+12
 1238 0318 1B78     		ldrb	r3, [r3]	@ zero_extendqisi2
 1239 031a AB42     		cmp	r3, r5
 1240 031c 0BD0     		beq	.L104
 1241              	.L103:
 1242              		.loc 1 344 0 discriminator 3
 1243 031e AC4B     		ldr	r3, .L594+16
 1244 0320 1B78     		ldrb	r3, [r3]	@ zero_extendqisi2
 1245 0322 03F00F03 		and	r3, r3, #15
 1246 0326 9A42     		cmp	r2, r3
 1247 0328 40F0C080 		bne	.L105
 1248              		.loc 1 344 0 discriminator 4
 1249 032c A74B     		ldr	r3, .L594+12
 1250 032e 1B79     		ldrb	r3, [r3, #4]	@ zero_extendqisi2
 1251 0330 AB42     		cmp	r3, r5
 1252 0332 40F0BB80 		bne	.L105
 1253              	.L104:
 345:.\Protocolo.c **** 					for(x=0;x<=5;x++){									
 1254              		.loc 1 345 0 is_stmt 1
 1255 0336 0022     		movs	r2, #0
 1256 0338 A64B     		ldr	r3, .L594+20
 1257 033a 1A60     		str	r2, [r3]
 1258 033c 08E0     		b	.L106
 1259              	.L107:
 346:.\Protocolo.c **** 						write_psoc1(val,msn_tc[x]);
 1260              		.loc 1 346 0 discriminator 3
 1261 033e 2046     		mov	r0, r4
 1262 0340 A54A     		ldr	r2, .L594+24
ARM GAS  C:\Users\IN-002~1\AppData\Local\Temp\ccxO8rjh.s 			page 31


 1263 0342 D15C     		ldrb	r1, [r2, r3]	@ zero_extendqisi2
 1264 0344 FFF7FEFF 		bl	write_psoc1
 1265              	.LVL134:
 345:.\Protocolo.c **** 					for(x=0;x<=5;x++){									
 1266              		.loc 1 345 0 discriminator 3
 1267 0348 A24A     		ldr	r2, .L594+20
 1268 034a 1368     		ldr	r3, [r2]
 1269 034c 0133     		adds	r3, r3, #1
 1270 034e 1360     		str	r3, [r2]
 1271              	.L106:
 345:.\Protocolo.c **** 					for(x=0;x<=5;x++){									
 1272              		.loc 1 345 0 is_stmt 0 discriminator 1
 1273 0350 A04B     		ldr	r3, .L594+20
 1274 0352 1B68     		ldr	r3, [r3]
 1275 0354 052B     		cmp	r3, #5
 1276 0356 F2D9     		bls	.L107
 347:.\Protocolo.c **** 					}
 348:.\Protocolo.c **** 					write_psoc1(val,10);
 1277              		.loc 1 348 0 is_stmt 1
 1278 0358 2046     		mov	r0, r4
 1279 035a 0A21     		movs	r1, #10
 1280 035c FFF7FEFF 		bl	write_psoc1
 1281              	.LVL135:
 349:.\Protocolo.c ****                     for(x=0;x<=10;x++){									
 1282              		.loc 1 349 0
 1283 0360 0022     		movs	r2, #0
 1284 0362 9C4B     		ldr	r3, .L594+20
 1285 0364 1A60     		str	r2, [r3]
 1286 0366 08E0     		b	.L108
 1287              	.L109:
 350:.\Protocolo.c **** 						write_psoc1(val,producto2n[x]);
 1288              		.loc 1 350 0 discriminator 3
 1289 0368 2046     		mov	r0, r4
 1290 036a 9C4A     		ldr	r2, .L594+28
 1291 036c D15C     		ldrb	r1, [r2, r3]	@ zero_extendqisi2
 1292 036e FFF7FEFF 		bl	write_psoc1
 1293              	.LVL136:
 349:.\Protocolo.c ****                     for(x=0;x<=10;x++){									
 1294              		.loc 1 349 0 discriminator 3
 1295 0372 984A     		ldr	r2, .L594+20
 1296 0374 1368     		ldr	r3, [r2]
 1297 0376 0133     		adds	r3, r3, #1
 1298 0378 1360     		str	r3, [r2]
 1299              	.L108:
 349:.\Protocolo.c ****                     for(x=0;x<=10;x++){									
 1300              		.loc 1 349 0 is_stmt 0 discriminator 1
 1301 037a 964B     		ldr	r3, .L594+20
 1302 037c 1B68     		ldr	r3, [r3]
 1303 037e 0A2B     		cmp	r3, #10
 1304 0380 F2D9     		bls	.L109
 351:.\Protocolo.c **** 					}                    
 352:.\Protocolo.c **** 					write_psoc1(val,10);
 1305              		.loc 1 352 0 is_stmt 1
 1306 0382 2046     		mov	r0, r4
 1307 0384 0A21     		movs	r1, #10
 1308 0386 FFF7FEFF 		bl	write_psoc1
 1309              	.LVL137:
ARM GAS  C:\Users\IN-002~1\AppData\Local\Temp\ccxO8rjh.s 			page 32


 353:.\Protocolo.c **** 					for(x=0;x<=14;x++){									
 1310              		.loc 1 353 0
 1311 038a 0022     		movs	r2, #0
 1312 038c 914B     		ldr	r3, .L594+20
 1313 038e 1A60     		str	r2, [r3]
 1314 0390 09E0     		b	.L110
 1315              	.L111:
 354:.\Protocolo.c **** 						write_psoc1(val,msn_lecact[x]);				//LECTURA ACTUAL
 1316              		.loc 1 354 0 discriminator 3
 1317 0392 914A     		ldr	r2, .L594+24
 1318 0394 1344     		add	r3, r3, r2
 1319 0396 2046     		mov	r0, r4
 1320 0398 197A     		ldrb	r1, [r3, #8]	@ zero_extendqisi2
 1321 039a FFF7FEFF 		bl	write_psoc1
 1322              	.LVL138:
 353:.\Protocolo.c **** 					for(x=0;x<=14;x++){									
 1323              		.loc 1 353 0 discriminator 3
 1324 039e 8D4A     		ldr	r2, .L594+20
 1325 03a0 1368     		ldr	r3, [r2]
 1326 03a2 0133     		adds	r3, r3, #1
 1327 03a4 1360     		str	r3, [r2]
 1328              	.L110:
 353:.\Protocolo.c **** 					for(x=0;x<=14;x++){									
 1329              		.loc 1 353 0 is_stmt 0 discriminator 1
 1330 03a6 8B4B     		ldr	r3, .L594+20
 1331 03a8 1B68     		ldr	r3, [r3]
 1332 03aa 0E2B     		cmp	r3, #14
 1333 03ac F1D9     		bls	.L111
 355:.\Protocolo.c **** 					}
 356:.\Protocolo.c **** 					write_psoc1(val,10);
 1334              		.loc 1 356 0 is_stmt 1
 1335 03ae 2046     		mov	r0, r4
 1336 03b0 0A21     		movs	r1, #10
 1337 03b2 FFF7FEFF 		bl	write_psoc1
 1338              	.LVL139:
 357:.\Protocolo.c **** 					print_totalesac(8,val);	
 1339              		.loc 1 357 0
 1340 03b6 0820     		movs	r0, #8
 1341 03b8 2146     		mov	r1, r4
 1342 03ba FFF7FEFF 		bl	print_totalesac
 1343              	.LVL140:
 358:.\Protocolo.c **** 					for(x=0;x<=16;x++){												
 1344              		.loc 1 358 0
 1345 03be 0022     		movs	r2, #0
 1346 03c0 844B     		ldr	r3, .L594+20
 1347 03c2 1A60     		str	r2, [r3]
 1348 03c4 09E0     		b	.L112
 1349              	.L113:
 359:.\Protocolo.c **** 						write_psoc1(val,msn_lecaan[x]);				//LECTURA ANTERIOR
 1350              		.loc 1 359 0 discriminator 3
 1351 03c6 844A     		ldr	r2, .L594+24
 1352 03c8 1344     		add	r3, r3, r2
 1353 03ca 2046     		mov	r0, r4
 1354 03cc 197E     		ldrb	r1, [r3, #24]	@ zero_extendqisi2
 1355 03ce FFF7FEFF 		bl	write_psoc1
 1356              	.LVL141:
 358:.\Protocolo.c **** 					for(x=0;x<=16;x++){												
ARM GAS  C:\Users\IN-002~1\AppData\Local\Temp\ccxO8rjh.s 			page 33


 1357              		.loc 1 358 0 discriminator 3
 1358 03d2 804A     		ldr	r2, .L594+20
 1359 03d4 1368     		ldr	r3, [r2]
 1360 03d6 0133     		adds	r3, r3, #1
 1361 03d8 1360     		str	r3, [r2]
 1362              	.L112:
 358:.\Protocolo.c **** 					for(x=0;x<=16;x++){												
 1363              		.loc 1 358 0 is_stmt 0 discriminator 1
 1364 03da 7E4B     		ldr	r3, .L594+20
 1365 03dc 1B68     		ldr	r3, [r3]
 1366 03de 102B     		cmp	r3, #16
 1367 03e0 F1D9     		bls	.L113
 360:.\Protocolo.c **** 					}
 361:.\Protocolo.c **** 					write_psoc1(val,10);
 1368              		.loc 1 361 0 is_stmt 1
 1369 03e2 2046     		mov	r0, r4
 1370 03e4 0A21     		movs	r1, #10
 1371 03e6 FFF7FEFF 		bl	write_psoc1
 1372              	.LVL142:
 362:.\Protocolo.c **** 					if(dir==lado.a.dir){
 1373              		.loc 1 362 0
 1374 03ea 784B     		ldr	r3, .L594+12
 1375 03ec 1B78     		ldrb	r3, [r3]	@ zero_extendqisi2
 1376 03ee AB42     		cmp	r3, r5
 1377 03f0 04D1     		bne	.L114
 363:.\Protocolo.c **** 						leer_eeprom(217,25);
 1378              		.loc 1 363 0
 1379 03f2 D920     		movs	r0, #217
 1380 03f4 1921     		movs	r1, #25
 1381 03f6 FFF7FEFF 		bl	leer_eeprom
 1382              	.LVL143:
 1383 03fa 04E0     		b	.L115
 1384              	.L114:
 364:.\Protocolo.c **** 					}
 365:.\Protocolo.c **** 					else{
 366:.\Protocolo.c **** 						leer_eeprom(320,25);
 1385              		.loc 1 366 0
 1386 03fc 4FF4A070 		mov	r0, #320
 1387 0400 1921     		movs	r1, #25
 1388 0402 FFF7FEFF 		bl	leer_eeprom
 1389              	.LVL144:
 1390              	.L115:
 367:.\Protocolo.c **** 					}
 368:.\Protocolo.c **** 					print_totales(val);
 1391              		.loc 1 368 0
 1392 0406 2046     		mov	r0, r4
 1393 0408 FFF7FEFF 		bl	print_totales
 1394              	.LVL145:
 369:.\Protocolo.c **** 					for(z=1;z<=8;z++){
 1395              		.loc 1 369 0
 1396 040c 0122     		movs	r2, #1
 1397 040e 744B     		ldr	r3, .L594+32
 1398 0410 1A60     		str	r2, [r3]
 1399 0412 10E0     		b	.L116
 1400              	.L117:
 370:.\Protocolo.c **** 						minuendo[z]=rventa.tdinero[z-1];
 1401              		.loc 1 370 0 discriminator 3
ARM GAS  C:\Users\IN-002~1\AppData\Local\Temp\ccxO8rjh.s 			page 34


 1402 0414 734A     		ldr	r2, .L594+36
 1403 0416 1A44     		add	r2, r2, r3
 1404 0418 92F8CA10 		ldrb	r1, [r2, #202]	@ zero_extendqisi2
 1405 041c 10AA     		add	r2, sp, #64
 1406 041e 1A44     		add	r2, r2, r3
 1407 0420 02F82C1C 		strb	r1, [r2, #-44]
 371:.\Protocolo.c **** 						sustraendo[z]=buffer_i2c[z+8];
 1408              		.loc 1 371 0 discriminator 3
 1409 0424 03F10801 		add	r1, r3, #8
 1410 0428 6F48     		ldr	r0, .L594+40
 1411 042a 415C     		ldrb	r1, [r0, r1]	@ zero_extendqisi2
 1412 042c 02F83C1C 		strb	r1, [r2, #-60]
 369:.\Protocolo.c **** 					for(z=1;z<=8;z++){
 1413              		.loc 1 369 0 discriminator 3
 1414 0430 0133     		adds	r3, r3, #1
 1415 0432 6B4A     		ldr	r2, .L594+32
 1416 0434 1360     		str	r3, [r2]
 1417              	.L116:
 369:.\Protocolo.c **** 					for(z=1;z<=8;z++){
 1418              		.loc 1 369 0 is_stmt 0 discriminator 1
 1419 0436 6A4B     		ldr	r3, .L594+32
 1420 0438 1B68     		ldr	r3, [r3]
 1421 043a 082B     		cmp	r3, #8
 1422 043c EAD9     		bls	.L117
 372:.\Protocolo.c **** 					}
 373:.\Protocolo.c **** 					minuendo[0]=8;
 1423              		.loc 1 373 0 is_stmt 1
 1424 043e 10A9     		add	r1, sp, #64
 1425 0440 0823     		movs	r3, #8
 1426 0442 01F82C3D 		strb	r3, [r1, #-44]!
 374:.\Protocolo.c **** 					operacion(2,minuendo,sustraendo);
 1427              		.loc 1 374 0
 1428 0446 0220     		movs	r0, #2
 1429 0448 01AA     		add	r2, sp, #4
 1430 044a FFF7FEFF 		bl	operacion
 1431              	.LVL146:
 375:.\Protocolo.c **** 					for(x=0;x<=17;x++){									
 1432              		.loc 1 375 0
 1433 044e 0022     		movs	r2, #0
 1434 0450 604B     		ldr	r3, .L594+20
 1435 0452 1A60     		str	r2, [r3]
 1436 0454 0AE0     		b	.L118
 1437              	.L119:
 376:.\Protocolo.c **** 						write_psoc1(val,msn_tventas[x]);				//Total de ventas
 1438              		.loc 1 376 0 discriminator 3
 1439 0456 604A     		ldr	r2, .L594+24
 1440 0458 1344     		add	r3, r3, r2
 1441 045a 2046     		mov	r0, r4
 1442 045c 93F82C10 		ldrb	r1, [r3, #44]	@ zero_extendqisi2
 1443 0460 FFF7FEFF 		bl	write_psoc1
 1444              	.LVL147:
 375:.\Protocolo.c **** 					for(x=0;x<=17;x++){									
 1445              		.loc 1 375 0 discriminator 3
 1446 0464 5B4A     		ldr	r2, .L594+20
 1447 0466 1368     		ldr	r3, [r2]
 1448 0468 0133     		adds	r3, r3, #1
 1449 046a 1360     		str	r3, [r2]
ARM GAS  C:\Users\IN-002~1\AppData\Local\Temp\ccxO8rjh.s 			page 35


 1450              	.L118:
 375:.\Protocolo.c **** 					for(x=0;x<=17;x++){									
 1451              		.loc 1 375 0 is_stmt 0 discriminator 1
 1452 046c 594B     		ldr	r3, .L594+20
 1453 046e 1B68     		ldr	r3, [r3]
 1454 0470 112B     		cmp	r3, #17
 1455 0472 F0D9     		bls	.L119
 377:.\Protocolo.c **** 					}
 378:.\Protocolo.c **** 					print_valor(resultado,val);				
 1456              		.loc 1 378 0 is_stmt 1
 1457 0474 5248     		ldr	r0, .L594
 1458 0476 2146     		mov	r1, r4
 1459 0478 FFF7FEFF 		bl	print_valor
 1460              	.LVL148:
 379:.\Protocolo.c **** 					if(dir==lado.a.dir){
 1461              		.loc 1 379 0
 1462 047c 534B     		ldr	r3, .L594+12
 1463 047e 1B78     		ldrb	r3, [r3]	@ zero_extendqisi2
 1464 0480 AB42     		cmp	r3, r5
 1465 0482 09D1     		bne	.L120
 380:.\Protocolo.c **** 						write_eeprom(217,corte);
 1466              		.loc 1 380 0
 1467 0484 D920     		movs	r0, #217
 1468 0486 09A9     		add	r1, sp, #36
 1469 0488 FFF7FEFF 		bl	write_eeprom
 1470              	.LVL149:
 381:.\Protocolo.c **** 						write_eeprom(538,resultado);
 1471              		.loc 1 381 0
 1472 048c 40F21A20 		movw	r0, #538
 1473 0490 4B49     		ldr	r1, .L594
 1474 0492 FFF7FEFF 		bl	write_eeprom
 1475              	.LVL150:
 1476 0496 09E0     		b	.L105
 1477              	.L120:
 382:.\Protocolo.c **** 					}
 383:.\Protocolo.c **** 					else{
 384:.\Protocolo.c **** 						write_eeprom(320,corte);
 1478              		.loc 1 384 0
 1479 0498 4FF4A070 		mov	r0, #320
 1480 049c 09A9     		add	r1, sp, #36
 1481 049e FFF7FEFF 		bl	write_eeprom
 1482              	.LVL151:
 385:.\Protocolo.c **** 						write_eeprom(576,resultado);
 1483              		.loc 1 385 0
 1484 04a2 4FF41070 		mov	r0, #576
 1485 04a6 4649     		ldr	r1, .L594
 1486 04a8 FFF7FEFF 		bl	write_eeprom
 1487              	.LVL152:
 1488              	.L105:
 386:.\Protocolo.c **** 					}				
 387:.\Protocolo.c **** 				}
 388:.\Protocolo.c **** 				if(((rventa.manguera==(extra&0x0F))&&(dir==lado.a.dir))||((rventa.manguera==(extra2&0x0F))&&(di
 1489              		.loc 1 388 0
 1490 04ac 454B     		ldr	r3, .L594+4
 1491 04ae 93F8E020 		ldrb	r2, [r3, #224]	@ zero_extendqisi2
 1492 04b2 4E4B     		ldr	r3, .L594+44
 1493 04b4 1B78     		ldrb	r3, [r3]	@ zero_extendqisi2
ARM GAS  C:\Users\IN-002~1\AppData\Local\Temp\ccxO8rjh.s 			page 36


 1494 04b6 03F00F03 		and	r3, r3, #15
 1495 04ba 9342     		cmp	r3, r2
 1496 04bc 03D1     		bne	.L121
 1497              		.loc 1 388 0 is_stmt 0 discriminator 1
 1498 04be 434B     		ldr	r3, .L594+12
 1499 04c0 1B78     		ldrb	r3, [r3]	@ zero_extendqisi2
 1500 04c2 AB42     		cmp	r3, r5
 1501 04c4 0BD0     		beq	.L122
 1502              	.L121:
 1503              		.loc 1 388 0 discriminator 3
 1504 04c6 4A4B     		ldr	r3, .L594+48
 1505 04c8 1B78     		ldrb	r3, [r3]	@ zero_extendqisi2
 1506 04ca 03F00F03 		and	r3, r3, #15
 1507 04ce 9A42     		cmp	r2, r3
 1508 04d0 40F0DF80 		bne	.L123
 1509              		.loc 1 388 0 discriminator 4
 1510 04d4 3D4B     		ldr	r3, .L594+12
 1511 04d6 1B79     		ldrb	r3, [r3, #4]	@ zero_extendqisi2
 1512 04d8 AB42     		cmp	r3, r5
 1513 04da 40F0DA80 		bne	.L123
 1514              	.L122:
 389:.\Protocolo.c **** 					for(x=0;x<=5;x++){									
 1515              		.loc 1 389 0 is_stmt 1
 1516 04de 0022     		movs	r2, #0
 1517 04e0 3C4B     		ldr	r3, .L594+20
 1518 04e2 1A60     		str	r2, [r3]
 1519 04e4 08E0     		b	.L124
 1520              	.L125:
 390:.\Protocolo.c **** 						    write_psoc1(val,msn_tc[x]);
 1521              		.loc 1 390 0 discriminator 3
 1522 04e6 2046     		mov	r0, r4
 1523 04e8 3B4A     		ldr	r2, .L594+24
 1524 04ea D15C     		ldrb	r1, [r2, r3]	@ zero_extendqisi2
 1525 04ec FFF7FEFF 		bl	write_psoc1
 1526              	.LVL153:
 389:.\Protocolo.c **** 					for(x=0;x<=5;x++){									
 1527              		.loc 1 389 0 discriminator 3
 1528 04f0 384A     		ldr	r2, .L594+20
 1529 04f2 1368     		ldr	r3, [r2]
 1530 04f4 0133     		adds	r3, r3, #1
 1531 04f6 1360     		str	r3, [r2]
 1532              	.L124:
 389:.\Protocolo.c **** 					for(x=0;x<=5;x++){									
 1533              		.loc 1 389 0 is_stmt 0 discriminator 1
 1534 04f8 364B     		ldr	r3, .L594+20
 1535 04fa 1B68     		ldr	r3, [r3]
 1536 04fc 052B     		cmp	r3, #5
 1537 04fe F2D9     		bls	.L125
 391:.\Protocolo.c **** 					    }
 392:.\Protocolo.c **** 					    write_psoc1(val,10);
 1538              		.loc 1 392 0 is_stmt 1
 1539 0500 2046     		mov	r0, r4
 1540 0502 0A21     		movs	r1, #10
 1541 0504 FFF7FEFF 		bl	write_psoc1
 1542              	.LVL154:
 393:.\Protocolo.c ****                     for(x=0;x<=10;x++){									
 1543              		.loc 1 393 0
ARM GAS  C:\Users\IN-002~1\AppData\Local\Temp\ccxO8rjh.s 			page 37


 1544 0508 0022     		movs	r2, #0
 1545 050a 324B     		ldr	r3, .L594+20
 1546 050c 1A60     		str	r2, [r3]
 1547 050e 08E0     		b	.L126
 1548              	.L127:
 394:.\Protocolo.c **** 						    write_psoc1(val,producto3n[x]);
 1549              		.loc 1 394 0 discriminator 3
 1550 0510 2046     		mov	r0, r4
 1551 0512 384A     		ldr	r2, .L594+52
 1552 0514 D15C     		ldrb	r1, [r2, r3]	@ zero_extendqisi2
 1553 0516 FFF7FEFF 		bl	write_psoc1
 1554              	.LVL155:
 393:.\Protocolo.c ****                     for(x=0;x<=10;x++){									
 1555              		.loc 1 393 0 discriminator 3
 1556 051a 2E4A     		ldr	r2, .L594+20
 1557 051c 1368     		ldr	r3, [r2]
 1558 051e 0133     		adds	r3, r3, #1
 1559 0520 1360     		str	r3, [r2]
 1560              	.L126:
 393:.\Protocolo.c ****                     for(x=0;x<=10;x++){									
 1561              		.loc 1 393 0 is_stmt 0 discriminator 1
 1562 0522 2C4B     		ldr	r3, .L594+20
 1563 0524 1B68     		ldr	r3, [r3]
 1564 0526 0A2B     		cmp	r3, #10
 1565 0528 F2D9     		bls	.L127
 395:.\Protocolo.c **** 					    }
 396:.\Protocolo.c ****                     write_psoc1(val,10);
 1566              		.loc 1 396 0 is_stmt 1
 1567 052a 2046     		mov	r0, r4
 1568 052c 0A21     		movs	r1, #10
 1569 052e FFF7FEFF 		bl	write_psoc1
 1570              	.LVL156:
 397:.\Protocolo.c **** 					for(x=0;x<=14;x++){									
 1571              		.loc 1 397 0
 1572 0532 0022     		movs	r2, #0
 1573 0534 274B     		ldr	r3, .L594+20
 1574 0536 1A60     		str	r2, [r3]
 1575 0538 09E0     		b	.L128
 1576              	.L129:
 398:.\Protocolo.c **** 						write_psoc1(val,msn_lecact[x]);				//LECTURA ACTUAL
 1577              		.loc 1 398 0 discriminator 3
 1578 053a 274A     		ldr	r2, .L594+24
 1579 053c 1344     		add	r3, r3, r2
 1580 053e 2046     		mov	r0, r4
 1581 0540 197A     		ldrb	r1, [r3, #8]	@ zero_extendqisi2
 1582 0542 FFF7FEFF 		bl	write_psoc1
 1583              	.LVL157:
 397:.\Protocolo.c **** 					for(x=0;x<=14;x++){									
 1584              		.loc 1 397 0 discriminator 3
 1585 0546 234A     		ldr	r2, .L594+20
 1586 0548 1368     		ldr	r3, [r2]
 1587 054a 0133     		adds	r3, r3, #1
 1588 054c 1360     		str	r3, [r2]
 1589              	.L128:
 397:.\Protocolo.c **** 					for(x=0;x<=14;x++){									
 1590              		.loc 1 397 0 is_stmt 0 discriminator 1
 1591 054e 214B     		ldr	r3, .L594+20
ARM GAS  C:\Users\IN-002~1\AppData\Local\Temp\ccxO8rjh.s 			page 38


 1592 0550 1B68     		ldr	r3, [r3]
 1593 0552 0E2B     		cmp	r3, #14
 1594 0554 F1D9     		bls	.L129
 399:.\Protocolo.c **** 					}
 400:.\Protocolo.c **** 					write_psoc1(val,10);
 1595              		.loc 1 400 0 is_stmt 1
 1596 0556 2046     		mov	r0, r4
 1597 0558 0A21     		movs	r1, #10
 1598 055a FFF7FEFF 		bl	write_psoc1
 1599              	.LVL158:
 401:.\Protocolo.c **** 					print_totalesac(8,val);	
 1600              		.loc 1 401 0
 1601 055e 0820     		movs	r0, #8
 1602 0560 2146     		mov	r1, r4
 1603 0562 FFF7FEFF 		bl	print_totalesac
 1604              	.LVL159:
 402:.\Protocolo.c **** 					for(x=0;x<=16;x++){												
 1605              		.loc 1 402 0
 1606 0566 0022     		movs	r2, #0
 1607 0568 1A4B     		ldr	r3, .L594+20
 1608 056a 1A60     		str	r2, [r3]
 1609 056c 09E0     		b	.L130
 1610              	.L131:
 403:.\Protocolo.c **** 						write_psoc1(val,msn_lecaan[x]);				//LECTURA ANTERIOR
 1611              		.loc 1 403 0 discriminator 3
 1612 056e 1A4A     		ldr	r2, .L594+24
 1613 0570 1344     		add	r3, r3, r2
 1614 0572 2046     		mov	r0, r4
 1615 0574 197E     		ldrb	r1, [r3, #24]	@ zero_extendqisi2
 1616 0576 FFF7FEFF 		bl	write_psoc1
 1617              	.LVL160:
 402:.\Protocolo.c **** 					for(x=0;x<=16;x++){												
 1618              		.loc 1 402 0 discriminator 3
 1619 057a 164A     		ldr	r2, .L594+20
 1620 057c 1368     		ldr	r3, [r2]
 1621 057e 0133     		adds	r3, r3, #1
 1622 0580 1360     		str	r3, [r2]
 1623              	.L130:
 402:.\Protocolo.c **** 					for(x=0;x<=16;x++){												
 1624              		.loc 1 402 0 is_stmt 0 discriminator 1
 1625 0582 144B     		ldr	r3, .L594+20
 1626 0584 1B68     		ldr	r3, [r3]
 1627 0586 102B     		cmp	r3, #16
 1628 0588 F1D9     		bls	.L131
 404:.\Protocolo.c **** 					}
 405:.\Protocolo.c **** 					write_psoc1(val,10);
 1629              		.loc 1 405 0 is_stmt 1
 1630 058a 2046     		mov	r0, r4
 1631 058c 0A21     		movs	r1, #10
 1632 058e FFF7FEFF 		bl	write_psoc1
 1633              	.LVL161:
 406:.\Protocolo.c **** 					if(dir==lado.a.dir){
 1634              		.loc 1 406 0
 1635 0592 0E4B     		ldr	r3, .L594+12
 1636 0594 1B78     		ldrb	r3, [r3]	@ zero_extendqisi2
 1637 0596 AB42     		cmp	r3, r5
 1638 0598 05D1     		bne	.L132
ARM GAS  C:\Users\IN-002~1\AppData\Local\Temp\ccxO8rjh.s 			page 39


 407:.\Protocolo.c **** 						leer_eeprom(256,25);
 1639              		.loc 1 407 0
 1640 059a 4FF48070 		mov	r0, #256
 1641 059e 1921     		movs	r1, #25
 1642 05a0 FFF7FEFF 		bl	leer_eeprom
 1643              	.LVL162:
 1644 05a4 04E0     		b	.L133
 1645              	.L132:
 408:.\Protocolo.c **** 					}
 409:.\Protocolo.c **** 					else{
 410:.\Protocolo.c **** 						leer_eeprom(345,25);
 1646              		.loc 1 410 0
 1647 05a6 40F25910 		movw	r0, #345
 1648 05aa 1921     		movs	r1, #25
 1649 05ac FFF7FEFF 		bl	leer_eeprom
 1650              	.LVL163:
 1651              	.L133:
 411:.\Protocolo.c **** 					}
 412:.\Protocolo.c **** 					print_totales(val);
 1652              		.loc 1 412 0
 1653 05b0 2046     		mov	r0, r4
 1654 05b2 FFF7FEFF 		bl	print_totales
 1655              	.LVL164:
 413:.\Protocolo.c **** 					for(z=1;z<=8;z++){
 1656              		.loc 1 413 0
 1657 05b6 0122     		movs	r2, #1
 1658 05b8 094B     		ldr	r3, .L594+32
 1659 05ba 1A60     		str	r2, [r3]
 1660 05bc 2DE0     		b	.L134
 1661              	.L595:
 1662 05be 00BF     		.align	2
 1663              	.L594:
 1664 05c0 00000000 		.word	resultado
 1665 05c4 00000000 		.word	rventa
 1666 05c8 00000000 		.word	diesel
 1667 05cc 00000000 		.word	lado
 1668 05d0 00000000 		.word	diesel2
 1669 05d4 00000000 		.word	x
 1670 05d8 00000000 		.word	.LANCHOR1
 1671 05dc 00000000 		.word	producto2n
 1672 05e0 00000000 		.word	z
 1673 05e4 FFFFFFFF 		.word	rventa-1
 1674 05e8 00000000 		.word	buffer_i2c
 1675 05ec 00000000 		.word	extra
 1676 05f0 00000000 		.word	extra2
 1677 05f4 00000000 		.word	producto3n
 1678              	.L135:
 414:.\Protocolo.c **** 						minuendo[z]=rventa.tdinero[z-1];
 1679              		.loc 1 414 0 discriminator 3
 1680 05f8 A94A     		ldr	r2, .L596
 1681 05fa 1A44     		add	r2, r2, r3
 1682 05fc 92F8CA10 		ldrb	r1, [r2, #202]	@ zero_extendqisi2
 1683 0600 10AA     		add	r2, sp, #64
 1684 0602 1A44     		add	r2, r2, r3
 1685 0604 02F82C1C 		strb	r1, [r2, #-44]
 415:.\Protocolo.c **** 						sustraendo[z]=buffer_i2c[z+8];
 1686              		.loc 1 415 0 discriminator 3
ARM GAS  C:\Users\IN-002~1\AppData\Local\Temp\ccxO8rjh.s 			page 40


 1687 0608 03F10801 		add	r1, r3, #8
 1688 060c A548     		ldr	r0, .L596+4
 1689 060e 415C     		ldrb	r1, [r0, r1]	@ zero_extendqisi2
 1690 0610 02F83C1C 		strb	r1, [r2, #-60]
 413:.\Protocolo.c **** 					for(z=1;z<=8;z++){
 1691              		.loc 1 413 0 discriminator 3
 1692 0614 0133     		adds	r3, r3, #1
 1693 0616 A44A     		ldr	r2, .L596+8
 1694 0618 1360     		str	r3, [r2]
 1695              	.L134:
 413:.\Protocolo.c **** 					for(z=1;z<=8;z++){
 1696              		.loc 1 413 0 is_stmt 0 discriminator 1
 1697 061a A34B     		ldr	r3, .L596+8
 1698 061c 1B68     		ldr	r3, [r3]
 1699 061e 082B     		cmp	r3, #8
 1700 0620 EAD9     		bls	.L135
 416:.\Protocolo.c **** 					}
 417:.\Protocolo.c **** 					minuendo[0]=8;
 1701              		.loc 1 417 0 is_stmt 1
 1702 0622 10A9     		add	r1, sp, #64
 1703 0624 0823     		movs	r3, #8
 1704 0626 01F82C3D 		strb	r3, [r1, #-44]!
 418:.\Protocolo.c **** 					operacion(2,minuendo,sustraendo);
 1705              		.loc 1 418 0
 1706 062a 0220     		movs	r0, #2
 1707 062c 01AA     		add	r2, sp, #4
 1708 062e FFF7FEFF 		bl	operacion
 1709              	.LVL165:
 419:.\Protocolo.c **** 					for(x=0;x<=17;x++){									
 1710              		.loc 1 419 0
 1711 0632 0022     		movs	r2, #0
 1712 0634 9D4B     		ldr	r3, .L596+12
 1713 0636 1A60     		str	r2, [r3]
 1714 0638 0AE0     		b	.L136
 1715              	.L137:
 420:.\Protocolo.c **** 						write_psoc1(val,msn_tventas[x]);				//Total de ventas
 1716              		.loc 1 420 0 discriminator 3
 1717 063a 9D4A     		ldr	r2, .L596+16
 1718 063c 1344     		add	r3, r3, r2
 1719 063e 2046     		mov	r0, r4
 1720 0640 93F82C10 		ldrb	r1, [r3, #44]	@ zero_extendqisi2
 1721 0644 FFF7FEFF 		bl	write_psoc1
 1722              	.LVL166:
 419:.\Protocolo.c **** 					for(x=0;x<=17;x++){									
 1723              		.loc 1 419 0 discriminator 3
 1724 0648 984A     		ldr	r2, .L596+12
 1725 064a 1368     		ldr	r3, [r2]
 1726 064c 0133     		adds	r3, r3, #1
 1727 064e 1360     		str	r3, [r2]
 1728              	.L136:
 419:.\Protocolo.c **** 					for(x=0;x<=17;x++){									
 1729              		.loc 1 419 0 is_stmt 0 discriminator 1
 1730 0650 964B     		ldr	r3, .L596+12
 1731 0652 1B68     		ldr	r3, [r3]
 1732 0654 112B     		cmp	r3, #17
 1733 0656 F0D9     		bls	.L137
 421:.\Protocolo.c **** 					}
ARM GAS  C:\Users\IN-002~1\AppData\Local\Temp\ccxO8rjh.s 			page 41


 422:.\Protocolo.c **** 					print_valor(resultado,val);							
 1734              		.loc 1 422 0 is_stmt 1
 1735 0658 9648     		ldr	r0, .L596+20
 1736 065a 2146     		mov	r1, r4
 1737 065c FFF7FEFF 		bl	print_valor
 1738              	.LVL167:
 423:.\Protocolo.c **** 					if(dir==lado.a.dir){
 1739              		.loc 1 423 0
 1740 0660 954B     		ldr	r3, .L596+24
 1741 0662 1B78     		ldrb	r3, [r3]	@ zero_extendqisi2
 1742 0664 AB42     		cmp	r3, r5
 1743 0666 0AD1     		bne	.L138
 424:.\Protocolo.c **** 						write_eeprom(256,corte);
 1744              		.loc 1 424 0
 1745 0668 4FF48070 		mov	r0, #256
 1746 066c 09A9     		add	r1, sp, #36
 1747 066e FFF7FEFF 		bl	write_eeprom
 1748              	.LVL168:
 425:.\Protocolo.c **** 						write_eeprom(525,resultado);
 1749              		.loc 1 425 0
 1750 0672 40F20D20 		movw	r0, #525
 1751 0676 8F49     		ldr	r1, .L596+20
 1752 0678 FFF7FEFF 		bl	write_eeprom
 1753              	.LVL169:
 1754 067c 09E0     		b	.L123
 1755              	.L138:
 426:.\Protocolo.c **** 					}
 427:.\Protocolo.c **** 					else{
 428:.\Protocolo.c **** 						write_eeprom(345,corte);
 1756              		.loc 1 428 0
 1757 067e 40F25910 		movw	r0, #345
 1758 0682 09A9     		add	r1, sp, #36
 1759 0684 FFF7FEFF 		bl	write_eeprom
 1760              	.LVL170:
 429:.\Protocolo.c **** 						write_eeprom(589,resultado);
 1761              		.loc 1 429 0
 1762 0688 40F24D20 		movw	r0, #589
 1763 068c 8949     		ldr	r1, .L596+20
 1764 068e FFF7FEFF 		bl	write_eeprom
 1765              	.LVL171:
 1766              	.L123:
 430:.\Protocolo.c **** 					}					
 431:.\Protocolo.c **** 				}
 432:.\Protocolo.c ****                 
 433:.\Protocolo.c ****                 if(((rventa.manguera==(kero&0x0F))&&(dir==lado.a.dir))||((rventa.manguera==(kero2&0
 1767              		.loc 1 433 0
 1768 0692 8A4B     		ldr	r3, .L596+28
 1769 0694 93F8E020 		ldrb	r2, [r3, #224]	@ zero_extendqisi2
 1770 0698 894B     		ldr	r3, .L596+32
 1771 069a 1B78     		ldrb	r3, [r3]	@ zero_extendqisi2
 1772 069c 03F00F03 		and	r3, r3, #15
 1773 06a0 9342     		cmp	r3, r2
 1774 06a2 03D1     		bne	.L139
 1775              		.loc 1 433 0 is_stmt 0 discriminator 1
 1776 06a4 844B     		ldr	r3, .L596+24
 1777 06a6 1B78     		ldrb	r3, [r3]	@ zero_extendqisi2
 1778 06a8 AB42     		cmp	r3, r5
ARM GAS  C:\Users\IN-002~1\AppData\Local\Temp\ccxO8rjh.s 			page 42


 1779 06aa 0BD0     		beq	.L140
 1780              	.L139:
 1781              		.loc 1 433 0 discriminator 3
 1782 06ac 854B     		ldr	r3, .L596+36
 1783 06ae 1B78     		ldrb	r3, [r3]	@ zero_extendqisi2
 1784 06b0 03F00F03 		and	r3, r3, #15
 1785 06b4 9A42     		cmp	r2, r3
 1786 06b6 40F0C280 		bne	.L141
 1787              		.loc 1 433 0 discriminator 4
 1788 06ba 7F4B     		ldr	r3, .L596+24
 1789 06bc 1B79     		ldrb	r3, [r3, #4]	@ zero_extendqisi2
 1790 06be AB42     		cmp	r3, r5
 1791 06c0 40F0BD80 		bne	.L141
 1792              	.L140:
 434:.\Protocolo.c **** 					for(x=0;x<=5;x++){									
 1793              		.loc 1 434 0 is_stmt 1
 1794 06c4 0022     		movs	r2, #0
 1795 06c6 794B     		ldr	r3, .L596+12
 1796 06c8 1A60     		str	r2, [r3]
 1797 06ca 08E0     		b	.L142
 1798              	.L143:
 435:.\Protocolo.c **** 						    write_psoc1(val,msn_tc[x]);
 1799              		.loc 1 435 0 discriminator 3
 1800 06cc 2046     		mov	r0, r4
 1801 06ce 784A     		ldr	r2, .L596+16
 1802 06d0 D15C     		ldrb	r1, [r2, r3]	@ zero_extendqisi2
 1803 06d2 FFF7FEFF 		bl	write_psoc1
 1804              	.LVL172:
 434:.\Protocolo.c **** 					for(x=0;x<=5;x++){									
 1805              		.loc 1 434 0 discriminator 3
 1806 06d6 754A     		ldr	r2, .L596+12
 1807 06d8 1368     		ldr	r3, [r2]
 1808 06da 0133     		adds	r3, r3, #1
 1809 06dc 1360     		str	r3, [r2]
 1810              	.L142:
 434:.\Protocolo.c **** 					for(x=0;x<=5;x++){									
 1811              		.loc 1 434 0 is_stmt 0 discriminator 1
 1812 06de 734B     		ldr	r3, .L596+12
 1813 06e0 1B68     		ldr	r3, [r3]
 1814 06e2 052B     		cmp	r3, #5
 1815 06e4 F2D9     		bls	.L143
 436:.\Protocolo.c **** 					    }
 437:.\Protocolo.c **** 					    write_psoc1(val,10);
 1816              		.loc 1 437 0 is_stmt 1
 1817 06e6 2046     		mov	r0, r4
 1818 06e8 0A21     		movs	r1, #10
 1819 06ea FFF7FEFF 		bl	write_psoc1
 1820              	.LVL173:
 438:.\Protocolo.c ****                     for(x=0;x<=10;x++){									
 1821              		.loc 1 438 0
 1822 06ee 0022     		movs	r2, #0
 1823 06f0 6E4B     		ldr	r3, .L596+12
 1824 06f2 1A60     		str	r2, [r3]
 1825 06f4 08E0     		b	.L144
 1826              	.L145:
 439:.\Protocolo.c **** 						    write_psoc1(val,producto4n[x]);
 1827              		.loc 1 439 0 discriminator 3
ARM GAS  C:\Users\IN-002~1\AppData\Local\Temp\ccxO8rjh.s 			page 43


 1828 06f6 2046     		mov	r0, r4
 1829 06f8 734A     		ldr	r2, .L596+40
 1830 06fa D15C     		ldrb	r1, [r2, r3]	@ zero_extendqisi2
 1831 06fc FFF7FEFF 		bl	write_psoc1
 1832              	.LVL174:
 438:.\Protocolo.c ****                     for(x=0;x<=10;x++){									
 1833              		.loc 1 438 0 discriminator 3
 1834 0700 6A4A     		ldr	r2, .L596+12
 1835 0702 1368     		ldr	r3, [r2]
 1836 0704 0133     		adds	r3, r3, #1
 1837 0706 1360     		str	r3, [r2]
 1838              	.L144:
 438:.\Protocolo.c ****                     for(x=0;x<=10;x++){									
 1839              		.loc 1 438 0 is_stmt 0 discriminator 1
 1840 0708 684B     		ldr	r3, .L596+12
 1841 070a 1B68     		ldr	r3, [r3]
 1842 070c 0A2B     		cmp	r3, #10
 1843 070e F2D9     		bls	.L145
 440:.\Protocolo.c **** 					    }
 441:.\Protocolo.c ****                     write_psoc1(val,10);
 1844              		.loc 1 441 0 is_stmt 1
 1845 0710 2046     		mov	r0, r4
 1846 0712 0A21     		movs	r1, #10
 1847 0714 FFF7FEFF 		bl	write_psoc1
 1848              	.LVL175:
 442:.\Protocolo.c **** 					for(x=0;x<=14;x++){									
 1849              		.loc 1 442 0
 1850 0718 0022     		movs	r2, #0
 1851 071a 644B     		ldr	r3, .L596+12
 1852 071c 1A60     		str	r2, [r3]
 1853 071e 09E0     		b	.L146
 1854              	.L147:
 443:.\Protocolo.c **** 						write_psoc1(val,msn_lecact[x]);				//LECTURA ACTUAL
 1855              		.loc 1 443 0 discriminator 3
 1856 0720 634A     		ldr	r2, .L596+16
 1857 0722 1344     		add	r3, r3, r2
 1858 0724 2046     		mov	r0, r4
 1859 0726 197A     		ldrb	r1, [r3, #8]	@ zero_extendqisi2
 1860 0728 FFF7FEFF 		bl	write_psoc1
 1861              	.LVL176:
 442:.\Protocolo.c **** 					for(x=0;x<=14;x++){									
 1862              		.loc 1 442 0 discriminator 3
 1863 072c 5F4A     		ldr	r2, .L596+12
 1864 072e 1368     		ldr	r3, [r2]
 1865 0730 0133     		adds	r3, r3, #1
 1866 0732 1360     		str	r3, [r2]
 1867              	.L146:
 442:.\Protocolo.c **** 					for(x=0;x<=14;x++){									
 1868              		.loc 1 442 0 is_stmt 0 discriminator 1
 1869 0734 5D4B     		ldr	r3, .L596+12
 1870 0736 1B68     		ldr	r3, [r3]
 1871 0738 0E2B     		cmp	r3, #14
 1872 073a F1D9     		bls	.L147
 444:.\Protocolo.c **** 					}
 445:.\Protocolo.c **** 					write_psoc1(val,10);
 1873              		.loc 1 445 0 is_stmt 1
 1874 073c 2046     		mov	r0, r4
ARM GAS  C:\Users\IN-002~1\AppData\Local\Temp\ccxO8rjh.s 			page 44


 1875 073e 0A21     		movs	r1, #10
 1876 0740 FFF7FEFF 		bl	write_psoc1
 1877              	.LVL177:
 446:.\Protocolo.c **** 					print_totalesac(8,val);	
 1878              		.loc 1 446 0
 1879 0744 0820     		movs	r0, #8
 1880 0746 2146     		mov	r1, r4
 1881 0748 FFF7FEFF 		bl	print_totalesac
 1882              	.LVL178:
 447:.\Protocolo.c **** 					for(x=0;x<=16;x++){												
 1883              		.loc 1 447 0
 1884 074c 0022     		movs	r2, #0
 1885 074e 574B     		ldr	r3, .L596+12
 1886 0750 1A60     		str	r2, [r3]
 1887 0752 09E0     		b	.L148
 1888              	.L149:
 448:.\Protocolo.c **** 						write_psoc1(val,msn_lecaan[x]);				//LECTURA ANTERIOR
 1889              		.loc 1 448 0 discriminator 3
 1890 0754 564A     		ldr	r2, .L596+16
 1891 0756 1344     		add	r3, r3, r2
 1892 0758 2046     		mov	r0, r4
 1893 075a 197E     		ldrb	r1, [r3, #24]	@ zero_extendqisi2
 1894 075c FFF7FEFF 		bl	write_psoc1
 1895              	.LVL179:
 447:.\Protocolo.c **** 					for(x=0;x<=16;x++){												
 1896              		.loc 1 447 0 discriminator 3
 1897 0760 524A     		ldr	r2, .L596+12
 1898 0762 1368     		ldr	r3, [r2]
 1899 0764 0133     		adds	r3, r3, #1
 1900 0766 1360     		str	r3, [r2]
 1901              	.L148:
 447:.\Protocolo.c **** 					for(x=0;x<=16;x++){												
 1902              		.loc 1 447 0 is_stmt 0 discriminator 1
 1903 0768 504B     		ldr	r3, .L596+12
 1904 076a 1B68     		ldr	r3, [r3]
 1905 076c 102B     		cmp	r3, #16
 1906 076e F1D9     		bls	.L149
 449:.\Protocolo.c **** 					}
 450:.\Protocolo.c **** 					write_psoc1(val,10);
 1907              		.loc 1 450 0 is_stmt 1
 1908 0770 2046     		mov	r0, r4
 1909 0772 0A21     		movs	r1, #10
 1910 0774 FFF7FEFF 		bl	write_psoc1
 1911              	.LVL180:
 451:.\Protocolo.c **** 					if(dir==lado.a.dir){
 1912              		.loc 1 451 0
 1913 0778 4F4B     		ldr	r3, .L596+24
 1914 077a 1B78     		ldrb	r3, [r3]	@ zero_extendqisi2
 1915 077c AB42     		cmp	r3, r5
 1916 077e 05D1     		bne	.L150
 452:.\Protocolo.c **** 						leer_eeprom(1096,25);
 1917              		.loc 1 452 0
 1918 0780 4FF48960 		mov	r0, #1096
 1919 0784 1921     		movs	r1, #25
 1920 0786 FFF7FEFF 		bl	leer_eeprom
 1921              	.LVL181:
 1922 078a 04E0     		b	.L151
ARM GAS  C:\Users\IN-002~1\AppData\Local\Temp\ccxO8rjh.s 			page 45


 1923              	.L150:
 453:.\Protocolo.c **** 					}
 454:.\Protocolo.c **** 					else{
 455:.\Protocolo.c **** 						leer_eeprom(1054,25);
 1924              		.loc 1 455 0
 1925 078c 40F21E40 		movw	r0, #1054
 1926 0790 1921     		movs	r1, #25
 1927 0792 FFF7FEFF 		bl	leer_eeprom
 1928              	.LVL182:
 1929              	.L151:
 456:.\Protocolo.c **** 					}
 457:.\Protocolo.c **** 					print_totales(val);
 1930              		.loc 1 457 0
 1931 0796 2046     		mov	r0, r4
 1932 0798 FFF7FEFF 		bl	print_totales
 1933              	.LVL183:
 458:.\Protocolo.c **** 					for(z=1;z<=8;z++){
 1934              		.loc 1 458 0
 1935 079c 0122     		movs	r2, #1
 1936 079e 424B     		ldr	r3, .L596+8
 1937 07a0 1A60     		str	r2, [r3]
 1938 07a2 10E0     		b	.L152
 1939              	.L153:
 459:.\Protocolo.c **** 						minuendo[z]=rventa.tdinero[z-1];
 1940              		.loc 1 459 0 discriminator 3
 1941 07a4 3E4A     		ldr	r2, .L596
 1942 07a6 1A44     		add	r2, r2, r3
 1943 07a8 92F8CA10 		ldrb	r1, [r2, #202]	@ zero_extendqisi2
 1944 07ac 10AA     		add	r2, sp, #64
 1945 07ae 1A44     		add	r2, r2, r3
 1946 07b0 02F82C1C 		strb	r1, [r2, #-44]
 460:.\Protocolo.c **** 						sustraendo[z]=buffer_i2c[z+8];
 1947              		.loc 1 460 0 discriminator 3
 1948 07b4 03F10801 		add	r1, r3, #8
 1949 07b8 3A48     		ldr	r0, .L596+4
 1950 07ba 415C     		ldrb	r1, [r0, r1]	@ zero_extendqisi2
 1951 07bc 02F83C1C 		strb	r1, [r2, #-60]
 458:.\Protocolo.c **** 					for(z=1;z<=8;z++){
 1952              		.loc 1 458 0 discriminator 3
 1953 07c0 0133     		adds	r3, r3, #1
 1954 07c2 394A     		ldr	r2, .L596+8
 1955 07c4 1360     		str	r3, [r2]
 1956              	.L152:
 458:.\Protocolo.c **** 					for(z=1;z<=8;z++){
 1957              		.loc 1 458 0 is_stmt 0 discriminator 1
 1958 07c6 384B     		ldr	r3, .L596+8
 1959 07c8 1B68     		ldr	r3, [r3]
 1960 07ca 082B     		cmp	r3, #8
 1961 07cc EAD9     		bls	.L153
 461:.\Protocolo.c **** 					}
 462:.\Protocolo.c **** 					minuendo[0]=8;
 1962              		.loc 1 462 0 is_stmt 1
 1963 07ce 10A9     		add	r1, sp, #64
 1964 07d0 0823     		movs	r3, #8
 1965 07d2 01F82C3D 		strb	r3, [r1, #-44]!
 463:.\Protocolo.c **** 					operacion(2,minuendo,sustraendo);
 1966              		.loc 1 463 0
ARM GAS  C:\Users\IN-002~1\AppData\Local\Temp\ccxO8rjh.s 			page 46


 1967 07d6 0220     		movs	r0, #2
 1968 07d8 01AA     		add	r2, sp, #4
 1969 07da FFF7FEFF 		bl	operacion
 1970              	.LVL184:
 464:.\Protocolo.c **** 					for(x=0;x<=17;x++){									
 1971              		.loc 1 464 0
 1972 07de 0022     		movs	r2, #0
 1973 07e0 324B     		ldr	r3, .L596+12
 1974 07e2 1A60     		str	r2, [r3]
 1975 07e4 0AE0     		b	.L154
 1976              	.L155:
 465:.\Protocolo.c **** 						write_psoc1(val,msn_tventas[x]);				//Total de ventas
 1977              		.loc 1 465 0 discriminator 3
 1978 07e6 324A     		ldr	r2, .L596+16
 1979 07e8 1344     		add	r3, r3, r2
 1980 07ea 2046     		mov	r0, r4
 1981 07ec 93F82C10 		ldrb	r1, [r3, #44]	@ zero_extendqisi2
 1982 07f0 FFF7FEFF 		bl	write_psoc1
 1983              	.LVL185:
 464:.\Protocolo.c **** 					for(x=0;x<=17;x++){									
 1984              		.loc 1 464 0 discriminator 3
 1985 07f4 2D4A     		ldr	r2, .L596+12
 1986 07f6 1368     		ldr	r3, [r2]
 1987 07f8 0133     		adds	r3, r3, #1
 1988 07fa 1360     		str	r3, [r2]
 1989              	.L154:
 464:.\Protocolo.c **** 					for(x=0;x<=17;x++){									
 1990              		.loc 1 464 0 is_stmt 0 discriminator 1
 1991 07fc 2B4B     		ldr	r3, .L596+12
 1992 07fe 1B68     		ldr	r3, [r3]
 1993 0800 112B     		cmp	r3, #17
 1994 0802 F0D9     		bls	.L155
 466:.\Protocolo.c **** 					}
 467:.\Protocolo.c **** 					print_valor(resultado,val);							
 1995              		.loc 1 467 0 is_stmt 1
 1996 0804 2B48     		ldr	r0, .L596+20
 1997 0806 2146     		mov	r1, r4
 1998 0808 FFF7FEFF 		bl	print_valor
 1999              	.LVL186:
 468:.\Protocolo.c **** 					if(dir==lado.a.dir){
 2000              		.loc 1 468 0
 2001 080c 2A4B     		ldr	r3, .L596+24
 2002 080e 1B78     		ldrb	r3, [r3]	@ zero_extendqisi2
 2003 0810 AB42     		cmp	r3, r5
 2004 0812 0AD1     		bne	.L156
 469:.\Protocolo.c **** 						write_eeprom(1096,corte);
 2005              		.loc 1 469 0
 2006 0814 4FF48960 		mov	r0, #1096
 2007 0818 09A9     		add	r1, sp, #36
 2008 081a FFF7FEFF 		bl	write_eeprom
 2009              	.LVL187:
 470:.\Protocolo.c **** 						write_eeprom(1038,resultado);
 2010              		.loc 1 470 0
 2011 081e 40F20E40 		movw	r0, #1038
 2012 0822 2449     		ldr	r1, .L596+20
 2013 0824 FFF7FEFF 		bl	write_eeprom
 2014              	.LVL188:
ARM GAS  C:\Users\IN-002~1\AppData\Local\Temp\ccxO8rjh.s 			page 47


 2015 0828 09E0     		b	.L141
 2016              	.L156:
 471:.\Protocolo.c **** 					}
 472:.\Protocolo.c **** 					else{
 473:.\Protocolo.c **** 						write_eeprom(1054,corte);
 2017              		.loc 1 473 0
 2018 082a 40F21E40 		movw	r0, #1054
 2019 082e 09A9     		add	r1, sp, #36
 2020 0830 FFF7FEFF 		bl	write_eeprom
 2021              	.LVL189:
 474:.\Protocolo.c **** 						write_eeprom(1081,resultado);
 2022              		.loc 1 474 0
 2023 0834 40F23940 		movw	r0, #1081
 2024 0838 1E49     		ldr	r1, .L596+20
 2025 083a FFF7FEFF 		bl	write_eeprom
 2026              	.LVL190:
 2027              	.L141:
 475:.\Protocolo.c **** 					}					
 476:.\Protocolo.c **** 				}
 477:.\Protocolo.c **** 				
 478:.\Protocolo.c **** 				Surtidor_ClearRxBuffer();
 2028              		.loc 1 478 0
 2029 083e FFF7FEFF 		bl	Surtidor_ClearRxBuffer
 2030              	.LVL191:
 479:.\Protocolo.c **** 				return 1;
 2031              		.loc 1 479 0
 2032 0842 0120     		movs	r0, #1
 2033 0844 02F004BD 		b	.L76
 2034              	.L69:
 480:.\Protocolo.c **** 			}
 481:.\Protocolo.c **** 			else{
 482:.\Protocolo.c **** 				return 0;
 483:.\Protocolo.c **** 			}
 484:.\Protocolo.c **** 		break;
 485:.\Protocolo.c **** 
 486:.\Protocolo.c **** 		case 64:
 487:.\Protocolo.c **** 			if((Surtidor_rxBuffer[0]==0xFF)&&(Surtidor_rxBuffer[1]==0xF6)&&(Surtidor_rxBuffer[63]==0xF0)&&(S
 2035              		.loc 1 487 0
 2036 0848 204B     		ldr	r3, .L596+44
 2037 084a 1B78     		ldrb	r3, [r3]	@ zero_extendqisi2
 2038 084c DBB2     		uxtb	r3, r3
 2039 084e FF2B     		cmp	r3, #255
 2040 0850 42F0D784 		bne	.L571
 2041              		.loc 1 487 0 is_stmt 0 discriminator 1
 2042 0854 1D4B     		ldr	r3, .L596+44
 2043 0856 5B78     		ldrb	r3, [r3, #1]	@ zero_extendqisi2
 2044 0858 DBB2     		uxtb	r3, r3
 2045 085a F62B     		cmp	r3, #246
 2046 085c 42F0D384 		bne	.L572
 2047              		.loc 1 487 0 discriminator 2
 2048 0860 1A4B     		ldr	r3, .L596+44
 2049 0862 93F83F30 		ldrb	r3, [r3, #63]	@ zero_extendqisi2
 2050 0866 DBB2     		uxtb	r3, r3
 2051 0868 F02B     		cmp	r3, #240
 2052 086a 42F0CE84 		bne	.L573
 2053              		.loc 1 487 0 discriminator 3
 2054 086e 174B     		ldr	r3, .L596+44
ARM GAS  C:\Users\IN-002~1\AppData\Local\Temp\ccxO8rjh.s 			page 48


 2055 0870 DB78     		ldrb	r3, [r3, #3]	@ zero_extendqisi2
 2056 0872 DBB2     		uxtb	r3, r3
 2057 0874 F92B     		cmp	r3, #249
 2058 0876 42F0CA84 		bne	.L574
 488:.\Protocolo.c **** 				for(y=0;y<=30;y+=30){
 2059              		.loc 1 488 0 is_stmt 1
 2060 087a 0022     		movs	r2, #0
 2061 087c 144B     		ldr	r3, .L596+48
 2062 087e 1A60     		str	r2, [r3]
 2063 0880 00F002BC 		b	.L157
 2064              	.L238:
 489:.\Protocolo.c **** 					rventa.manguera=(Surtidor_rxBuffer[y+2]&0x0F)+1;
 2065              		.loc 1 489 0
 2066 0884 B31C     		adds	r3, r6, #2
 2067 0886 114A     		ldr	r2, .L596+44
 2068 0888 D15C     		ldrb	r1, [r2, r3]	@ zero_extendqisi2
 2069 088a 01F00F01 		and	r1, r1, #15
 2070 088e 0131     		adds	r1, r1, #1
 2071 0890 0A4B     		ldr	r3, .L596+28
 2072 0892 83F8E010 		strb	r1, [r3, #224]
 490:.\Protocolo.c **** 					for(x=0;x<=7;x++){
 2073              		.loc 1 490 0
 2074 0896 0022     		movs	r2, #0
 2075 0898 044B     		ldr	r3, .L596+12
 2076 089a 1A60     		str	r2, [r3]
 2077 089c 27E0     		b	.L158
 2078              	.L597:
 2079 089e 00BF     		.align	2
 2080              	.L596:
 2081 08a0 FFFFFFFF 		.word	rventa-1
 2082 08a4 00000000 		.word	buffer_i2c
 2083 08a8 00000000 		.word	z
 2084 08ac 00000000 		.word	x
 2085 08b0 00000000 		.word	.LANCHOR1
 2086 08b4 00000000 		.word	resultado
 2087 08b8 00000000 		.word	lado
 2088 08bc 00000000 		.word	rventa
 2089 08c0 00000000 		.word	kero
 2090 08c4 00000000 		.word	kero2
 2091 08c8 00000000 		.word	producto4n
 2092 08cc 00000000 		.word	Surtidor_rxBuffer
 2093 08d0 00000000 		.word	y
 2094              	.L159:
 491:.\Protocolo.c **** 						rventa.tvolumen[x]=(Surtidor_rxBuffer[y+4+x]&0x0F);
 2095              		.loc 1 491 0 discriminator 3
 2096 08d4 F218     		adds	r2, r6, r3
 2097 08d6 0432     		adds	r2, r2, #4
 2098 08d8 A748     		ldr	r0, .L598
 2099 08da 805C     		ldrb	r0, [r0, r2]	@ zero_extendqisi2
 2100 08dc A74A     		ldr	r2, .L598+4
 2101 08de 1A44     		add	r2, r2, r3
 2102 08e0 00F00F00 		and	r0, r0, #15
 2103 08e4 82F8BD00 		strb	r0, [r2, #189]
 490:.\Protocolo.c **** 					for(x=0;x<=7;x++){
 2104              		.loc 1 490 0 discriminator 3
 2105 08e8 0133     		adds	r3, r3, #1
 2106 08ea A54A     		ldr	r2, .L598+8
ARM GAS  C:\Users\IN-002~1\AppData\Local\Temp\ccxO8rjh.s 			page 49


 2107 08ec 1360     		str	r3, [r2]
 2108              	.L158:
 490:.\Protocolo.c **** 					for(x=0;x<=7;x++){
 2109              		.loc 1 490 0 is_stmt 0 discriminator 1
 2110 08ee A44B     		ldr	r3, .L598+8
 2111 08f0 1B68     		ldr	r3, [r3]
 2112 08f2 072B     		cmp	r3, #7
 2113 08f4 EED9     		bls	.L159
 492:.\Protocolo.c **** 					}
 493:.\Protocolo.c **** 					for(x=0;x<=7;x++){
 2114              		.loc 1 493 0 is_stmt 1
 2115 08f6 0022     		movs	r2, #0
 2116 08f8 A14B     		ldr	r3, .L598+8
 2117 08fa 1A60     		str	r2, [r3]
 2118 08fc 0CE0     		b	.L160
 2119              	.L161:
 494:.\Protocolo.c **** 						rventa.tdinero[x]=(Surtidor_rxBuffer[y+13+x]&0x0F);
 2120              		.loc 1 494 0 discriminator 3
 2121 08fe F218     		adds	r2, r6, r3
 2122 0900 0D32     		adds	r2, r2, #13
 2123 0902 9D48     		ldr	r0, .L598
 2124 0904 805C     		ldrb	r0, [r0, r2]	@ zero_extendqisi2
 2125 0906 9D4A     		ldr	r2, .L598+4
 2126 0908 1A44     		add	r2, r2, r3
 2127 090a 00F00F00 		and	r0, r0, #15
 2128 090e 82F8CA00 		strb	r0, [r2, #202]
 493:.\Protocolo.c **** 						rventa.tdinero[x]=(Surtidor_rxBuffer[y+13+x]&0x0F);
 2129              		.loc 1 493 0 discriminator 3
 2130 0912 0133     		adds	r3, r3, #1
 2131 0914 9A4A     		ldr	r2, .L598+8
 2132 0916 1360     		str	r3, [r2]
 2133              	.L160:
 493:.\Protocolo.c **** 						rventa.tdinero[x]=(Surtidor_rxBuffer[y+13+x]&0x0F);
 2134              		.loc 1 493 0 is_stmt 0 discriminator 1
 2135 0918 994B     		ldr	r3, .L598+8
 2136 091a 1B68     		ldr	r3, [r3]
 2137 091c 072B     		cmp	r3, #7
 2138 091e EED9     		bls	.L161
 495:.\Protocolo.c ****                         
 496:.\Protocolo.c **** 					}
 497:.\Protocolo.c **** 					for(z=0;z<=7;z++){
 2139              		.loc 1 497 0 is_stmt 1
 2140 0920 0022     		movs	r2, #0
 2141 0922 984B     		ldr	r3, .L598+12
 2142 0924 1A60     		str	r2, [r3]
 2143 0926 0AE0     		b	.L162
 2144              	.L163:
 498:.\Protocolo.c **** 						corte[z+1]=rventa.tvolumen[z];
 2145              		.loc 1 498 0 discriminator 3
 2146 0928 5A1C     		adds	r2, r3, #1
 2147 092a 9448     		ldr	r0, .L598+4
 2148 092c 0344     		add	r3, r3, r0
 2149 092e 93F8BD00 		ldrb	r0, [r3, #189]	@ zero_extendqisi2
 2150 0932 10AB     		add	r3, sp, #64
 2151 0934 1344     		add	r3, r3, r2
 2152 0936 03F81C0C 		strb	r0, [r3, #-28]
 497:.\Protocolo.c **** 						corte[z+1]=rventa.tvolumen[z];
ARM GAS  C:\Users\IN-002~1\AppData\Local\Temp\ccxO8rjh.s 			page 50


 2153              		.loc 1 497 0 discriminator 3
 2154 093a 924B     		ldr	r3, .L598+12
 2155 093c 1A60     		str	r2, [r3]
 2156              	.L162:
 497:.\Protocolo.c **** 						corte[z+1]=rventa.tvolumen[z];
 2157              		.loc 1 497 0 is_stmt 0 discriminator 1
 2158 093e 914B     		ldr	r3, .L598+12
 2159 0940 1B68     		ldr	r3, [r3]
 2160 0942 072B     		cmp	r3, #7
 2161 0944 F0D9     		bls	.L163
 499:.\Protocolo.c **** 					}
 500:.\Protocolo.c **** 					for(z=9;z<=16;z++){
 2162              		.loc 1 500 0 is_stmt 1
 2163 0946 0922     		movs	r2, #9
 2164 0948 8E4B     		ldr	r3, .L598+12
 2165 094a 1A60     		str	r2, [r3]
 2166 094c 0AE0     		b	.L164
 2167              	.L165:
 501:.\Protocolo.c **** 						corte[z]=rventa.tdinero[z-9];
 2168              		.loc 1 501 0 discriminator 3
 2169 094e 8E4A     		ldr	r2, .L598+16
 2170 0950 1A44     		add	r2, r2, r3
 2171 0952 92F8CA00 		ldrb	r0, [r2, #202]	@ zero_extendqisi2
 2172 0956 10AA     		add	r2, sp, #64
 2173 0958 1A44     		add	r2, r2, r3
 2174 095a 02F81C0C 		strb	r0, [r2, #-28]
 500:.\Protocolo.c **** 						corte[z]=rventa.tdinero[z-9];
 2175              		.loc 1 500 0 discriminator 3
 2176 095e 0133     		adds	r3, r3, #1
 2177 0960 884A     		ldr	r2, .L598+12
 2178 0962 1360     		str	r3, [r2]
 2179              	.L164:
 500:.\Protocolo.c **** 						corte[z]=rventa.tdinero[z-9];
 2180              		.loc 1 500 0 is_stmt 0 discriminator 1
 2181 0964 874B     		ldr	r3, .L598+12
 2182 0966 1B68     		ldr	r3, [r3]
 2183 0968 102B     		cmp	r3, #16
 2184 096a F0D9     		bls	.L165
 502:.\Protocolo.c **** 					}
 503:.\Protocolo.c **** 					corte[0]=16;							
 2185              		.loc 1 503 0 is_stmt 1
 2186 096c 1023     		movs	r3, #16
 2187 096e 8DF82430 		strb	r3, [sp, #36]
 504:.\Protocolo.c **** 					if(((rventa.manguera==(corriente&0x0F))&&(dir==lado.a.dir))||((rventa.manguera==(corriente2&0x
 2188              		.loc 1 504 0
 2189 0972 864B     		ldr	r3, .L598+20
 2190 0974 1B78     		ldrb	r3, [r3]	@ zero_extendqisi2
 2191 0976 03F00F03 		and	r3, r3, #15
 2192 097a 8B42     		cmp	r3, r1
 2193 097c 03D1     		bne	.L166
 2194              		.loc 1 504 0 is_stmt 0 discriminator 1
 2195 097e 844B     		ldr	r3, .L598+24
 2196 0980 1B78     		ldrb	r3, [r3]	@ zero_extendqisi2
 2197 0982 AB42     		cmp	r3, r5
 2198 0984 0BD0     		beq	.L167
 2199              	.L166:
 2200              		.loc 1 504 0 discriminator 3
ARM GAS  C:\Users\IN-002~1\AppData\Local\Temp\ccxO8rjh.s 			page 51


 2201 0986 834B     		ldr	r3, .L598+28
 2202 0988 1B78     		ldrb	r3, [r3]	@ zero_extendqisi2
 2203 098a 03F00F03 		and	r3, r3, #15
 2204 098e 9942     		cmp	r1, r3
 2205 0990 40F0C080 		bne	.L168
 2206              		.loc 1 504 0 discriminator 4
 2207 0994 7E4B     		ldr	r3, .L598+24
 2208 0996 1B79     		ldrb	r3, [r3, #4]	@ zero_extendqisi2
 2209 0998 AB42     		cmp	r3, r5
 2210 099a 40F0BB80 		bne	.L168
 2211              	.L167:
 505:.\Protocolo.c **** 						for(x=0;x<=5;x++){									
 2212              		.loc 1 505 0 is_stmt 1
 2213 099e 0022     		movs	r2, #0
 2214 09a0 774B     		ldr	r3, .L598+8
 2215 09a2 1A60     		str	r2, [r3]
 2216 09a4 08E0     		b	.L169
 2217              	.L170:
 506:.\Protocolo.c **** 							write_psoc1(val,msn_tc[x]);
 2218              		.loc 1 506 0 discriminator 3
 2219 09a6 2046     		mov	r0, r4
 2220 09a8 7B4A     		ldr	r2, .L598+32
 2221 09aa D15C     		ldrb	r1, [r2, r3]	@ zero_extendqisi2
 2222 09ac FFF7FEFF 		bl	write_psoc1
 2223              	.LVL192:
 505:.\Protocolo.c **** 						for(x=0;x<=5;x++){									
 2224              		.loc 1 505 0 discriminator 3
 2225 09b0 734A     		ldr	r2, .L598+8
 2226 09b2 1368     		ldr	r3, [r2]
 2227 09b4 0133     		adds	r3, r3, #1
 2228 09b6 1360     		str	r3, [r2]
 2229              	.L169:
 505:.\Protocolo.c **** 						for(x=0;x<=5;x++){									
 2230              		.loc 1 505 0 is_stmt 0 discriminator 1
 2231 09b8 714B     		ldr	r3, .L598+8
 2232 09ba 1B68     		ldr	r3, [r3]
 2233 09bc 052B     		cmp	r3, #5
 2234 09be F2D9     		bls	.L170
 507:.\Protocolo.c **** 						}
 508:.\Protocolo.c **** 						write_psoc1(val,10);
 2235              		.loc 1 508 0 is_stmt 1
 2236 09c0 2046     		mov	r0, r4
 2237 09c2 0A21     		movs	r1, #10
 2238 09c4 FFF7FEFF 		bl	write_psoc1
 2239              	.LVL193:
 509:.\Protocolo.c ****                         for(x=0;x<=10;x++){									
 2240              		.loc 1 509 0
 2241 09c8 0022     		movs	r2, #0
 2242 09ca 6D4B     		ldr	r3, .L598+8
 2243 09cc 1A60     		str	r2, [r3]
 2244 09ce 08E0     		b	.L171
 2245              	.L172:
 510:.\Protocolo.c **** 						write_psoc1(val,producto1n[x]);
 2246              		.loc 1 510 0 discriminator 3
 2247 09d0 2046     		mov	r0, r4
 2248 09d2 724A     		ldr	r2, .L598+36
 2249 09d4 D15C     		ldrb	r1, [r2, r3]	@ zero_extendqisi2
ARM GAS  C:\Users\IN-002~1\AppData\Local\Temp\ccxO8rjh.s 			page 52


 2250 09d6 FFF7FEFF 		bl	write_psoc1
 2251              	.LVL194:
 509:.\Protocolo.c ****                         for(x=0;x<=10;x++){									
 2252              		.loc 1 509 0 discriminator 3
 2253 09da 694A     		ldr	r2, .L598+8
 2254 09dc 1368     		ldr	r3, [r2]
 2255 09de 0133     		adds	r3, r3, #1
 2256 09e0 1360     		str	r3, [r2]
 2257              	.L171:
 509:.\Protocolo.c ****                         for(x=0;x<=10;x++){									
 2258              		.loc 1 509 0 is_stmt 0 discriminator 1
 2259 09e2 674B     		ldr	r3, .L598+8
 2260 09e4 1B68     		ldr	r3, [r3]
 2261 09e6 0A2B     		cmp	r3, #10
 2262 09e8 F2D9     		bls	.L172
 511:.\Protocolo.c **** 					    }
 512:.\Protocolo.c ****                         write_psoc1(val,10);
 2263              		.loc 1 512 0 is_stmt 1
 2264 09ea 2046     		mov	r0, r4
 2265 09ec 0A21     		movs	r1, #10
 2266 09ee FFF7FEFF 		bl	write_psoc1
 2267              	.LVL195:
 513:.\Protocolo.c **** 						for(x=0;x<=14;x++){									
 2268              		.loc 1 513 0
 2269 09f2 0022     		movs	r2, #0
 2270 09f4 624B     		ldr	r3, .L598+8
 2271 09f6 1A60     		str	r2, [r3]
 2272 09f8 09E0     		b	.L173
 2273              	.L174:
 514:.\Protocolo.c **** 							write_psoc1(val,msn_lecact[x]);				//LECTURA ACTUAL
 2274              		.loc 1 514 0 discriminator 3
 2275 09fa 674A     		ldr	r2, .L598+32
 2276 09fc 1344     		add	r3, r3, r2
 2277 09fe 2046     		mov	r0, r4
 2278 0a00 197A     		ldrb	r1, [r3, #8]	@ zero_extendqisi2
 2279 0a02 FFF7FEFF 		bl	write_psoc1
 2280              	.LVL196:
 513:.\Protocolo.c **** 						for(x=0;x<=14;x++){									
 2281              		.loc 1 513 0 discriminator 3
 2282 0a06 5E4A     		ldr	r2, .L598+8
 2283 0a08 1368     		ldr	r3, [r2]
 2284 0a0a 0133     		adds	r3, r3, #1
 2285 0a0c 1360     		str	r3, [r2]
 2286              	.L173:
 513:.\Protocolo.c **** 						for(x=0;x<=14;x++){									
 2287              		.loc 1 513 0 is_stmt 0 discriminator 1
 2288 0a0e 5C4B     		ldr	r3, .L598+8
 2289 0a10 1B68     		ldr	r3, [r3]
 2290 0a12 0E2B     		cmp	r3, #14
 2291 0a14 F1D9     		bls	.L174
 515:.\Protocolo.c **** 						}
 516:.\Protocolo.c **** 						write_psoc1(val,10);
 2292              		.loc 1 516 0 is_stmt 1
 2293 0a16 2046     		mov	r0, r4
 2294 0a18 0A21     		movs	r1, #10
 2295 0a1a FFF7FEFF 		bl	write_psoc1
 2296              	.LVL197:
ARM GAS  C:\Users\IN-002~1\AppData\Local\Temp\ccxO8rjh.s 			page 53


 517:.\Protocolo.c **** 						print_totalesac(8,val);	
 2297              		.loc 1 517 0
 2298 0a1e 0820     		movs	r0, #8
 2299 0a20 2146     		mov	r1, r4
 2300 0a22 FFF7FEFF 		bl	print_totalesac
 2301              	.LVL198:
 518:.\Protocolo.c **** 						for(x=0;x<=16;x++){												
 2302              		.loc 1 518 0
 2303 0a26 0022     		movs	r2, #0
 2304 0a28 554B     		ldr	r3, .L598+8
 2305 0a2a 1A60     		str	r2, [r3]
 2306 0a2c 09E0     		b	.L175
 2307              	.L176:
 519:.\Protocolo.c **** 							write_psoc1(val,msn_lecaan[x]);				//LECTURA ANTERIOR
 2308              		.loc 1 519 0 discriminator 3
 2309 0a2e 5A4A     		ldr	r2, .L598+32
 2310 0a30 1344     		add	r3, r3, r2
 2311 0a32 2046     		mov	r0, r4
 2312 0a34 197E     		ldrb	r1, [r3, #24]	@ zero_extendqisi2
 2313 0a36 FFF7FEFF 		bl	write_psoc1
 2314              	.LVL199:
 518:.\Protocolo.c **** 						for(x=0;x<=16;x++){												
 2315              		.loc 1 518 0 discriminator 3
 2316 0a3a 514A     		ldr	r2, .L598+8
 2317 0a3c 1368     		ldr	r3, [r2]
 2318 0a3e 0133     		adds	r3, r3, #1
 2319 0a40 1360     		str	r3, [r2]
 2320              	.L175:
 518:.\Protocolo.c **** 						for(x=0;x<=16;x++){												
 2321              		.loc 1 518 0 is_stmt 0 discriminator 1
 2322 0a42 4F4B     		ldr	r3, .L598+8
 2323 0a44 1B68     		ldr	r3, [r3]
 2324 0a46 102B     		cmp	r3, #16
 2325 0a48 F1D9     		bls	.L176
 520:.\Protocolo.c **** 						}
 521:.\Protocolo.c **** 						write_psoc1(val,10);
 2326              		.loc 1 521 0 is_stmt 1
 2327 0a4a 2046     		mov	r0, r4
 2328 0a4c 0A21     		movs	r1, #10
 2329 0a4e FFF7FEFF 		bl	write_psoc1
 2330              	.LVL200:
 522:.\Protocolo.c **** 						if(dir==lado.a.dir){
 2331              		.loc 1 522 0
 2332 0a52 4F4B     		ldr	r3, .L598+24
 2333 0a54 1B78     		ldrb	r3, [r3]	@ zero_extendqisi2
 2334 0a56 AB42     		cmp	r3, r5
 2335 0a58 04D1     		bne	.L177
 523:.\Protocolo.c **** 							leer_eeprom(192,25);
 2336              		.loc 1 523 0
 2337 0a5a C020     		movs	r0, #192
 2338 0a5c 1921     		movs	r1, #25
 2339 0a5e FFF7FEFF 		bl	leer_eeprom
 2340              	.LVL201:
 2341 0a62 04E0     		b	.L178
 2342              	.L177:
 524:.\Protocolo.c **** 						}
 525:.\Protocolo.c **** 						else{
ARM GAS  C:\Users\IN-002~1\AppData\Local\Temp\ccxO8rjh.s 			page 54


 526:.\Protocolo.c **** 							leer_eeprom(281,25);
 2343              		.loc 1 526 0
 2344 0a64 40F21910 		movw	r0, #281
 2345 0a68 1921     		movs	r1, #25
 2346 0a6a FFF7FEFF 		bl	leer_eeprom
 2347              	.LVL202:
 2348              	.L178:
 527:.\Protocolo.c **** 						}
 528:.\Protocolo.c **** 						print_totales(val);
 2349              		.loc 1 528 0
 2350 0a6e 2046     		mov	r0, r4
 2351 0a70 FFF7FEFF 		bl	print_totales
 2352              	.LVL203:
 529:.\Protocolo.c **** 						for(z=1;z<=8;z++){
 2353              		.loc 1 529 0
 2354 0a74 0122     		movs	r2, #1
 2355 0a76 434B     		ldr	r3, .L598+12
 2356 0a78 1A60     		str	r2, [r3]
 2357 0a7a 10E0     		b	.L179
 2358              	.L180:
 530:.\Protocolo.c **** 							minuendo[z]=rventa.tdinero[z-1];
 2359              		.loc 1 530 0 discriminator 3
 2360 0a7c 484A     		ldr	r2, .L598+40
 2361 0a7e 1A44     		add	r2, r2, r3
 2362 0a80 92F8CA10 		ldrb	r1, [r2, #202]	@ zero_extendqisi2
 2363 0a84 10AA     		add	r2, sp, #64
 2364 0a86 1A44     		add	r2, r2, r3
 2365 0a88 02F82C1C 		strb	r1, [r2, #-44]
 531:.\Protocolo.c **** 							sustraendo[z]=buffer_i2c[z+8];
 2366              		.loc 1 531 0 discriminator 3
 2367 0a8c 03F10801 		add	r1, r3, #8
 2368 0a90 4448     		ldr	r0, .L598+44
 2369 0a92 415C     		ldrb	r1, [r0, r1]	@ zero_extendqisi2
 2370 0a94 02F83C1C 		strb	r1, [r2, #-60]
 529:.\Protocolo.c **** 						for(z=1;z<=8;z++){
 2371              		.loc 1 529 0 discriminator 3
 2372 0a98 0133     		adds	r3, r3, #1
 2373 0a9a 3A4A     		ldr	r2, .L598+12
 2374 0a9c 1360     		str	r3, [r2]
 2375              	.L179:
 529:.\Protocolo.c **** 						for(z=1;z<=8;z++){
 2376              		.loc 1 529 0 is_stmt 0 discriminator 1
 2377 0a9e 394B     		ldr	r3, .L598+12
 2378 0aa0 1B68     		ldr	r3, [r3]
 2379 0aa2 082B     		cmp	r3, #8
 2380 0aa4 EAD9     		bls	.L180
 532:.\Protocolo.c **** 						}
 533:.\Protocolo.c **** 						minuendo[0]=8;
 2381              		.loc 1 533 0 is_stmt 1
 2382 0aa6 10A9     		add	r1, sp, #64
 2383 0aa8 0823     		movs	r3, #8
 2384 0aaa 01F82C3D 		strb	r3, [r1, #-44]!
 534:.\Protocolo.c **** 						operacion(2,minuendo,sustraendo);
 2385              		.loc 1 534 0
 2386 0aae 0220     		movs	r0, #2
 2387 0ab0 01AA     		add	r2, sp, #4
 2388 0ab2 FFF7FEFF 		bl	operacion
ARM GAS  C:\Users\IN-002~1\AppData\Local\Temp\ccxO8rjh.s 			page 55


 2389              	.LVL204:
 535:.\Protocolo.c **** 						for(x=0;x<=17;x++){									
 2390              		.loc 1 535 0
 2391 0ab6 0022     		movs	r2, #0
 2392 0ab8 314B     		ldr	r3, .L598+8
 2393 0aba 1A60     		str	r2, [r3]
 2394 0abc 0AE0     		b	.L181
 2395              	.L182:
 536:.\Protocolo.c **** 							write_psoc1(val,msn_tventas[x]);				//Total de ventas
 2396              		.loc 1 536 0 discriminator 3
 2397 0abe 364A     		ldr	r2, .L598+32
 2398 0ac0 1344     		add	r3, r3, r2
 2399 0ac2 2046     		mov	r0, r4
 2400 0ac4 93F82C10 		ldrb	r1, [r3, #44]	@ zero_extendqisi2
 2401 0ac8 FFF7FEFF 		bl	write_psoc1
 2402              	.LVL205:
 535:.\Protocolo.c **** 						for(x=0;x<=17;x++){									
 2403              		.loc 1 535 0 discriminator 3
 2404 0acc 2C4A     		ldr	r2, .L598+8
 2405 0ace 1368     		ldr	r3, [r2]
 2406 0ad0 0133     		adds	r3, r3, #1
 2407 0ad2 1360     		str	r3, [r2]
 2408              	.L181:
 535:.\Protocolo.c **** 						for(x=0;x<=17;x++){									
 2409              		.loc 1 535 0 is_stmt 0 discriminator 1
 2410 0ad4 2A4B     		ldr	r3, .L598+8
 2411 0ad6 1B68     		ldr	r3, [r3]
 2412 0ad8 112B     		cmp	r3, #17
 2413 0ada F0D9     		bls	.L182
 537:.\Protocolo.c **** 						}
 538:.\Protocolo.c **** 						print_valor(resultado,val);
 2414              		.loc 1 538 0 is_stmt 1
 2415 0adc 3248     		ldr	r0, .L598+48
 2416 0ade 2146     		mov	r1, r4
 2417 0ae0 FFF7FEFF 		bl	print_valor
 2418              	.LVL206:
 539:.\Protocolo.c **** 						if(dir==lado.a.dir){
 2419              		.loc 1 539 0
 2420 0ae4 2A4B     		ldr	r3, .L598+24
 2421 0ae6 1B78     		ldrb	r3, [r3]	@ zero_extendqisi2
 2422 0ae8 AB42     		cmp	r3, r5
 2423 0aea 09D1     		bne	.L183
 540:.\Protocolo.c **** 							write_eeprom(192,corte);	
 2424              		.loc 1 540 0
 2425 0aec C020     		movs	r0, #192
 2426 0aee 09A9     		add	r1, sp, #36
 2427 0af0 FFF7FEFF 		bl	write_eeprom
 2428              	.LVL207:
 541:.\Protocolo.c **** 							write_eeprom(512,resultado);
 2429              		.loc 1 541 0
 2430 0af4 4FF40070 		mov	r0, #512
 2431 0af8 2B49     		ldr	r1, .L598+48
 2432 0afa FFF7FEFF 		bl	write_eeprom
 2433              	.LVL208:
 2434 0afe 09E0     		b	.L168
 2435              	.L183:
 542:.\Protocolo.c **** 						}
ARM GAS  C:\Users\IN-002~1\AppData\Local\Temp\ccxO8rjh.s 			page 56


 543:.\Protocolo.c **** 						else{
 544:.\Protocolo.c **** 							write_eeprom(281,corte);
 2436              		.loc 1 544 0
 2437 0b00 40F21910 		movw	r0, #281
 2438 0b04 09A9     		add	r1, sp, #36
 2439 0b06 FFF7FEFF 		bl	write_eeprom
 2440              	.LVL209:
 545:.\Protocolo.c **** 							write_eeprom(551,resultado);
 2441              		.loc 1 545 0
 2442 0b0a 40F22720 		movw	r0, #551
 2443 0b0e 2649     		ldr	r1, .L598+48
 2444 0b10 FFF7FEFF 		bl	write_eeprom
 2445              	.LVL210:
 2446              	.L168:
 546:.\Protocolo.c **** 						}
 547:.\Protocolo.c **** 					}
 548:.\Protocolo.c **** 					if(((rventa.manguera==(diesel&0x0F))&&(dir==lado.a.dir))||((rventa.manguera==(diesel2&0x0F))&&
 2447              		.loc 1 548 0
 2448 0b14 194B     		ldr	r3, .L598+4
 2449 0b16 93F8E020 		ldrb	r2, [r3, #224]	@ zero_extendqisi2
 2450 0b1a 244B     		ldr	r3, .L598+52
 2451 0b1c 1B78     		ldrb	r3, [r3]	@ zero_extendqisi2
 2452 0b1e 03F00F03 		and	r3, r3, #15
 2453 0b22 9342     		cmp	r3, r2
 2454 0b24 03D1     		bne	.L184
 2455              		.loc 1 548 0 is_stmt 0 discriminator 1
 2456 0b26 1A4B     		ldr	r3, .L598+24
 2457 0b28 1B78     		ldrb	r3, [r3]	@ zero_extendqisi2
 2458 0b2a AB42     		cmp	r3, r5
 2459 0b2c 0BD0     		beq	.L185
 2460              	.L184:
 2461              		.loc 1 548 0 discriminator 3
 2462 0b2e 204B     		ldr	r3, .L598+56
 2463 0b30 1B78     		ldrb	r3, [r3]	@ zero_extendqisi2
 2464 0b32 03F00F03 		and	r3, r3, #15
 2465 0b36 9A42     		cmp	r2, r3
 2466 0b38 40F0DE80 		bne	.L186
 2467              		.loc 1 548 0 discriminator 4
 2468 0b3c 144B     		ldr	r3, .L598+24
 2469 0b3e 1B79     		ldrb	r3, [r3, #4]	@ zero_extendqisi2
 2470 0b40 AB42     		cmp	r3, r5
 2471 0b42 40F0D980 		bne	.L186
 2472              	.L185:
 549:.\Protocolo.c **** 						for(x=0;x<=5;x++){									
 2473              		.loc 1 549 0 is_stmt 1
 2474 0b46 0022     		movs	r2, #0
 2475 0b48 0D4B     		ldr	r3, .L598+8
 2476 0b4a 1A60     		str	r2, [r3]
 2477 0b4c 08E0     		b	.L187
 2478              	.L188:
 550:.\Protocolo.c **** 						    write_psoc1(val,msn_tc[x]);
 2479              		.loc 1 550 0 discriminator 3
 2480 0b4e 2046     		mov	r0, r4
 2481 0b50 114A     		ldr	r2, .L598+32
 2482 0b52 D15C     		ldrb	r1, [r2, r3]	@ zero_extendqisi2
 2483 0b54 FFF7FEFF 		bl	write_psoc1
 2484              	.LVL211:
ARM GAS  C:\Users\IN-002~1\AppData\Local\Temp\ccxO8rjh.s 			page 57


 549:.\Protocolo.c **** 						for(x=0;x<=5;x++){									
 2485              		.loc 1 549 0 discriminator 3
 2486 0b58 094A     		ldr	r2, .L598+8
 2487 0b5a 1368     		ldr	r3, [r2]
 2488 0b5c 0133     		adds	r3, r3, #1
 2489 0b5e 1360     		str	r3, [r2]
 2490              	.L187:
 549:.\Protocolo.c **** 						for(x=0;x<=5;x++){									
 2491              		.loc 1 549 0 is_stmt 0 discriminator 1
 2492 0b60 074B     		ldr	r3, .L598+8
 2493 0b62 1B68     		ldr	r3, [r3]
 2494 0b64 052B     		cmp	r3, #5
 2495 0b66 F2D9     		bls	.L188
 551:.\Protocolo.c **** 					    }
 552:.\Protocolo.c **** 					    write_psoc1(val,10);
 2496              		.loc 1 552 0 is_stmt 1
 2497 0b68 2046     		mov	r0, r4
 2498 0b6a 0A21     		movs	r1, #10
 2499 0b6c FFF7FEFF 		bl	write_psoc1
 2500              	.LVL212:
 553:.\Protocolo.c ****                         for(x=0;x<=10;x++){									
 2501              		.loc 1 553 0
 2502 0b70 0022     		movs	r2, #0
 2503 0b72 034B     		ldr	r3, .L598+8
 2504 0b74 1A60     		str	r2, [r3]
 2505 0b76 26E0     		b	.L189
 2506              	.L599:
 2507              		.align	2
 2508              	.L598:
 2509 0b78 00000000 		.word	Surtidor_rxBuffer
 2510 0b7c 00000000 		.word	rventa
 2511 0b80 00000000 		.word	x
 2512 0b84 00000000 		.word	z
 2513 0b88 F7FFFFFF 		.word	rventa-9
 2514 0b8c 00000000 		.word	corriente
 2515 0b90 00000000 		.word	lado
 2516 0b94 00000000 		.word	corriente2
 2517 0b98 00000000 		.word	.LANCHOR1
 2518 0b9c 00000000 		.word	producto1n
 2519 0ba0 FFFFFFFF 		.word	rventa-1
 2520 0ba4 00000000 		.word	buffer_i2c
 2521 0ba8 00000000 		.word	resultado
 2522 0bac 00000000 		.word	diesel
 2523 0bb0 00000000 		.word	diesel2
 2524              	.L190:
 554:.\Protocolo.c **** 						    write_psoc1(val,producto2n[x]);
 2525              		.loc 1 554 0 discriminator 3
 2526 0bb4 2046     		mov	r0, r4
 2527 0bb6 A54A     		ldr	r2, .L600
 2528 0bb8 D15C     		ldrb	r1, [r2, r3]	@ zero_extendqisi2
 2529 0bba FFF7FEFF 		bl	write_psoc1
 2530              	.LVL213:
 553:.\Protocolo.c ****                         for(x=0;x<=10;x++){									
 2531              		.loc 1 553 0 discriminator 3
 2532 0bbe A44A     		ldr	r2, .L600+4
 2533 0bc0 1368     		ldr	r3, [r2]
 2534 0bc2 0133     		adds	r3, r3, #1
ARM GAS  C:\Users\IN-002~1\AppData\Local\Temp\ccxO8rjh.s 			page 58


 2535 0bc4 1360     		str	r3, [r2]
 2536              	.L189:
 553:.\Protocolo.c ****                         for(x=0;x<=10;x++){									
 2537              		.loc 1 553 0 is_stmt 0 discriminator 1
 2538 0bc6 A24B     		ldr	r3, .L600+4
 2539 0bc8 1B68     		ldr	r3, [r3]
 2540 0bca 0A2B     		cmp	r3, #10
 2541 0bcc F2D9     		bls	.L190
 555:.\Protocolo.c **** 					    }
 556:.\Protocolo.c ****                         write_psoc1(val,10);
 2542              		.loc 1 556 0 is_stmt 1
 2543 0bce 2046     		mov	r0, r4
 2544 0bd0 0A21     		movs	r1, #10
 2545 0bd2 FFF7FEFF 		bl	write_psoc1
 2546              	.LVL214:
 557:.\Protocolo.c **** 						for(x=0;x<=14;x++){									
 2547              		.loc 1 557 0
 2548 0bd6 0022     		movs	r2, #0
 2549 0bd8 9D4B     		ldr	r3, .L600+4
 2550 0bda 1A60     		str	r2, [r3]
 2551 0bdc 09E0     		b	.L191
 2552              	.L192:
 558:.\Protocolo.c **** 							write_psoc1(val,msn_lecact[x]);				//LECTURA ACTUAL
 2553              		.loc 1 558 0 discriminator 3
 2554 0bde 9D4A     		ldr	r2, .L600+8
 2555 0be0 1344     		add	r3, r3, r2
 2556 0be2 2046     		mov	r0, r4
 2557 0be4 197A     		ldrb	r1, [r3, #8]	@ zero_extendqisi2
 2558 0be6 FFF7FEFF 		bl	write_psoc1
 2559              	.LVL215:
 557:.\Protocolo.c **** 						for(x=0;x<=14;x++){									
 2560              		.loc 1 557 0 discriminator 3
 2561 0bea 994A     		ldr	r2, .L600+4
 2562 0bec 1368     		ldr	r3, [r2]
 2563 0bee 0133     		adds	r3, r3, #1
 2564 0bf0 1360     		str	r3, [r2]
 2565              	.L191:
 557:.\Protocolo.c **** 						for(x=0;x<=14;x++){									
 2566              		.loc 1 557 0 is_stmt 0 discriminator 1
 2567 0bf2 974B     		ldr	r3, .L600+4
 2568 0bf4 1B68     		ldr	r3, [r3]
 2569 0bf6 0E2B     		cmp	r3, #14
 2570 0bf8 F1D9     		bls	.L192
 559:.\Protocolo.c **** 						}
 560:.\Protocolo.c **** 						write_psoc1(val,10);
 2571              		.loc 1 560 0 is_stmt 1
 2572 0bfa 2046     		mov	r0, r4
 2573 0bfc 0A21     		movs	r1, #10
 2574 0bfe FFF7FEFF 		bl	write_psoc1
 2575              	.LVL216:
 561:.\Protocolo.c **** 						print_totalesac(8,val);	
 2576              		.loc 1 561 0
 2577 0c02 0820     		movs	r0, #8
 2578 0c04 2146     		mov	r1, r4
 2579 0c06 FFF7FEFF 		bl	print_totalesac
 2580              	.LVL217:
 562:.\Protocolo.c **** 						for(x=0;x<=16;x++){												
ARM GAS  C:\Users\IN-002~1\AppData\Local\Temp\ccxO8rjh.s 			page 59


 2581              		.loc 1 562 0
 2582 0c0a 0022     		movs	r2, #0
 2583 0c0c 904B     		ldr	r3, .L600+4
 2584 0c0e 1A60     		str	r2, [r3]
 2585 0c10 09E0     		b	.L193
 2586              	.L194:
 563:.\Protocolo.c **** 							write_psoc1(val,msn_lecaan[x]);				//LECTURA ANTERIOR
 2587              		.loc 1 563 0 discriminator 3
 2588 0c12 904A     		ldr	r2, .L600+8
 2589 0c14 1344     		add	r3, r3, r2
 2590 0c16 2046     		mov	r0, r4
 2591 0c18 197E     		ldrb	r1, [r3, #24]	@ zero_extendqisi2
 2592 0c1a FFF7FEFF 		bl	write_psoc1
 2593              	.LVL218:
 562:.\Protocolo.c **** 						for(x=0;x<=16;x++){												
 2594              		.loc 1 562 0 discriminator 3
 2595 0c1e 8C4A     		ldr	r2, .L600+4
 2596 0c20 1368     		ldr	r3, [r2]
 2597 0c22 0133     		adds	r3, r3, #1
 2598 0c24 1360     		str	r3, [r2]
 2599              	.L193:
 562:.\Protocolo.c **** 						for(x=0;x<=16;x++){												
 2600              		.loc 1 562 0 is_stmt 0 discriminator 1
 2601 0c26 8A4B     		ldr	r3, .L600+4
 2602 0c28 1B68     		ldr	r3, [r3]
 2603 0c2a 102B     		cmp	r3, #16
 2604 0c2c F1D9     		bls	.L194
 564:.\Protocolo.c **** 						}
 565:.\Protocolo.c **** 						write_psoc1(val,10);
 2605              		.loc 1 565 0 is_stmt 1
 2606 0c2e 2046     		mov	r0, r4
 2607 0c30 0A21     		movs	r1, #10
 2608 0c32 FFF7FEFF 		bl	write_psoc1
 2609              	.LVL219:
 566:.\Protocolo.c **** 						if(dir==lado.a.dir){
 2610              		.loc 1 566 0
 2611 0c36 884B     		ldr	r3, .L600+12
 2612 0c38 1B78     		ldrb	r3, [r3]	@ zero_extendqisi2
 2613 0c3a AB42     		cmp	r3, r5
 2614 0c3c 04D1     		bne	.L195
 567:.\Protocolo.c **** 							leer_eeprom(217,25);
 2615              		.loc 1 567 0
 2616 0c3e D920     		movs	r0, #217
 2617 0c40 1921     		movs	r1, #25
 2618 0c42 FFF7FEFF 		bl	leer_eeprom
 2619              	.LVL220:
 2620 0c46 04E0     		b	.L196
 2621              	.L195:
 568:.\Protocolo.c **** 						}
 569:.\Protocolo.c **** 						else{
 570:.\Protocolo.c **** 							leer_eeprom(320,25);
 2622              		.loc 1 570 0
 2623 0c48 4FF4A070 		mov	r0, #320
 2624 0c4c 1921     		movs	r1, #25
 2625 0c4e FFF7FEFF 		bl	leer_eeprom
 2626              	.LVL221:
 2627              	.L196:
ARM GAS  C:\Users\IN-002~1\AppData\Local\Temp\ccxO8rjh.s 			page 60


 571:.\Protocolo.c **** 						}
 572:.\Protocolo.c **** 						print_totales(val);
 2628              		.loc 1 572 0
 2629 0c52 2046     		mov	r0, r4
 2630 0c54 FFF7FEFF 		bl	print_totales
 2631              	.LVL222:
 573:.\Protocolo.c **** 						for(z=1;z<=8;z++){
 2632              		.loc 1 573 0
 2633 0c58 0122     		movs	r2, #1
 2634 0c5a 804B     		ldr	r3, .L600+16
 2635 0c5c 1A60     		str	r2, [r3]
 2636 0c5e 10E0     		b	.L197
 2637              	.L198:
 574:.\Protocolo.c **** 							minuendo[z]=rventa.tdinero[z-1];
 2638              		.loc 1 574 0 discriminator 3
 2639 0c60 7F4A     		ldr	r2, .L600+20
 2640 0c62 1A44     		add	r2, r2, r3
 2641 0c64 92F8CA10 		ldrb	r1, [r2, #202]	@ zero_extendqisi2
 2642 0c68 10AA     		add	r2, sp, #64
 2643 0c6a 1A44     		add	r2, r2, r3
 2644 0c6c 02F82C1C 		strb	r1, [r2, #-44]
 575:.\Protocolo.c **** 							sustraendo[z]=buffer_i2c[z+8];
 2645              		.loc 1 575 0 discriminator 3
 2646 0c70 03F10801 		add	r1, r3, #8
 2647 0c74 7B48     		ldr	r0, .L600+24
 2648 0c76 415C     		ldrb	r1, [r0, r1]	@ zero_extendqisi2
 2649 0c78 02F83C1C 		strb	r1, [r2, #-60]
 573:.\Protocolo.c **** 						for(z=1;z<=8;z++){
 2650              		.loc 1 573 0 discriminator 3
 2651 0c7c 0133     		adds	r3, r3, #1
 2652 0c7e 774A     		ldr	r2, .L600+16
 2653 0c80 1360     		str	r3, [r2]
 2654              	.L197:
 573:.\Protocolo.c **** 						for(z=1;z<=8;z++){
 2655              		.loc 1 573 0 is_stmt 0 discriminator 1
 2656 0c82 764B     		ldr	r3, .L600+16
 2657 0c84 1B68     		ldr	r3, [r3]
 2658 0c86 082B     		cmp	r3, #8
 2659 0c88 EAD9     		bls	.L198
 576:.\Protocolo.c **** 						}
 577:.\Protocolo.c **** 						minuendo[0]=8;
 2660              		.loc 1 577 0 is_stmt 1
 2661 0c8a 10A9     		add	r1, sp, #64
 2662 0c8c 0823     		movs	r3, #8
 2663 0c8e 01F82C3D 		strb	r3, [r1, #-44]!
 578:.\Protocolo.c **** 						operacion(2,minuendo,sustraendo);
 2664              		.loc 1 578 0
 2665 0c92 0220     		movs	r0, #2
 2666 0c94 01AA     		add	r2, sp, #4
 2667 0c96 FFF7FEFF 		bl	operacion
 2668              	.LVL223:
 579:.\Protocolo.c **** 						for(x=0;x<=17;x++){									
 2669              		.loc 1 579 0
 2670 0c9a 0022     		movs	r2, #0
 2671 0c9c 6C4B     		ldr	r3, .L600+4
 2672 0c9e 1A60     		str	r2, [r3]
 2673 0ca0 0AE0     		b	.L199
ARM GAS  C:\Users\IN-002~1\AppData\Local\Temp\ccxO8rjh.s 			page 61


 2674              	.L200:
 580:.\Protocolo.c **** 							write_psoc1(val,msn_tventas[x]);				//Total de ventas
 2675              		.loc 1 580 0 discriminator 3
 2676 0ca2 6C4A     		ldr	r2, .L600+8
 2677 0ca4 1344     		add	r3, r3, r2
 2678 0ca6 2046     		mov	r0, r4
 2679 0ca8 93F82C10 		ldrb	r1, [r3, #44]	@ zero_extendqisi2
 2680 0cac FFF7FEFF 		bl	write_psoc1
 2681              	.LVL224:
 579:.\Protocolo.c **** 						for(x=0;x<=17;x++){									
 2682              		.loc 1 579 0 discriminator 3
 2683 0cb0 674A     		ldr	r2, .L600+4
 2684 0cb2 1368     		ldr	r3, [r2]
 2685 0cb4 0133     		adds	r3, r3, #1
 2686 0cb6 1360     		str	r3, [r2]
 2687              	.L199:
 579:.\Protocolo.c **** 						for(x=0;x<=17;x++){									
 2688              		.loc 1 579 0 is_stmt 0 discriminator 1
 2689 0cb8 654B     		ldr	r3, .L600+4
 2690 0cba 1B68     		ldr	r3, [r3]
 2691 0cbc 112B     		cmp	r3, #17
 2692 0cbe F0D9     		bls	.L200
 581:.\Protocolo.c **** 						}
 582:.\Protocolo.c **** 						print_valor(resultado,val);				
 2693              		.loc 1 582 0 is_stmt 1
 2694 0cc0 6948     		ldr	r0, .L600+28
 2695 0cc2 2146     		mov	r1, r4
 2696 0cc4 FFF7FEFF 		bl	print_valor
 2697              	.LVL225:
 583:.\Protocolo.c **** 						if(dir==lado.a.dir){
 2698              		.loc 1 583 0
 2699 0cc8 634B     		ldr	r3, .L600+12
 2700 0cca 1B78     		ldrb	r3, [r3]	@ zero_extendqisi2
 2701 0ccc AB42     		cmp	r3, r5
 2702 0cce 09D1     		bne	.L201
 584:.\Protocolo.c **** 							write_eeprom(217,corte);
 2703              		.loc 1 584 0
 2704 0cd0 D920     		movs	r0, #217
 2705 0cd2 09A9     		add	r1, sp, #36
 2706 0cd4 FFF7FEFF 		bl	write_eeprom
 2707              	.LVL226:
 585:.\Protocolo.c **** 							write_eeprom(538,resultado);
 2708              		.loc 1 585 0
 2709 0cd8 40F21A20 		movw	r0, #538
 2710 0cdc 6249     		ldr	r1, .L600+28
 2711 0cde FFF7FEFF 		bl	write_eeprom
 2712              	.LVL227:
 2713 0ce2 09E0     		b	.L186
 2714              	.L201:
 586:.\Protocolo.c **** 						}
 587:.\Protocolo.c **** 						else{
 588:.\Protocolo.c **** 							write_eeprom(320,corte);
 2715              		.loc 1 588 0
 2716 0ce4 4FF4A070 		mov	r0, #320
 2717 0ce8 09A9     		add	r1, sp, #36
 2718 0cea FFF7FEFF 		bl	write_eeprom
 2719              	.LVL228:
ARM GAS  C:\Users\IN-002~1\AppData\Local\Temp\ccxO8rjh.s 			page 62


 589:.\Protocolo.c **** 							write_eeprom(576,resultado);
 2720              		.loc 1 589 0
 2721 0cee 4FF41070 		mov	r0, #576
 2722 0cf2 5D49     		ldr	r1, .L600+28
 2723 0cf4 FFF7FEFF 		bl	write_eeprom
 2724              	.LVL229:
 2725              	.L186:
 590:.\Protocolo.c **** 						}				
 591:.\Protocolo.c **** 					}
 592:.\Protocolo.c **** 					if(((rventa.manguera==(extra&0x0F))&&(dir==lado.a.dir))||((rventa.manguera==(extra2&0x0F))&&(d
 2726              		.loc 1 592 0
 2727 0cf8 5C4B     		ldr	r3, .L600+32
 2728 0cfa 93F8E020 		ldrb	r2, [r3, #224]	@ zero_extendqisi2
 2729 0cfe 5C4B     		ldr	r3, .L600+36
 2730 0d00 1B78     		ldrb	r3, [r3]	@ zero_extendqisi2
 2731 0d02 03F00F03 		and	r3, r3, #15
 2732 0d06 9342     		cmp	r3, r2
 2733 0d08 03D1     		bne	.L202
 2734              		.loc 1 592 0 is_stmt 0 discriminator 1
 2735 0d0a 534B     		ldr	r3, .L600+12
 2736 0d0c 1B78     		ldrb	r3, [r3]	@ zero_extendqisi2
 2737 0d0e AB42     		cmp	r3, r5
 2738 0d10 0BD0     		beq	.L203
 2739              	.L202:
 2740              		.loc 1 592 0 discriminator 3
 2741 0d12 584B     		ldr	r3, .L600+40
 2742 0d14 1B78     		ldrb	r3, [r3]	@ zero_extendqisi2
 2743 0d16 03F00F03 		and	r3, r3, #15
 2744 0d1a 9A42     		cmp	r2, r3
 2745 0d1c 40F0DA80 		bne	.L204
 2746              		.loc 1 592 0 discriminator 4
 2747 0d20 4D4B     		ldr	r3, .L600+12
 2748 0d22 1B79     		ldrb	r3, [r3, #4]	@ zero_extendqisi2
 2749 0d24 AB42     		cmp	r3, r5
 2750 0d26 40F0D580 		bne	.L204
 2751              	.L203:
 593:.\Protocolo.c **** 						for(x=0;x<=5;x++){									
 2752              		.loc 1 593 0 is_stmt 1
 2753 0d2a 0022     		movs	r2, #0
 2754 0d2c 484B     		ldr	r3, .L600+4
 2755 0d2e 1A60     		str	r2, [r3]
 2756 0d30 08E0     		b	.L205
 2757              	.L206:
 594:.\Protocolo.c **** 						    write_psoc1(val,msn_tc[x]);
 2758              		.loc 1 594 0 discriminator 3
 2759 0d32 2046     		mov	r0, r4
 2760 0d34 474A     		ldr	r2, .L600+8
 2761 0d36 D15C     		ldrb	r1, [r2, r3]	@ zero_extendqisi2
 2762 0d38 FFF7FEFF 		bl	write_psoc1
 2763              	.LVL230:
 593:.\Protocolo.c **** 						for(x=0;x<=5;x++){									
 2764              		.loc 1 593 0 discriminator 3
 2765 0d3c 444A     		ldr	r2, .L600+4
 2766 0d3e 1368     		ldr	r3, [r2]
 2767 0d40 0133     		adds	r3, r3, #1
 2768 0d42 1360     		str	r3, [r2]
 2769              	.L205:
ARM GAS  C:\Users\IN-002~1\AppData\Local\Temp\ccxO8rjh.s 			page 63


 593:.\Protocolo.c **** 						for(x=0;x<=5;x++){									
 2770              		.loc 1 593 0 is_stmt 0 discriminator 1
 2771 0d44 424B     		ldr	r3, .L600+4
 2772 0d46 1B68     		ldr	r3, [r3]
 2773 0d48 052B     		cmp	r3, #5
 2774 0d4a F2D9     		bls	.L206
 595:.\Protocolo.c **** 					    }
 596:.\Protocolo.c **** 					    write_psoc1(val,10);
 2775              		.loc 1 596 0 is_stmt 1
 2776 0d4c 2046     		mov	r0, r4
 2777 0d4e 0A21     		movs	r1, #10
 2778 0d50 FFF7FEFF 		bl	write_psoc1
 2779              	.LVL231:
 597:.\Protocolo.c ****                         for(x=0;x<=10;x++){									
 2780              		.loc 1 597 0
 2781 0d54 0022     		movs	r2, #0
 2782 0d56 3E4B     		ldr	r3, .L600+4
 2783 0d58 1A60     		str	r2, [r3]
 2784 0d5a 08E0     		b	.L207
 2785              	.L208:
 598:.\Protocolo.c **** 						    write_psoc1(val,producto3n[x]);
 2786              		.loc 1 598 0 discriminator 3
 2787 0d5c 2046     		mov	r0, r4
 2788 0d5e 464A     		ldr	r2, .L600+44
 2789 0d60 D15C     		ldrb	r1, [r2, r3]	@ zero_extendqisi2
 2790 0d62 FFF7FEFF 		bl	write_psoc1
 2791              	.LVL232:
 597:.\Protocolo.c ****                         for(x=0;x<=10;x++){									
 2792              		.loc 1 597 0 discriminator 3
 2793 0d66 3A4A     		ldr	r2, .L600+4
 2794 0d68 1368     		ldr	r3, [r2]
 2795 0d6a 0133     		adds	r3, r3, #1
 2796 0d6c 1360     		str	r3, [r2]
 2797              	.L207:
 597:.\Protocolo.c ****                         for(x=0;x<=10;x++){									
 2798              		.loc 1 597 0 is_stmt 0 discriminator 1
 2799 0d6e 384B     		ldr	r3, .L600+4
 2800 0d70 1B68     		ldr	r3, [r3]
 2801 0d72 0A2B     		cmp	r3, #10
 2802 0d74 F2D9     		bls	.L208
 599:.\Protocolo.c **** 					    }
 600:.\Protocolo.c ****                         write_psoc1(val,10);
 2803              		.loc 1 600 0 is_stmt 1
 2804 0d76 2046     		mov	r0, r4
 2805 0d78 0A21     		movs	r1, #10
 2806 0d7a FFF7FEFF 		bl	write_psoc1
 2807              	.LVL233:
 601:.\Protocolo.c **** 						for(x=0;x<=14;x++){									
 2808              		.loc 1 601 0
 2809 0d7e 0022     		movs	r2, #0
 2810 0d80 334B     		ldr	r3, .L600+4
 2811 0d82 1A60     		str	r2, [r3]
 2812 0d84 09E0     		b	.L209
 2813              	.L210:
 602:.\Protocolo.c **** 							write_psoc1(val,msn_lecact[x]);				//LECTURA ACTUAL
 2814              		.loc 1 602 0 discriminator 3
 2815 0d86 334A     		ldr	r2, .L600+8
ARM GAS  C:\Users\IN-002~1\AppData\Local\Temp\ccxO8rjh.s 			page 64


 2816 0d88 1344     		add	r3, r3, r2
 2817 0d8a 2046     		mov	r0, r4
 2818 0d8c 197A     		ldrb	r1, [r3, #8]	@ zero_extendqisi2
 2819 0d8e FFF7FEFF 		bl	write_psoc1
 2820              	.LVL234:
 601:.\Protocolo.c **** 						for(x=0;x<=14;x++){									
 2821              		.loc 1 601 0 discriminator 3
 2822 0d92 2F4A     		ldr	r2, .L600+4
 2823 0d94 1368     		ldr	r3, [r2]
 2824 0d96 0133     		adds	r3, r3, #1
 2825 0d98 1360     		str	r3, [r2]
 2826              	.L209:
 601:.\Protocolo.c **** 						for(x=0;x<=14;x++){									
 2827              		.loc 1 601 0 is_stmt 0 discriminator 1
 2828 0d9a 2D4B     		ldr	r3, .L600+4
 2829 0d9c 1B68     		ldr	r3, [r3]
 2830 0d9e 0E2B     		cmp	r3, #14
 2831 0da0 F1D9     		bls	.L210
 603:.\Protocolo.c **** 						}
 604:.\Protocolo.c **** 						write_psoc1(val,10);
 2832              		.loc 1 604 0 is_stmt 1
 2833 0da2 2046     		mov	r0, r4
 2834 0da4 0A21     		movs	r1, #10
 2835 0da6 FFF7FEFF 		bl	write_psoc1
 2836              	.LVL235:
 605:.\Protocolo.c **** 						print_totalesac(8,val);	
 2837              		.loc 1 605 0
 2838 0daa 0820     		movs	r0, #8
 2839 0dac 2146     		mov	r1, r4
 2840 0dae FFF7FEFF 		bl	print_totalesac
 2841              	.LVL236:
 606:.\Protocolo.c **** 						for(x=0;x<=16;x++){												
 2842              		.loc 1 606 0
 2843 0db2 0022     		movs	r2, #0
 2844 0db4 264B     		ldr	r3, .L600+4
 2845 0db6 1A60     		str	r2, [r3]
 2846 0db8 09E0     		b	.L211
 2847              	.L212:
 607:.\Protocolo.c **** 							write_psoc1(val,msn_lecaan[x]);				//LECTURA ANTERIOR
 2848              		.loc 1 607 0 discriminator 3
 2849 0dba 264A     		ldr	r2, .L600+8
 2850 0dbc 1344     		add	r3, r3, r2
 2851 0dbe 2046     		mov	r0, r4
 2852 0dc0 197E     		ldrb	r1, [r3, #24]	@ zero_extendqisi2
 2853 0dc2 FFF7FEFF 		bl	write_psoc1
 2854              	.LVL237:
 606:.\Protocolo.c **** 						for(x=0;x<=16;x++){												
 2855              		.loc 1 606 0 discriminator 3
 2856 0dc6 224A     		ldr	r2, .L600+4
 2857 0dc8 1368     		ldr	r3, [r2]
 2858 0dca 0133     		adds	r3, r3, #1
 2859 0dcc 1360     		str	r3, [r2]
 2860              	.L211:
 606:.\Protocolo.c **** 						for(x=0;x<=16;x++){												
 2861              		.loc 1 606 0 is_stmt 0 discriminator 1
 2862 0dce 204B     		ldr	r3, .L600+4
 2863 0dd0 1B68     		ldr	r3, [r3]
ARM GAS  C:\Users\IN-002~1\AppData\Local\Temp\ccxO8rjh.s 			page 65


 2864 0dd2 102B     		cmp	r3, #16
 2865 0dd4 F1D9     		bls	.L212
 608:.\Protocolo.c **** 						}
 609:.\Protocolo.c **** 						write_psoc1(val,10);
 2866              		.loc 1 609 0 is_stmt 1
 2867 0dd6 2046     		mov	r0, r4
 2868 0dd8 0A21     		movs	r1, #10
 2869 0dda FFF7FEFF 		bl	write_psoc1
 2870              	.LVL238:
 610:.\Protocolo.c **** 						if(dir==lado.a.dir){
 2871              		.loc 1 610 0
 2872 0dde 1E4B     		ldr	r3, .L600+12
 2873 0de0 1B78     		ldrb	r3, [r3]	@ zero_extendqisi2
 2874 0de2 AB42     		cmp	r3, r5
 2875 0de4 05D1     		bne	.L213
 611:.\Protocolo.c **** 							leer_eeprom(256,25);
 2876              		.loc 1 611 0
 2877 0de6 4FF48070 		mov	r0, #256
 2878 0dea 1921     		movs	r1, #25
 2879 0dec FFF7FEFF 		bl	leer_eeprom
 2880              	.LVL239:
 2881 0df0 04E0     		b	.L214
 2882              	.L213:
 612:.\Protocolo.c **** 						}
 613:.\Protocolo.c **** 						else{
 614:.\Protocolo.c **** 							leer_eeprom(345,25);
 2883              		.loc 1 614 0
 2884 0df2 40F25910 		movw	r0, #345
 2885 0df6 1921     		movs	r1, #25
 2886 0df8 FFF7FEFF 		bl	leer_eeprom
 2887              	.LVL240:
 2888              	.L214:
 615:.\Protocolo.c **** 						}
 616:.\Protocolo.c **** 						print_totales(val);
 2889              		.loc 1 616 0
 2890 0dfc 2046     		mov	r0, r4
 2891 0dfe FFF7FEFF 		bl	print_totales
 2892              	.LVL241:
 617:.\Protocolo.c **** 						for(z=1;z<=8;z++){
 2893              		.loc 1 617 0
 2894 0e02 0122     		movs	r2, #1
 2895 0e04 154B     		ldr	r3, .L600+16
 2896 0e06 1A60     		str	r2, [r3]
 2897 0e08 10E0     		b	.L215
 2898              	.L216:
 618:.\Protocolo.c **** 							minuendo[z]=rventa.tdinero[z-1];
 2899              		.loc 1 618 0 discriminator 3
 2900 0e0a 154A     		ldr	r2, .L600+20
 2901 0e0c 1A44     		add	r2, r2, r3
 2902 0e0e 92F8CA10 		ldrb	r1, [r2, #202]	@ zero_extendqisi2
 2903 0e12 10AA     		add	r2, sp, #64
 2904 0e14 1A44     		add	r2, r2, r3
 2905 0e16 02F82C1C 		strb	r1, [r2, #-44]
 619:.\Protocolo.c **** 							sustraendo[z]=buffer_i2c[z+8];
 2906              		.loc 1 619 0 discriminator 3
 2907 0e1a 03F10801 		add	r1, r3, #8
 2908 0e1e 1148     		ldr	r0, .L600+24
ARM GAS  C:\Users\IN-002~1\AppData\Local\Temp\ccxO8rjh.s 			page 66


 2909 0e20 415C     		ldrb	r1, [r0, r1]	@ zero_extendqisi2
 2910 0e22 02F83C1C 		strb	r1, [r2, #-60]
 617:.\Protocolo.c **** 						for(z=1;z<=8;z++){
 2911              		.loc 1 617 0 discriminator 3
 2912 0e26 0133     		adds	r3, r3, #1
 2913 0e28 0C4A     		ldr	r2, .L600+16
 2914 0e2a 1360     		str	r3, [r2]
 2915              	.L215:
 617:.\Protocolo.c **** 						for(z=1;z<=8;z++){
 2916              		.loc 1 617 0 is_stmt 0 discriminator 1
 2917 0e2c 0B4B     		ldr	r3, .L600+16
 2918 0e2e 1B68     		ldr	r3, [r3]
 2919 0e30 082B     		cmp	r3, #8
 2920 0e32 EAD9     		bls	.L216
 620:.\Protocolo.c **** 						}
 621:.\Protocolo.c **** 						minuendo[0]=8;
 2921              		.loc 1 621 0 is_stmt 1
 2922 0e34 10A9     		add	r1, sp, #64
 2923 0e36 0823     		movs	r3, #8
 2924 0e38 01F82C3D 		strb	r3, [r1, #-44]!
 622:.\Protocolo.c **** 						operacion(2,minuendo,sustraendo);
 2925              		.loc 1 622 0
 2926 0e3c 0220     		movs	r0, #2
 2927 0e3e 01AA     		add	r2, sp, #4
 2928 0e40 FFF7FEFF 		bl	operacion
 2929              	.LVL242:
 623:.\Protocolo.c **** 						for(x=0;x<=17;x++){									
 2930              		.loc 1 623 0
 2931 0e44 0022     		movs	r2, #0
 2932 0e46 024B     		ldr	r3, .L600+4
 2933 0e48 1A60     		str	r2, [r3]
 2934 0e4a 22E0     		b	.L217
 2935              	.L601:
 2936              		.align	2
 2937              	.L600:
 2938 0e4c 00000000 		.word	producto2n
 2939 0e50 00000000 		.word	x
 2940 0e54 00000000 		.word	.LANCHOR1
 2941 0e58 00000000 		.word	lado
 2942 0e5c 00000000 		.word	z
 2943 0e60 FFFFFFFF 		.word	rventa-1
 2944 0e64 00000000 		.word	buffer_i2c
 2945 0e68 00000000 		.word	resultado
 2946 0e6c 00000000 		.word	rventa
 2947 0e70 00000000 		.word	extra
 2948 0e74 00000000 		.word	extra2
 2949 0e78 00000000 		.word	producto3n
 2950              	.L218:
 624:.\Protocolo.c **** 							write_psoc1(val,msn_tventas[x]);				//Total de ventas
 2951              		.loc 1 624 0 discriminator 3
 2952 0e7c A74A     		ldr	r2, .L602
 2953 0e7e 1344     		add	r3, r3, r2
 2954 0e80 2046     		mov	r0, r4
 2955 0e82 93F82C10 		ldrb	r1, [r3, #44]	@ zero_extendqisi2
 2956 0e86 FFF7FEFF 		bl	write_psoc1
 2957              	.LVL243:
 623:.\Protocolo.c **** 						for(x=0;x<=17;x++){									
ARM GAS  C:\Users\IN-002~1\AppData\Local\Temp\ccxO8rjh.s 			page 67


 2958              		.loc 1 623 0 discriminator 3
 2959 0e8a A54A     		ldr	r2, .L602+4
 2960 0e8c 1368     		ldr	r3, [r2]
 2961 0e8e 0133     		adds	r3, r3, #1
 2962 0e90 1360     		str	r3, [r2]
 2963              	.L217:
 623:.\Protocolo.c **** 						for(x=0;x<=17;x++){									
 2964              		.loc 1 623 0 is_stmt 0 discriminator 1
 2965 0e92 A34B     		ldr	r3, .L602+4
 2966 0e94 1B68     		ldr	r3, [r3]
 2967 0e96 112B     		cmp	r3, #17
 2968 0e98 F0D9     		bls	.L218
 625:.\Protocolo.c **** 						}
 626:.\Protocolo.c **** 						print_valor(resultado,val);							
 2969              		.loc 1 626 0 is_stmt 1
 2970 0e9a A248     		ldr	r0, .L602+8
 2971 0e9c 2146     		mov	r1, r4
 2972 0e9e FFF7FEFF 		bl	print_valor
 2973              	.LVL244:
 627:.\Protocolo.c **** 						if(dir==lado.a.dir){
 2974              		.loc 1 627 0
 2975 0ea2 A14B     		ldr	r3, .L602+12
 2976 0ea4 1B78     		ldrb	r3, [r3]	@ zero_extendqisi2
 2977 0ea6 AB42     		cmp	r3, r5
 2978 0ea8 0AD1     		bne	.L219
 628:.\Protocolo.c **** 							write_eeprom(256,corte);
 2979              		.loc 1 628 0
 2980 0eaa 4FF48070 		mov	r0, #256
 2981 0eae 09A9     		add	r1, sp, #36
 2982 0eb0 FFF7FEFF 		bl	write_eeprom
 2983              	.LVL245:
 629:.\Protocolo.c **** 							write_eeprom(525,resultado);
 2984              		.loc 1 629 0
 2985 0eb4 40F20D20 		movw	r0, #525
 2986 0eb8 9A49     		ldr	r1, .L602+8
 2987 0eba FFF7FEFF 		bl	write_eeprom
 2988              	.LVL246:
 2989 0ebe 09E0     		b	.L204
 2990              	.L219:
 630:.\Protocolo.c **** 						}
 631:.\Protocolo.c **** 						else{
 632:.\Protocolo.c **** 							write_eeprom(345,corte);
 2991              		.loc 1 632 0
 2992 0ec0 40F25910 		movw	r0, #345
 2993 0ec4 09A9     		add	r1, sp, #36
 2994 0ec6 FFF7FEFF 		bl	write_eeprom
 2995              	.LVL247:
 633:.\Protocolo.c **** 							write_eeprom(589,resultado);
 2996              		.loc 1 633 0
 2997 0eca 40F24D20 		movw	r0, #589
 2998 0ece 9549     		ldr	r1, .L602+8
 2999 0ed0 FFF7FEFF 		bl	write_eeprom
 3000              	.LVL248:
 3001              	.L204:
 634:.\Protocolo.c **** 						}					
 635:.\Protocolo.c **** 					}	
 636:.\Protocolo.c ****                     
ARM GAS  C:\Users\IN-002~1\AppData\Local\Temp\ccxO8rjh.s 			page 68


 637:.\Protocolo.c ****                     if(((rventa.manguera==(kero&0x0F))&&(dir==lado.a.dir))||((rventa.manguera==(ker
 3002              		.loc 1 637 0
 3003 0ed4 954B     		ldr	r3, .L602+16
 3004 0ed6 93F8E020 		ldrb	r2, [r3, #224]	@ zero_extendqisi2
 3005 0eda 954B     		ldr	r3, .L602+20
 3006 0edc 1B78     		ldrb	r3, [r3]	@ zero_extendqisi2
 3007 0ede 03F00F03 		and	r3, r3, #15
 3008 0ee2 9342     		cmp	r3, r2
 3009 0ee4 03D1     		bne	.L220
 3010              		.loc 1 637 0 is_stmt 0 discriminator 1
 3011 0ee6 904B     		ldr	r3, .L602+12
 3012 0ee8 1B78     		ldrb	r3, [r3]	@ zero_extendqisi2
 3013 0eea AB42     		cmp	r3, r5
 3014 0eec 0BD0     		beq	.L221
 3015              	.L220:
 3016              		.loc 1 637 0 discriminator 3
 3017 0eee 914B     		ldr	r3, .L602+24
 3018 0ef0 1B78     		ldrb	r3, [r3]	@ zero_extendqisi2
 3019 0ef2 03F00F03 		and	r3, r3, #15
 3020 0ef6 9A42     		cmp	r2, r3
 3021 0ef8 40F0C280 		bne	.L222
 3022              		.loc 1 637 0 discriminator 4
 3023 0efc 8A4B     		ldr	r3, .L602+12
 3024 0efe 1B79     		ldrb	r3, [r3, #4]	@ zero_extendqisi2
 3025 0f00 AB42     		cmp	r3, r5
 3026 0f02 40F0BD80 		bne	.L222
 3027              	.L221:
 638:.\Protocolo.c **** 						for(x=0;x<=5;x++){									
 3028              		.loc 1 638 0 is_stmt 1
 3029 0f06 0022     		movs	r2, #0
 3030 0f08 854B     		ldr	r3, .L602+4
 3031 0f0a 1A60     		str	r2, [r3]
 3032 0f0c 08E0     		b	.L223
 3033              	.L224:
 639:.\Protocolo.c **** 						    write_psoc1(val,msn_tc[x]);
 3034              		.loc 1 639 0 discriminator 3
 3035 0f0e 2046     		mov	r0, r4
 3036 0f10 824A     		ldr	r2, .L602
 3037 0f12 D15C     		ldrb	r1, [r2, r3]	@ zero_extendqisi2
 3038 0f14 FFF7FEFF 		bl	write_psoc1
 3039              	.LVL249:
 638:.\Protocolo.c **** 						for(x=0;x<=5;x++){									
 3040              		.loc 1 638 0 discriminator 3
 3041 0f18 814A     		ldr	r2, .L602+4
 3042 0f1a 1368     		ldr	r3, [r2]
 3043 0f1c 0133     		adds	r3, r3, #1
 3044 0f1e 1360     		str	r3, [r2]
 3045              	.L223:
 638:.\Protocolo.c **** 						for(x=0;x<=5;x++){									
 3046              		.loc 1 638 0 is_stmt 0 discriminator 1
 3047 0f20 7F4B     		ldr	r3, .L602+4
 3048 0f22 1B68     		ldr	r3, [r3]
 3049 0f24 052B     		cmp	r3, #5
 3050 0f26 F2D9     		bls	.L224
 640:.\Protocolo.c **** 					    }
 641:.\Protocolo.c **** 					    write_psoc1(val,10);
 3051              		.loc 1 641 0 is_stmt 1
ARM GAS  C:\Users\IN-002~1\AppData\Local\Temp\ccxO8rjh.s 			page 69


 3052 0f28 2046     		mov	r0, r4
 3053 0f2a 0A21     		movs	r1, #10
 3054 0f2c FFF7FEFF 		bl	write_psoc1
 3055              	.LVL250:
 642:.\Protocolo.c ****                         for(x=0;x<=10;x++){									
 3056              		.loc 1 642 0
 3057 0f30 0022     		movs	r2, #0
 3058 0f32 7B4B     		ldr	r3, .L602+4
 3059 0f34 1A60     		str	r2, [r3]
 3060 0f36 08E0     		b	.L225
 3061              	.L226:
 643:.\Protocolo.c **** 						    write_psoc1(val,producto4n[x]);
 3062              		.loc 1 643 0 discriminator 3
 3063 0f38 2046     		mov	r0, r4
 3064 0f3a 7F4A     		ldr	r2, .L602+28
 3065 0f3c D15C     		ldrb	r1, [r2, r3]	@ zero_extendqisi2
 3066 0f3e FFF7FEFF 		bl	write_psoc1
 3067              	.LVL251:
 642:.\Protocolo.c ****                         for(x=0;x<=10;x++){									
 3068              		.loc 1 642 0 discriminator 3
 3069 0f42 774A     		ldr	r2, .L602+4
 3070 0f44 1368     		ldr	r3, [r2]
 3071 0f46 0133     		adds	r3, r3, #1
 3072 0f48 1360     		str	r3, [r2]
 3073              	.L225:
 642:.\Protocolo.c ****                         for(x=0;x<=10;x++){									
 3074              		.loc 1 642 0 is_stmt 0 discriminator 1
 3075 0f4a 754B     		ldr	r3, .L602+4
 3076 0f4c 1B68     		ldr	r3, [r3]
 3077 0f4e 0A2B     		cmp	r3, #10
 3078 0f50 F2D9     		bls	.L226
 644:.\Protocolo.c **** 					    }
 645:.\Protocolo.c ****                         write_psoc1(val,10);
 3079              		.loc 1 645 0 is_stmt 1
 3080 0f52 2046     		mov	r0, r4
 3081 0f54 0A21     		movs	r1, #10
 3082 0f56 FFF7FEFF 		bl	write_psoc1
 3083              	.LVL252:
 646:.\Protocolo.c **** 						for(x=0;x<=14;x++){									
 3084              		.loc 1 646 0
 3085 0f5a 0022     		movs	r2, #0
 3086 0f5c 704B     		ldr	r3, .L602+4
 3087 0f5e 1A60     		str	r2, [r3]
 3088 0f60 09E0     		b	.L227
 3089              	.L228:
 647:.\Protocolo.c **** 							write_psoc1(val,msn_lecact[x]);				//LECTURA ACTUAL
 3090              		.loc 1 647 0 discriminator 3
 3091 0f62 6E4A     		ldr	r2, .L602
 3092 0f64 1344     		add	r3, r3, r2
 3093 0f66 2046     		mov	r0, r4
 3094 0f68 197A     		ldrb	r1, [r3, #8]	@ zero_extendqisi2
 3095 0f6a FFF7FEFF 		bl	write_psoc1
 3096              	.LVL253:
 646:.\Protocolo.c **** 						for(x=0;x<=14;x++){									
 3097              		.loc 1 646 0 discriminator 3
 3098 0f6e 6C4A     		ldr	r2, .L602+4
 3099 0f70 1368     		ldr	r3, [r2]
ARM GAS  C:\Users\IN-002~1\AppData\Local\Temp\ccxO8rjh.s 			page 70


 3100 0f72 0133     		adds	r3, r3, #1
 3101 0f74 1360     		str	r3, [r2]
 3102              	.L227:
 646:.\Protocolo.c **** 						for(x=0;x<=14;x++){									
 3103              		.loc 1 646 0 is_stmt 0 discriminator 1
 3104 0f76 6A4B     		ldr	r3, .L602+4
 3105 0f78 1B68     		ldr	r3, [r3]
 3106 0f7a 0E2B     		cmp	r3, #14
 3107 0f7c F1D9     		bls	.L228
 648:.\Protocolo.c **** 						}
 649:.\Protocolo.c **** 						write_psoc1(val,10);
 3108              		.loc 1 649 0 is_stmt 1
 3109 0f7e 2046     		mov	r0, r4
 3110 0f80 0A21     		movs	r1, #10
 3111 0f82 FFF7FEFF 		bl	write_psoc1
 3112              	.LVL254:
 650:.\Protocolo.c **** 						print_totalesac(8,val);	
 3113              		.loc 1 650 0
 3114 0f86 0820     		movs	r0, #8
 3115 0f88 2146     		mov	r1, r4
 3116 0f8a FFF7FEFF 		bl	print_totalesac
 3117              	.LVL255:
 651:.\Protocolo.c **** 						for(x=0;x<=16;x++){												
 3118              		.loc 1 651 0
 3119 0f8e 0022     		movs	r2, #0
 3120 0f90 634B     		ldr	r3, .L602+4
 3121 0f92 1A60     		str	r2, [r3]
 3122 0f94 09E0     		b	.L229
 3123              	.L230:
 652:.\Protocolo.c **** 							write_psoc1(val,msn_lecaan[x]);				//LECTURA ANTERIOR
 3124              		.loc 1 652 0 discriminator 3
 3125 0f96 614A     		ldr	r2, .L602
 3126 0f98 1344     		add	r3, r3, r2
 3127 0f9a 2046     		mov	r0, r4
 3128 0f9c 197E     		ldrb	r1, [r3, #24]	@ zero_extendqisi2
 3129 0f9e FFF7FEFF 		bl	write_psoc1
 3130              	.LVL256:
 651:.\Protocolo.c **** 						for(x=0;x<=16;x++){												
 3131              		.loc 1 651 0 discriminator 3
 3132 0fa2 5F4A     		ldr	r2, .L602+4
 3133 0fa4 1368     		ldr	r3, [r2]
 3134 0fa6 0133     		adds	r3, r3, #1
 3135 0fa8 1360     		str	r3, [r2]
 3136              	.L229:
 651:.\Protocolo.c **** 						for(x=0;x<=16;x++){												
 3137              		.loc 1 651 0 is_stmt 0 discriminator 1
 3138 0faa 5D4B     		ldr	r3, .L602+4
 3139 0fac 1B68     		ldr	r3, [r3]
 3140 0fae 102B     		cmp	r3, #16
 3141 0fb0 F1D9     		bls	.L230
 653:.\Protocolo.c **** 						}
 654:.\Protocolo.c **** 						write_psoc1(val,10);
 3142              		.loc 1 654 0 is_stmt 1
 3143 0fb2 2046     		mov	r0, r4
 3144 0fb4 0A21     		movs	r1, #10
 3145 0fb6 FFF7FEFF 		bl	write_psoc1
 3146              	.LVL257:
ARM GAS  C:\Users\IN-002~1\AppData\Local\Temp\ccxO8rjh.s 			page 71


 655:.\Protocolo.c **** 						if(dir==lado.a.dir){
 3147              		.loc 1 655 0
 3148 0fba 5B4B     		ldr	r3, .L602+12
 3149 0fbc 1B78     		ldrb	r3, [r3]	@ zero_extendqisi2
 3150 0fbe AB42     		cmp	r3, r5
 3151 0fc0 05D1     		bne	.L231
 656:.\Protocolo.c **** 							leer_eeprom(1096,25);
 3152              		.loc 1 656 0
 3153 0fc2 4FF48960 		mov	r0, #1096
 3154 0fc6 1921     		movs	r1, #25
 3155 0fc8 FFF7FEFF 		bl	leer_eeprom
 3156              	.LVL258:
 3157 0fcc 04E0     		b	.L232
 3158              	.L231:
 657:.\Protocolo.c **** 						}
 658:.\Protocolo.c **** 						else{
 659:.\Protocolo.c **** 							leer_eeprom(1054,25);
 3159              		.loc 1 659 0
 3160 0fce 40F21E40 		movw	r0, #1054
 3161 0fd2 1921     		movs	r1, #25
 3162 0fd4 FFF7FEFF 		bl	leer_eeprom
 3163              	.LVL259:
 3164              	.L232:
 660:.\Protocolo.c **** 						}
 661:.\Protocolo.c **** 						print_totales(val);
 3165              		.loc 1 661 0
 3166 0fd8 2046     		mov	r0, r4
 3167 0fda FFF7FEFF 		bl	print_totales
 3168              	.LVL260:
 662:.\Protocolo.c **** 						for(z=1;z<=8;z++){
 3169              		.loc 1 662 0
 3170 0fde 0122     		movs	r2, #1
 3171 0fe0 564B     		ldr	r3, .L602+32
 3172 0fe2 1A60     		str	r2, [r3]
 3173 0fe4 10E0     		b	.L233
 3174              	.L234:
 663:.\Protocolo.c **** 							minuendo[z]=rventa.tdinero[z-1];
 3175              		.loc 1 663 0 discriminator 3
 3176 0fe6 564A     		ldr	r2, .L602+36
 3177 0fe8 1A44     		add	r2, r2, r3
 3178 0fea 92F8CA10 		ldrb	r1, [r2, #202]	@ zero_extendqisi2
 3179 0fee 10AA     		add	r2, sp, #64
 3180 0ff0 1A44     		add	r2, r2, r3
 3181 0ff2 02F82C1C 		strb	r1, [r2, #-44]
 664:.\Protocolo.c **** 							sustraendo[z]=buffer_i2c[z+8];
 3182              		.loc 1 664 0 discriminator 3
 3183 0ff6 03F10801 		add	r1, r3, #8
 3184 0ffa 5248     		ldr	r0, .L602+40
 3185 0ffc 415C     		ldrb	r1, [r0, r1]	@ zero_extendqisi2
 3186 0ffe 02F83C1C 		strb	r1, [r2, #-60]
 662:.\Protocolo.c **** 						for(z=1;z<=8;z++){
 3187              		.loc 1 662 0 discriminator 3
 3188 1002 0133     		adds	r3, r3, #1
 3189 1004 4D4A     		ldr	r2, .L602+32
 3190 1006 1360     		str	r3, [r2]
 3191              	.L233:
 662:.\Protocolo.c **** 						for(z=1;z<=8;z++){
ARM GAS  C:\Users\IN-002~1\AppData\Local\Temp\ccxO8rjh.s 			page 72


 3192              		.loc 1 662 0 is_stmt 0 discriminator 1
 3193 1008 4C4B     		ldr	r3, .L602+32
 3194 100a 1B68     		ldr	r3, [r3]
 3195 100c 082B     		cmp	r3, #8
 3196 100e EAD9     		bls	.L234
 665:.\Protocolo.c **** 						}
 666:.\Protocolo.c **** 						minuendo[0]=8;
 3197              		.loc 1 666 0 is_stmt 1
 3198 1010 10A9     		add	r1, sp, #64
 3199 1012 0823     		movs	r3, #8
 3200 1014 01F82C3D 		strb	r3, [r1, #-44]!
 667:.\Protocolo.c **** 						operacion(2,minuendo,sustraendo);
 3201              		.loc 1 667 0
 3202 1018 0220     		movs	r0, #2
 3203 101a 01AA     		add	r2, sp, #4
 3204 101c FFF7FEFF 		bl	operacion
 3205              	.LVL261:
 668:.\Protocolo.c **** 						for(x=0;x<=17;x++){									
 3206              		.loc 1 668 0
 3207 1020 0022     		movs	r2, #0
 3208 1022 3F4B     		ldr	r3, .L602+4
 3209 1024 1A60     		str	r2, [r3]
 3210 1026 0AE0     		b	.L235
 3211              	.L236:
 669:.\Protocolo.c **** 							write_psoc1(val,msn_tventas[x]);				//Total de ventas
 3212              		.loc 1 669 0 discriminator 3
 3213 1028 3C4A     		ldr	r2, .L602
 3214 102a 1344     		add	r3, r3, r2
 3215 102c 2046     		mov	r0, r4
 3216 102e 93F82C10 		ldrb	r1, [r3, #44]	@ zero_extendqisi2
 3217 1032 FFF7FEFF 		bl	write_psoc1
 3218              	.LVL262:
 668:.\Protocolo.c **** 						for(x=0;x<=17;x++){									
 3219              		.loc 1 668 0 discriminator 3
 3220 1036 3A4A     		ldr	r2, .L602+4
 3221 1038 1368     		ldr	r3, [r2]
 3222 103a 0133     		adds	r3, r3, #1
 3223 103c 1360     		str	r3, [r2]
 3224              	.L235:
 668:.\Protocolo.c **** 						for(x=0;x<=17;x++){									
 3225              		.loc 1 668 0 is_stmt 0 discriminator 1
 3226 103e 384B     		ldr	r3, .L602+4
 3227 1040 1B68     		ldr	r3, [r3]
 3228 1042 112B     		cmp	r3, #17
 3229 1044 F0D9     		bls	.L236
 670:.\Protocolo.c **** 						}
 671:.\Protocolo.c **** 						print_valor(resultado,val);							
 3230              		.loc 1 671 0 is_stmt 1
 3231 1046 3748     		ldr	r0, .L602+8
 3232 1048 2146     		mov	r1, r4
 3233 104a FFF7FEFF 		bl	print_valor
 3234              	.LVL263:
 672:.\Protocolo.c **** 						if(dir==lado.a.dir){
 3235              		.loc 1 672 0
 3236 104e 364B     		ldr	r3, .L602+12
 3237 1050 1B78     		ldrb	r3, [r3]	@ zero_extendqisi2
 3238 1052 AB42     		cmp	r3, r5
ARM GAS  C:\Users\IN-002~1\AppData\Local\Temp\ccxO8rjh.s 			page 73


 3239 1054 0AD1     		bne	.L237
 673:.\Protocolo.c **** 						    write_eeprom(1096,corte);
 3240              		.loc 1 673 0
 3241 1056 4FF48960 		mov	r0, #1096
 3242 105a 09A9     		add	r1, sp, #36
 3243 105c FFF7FEFF 		bl	write_eeprom
 3244              	.LVL264:
 674:.\Protocolo.c **** 						    write_eeprom(1038,resultado);
 3245              		.loc 1 674 0
 3246 1060 40F20E40 		movw	r0, #1038
 3247 1064 2F49     		ldr	r1, .L602+8
 3248 1066 FFF7FEFF 		bl	write_eeprom
 3249              	.LVL265:
 3250 106a 09E0     		b	.L222
 3251              	.L237:
 675:.\Protocolo.c **** 					    }
 676:.\Protocolo.c **** 					    else{
 677:.\Protocolo.c **** 						    write_eeprom(1054,corte);
 3252              		.loc 1 677 0
 3253 106c 40F21E40 		movw	r0, #1054
 3254 1070 09A9     		add	r1, sp, #36
 3255 1072 FFF7FEFF 		bl	write_eeprom
 3256              	.LVL266:
 678:.\Protocolo.c **** 						    write_eeprom(1081,resultado);
 3257              		.loc 1 678 0
 3258 1076 40F23940 		movw	r0, #1081
 3259 107a 2A49     		ldr	r1, .L602+8
 3260 107c FFF7FEFF 		bl	write_eeprom
 3261              	.LVL267:
 3262              	.L222:
 488:.\Protocolo.c **** 					rventa.manguera=(Surtidor_rxBuffer[y+2]&0x0F)+1;
 3263              		.loc 1 488 0 discriminator 2
 3264 1080 314A     		ldr	r2, .L602+44
 3265 1082 1368     		ldr	r3, [r2]
 3266 1084 1E33     		adds	r3, r3, #30
 3267 1086 1360     		str	r3, [r2]
 3268              	.L157:
 488:.\Protocolo.c **** 					rventa.manguera=(Surtidor_rxBuffer[y+2]&0x0F)+1;
 3269              		.loc 1 488 0 is_stmt 0 discriminator 1
 3270 1088 2F4B     		ldr	r3, .L602+44
 3271 108a 1E68     		ldr	r6, [r3]
 3272 108c 1E2E     		cmp	r6, #30
 3273 108e 7FF6F9AB 		bls	.L238
 679:.\Protocolo.c **** 						}					
 680:.\Protocolo.c **** 					}
 681:.\Protocolo.c **** 				}
 682:.\Protocolo.c **** 				Surtidor_ClearRxBuffer();
 3274              		.loc 1 682 0 is_stmt 1
 3275 1092 FFF7FEFF 		bl	Surtidor_ClearRxBuffer
 3276              	.LVL268:
 683:.\Protocolo.c **** 				return 2;					
 3277              		.loc 1 683 0
 3278 1096 0220     		movs	r0, #2
 3279 1098 02F0DAB8 		b	.L76
 3280              	.L73:
 684:.\Protocolo.c **** 			}			
 685:.\Protocolo.c **** 			else{
ARM GAS  C:\Users\IN-002~1\AppData\Local\Temp\ccxO8rjh.s 			page 74


 686:.\Protocolo.c **** 				return 0;
 687:.\Protocolo.c **** 			}
 688:.\Protocolo.c **** 		break;
 689:.\Protocolo.c **** 		
 690:.\Protocolo.c **** 		case 94:
 691:.\Protocolo.c **** 			if((Surtidor_rxBuffer[0]==0xFF)&&(Surtidor_rxBuffer[1]==0xF6)&&(Surtidor_rxBuffer[93]==0xF0)&&(S
 3281              		.loc 1 691 0
 3282 109c 2B4B     		ldr	r3, .L602+48
 3283 109e 1B78     		ldrb	r3, [r3]	@ zero_extendqisi2
 3284 10a0 DBB2     		uxtb	r3, r3
 3285 10a2 FF2B     		cmp	r3, #255
 3286 10a4 42F0B580 		bne	.L575
 3287              		.loc 1 691 0 is_stmt 0 discriminator 1
 3288 10a8 284B     		ldr	r3, .L602+48
 3289 10aa 5B78     		ldrb	r3, [r3, #1]	@ zero_extendqisi2
 3290 10ac DBB2     		uxtb	r3, r3
 3291 10ae F62B     		cmp	r3, #246
 3292 10b0 42F0B180 		bne	.L576
 3293              		.loc 1 691 0 discriminator 2
 3294 10b4 254B     		ldr	r3, .L602+48
 3295 10b6 93F85D30 		ldrb	r3, [r3, #93]	@ zero_extendqisi2
 3296 10ba DBB2     		uxtb	r3, r3
 3297 10bc F02B     		cmp	r3, #240
 3298 10be 42F0AC80 		bne	.L577
 3299              		.loc 1 691 0 discriminator 3
 3300 10c2 224B     		ldr	r3, .L602+48
 3301 10c4 DB78     		ldrb	r3, [r3, #3]	@ zero_extendqisi2
 3302 10c6 DBB2     		uxtb	r3, r3
 3303 10c8 F92B     		cmp	r3, #249
 3304 10ca 42F0A880 		bne	.L578
 692:.\Protocolo.c **** 				for(y=0;y<=60;y+=30){
 3305              		.loc 1 692 0 is_stmt 1
 3306 10ce 0022     		movs	r2, #0
 3307 10d0 1D4B     		ldr	r3, .L602+44
 3308 10d2 1A60     		str	r2, [r3]
 3309 10d4 00F002BC 		b	.L239
 3310              	.L320:
 693:.\Protocolo.c **** 					rventa.manguera=(Surtidor_rxBuffer[y+2]&0x0F)+1;
 3311              		.loc 1 693 0
 3312 10d8 B31C     		adds	r3, r6, #2
 3313 10da 1C4A     		ldr	r2, .L602+48
 3314 10dc D15C     		ldrb	r1, [r2, r3]	@ zero_extendqisi2
 3315 10de 01F00F01 		and	r1, r1, #15
 3316 10e2 0131     		adds	r1, r1, #1
 3317 10e4 114B     		ldr	r3, .L602+16
 3318 10e6 83F8E010 		strb	r1, [r3, #224]
 694:.\Protocolo.c **** 					for(x=0;x<=7;x++){
 3319              		.loc 1 694 0
 3320 10ea 0022     		movs	r2, #0
 3321 10ec 0C4B     		ldr	r3, .L602+4
 3322 10ee 1A60     		str	r2, [r3]
 3323 10f0 0CE0     		b	.L240
 3324              	.L241:
 695:.\Protocolo.c **** 						rventa.tvolumen[x]=(Surtidor_rxBuffer[y+4+x]&0x0F);						
 3325              		.loc 1 695 0 discriminator 3
 3326 10f2 F218     		adds	r2, r6, r3
 3327 10f4 0432     		adds	r2, r2, #4
ARM GAS  C:\Users\IN-002~1\AppData\Local\Temp\ccxO8rjh.s 			page 75


 3328 10f6 1548     		ldr	r0, .L602+48
 3329 10f8 805C     		ldrb	r0, [r0, r2]	@ zero_extendqisi2
 3330 10fa 0C4A     		ldr	r2, .L602+16
 3331 10fc 1A44     		add	r2, r2, r3
 3332 10fe 00F00F00 		and	r0, r0, #15
 3333 1102 82F8BD00 		strb	r0, [r2, #189]
 694:.\Protocolo.c **** 					for(x=0;x<=7;x++){
 3334              		.loc 1 694 0 discriminator 3
 3335 1106 0133     		adds	r3, r3, #1
 3336 1108 054A     		ldr	r2, .L602+4
 3337 110a 1360     		str	r3, [r2]
 3338              	.L240:
 694:.\Protocolo.c **** 					for(x=0;x<=7;x++){
 3339              		.loc 1 694 0 is_stmt 0 discriminator 1
 3340 110c 044B     		ldr	r3, .L602+4
 3341 110e 1B68     		ldr	r3, [r3]
 3342 1110 072B     		cmp	r3, #7
 3343 1112 EED9     		bls	.L241
 696:.\Protocolo.c **** 					}
 697:.\Protocolo.c **** 					for(x=0;x<=7;x++){
 3344              		.loc 1 697 0 is_stmt 1
 3345 1114 0022     		movs	r2, #0
 3346 1116 024B     		ldr	r3, .L602+4
 3347 1118 1A60     		str	r2, [r3]
 3348 111a 26E0     		b	.L242
 3349              	.L603:
 3350              		.align	2
 3351              	.L602:
 3352 111c 00000000 		.word	.LANCHOR1
 3353 1120 00000000 		.word	x
 3354 1124 00000000 		.word	resultado
 3355 1128 00000000 		.word	lado
 3356 112c 00000000 		.word	rventa
 3357 1130 00000000 		.word	kero
 3358 1134 00000000 		.word	kero2
 3359 1138 00000000 		.word	producto4n
 3360 113c 00000000 		.word	z
 3361 1140 FFFFFFFF 		.word	rventa-1
 3362 1144 00000000 		.word	buffer_i2c
 3363 1148 00000000 		.word	y
 3364 114c 00000000 		.word	Surtidor_rxBuffer
 3365              	.L243:
 698:.\Protocolo.c **** 						rventa.tdinero[x]=(Surtidor_rxBuffer[y+13+x]&0x0F);					
 3366              		.loc 1 698 0 discriminator 3
 3367 1150 F218     		adds	r2, r6, r3
 3368 1152 0D32     		adds	r2, r2, #13
 3369 1154 A748     		ldr	r0, .L604
 3370 1156 805C     		ldrb	r0, [r0, r2]	@ zero_extendqisi2
 3371 1158 A74A     		ldr	r2, .L604+4
 3372 115a 1A44     		add	r2, r2, r3
 3373 115c 00F00F00 		and	r0, r0, #15
 3374 1160 82F8CA00 		strb	r0, [r2, #202]
 697:.\Protocolo.c **** 						rventa.tdinero[x]=(Surtidor_rxBuffer[y+13+x]&0x0F);					
 3375              		.loc 1 697 0 discriminator 3
 3376 1164 0133     		adds	r3, r3, #1
 3377 1166 A54A     		ldr	r2, .L604+8
 3378 1168 1360     		str	r3, [r2]
ARM GAS  C:\Users\IN-002~1\AppData\Local\Temp\ccxO8rjh.s 			page 76


 3379              	.L242:
 697:.\Protocolo.c **** 						rventa.tdinero[x]=(Surtidor_rxBuffer[y+13+x]&0x0F);					
 3380              		.loc 1 697 0 is_stmt 0 discriminator 1
 3381 116a A44B     		ldr	r3, .L604+8
 3382 116c 1B68     		ldr	r3, [r3]
 3383 116e 072B     		cmp	r3, #7
 3384 1170 EED9     		bls	.L243
 699:.\Protocolo.c **** 					}
 700:.\Protocolo.c **** 					for(z=0;z<=7;z++){
 3385              		.loc 1 700 0 is_stmt 1
 3386 1172 0022     		movs	r2, #0
 3387 1174 A24B     		ldr	r3, .L604+12
 3388 1176 1A60     		str	r2, [r3]
 3389 1178 0AE0     		b	.L244
 3390              	.L245:
 701:.\Protocolo.c **** 						corte[z+1]=rventa.tvolumen[z];
 3391              		.loc 1 701 0 discriminator 3
 3392 117a 5A1C     		adds	r2, r3, #1
 3393 117c 9E48     		ldr	r0, .L604+4
 3394 117e 0344     		add	r3, r3, r0
 3395 1180 93F8BD00 		ldrb	r0, [r3, #189]	@ zero_extendqisi2
 3396 1184 10AB     		add	r3, sp, #64
 3397 1186 1344     		add	r3, r3, r2
 3398 1188 03F81C0C 		strb	r0, [r3, #-28]
 700:.\Protocolo.c **** 						corte[z+1]=rventa.tvolumen[z];
 3399              		.loc 1 700 0 discriminator 3
 3400 118c 9C4B     		ldr	r3, .L604+12
 3401 118e 1A60     		str	r2, [r3]
 3402              	.L244:
 700:.\Protocolo.c **** 						corte[z+1]=rventa.tvolumen[z];
 3403              		.loc 1 700 0 is_stmt 0 discriminator 1
 3404 1190 9B4B     		ldr	r3, .L604+12
 3405 1192 1B68     		ldr	r3, [r3]
 3406 1194 072B     		cmp	r3, #7
 3407 1196 F0D9     		bls	.L245
 702:.\Protocolo.c **** 					}
 703:.\Protocolo.c **** 					for(z=9;z<=16;z++){
 3408              		.loc 1 703 0 is_stmt 1
 3409 1198 0922     		movs	r2, #9
 3410 119a 994B     		ldr	r3, .L604+12
 3411 119c 1A60     		str	r2, [r3]
 3412 119e 0AE0     		b	.L246
 3413              	.L247:
 704:.\Protocolo.c **** 						corte[z]=rventa.tdinero[z-9];
 3414              		.loc 1 704 0 discriminator 3
 3415 11a0 984A     		ldr	r2, .L604+16
 3416 11a2 1A44     		add	r2, r2, r3
 3417 11a4 92F8CA00 		ldrb	r0, [r2, #202]	@ zero_extendqisi2
 3418 11a8 10AA     		add	r2, sp, #64
 3419 11aa 1A44     		add	r2, r2, r3
 3420 11ac 02F81C0C 		strb	r0, [r2, #-28]
 703:.\Protocolo.c **** 						corte[z]=rventa.tdinero[z-9];
 3421              		.loc 1 703 0 discriminator 3
 3422 11b0 0133     		adds	r3, r3, #1
 3423 11b2 934A     		ldr	r2, .L604+12
 3424 11b4 1360     		str	r3, [r2]
 3425              	.L246:
ARM GAS  C:\Users\IN-002~1\AppData\Local\Temp\ccxO8rjh.s 			page 77


 703:.\Protocolo.c **** 						corte[z]=rventa.tdinero[z-9];
 3426              		.loc 1 703 0 is_stmt 0 discriminator 1
 3427 11b6 924B     		ldr	r3, .L604+12
 3428 11b8 1B68     		ldr	r3, [r3]
 3429 11ba 102B     		cmp	r3, #16
 3430 11bc F0D9     		bls	.L247
 705:.\Protocolo.c **** 					}
 706:.\Protocolo.c **** 					corte[0]=16;		
 3431              		.loc 1 706 0 is_stmt 1
 3432 11be 1023     		movs	r3, #16
 3433 11c0 8DF82430 		strb	r3, [sp, #36]
 707:.\Protocolo.c **** 					if(((rventa.manguera==(corriente&0x0F))&&(dir==lado.a.dir))||((rventa.manguera==(corriente2&0x
 3434              		.loc 1 707 0
 3435 11c4 904B     		ldr	r3, .L604+20
 3436 11c6 1B78     		ldrb	r3, [r3]	@ zero_extendqisi2
 3437 11c8 03F00F03 		and	r3, r3, #15
 3438 11cc 8B42     		cmp	r3, r1
 3439 11ce 03D1     		bne	.L248
 3440              		.loc 1 707 0 is_stmt 0 discriminator 1
 3441 11d0 8E4B     		ldr	r3, .L604+24
 3442 11d2 1B78     		ldrb	r3, [r3]	@ zero_extendqisi2
 3443 11d4 AB42     		cmp	r3, r5
 3444 11d6 0BD0     		beq	.L249
 3445              	.L248:
 3446              		.loc 1 707 0 discriminator 3
 3447 11d8 8D4B     		ldr	r3, .L604+28
 3448 11da 1B78     		ldrb	r3, [r3]	@ zero_extendqisi2
 3449 11dc 03F00F03 		and	r3, r3, #15
 3450 11e0 9942     		cmp	r1, r3
 3451 11e2 40F0C080 		bne	.L250
 3452              		.loc 1 707 0 discriminator 4
 3453 11e6 894B     		ldr	r3, .L604+24
 3454 11e8 1B79     		ldrb	r3, [r3, #4]	@ zero_extendqisi2
 3455 11ea AB42     		cmp	r3, r5
 3456 11ec 40F0BB80 		bne	.L250
 3457              	.L249:
 708:.\Protocolo.c **** 						for(x=0;x<=5;x++){									
 3458              		.loc 1 708 0 is_stmt 1
 3459 11f0 0022     		movs	r2, #0
 3460 11f2 824B     		ldr	r3, .L604+8
 3461 11f4 1A60     		str	r2, [r3]
 3462 11f6 08E0     		b	.L251
 3463              	.L252:
 709:.\Protocolo.c **** 							write_psoc1(val,msn_tc[x]);
 3464              		.loc 1 709 0 discriminator 3
 3465 11f8 2046     		mov	r0, r4
 3466 11fa 864A     		ldr	r2, .L604+32
 3467 11fc D15C     		ldrb	r1, [r2, r3]	@ zero_extendqisi2
 3468 11fe FFF7FEFF 		bl	write_psoc1
 3469              	.LVL269:
 708:.\Protocolo.c **** 						for(x=0;x<=5;x++){									
 3470              		.loc 1 708 0 discriminator 3
 3471 1202 7E4A     		ldr	r2, .L604+8
 3472 1204 1368     		ldr	r3, [r2]
 3473 1206 0133     		adds	r3, r3, #1
 3474 1208 1360     		str	r3, [r2]
 3475              	.L251:
ARM GAS  C:\Users\IN-002~1\AppData\Local\Temp\ccxO8rjh.s 			page 78


 708:.\Protocolo.c **** 						for(x=0;x<=5;x++){									
 3476              		.loc 1 708 0 is_stmt 0 discriminator 1
 3477 120a 7C4B     		ldr	r3, .L604+8
 3478 120c 1B68     		ldr	r3, [r3]
 3479 120e 052B     		cmp	r3, #5
 3480 1210 F2D9     		bls	.L252
 710:.\Protocolo.c **** 						}
 711:.\Protocolo.c **** 						write_psoc1(val,10);
 3481              		.loc 1 711 0 is_stmt 1
 3482 1212 2046     		mov	r0, r4
 3483 1214 0A21     		movs	r1, #10
 3484 1216 FFF7FEFF 		bl	write_psoc1
 3485              	.LVL270:
 712:.\Protocolo.c ****                         for(x=0;x<=10;x++){									
 3486              		.loc 1 712 0
 3487 121a 0022     		movs	r2, #0
 3488 121c 774B     		ldr	r3, .L604+8
 3489 121e 1A60     		str	r2, [r3]
 3490 1220 08E0     		b	.L253
 3491              	.L254:
 713:.\Protocolo.c **** 						write_psoc1(val,producto1n[x]);
 3492              		.loc 1 713 0 discriminator 3
 3493 1222 2046     		mov	r0, r4
 3494 1224 7C4A     		ldr	r2, .L604+36
 3495 1226 D15C     		ldrb	r1, [r2, r3]	@ zero_extendqisi2
 3496 1228 FFF7FEFF 		bl	write_psoc1
 3497              	.LVL271:
 712:.\Protocolo.c ****                         for(x=0;x<=10;x++){									
 3498              		.loc 1 712 0 discriminator 3
 3499 122c 734A     		ldr	r2, .L604+8
 3500 122e 1368     		ldr	r3, [r2]
 3501 1230 0133     		adds	r3, r3, #1
 3502 1232 1360     		str	r3, [r2]
 3503              	.L253:
 712:.\Protocolo.c ****                         for(x=0;x<=10;x++){									
 3504              		.loc 1 712 0 is_stmt 0 discriminator 1
 3505 1234 714B     		ldr	r3, .L604+8
 3506 1236 1B68     		ldr	r3, [r3]
 3507 1238 0A2B     		cmp	r3, #10
 3508 123a F2D9     		bls	.L254
 714:.\Protocolo.c **** 					    }
 715:.\Protocolo.c ****                         write_psoc1(val,10);
 3509              		.loc 1 715 0 is_stmt 1
 3510 123c 2046     		mov	r0, r4
 3511 123e 0A21     		movs	r1, #10
 3512 1240 FFF7FEFF 		bl	write_psoc1
 3513              	.LVL272:
 716:.\Protocolo.c **** 						for(x=0;x<=14;x++){									
 3514              		.loc 1 716 0
 3515 1244 0022     		movs	r2, #0
 3516 1246 6D4B     		ldr	r3, .L604+8
 3517 1248 1A60     		str	r2, [r3]
 3518 124a 09E0     		b	.L255
 3519              	.L256:
 717:.\Protocolo.c **** 							write_psoc1(val,msn_lecact[x]);				//LECTURA ACTUAL
 3520              		.loc 1 717 0 discriminator 3
 3521 124c 714A     		ldr	r2, .L604+32
ARM GAS  C:\Users\IN-002~1\AppData\Local\Temp\ccxO8rjh.s 			page 79


 3522 124e 1344     		add	r3, r3, r2
 3523 1250 2046     		mov	r0, r4
 3524 1252 197A     		ldrb	r1, [r3, #8]	@ zero_extendqisi2
 3525 1254 FFF7FEFF 		bl	write_psoc1
 3526              	.LVL273:
 716:.\Protocolo.c **** 						for(x=0;x<=14;x++){									
 3527              		.loc 1 716 0 discriminator 3
 3528 1258 684A     		ldr	r2, .L604+8
 3529 125a 1368     		ldr	r3, [r2]
 3530 125c 0133     		adds	r3, r3, #1
 3531 125e 1360     		str	r3, [r2]
 3532              	.L255:
 716:.\Protocolo.c **** 						for(x=0;x<=14;x++){									
 3533              		.loc 1 716 0 is_stmt 0 discriminator 1
 3534 1260 664B     		ldr	r3, .L604+8
 3535 1262 1B68     		ldr	r3, [r3]
 3536 1264 0E2B     		cmp	r3, #14
 3537 1266 F1D9     		bls	.L256
 718:.\Protocolo.c **** 						}
 719:.\Protocolo.c **** 						write_psoc1(val,10);
 3538              		.loc 1 719 0 is_stmt 1
 3539 1268 2046     		mov	r0, r4
 3540 126a 0A21     		movs	r1, #10
 3541 126c FFF7FEFF 		bl	write_psoc1
 3542              	.LVL274:
 720:.\Protocolo.c **** 						print_totalesac(8,val);	
 3543              		.loc 1 720 0
 3544 1270 0820     		movs	r0, #8
 3545 1272 2146     		mov	r1, r4
 3546 1274 FFF7FEFF 		bl	print_totalesac
 3547              	.LVL275:
 721:.\Protocolo.c **** 						for(x=0;x<=16;x++){												
 3548              		.loc 1 721 0
 3549 1278 0022     		movs	r2, #0
 3550 127a 604B     		ldr	r3, .L604+8
 3551 127c 1A60     		str	r2, [r3]
 3552 127e 09E0     		b	.L257
 3553              	.L258:
 722:.\Protocolo.c **** 							write_psoc1(val,msn_lecaan[x]);				//LECTURA ANTERIOR
 3554              		.loc 1 722 0 discriminator 3
 3555 1280 644A     		ldr	r2, .L604+32
 3556 1282 1344     		add	r3, r3, r2
 3557 1284 2046     		mov	r0, r4
 3558 1286 197E     		ldrb	r1, [r3, #24]	@ zero_extendqisi2
 3559 1288 FFF7FEFF 		bl	write_psoc1
 3560              	.LVL276:
 721:.\Protocolo.c **** 						for(x=0;x<=16;x++){												
 3561              		.loc 1 721 0 discriminator 3
 3562 128c 5B4A     		ldr	r2, .L604+8
 3563 128e 1368     		ldr	r3, [r2]
 3564 1290 0133     		adds	r3, r3, #1
 3565 1292 1360     		str	r3, [r2]
 3566              	.L257:
 721:.\Protocolo.c **** 						for(x=0;x<=16;x++){												
 3567              		.loc 1 721 0 is_stmt 0 discriminator 1
 3568 1294 594B     		ldr	r3, .L604+8
 3569 1296 1B68     		ldr	r3, [r3]
ARM GAS  C:\Users\IN-002~1\AppData\Local\Temp\ccxO8rjh.s 			page 80


 3570 1298 102B     		cmp	r3, #16
 3571 129a F1D9     		bls	.L258
 723:.\Protocolo.c **** 						}
 724:.\Protocolo.c **** 						write_psoc1(val,10);
 3572              		.loc 1 724 0 is_stmt 1
 3573 129c 2046     		mov	r0, r4
 3574 129e 0A21     		movs	r1, #10
 3575 12a0 FFF7FEFF 		bl	write_psoc1
 3576              	.LVL277:
 725:.\Protocolo.c **** 						if(dir==lado.a.dir){
 3577              		.loc 1 725 0
 3578 12a4 594B     		ldr	r3, .L604+24
 3579 12a6 1B78     		ldrb	r3, [r3]	@ zero_extendqisi2
 3580 12a8 AB42     		cmp	r3, r5
 3581 12aa 04D1     		bne	.L259
 726:.\Protocolo.c **** 							leer_eeprom(192,25);
 3582              		.loc 1 726 0
 3583 12ac C020     		movs	r0, #192
 3584 12ae 1921     		movs	r1, #25
 3585 12b0 FFF7FEFF 		bl	leer_eeprom
 3586              	.LVL278:
 3587 12b4 04E0     		b	.L260
 3588              	.L259:
 727:.\Protocolo.c **** 						}
 728:.\Protocolo.c **** 						else{
 729:.\Protocolo.c **** 							leer_eeprom(281,25);
 3589              		.loc 1 729 0
 3590 12b6 40F21910 		movw	r0, #281
 3591 12ba 1921     		movs	r1, #25
 3592 12bc FFF7FEFF 		bl	leer_eeprom
 3593              	.LVL279:
 3594              	.L260:
 730:.\Protocolo.c **** 						}
 731:.\Protocolo.c **** 						print_totales(val);
 3595              		.loc 1 731 0
 3596 12c0 2046     		mov	r0, r4
 3597 12c2 FFF7FEFF 		bl	print_totales
 3598              	.LVL280:
 732:.\Protocolo.c **** 						for(z=1;z<=8;z++){
 3599              		.loc 1 732 0
 3600 12c6 0122     		movs	r2, #1
 3601 12c8 4D4B     		ldr	r3, .L604+12
 3602 12ca 1A60     		str	r2, [r3]
 3603 12cc 10E0     		b	.L261
 3604              	.L262:
 733:.\Protocolo.c **** 							minuendo[z]=rventa.tdinero[z-1];
 3605              		.loc 1 733 0 discriminator 3
 3606 12ce 534A     		ldr	r2, .L604+40
 3607 12d0 1A44     		add	r2, r2, r3
 3608 12d2 92F8CA10 		ldrb	r1, [r2, #202]	@ zero_extendqisi2
 3609 12d6 10AA     		add	r2, sp, #64
 3610 12d8 1A44     		add	r2, r2, r3
 3611 12da 02F82C1C 		strb	r1, [r2, #-44]
 734:.\Protocolo.c **** 							sustraendo[z]=buffer_i2c[z+8];
 3612              		.loc 1 734 0 discriminator 3
 3613 12de 03F10801 		add	r1, r3, #8
 3614 12e2 4F48     		ldr	r0, .L604+44
ARM GAS  C:\Users\IN-002~1\AppData\Local\Temp\ccxO8rjh.s 			page 81


 3615 12e4 415C     		ldrb	r1, [r0, r1]	@ zero_extendqisi2
 3616 12e6 02F83C1C 		strb	r1, [r2, #-60]
 732:.\Protocolo.c **** 						for(z=1;z<=8;z++){
 3617              		.loc 1 732 0 discriminator 3
 3618 12ea 0133     		adds	r3, r3, #1
 3619 12ec 444A     		ldr	r2, .L604+12
 3620 12ee 1360     		str	r3, [r2]
 3621              	.L261:
 732:.\Protocolo.c **** 						for(z=1;z<=8;z++){
 3622              		.loc 1 732 0 is_stmt 0 discriminator 1
 3623 12f0 434B     		ldr	r3, .L604+12
 3624 12f2 1B68     		ldr	r3, [r3]
 3625 12f4 082B     		cmp	r3, #8
 3626 12f6 EAD9     		bls	.L262
 735:.\Protocolo.c **** 						}
 736:.\Protocolo.c **** 						minuendo[0]=8;
 3627              		.loc 1 736 0 is_stmt 1
 3628 12f8 10A9     		add	r1, sp, #64
 3629 12fa 0823     		movs	r3, #8
 3630 12fc 01F82C3D 		strb	r3, [r1, #-44]!
 737:.\Protocolo.c **** 						operacion(2,minuendo,sustraendo);
 3631              		.loc 1 737 0
 3632 1300 0220     		movs	r0, #2
 3633 1302 01AA     		add	r2, sp, #4
 3634 1304 FFF7FEFF 		bl	operacion
 3635              	.LVL281:
 738:.\Protocolo.c **** 						for(x=0;x<=17;x++){									
 3636              		.loc 1 738 0
 3637 1308 0022     		movs	r2, #0
 3638 130a 3C4B     		ldr	r3, .L604+8
 3639 130c 1A60     		str	r2, [r3]
 3640 130e 0AE0     		b	.L263
 3641              	.L264:
 739:.\Protocolo.c **** 							write_psoc1(val,msn_tventas[x]);				//Total de ventas
 3642              		.loc 1 739 0 discriminator 3
 3643 1310 404A     		ldr	r2, .L604+32
 3644 1312 1344     		add	r3, r3, r2
 3645 1314 2046     		mov	r0, r4
 3646 1316 93F82C10 		ldrb	r1, [r3, #44]	@ zero_extendqisi2
 3647 131a FFF7FEFF 		bl	write_psoc1
 3648              	.LVL282:
 738:.\Protocolo.c **** 						for(x=0;x<=17;x++){									
 3649              		.loc 1 738 0 discriminator 3
 3650 131e 374A     		ldr	r2, .L604+8
 3651 1320 1368     		ldr	r3, [r2]
 3652 1322 0133     		adds	r3, r3, #1
 3653 1324 1360     		str	r3, [r2]
 3654              	.L263:
 738:.\Protocolo.c **** 						for(x=0;x<=17;x++){									
 3655              		.loc 1 738 0 is_stmt 0 discriminator 1
 3656 1326 354B     		ldr	r3, .L604+8
 3657 1328 1B68     		ldr	r3, [r3]
 3658 132a 112B     		cmp	r3, #17
 3659 132c F0D9     		bls	.L264
 740:.\Protocolo.c **** 						}
 741:.\Protocolo.c **** 						print_valor(resultado,val);
 3660              		.loc 1 741 0 is_stmt 1
ARM GAS  C:\Users\IN-002~1\AppData\Local\Temp\ccxO8rjh.s 			page 82


 3661 132e 3D48     		ldr	r0, .L604+48
 3662 1330 2146     		mov	r1, r4
 3663 1332 FFF7FEFF 		bl	print_valor
 3664              	.LVL283:
 742:.\Protocolo.c **** 						if(dir==lado.a.dir){
 3665              		.loc 1 742 0
 3666 1336 354B     		ldr	r3, .L604+24
 3667 1338 1B78     		ldrb	r3, [r3]	@ zero_extendqisi2
 3668 133a AB42     		cmp	r3, r5
 3669 133c 09D1     		bne	.L265
 743:.\Protocolo.c **** 							write_eeprom(192,corte);	
 3670              		.loc 1 743 0
 3671 133e C020     		movs	r0, #192
 3672 1340 09A9     		add	r1, sp, #36
 3673 1342 FFF7FEFF 		bl	write_eeprom
 3674              	.LVL284:
 744:.\Protocolo.c **** 							write_eeprom(512,resultado);
 3675              		.loc 1 744 0
 3676 1346 4FF40070 		mov	r0, #512
 3677 134a 3649     		ldr	r1, .L604+48
 3678 134c FFF7FEFF 		bl	write_eeprom
 3679              	.LVL285:
 3680 1350 09E0     		b	.L250
 3681              	.L265:
 745:.\Protocolo.c **** 						}
 746:.\Protocolo.c **** 						else{
 747:.\Protocolo.c **** 							write_eeprom(281,corte);
 3682              		.loc 1 747 0
 3683 1352 40F21910 		movw	r0, #281
 3684 1356 09A9     		add	r1, sp, #36
 3685 1358 FFF7FEFF 		bl	write_eeprom
 3686              	.LVL286:
 748:.\Protocolo.c **** 							write_eeprom(551,resultado);
 3687              		.loc 1 748 0
 3688 135c 40F22720 		movw	r0, #551
 3689 1360 3049     		ldr	r1, .L604+48
 3690 1362 FFF7FEFF 		bl	write_eeprom
 3691              	.LVL287:
 3692              	.L250:
 749:.\Protocolo.c **** 						}
 750:.\Protocolo.c **** 					}
 751:.\Protocolo.c **** 					if(((rventa.manguera==(diesel&0x0F))&&(dir==lado.a.dir))||((rventa.manguera==(diesel2&0x0F))&&
 3693              		.loc 1 751 0
 3694 1366 244B     		ldr	r3, .L604+4
 3695 1368 93F8E020 		ldrb	r2, [r3, #224]	@ zero_extendqisi2
 3696 136c 2E4B     		ldr	r3, .L604+52
 3697 136e 1B78     		ldrb	r3, [r3]	@ zero_extendqisi2
 3698 1370 03F00F03 		and	r3, r3, #15
 3699 1374 9342     		cmp	r3, r2
 3700 1376 03D1     		bne	.L266
 3701              		.loc 1 751 0 is_stmt 0 discriminator 1
 3702 1378 244B     		ldr	r3, .L604+24
 3703 137a 1B78     		ldrb	r3, [r3]	@ zero_extendqisi2
 3704 137c AB42     		cmp	r3, r5
 3705 137e 0BD0     		beq	.L267
 3706              	.L266:
 3707              		.loc 1 751 0 discriminator 3
ARM GAS  C:\Users\IN-002~1\AppData\Local\Temp\ccxO8rjh.s 			page 83


 3708 1380 2A4B     		ldr	r3, .L604+56
 3709 1382 1B78     		ldrb	r3, [r3]	@ zero_extendqisi2
 3710 1384 03F00F03 		and	r3, r3, #15
 3711 1388 9A42     		cmp	r2, r3
 3712 138a 40F0E080 		bne	.L268
 3713              		.loc 1 751 0 discriminator 4
 3714 138e 1F4B     		ldr	r3, .L604+24
 3715 1390 1B79     		ldrb	r3, [r3, #4]	@ zero_extendqisi2
 3716 1392 AB42     		cmp	r3, r5
 3717 1394 40F0DB80 		bne	.L268
 3718              	.L267:
 752:.\Protocolo.c **** 						for(x=0;x<=5;x++){									
 3719              		.loc 1 752 0 is_stmt 1
 3720 1398 0022     		movs	r2, #0
 3721 139a 184B     		ldr	r3, .L604+8
 3722 139c 1A60     		str	r2, [r3]
 3723 139e 08E0     		b	.L269
 3724              	.L270:
 753:.\Protocolo.c **** 						    write_psoc1(val,msn_tc[x]);
 3725              		.loc 1 753 0 discriminator 3
 3726 13a0 2046     		mov	r0, r4
 3727 13a2 1C4A     		ldr	r2, .L604+32
 3728 13a4 D15C     		ldrb	r1, [r2, r3]	@ zero_extendqisi2
 3729 13a6 FFF7FEFF 		bl	write_psoc1
 3730              	.LVL288:
 752:.\Protocolo.c **** 						for(x=0;x<=5;x++){									
 3731              		.loc 1 752 0 discriminator 3
 3732 13aa 144A     		ldr	r2, .L604+8
 3733 13ac 1368     		ldr	r3, [r2]
 3734 13ae 0133     		adds	r3, r3, #1
 3735 13b0 1360     		str	r3, [r2]
 3736              	.L269:
 752:.\Protocolo.c **** 						for(x=0;x<=5;x++){									
 3737              		.loc 1 752 0 is_stmt 0 discriminator 1
 3738 13b2 124B     		ldr	r3, .L604+8
 3739 13b4 1B68     		ldr	r3, [r3]
 3740 13b6 052B     		cmp	r3, #5
 3741 13b8 F2D9     		bls	.L270
 754:.\Protocolo.c **** 					    }
 755:.\Protocolo.c **** 					    write_psoc1(val,10);
 3742              		.loc 1 755 0 is_stmt 1
 3743 13ba 2046     		mov	r0, r4
 3744 13bc 0A21     		movs	r1, #10
 3745 13be FFF7FEFF 		bl	write_psoc1
 3746              	.LVL289:
 756:.\Protocolo.c ****                         for(x=0;x<=10;x++){									
 3747              		.loc 1 756 0
 3748 13c2 0022     		movs	r2, #0
 3749 13c4 0D4B     		ldr	r3, .L604+8
 3750 13c6 1A60     		str	r2, [r3]
 3751 13c8 08E0     		b	.L271
 3752              	.L272:
 757:.\Protocolo.c **** 						    write_psoc1(val,producto2n[x]);
 3753              		.loc 1 757 0 discriminator 3
 3754 13ca 2046     		mov	r0, r4
 3755 13cc 184A     		ldr	r2, .L604+60
 3756 13ce D15C     		ldrb	r1, [r2, r3]	@ zero_extendqisi2
ARM GAS  C:\Users\IN-002~1\AppData\Local\Temp\ccxO8rjh.s 			page 84


 3757 13d0 FFF7FEFF 		bl	write_psoc1
 3758              	.LVL290:
 756:.\Protocolo.c ****                         for(x=0;x<=10;x++){									
 3759              		.loc 1 756 0 discriminator 3
 3760 13d4 094A     		ldr	r2, .L604+8
 3761 13d6 1368     		ldr	r3, [r2]
 3762 13d8 0133     		adds	r3, r3, #1
 3763 13da 1360     		str	r3, [r2]
 3764              	.L271:
 756:.\Protocolo.c ****                         for(x=0;x<=10;x++){									
 3765              		.loc 1 756 0 is_stmt 0 discriminator 1
 3766 13dc 074B     		ldr	r3, .L604+8
 3767 13de 1B68     		ldr	r3, [r3]
 3768 13e0 0A2B     		cmp	r3, #10
 3769 13e2 F2D9     		bls	.L272
 758:.\Protocolo.c **** 					    }
 759:.\Protocolo.c ****                         write_psoc1(val,10);
 3770              		.loc 1 759 0 is_stmt 1
 3771 13e4 2046     		mov	r0, r4
 3772 13e6 0A21     		movs	r1, #10
 3773 13e8 FFF7FEFF 		bl	write_psoc1
 3774              	.LVL291:
 760:.\Protocolo.c **** 						for(x=0;x<=14;x++){									
 3775              		.loc 1 760 0
 3776 13ec 0022     		movs	r2, #0
 3777 13ee 034B     		ldr	r3, .L604+8
 3778 13f0 1A60     		str	r2, [r3]
 3779 13f2 29E0     		b	.L273
 3780              	.L605:
 3781              		.align	2
 3782              	.L604:
 3783 13f4 00000000 		.word	Surtidor_rxBuffer
 3784 13f8 00000000 		.word	rventa
 3785 13fc 00000000 		.word	x
 3786 1400 00000000 		.word	z
 3787 1404 F7FFFFFF 		.word	rventa-9
 3788 1408 00000000 		.word	corriente
 3789 140c 00000000 		.word	lado
 3790 1410 00000000 		.word	corriente2
 3791 1414 00000000 		.word	.LANCHOR1
 3792 1418 00000000 		.word	producto1n
 3793 141c FFFFFFFF 		.word	rventa-1
 3794 1420 00000000 		.word	buffer_i2c
 3795 1424 00000000 		.word	resultado
 3796 1428 00000000 		.word	diesel
 3797 142c 00000000 		.word	diesel2
 3798 1430 00000000 		.word	producto2n
 3799              	.L274:
 761:.\Protocolo.c **** 							write_psoc1(val,msn_lecact[x]);				//LECTURA ACTUAL
 3800              		.loc 1 761 0 discriminator 3
 3801 1434 AC4A     		ldr	r2, .L606
 3802 1436 1344     		add	r3, r3, r2
 3803 1438 2046     		mov	r0, r4
 3804 143a 197A     		ldrb	r1, [r3, #8]	@ zero_extendqisi2
 3805 143c FFF7FEFF 		bl	write_psoc1
 3806              	.LVL292:
 760:.\Protocolo.c **** 						for(x=0;x<=14;x++){									
ARM GAS  C:\Users\IN-002~1\AppData\Local\Temp\ccxO8rjh.s 			page 85


 3807              		.loc 1 760 0 discriminator 3
 3808 1440 AA4A     		ldr	r2, .L606+4
 3809 1442 1368     		ldr	r3, [r2]
 3810 1444 0133     		adds	r3, r3, #1
 3811 1446 1360     		str	r3, [r2]
 3812              	.L273:
 760:.\Protocolo.c **** 						for(x=0;x<=14;x++){									
 3813              		.loc 1 760 0 is_stmt 0 discriminator 1
 3814 1448 A84B     		ldr	r3, .L606+4
 3815 144a 1B68     		ldr	r3, [r3]
 3816 144c 0E2B     		cmp	r3, #14
 3817 144e F1D9     		bls	.L274
 762:.\Protocolo.c **** 						}
 763:.\Protocolo.c **** 						write_psoc1(val,10);
 3818              		.loc 1 763 0 is_stmt 1
 3819 1450 2046     		mov	r0, r4
 3820 1452 0A21     		movs	r1, #10
 3821 1454 FFF7FEFF 		bl	write_psoc1
 3822              	.LVL293:
 764:.\Protocolo.c **** 						print_totalesac(8,val);	
 3823              		.loc 1 764 0
 3824 1458 0820     		movs	r0, #8
 3825 145a 2146     		mov	r1, r4
 3826 145c FFF7FEFF 		bl	print_totalesac
 3827              	.LVL294:
 765:.\Protocolo.c **** 						for(x=0;x<=16;x++){												
 3828              		.loc 1 765 0
 3829 1460 0022     		movs	r2, #0
 3830 1462 A24B     		ldr	r3, .L606+4
 3831 1464 1A60     		str	r2, [r3]
 3832 1466 09E0     		b	.L275
 3833              	.L276:
 766:.\Protocolo.c **** 							write_psoc1(val,msn_lecaan[x]);				//LECTURA ANTERIOR
 3834              		.loc 1 766 0 discriminator 3
 3835 1468 9F4A     		ldr	r2, .L606
 3836 146a 1344     		add	r3, r3, r2
 3837 146c 2046     		mov	r0, r4
 3838 146e 197E     		ldrb	r1, [r3, #24]	@ zero_extendqisi2
 3839 1470 FFF7FEFF 		bl	write_psoc1
 3840              	.LVL295:
 765:.\Protocolo.c **** 						for(x=0;x<=16;x++){												
 3841              		.loc 1 765 0 discriminator 3
 3842 1474 9D4A     		ldr	r2, .L606+4
 3843 1476 1368     		ldr	r3, [r2]
 3844 1478 0133     		adds	r3, r3, #1
 3845 147a 1360     		str	r3, [r2]
 3846              	.L275:
 765:.\Protocolo.c **** 						for(x=0;x<=16;x++){												
 3847              		.loc 1 765 0 is_stmt 0 discriminator 1
 3848 147c 9B4B     		ldr	r3, .L606+4
 3849 147e 1B68     		ldr	r3, [r3]
 3850 1480 102B     		cmp	r3, #16
 3851 1482 F1D9     		bls	.L276
 767:.\Protocolo.c **** 						}
 768:.\Protocolo.c **** 						write_psoc1(val,10);
 3852              		.loc 1 768 0 is_stmt 1
 3853 1484 2046     		mov	r0, r4
ARM GAS  C:\Users\IN-002~1\AppData\Local\Temp\ccxO8rjh.s 			page 86


 3854 1486 0A21     		movs	r1, #10
 3855 1488 FFF7FEFF 		bl	write_psoc1
 3856              	.LVL296:
 769:.\Protocolo.c **** 						if(dir==lado.a.dir){
 3857              		.loc 1 769 0
 3858 148c 984B     		ldr	r3, .L606+8
 3859 148e 1B78     		ldrb	r3, [r3]	@ zero_extendqisi2
 3860 1490 AB42     		cmp	r3, r5
 3861 1492 04D1     		bne	.L277
 770:.\Protocolo.c **** 							leer_eeprom(217,25);
 3862              		.loc 1 770 0
 3863 1494 D920     		movs	r0, #217
 3864 1496 1921     		movs	r1, #25
 3865 1498 FFF7FEFF 		bl	leer_eeprom
 3866              	.LVL297:
 3867 149c 04E0     		b	.L278
 3868              	.L277:
 771:.\Protocolo.c **** 						}
 772:.\Protocolo.c **** 						else{
 773:.\Protocolo.c **** 							leer_eeprom(320,25);
 3869              		.loc 1 773 0
 3870 149e 4FF4A070 		mov	r0, #320
 3871 14a2 1921     		movs	r1, #25
 3872 14a4 FFF7FEFF 		bl	leer_eeprom
 3873              	.LVL298:
 3874              	.L278:
 774:.\Protocolo.c **** 						}
 775:.\Protocolo.c **** 						print_totales(val);
 3875              		.loc 1 775 0
 3876 14a8 2046     		mov	r0, r4
 3877 14aa FFF7FEFF 		bl	print_totales
 3878              	.LVL299:
 776:.\Protocolo.c **** 						for(z=1;z<=8;z++){
 3879              		.loc 1 776 0
 3880 14ae 0122     		movs	r2, #1
 3881 14b0 904B     		ldr	r3, .L606+12
 3882 14b2 1A60     		str	r2, [r3]
 3883 14b4 10E0     		b	.L279
 3884              	.L280:
 777:.\Protocolo.c **** 							minuendo[z]=rventa.tdinero[z-1];
 3885              		.loc 1 777 0 discriminator 3
 3886 14b6 904A     		ldr	r2, .L606+16
 3887 14b8 1A44     		add	r2, r2, r3
 3888 14ba 92F8CA10 		ldrb	r1, [r2, #202]	@ zero_extendqisi2
 3889 14be 10AA     		add	r2, sp, #64
 3890 14c0 1A44     		add	r2, r2, r3
 3891 14c2 02F82C1C 		strb	r1, [r2, #-44]
 778:.\Protocolo.c **** 							sustraendo[z]=buffer_i2c[z+8];
 3892              		.loc 1 778 0 discriminator 3
 3893 14c6 03F10801 		add	r1, r3, #8
 3894 14ca 8C48     		ldr	r0, .L606+20
 3895 14cc 415C     		ldrb	r1, [r0, r1]	@ zero_extendqisi2
 3896 14ce 02F83C1C 		strb	r1, [r2, #-60]
 776:.\Protocolo.c **** 						for(z=1;z<=8;z++){
 3897              		.loc 1 776 0 discriminator 3
 3898 14d2 0133     		adds	r3, r3, #1
 3899 14d4 874A     		ldr	r2, .L606+12
ARM GAS  C:\Users\IN-002~1\AppData\Local\Temp\ccxO8rjh.s 			page 87


 3900 14d6 1360     		str	r3, [r2]
 3901              	.L279:
 776:.\Protocolo.c **** 						for(z=1;z<=8;z++){
 3902              		.loc 1 776 0 is_stmt 0 discriminator 1
 3903 14d8 864B     		ldr	r3, .L606+12
 3904 14da 1B68     		ldr	r3, [r3]
 3905 14dc 082B     		cmp	r3, #8
 3906 14de EAD9     		bls	.L280
 779:.\Protocolo.c **** 						}
 780:.\Protocolo.c **** 						minuendo[0]=8;
 3907              		.loc 1 780 0 is_stmt 1
 3908 14e0 10A9     		add	r1, sp, #64
 3909 14e2 0823     		movs	r3, #8
 3910 14e4 01F82C3D 		strb	r3, [r1, #-44]!
 781:.\Protocolo.c **** 						operacion(2,minuendo,sustraendo);
 3911              		.loc 1 781 0
 3912 14e8 0220     		movs	r0, #2
 3913 14ea 01AA     		add	r2, sp, #4
 3914 14ec FFF7FEFF 		bl	operacion
 3915              	.LVL300:
 782:.\Protocolo.c **** 						for(x=0;x<=17;x++){									
 3916              		.loc 1 782 0
 3917 14f0 0022     		movs	r2, #0
 3918 14f2 7E4B     		ldr	r3, .L606+4
 3919 14f4 1A60     		str	r2, [r3]
 3920 14f6 0AE0     		b	.L281
 3921              	.L282:
 783:.\Protocolo.c **** 							write_psoc1(val,msn_tventas[x]);				//Total de ventas
 3922              		.loc 1 783 0 discriminator 3
 3923 14f8 7B4A     		ldr	r2, .L606
 3924 14fa 1344     		add	r3, r3, r2
 3925 14fc 2046     		mov	r0, r4
 3926 14fe 93F82C10 		ldrb	r1, [r3, #44]	@ zero_extendqisi2
 3927 1502 FFF7FEFF 		bl	write_psoc1
 3928              	.LVL301:
 782:.\Protocolo.c **** 						for(x=0;x<=17;x++){									
 3929              		.loc 1 782 0 discriminator 3
 3930 1506 794A     		ldr	r2, .L606+4
 3931 1508 1368     		ldr	r3, [r2]
 3932 150a 0133     		adds	r3, r3, #1
 3933 150c 1360     		str	r3, [r2]
 3934              	.L281:
 782:.\Protocolo.c **** 						for(x=0;x<=17;x++){									
 3935              		.loc 1 782 0 is_stmt 0 discriminator 1
 3936 150e 774B     		ldr	r3, .L606+4
 3937 1510 1B68     		ldr	r3, [r3]
 3938 1512 112B     		cmp	r3, #17
 3939 1514 F0D9     		bls	.L282
 784:.\Protocolo.c **** 						}
 785:.\Protocolo.c **** 						print_valor(resultado,val);				
 3940              		.loc 1 785 0 is_stmt 1
 3941 1516 7A48     		ldr	r0, .L606+24
 3942 1518 2146     		mov	r1, r4
 3943 151a FFF7FEFF 		bl	print_valor
 3944              	.LVL302:
 786:.\Protocolo.c **** 						if(dir==lado.a.dir){
 3945              		.loc 1 786 0
ARM GAS  C:\Users\IN-002~1\AppData\Local\Temp\ccxO8rjh.s 			page 88


 3946 151e 744B     		ldr	r3, .L606+8
 3947 1520 1B78     		ldrb	r3, [r3]	@ zero_extendqisi2
 3948 1522 AB42     		cmp	r3, r5
 3949 1524 09D1     		bne	.L283
 787:.\Protocolo.c **** 							write_eeprom(217,corte);
 3950              		.loc 1 787 0
 3951 1526 D920     		movs	r0, #217
 3952 1528 09A9     		add	r1, sp, #36
 3953 152a FFF7FEFF 		bl	write_eeprom
 3954              	.LVL303:
 788:.\Protocolo.c **** 							write_eeprom(538,resultado);
 3955              		.loc 1 788 0
 3956 152e 40F21A20 		movw	r0, #538
 3957 1532 7349     		ldr	r1, .L606+24
 3958 1534 FFF7FEFF 		bl	write_eeprom
 3959              	.LVL304:
 3960 1538 09E0     		b	.L268
 3961              	.L283:
 789:.\Protocolo.c **** 						}
 790:.\Protocolo.c **** 						else{
 791:.\Protocolo.c **** 							write_eeprom(320,corte);
 3962              		.loc 1 791 0
 3963 153a 4FF4A070 		mov	r0, #320
 3964 153e 09A9     		add	r1, sp, #36
 3965 1540 FFF7FEFF 		bl	write_eeprom
 3966              	.LVL305:
 792:.\Protocolo.c **** 							write_eeprom(576,resultado);
 3967              		.loc 1 792 0
 3968 1544 4FF41070 		mov	r0, #576
 3969 1548 6D49     		ldr	r1, .L606+24
 3970 154a FFF7FEFF 		bl	write_eeprom
 3971              	.LVL306:
 3972              	.L268:
 793:.\Protocolo.c **** 						}				
 794:.\Protocolo.c **** 					}
 795:.\Protocolo.c **** 					if(((rventa.manguera==(extra&0x0F))&&(dir==lado.a.dir))||((rventa.manguera==(extra2&0x0F))&&(d
 3973              		.loc 1 795 0
 3974 154e 6D4B     		ldr	r3, .L606+28
 3975 1550 93F8E020 		ldrb	r2, [r3, #224]	@ zero_extendqisi2
 3976 1554 6C4B     		ldr	r3, .L606+32
 3977 1556 1B78     		ldrb	r3, [r3]	@ zero_extendqisi2
 3978 1558 03F00F03 		and	r3, r3, #15
 3979 155c 9342     		cmp	r3, r2
 3980 155e 03D1     		bne	.L284
 3981              		.loc 1 795 0 is_stmt 0 discriminator 1
 3982 1560 634B     		ldr	r3, .L606+8
 3983 1562 1B78     		ldrb	r3, [r3]	@ zero_extendqisi2
 3984 1564 AB42     		cmp	r3, r5
 3985 1566 0BD0     		beq	.L285
 3986              	.L284:
 3987              		.loc 1 795 0 discriminator 3
 3988 1568 684B     		ldr	r3, .L606+36
 3989 156a 1B78     		ldrb	r3, [r3]	@ zero_extendqisi2
 3990 156c 03F00F03 		and	r3, r3, #15
 3991 1570 9A42     		cmp	r2, r3
 3992 1572 40F0D980 		bne	.L286
 3993              		.loc 1 795 0 discriminator 4
ARM GAS  C:\Users\IN-002~1\AppData\Local\Temp\ccxO8rjh.s 			page 89


 3994 1576 5E4B     		ldr	r3, .L606+8
 3995 1578 1B79     		ldrb	r3, [r3, #4]	@ zero_extendqisi2
 3996 157a AB42     		cmp	r3, r5
 3997 157c 40F0D480 		bne	.L286
 3998              	.L285:
 796:.\Protocolo.c **** 						for(x=0;x<=5;x++){									
 3999              		.loc 1 796 0 is_stmt 1
 4000 1580 0022     		movs	r2, #0
 4001 1582 5A4B     		ldr	r3, .L606+4
 4002 1584 1A60     		str	r2, [r3]
 4003 1586 08E0     		b	.L287
 4004              	.L288:
 797:.\Protocolo.c **** 						    write_psoc1(val,msn_tc[x]);
 4005              		.loc 1 797 0 discriminator 3
 4006 1588 2046     		mov	r0, r4
 4007 158a 574A     		ldr	r2, .L606
 4008 158c D15C     		ldrb	r1, [r2, r3]	@ zero_extendqisi2
 4009 158e FFF7FEFF 		bl	write_psoc1
 4010              	.LVL307:
 796:.\Protocolo.c **** 						for(x=0;x<=5;x++){									
 4011              		.loc 1 796 0 discriminator 3
 4012 1592 564A     		ldr	r2, .L606+4
 4013 1594 1368     		ldr	r3, [r2]
 4014 1596 0133     		adds	r3, r3, #1
 4015 1598 1360     		str	r3, [r2]
 4016              	.L287:
 796:.\Protocolo.c **** 						for(x=0;x<=5;x++){									
 4017              		.loc 1 796 0 is_stmt 0 discriminator 1
 4018 159a 544B     		ldr	r3, .L606+4
 4019 159c 1B68     		ldr	r3, [r3]
 4020 159e 052B     		cmp	r3, #5
 4021 15a0 F2D9     		bls	.L288
 798:.\Protocolo.c **** 					    }
 799:.\Protocolo.c **** 					    write_psoc1(val,10);
 4022              		.loc 1 799 0 is_stmt 1
 4023 15a2 2046     		mov	r0, r4
 4024 15a4 0A21     		movs	r1, #10
 4025 15a6 FFF7FEFF 		bl	write_psoc1
 4026              	.LVL308:
 800:.\Protocolo.c ****                         for(x=0;x<=10;x++){									
 4027              		.loc 1 800 0
 4028 15aa 0022     		movs	r2, #0
 4029 15ac 4F4B     		ldr	r3, .L606+4
 4030 15ae 1A60     		str	r2, [r3]
 4031 15b0 08E0     		b	.L289
 4032              	.L290:
 801:.\Protocolo.c **** 						    write_psoc1(val,producto3n[x]);
 4033              		.loc 1 801 0 discriminator 3
 4034 15b2 2046     		mov	r0, r4
 4035 15b4 564A     		ldr	r2, .L606+40
 4036 15b6 D15C     		ldrb	r1, [r2, r3]	@ zero_extendqisi2
 4037 15b8 FFF7FEFF 		bl	write_psoc1
 4038              	.LVL309:
 800:.\Protocolo.c ****                         for(x=0;x<=10;x++){									
 4039              		.loc 1 800 0 discriminator 3
 4040 15bc 4B4A     		ldr	r2, .L606+4
 4041 15be 1368     		ldr	r3, [r2]
ARM GAS  C:\Users\IN-002~1\AppData\Local\Temp\ccxO8rjh.s 			page 90


 4042 15c0 0133     		adds	r3, r3, #1
 4043 15c2 1360     		str	r3, [r2]
 4044              	.L289:
 800:.\Protocolo.c ****                         for(x=0;x<=10;x++){									
 4045              		.loc 1 800 0 is_stmt 0 discriminator 1
 4046 15c4 494B     		ldr	r3, .L606+4
 4047 15c6 1B68     		ldr	r3, [r3]
 4048 15c8 0A2B     		cmp	r3, #10
 4049 15ca F2D9     		bls	.L290
 802:.\Protocolo.c **** 					    }
 803:.\Protocolo.c ****                         write_psoc1(val,10);
 4050              		.loc 1 803 0 is_stmt 1
 4051 15cc 2046     		mov	r0, r4
 4052 15ce 0A21     		movs	r1, #10
 4053 15d0 FFF7FEFF 		bl	write_psoc1
 4054              	.LVL310:
 804:.\Protocolo.c **** 						for(x=0;x<=14;x++){									
 4055              		.loc 1 804 0
 4056 15d4 0022     		movs	r2, #0
 4057 15d6 454B     		ldr	r3, .L606+4
 4058 15d8 1A60     		str	r2, [r3]
 4059 15da 09E0     		b	.L291
 4060              	.L292:
 805:.\Protocolo.c **** 							write_psoc1(val,msn_lecact[x]);				//LECTURA ACTUAL
 4061              		.loc 1 805 0 discriminator 3
 4062 15dc 424A     		ldr	r2, .L606
 4063 15de 1344     		add	r3, r3, r2
 4064 15e0 2046     		mov	r0, r4
 4065 15e2 197A     		ldrb	r1, [r3, #8]	@ zero_extendqisi2
 4066 15e4 FFF7FEFF 		bl	write_psoc1
 4067              	.LVL311:
 804:.\Protocolo.c **** 						for(x=0;x<=14;x++){									
 4068              		.loc 1 804 0 discriminator 3
 4069 15e8 404A     		ldr	r2, .L606+4
 4070 15ea 1368     		ldr	r3, [r2]
 4071 15ec 0133     		adds	r3, r3, #1
 4072 15ee 1360     		str	r3, [r2]
 4073              	.L291:
 804:.\Protocolo.c **** 						for(x=0;x<=14;x++){									
 4074              		.loc 1 804 0 is_stmt 0 discriminator 1
 4075 15f0 3E4B     		ldr	r3, .L606+4
 4076 15f2 1B68     		ldr	r3, [r3]
 4077 15f4 0E2B     		cmp	r3, #14
 4078 15f6 F1D9     		bls	.L292
 806:.\Protocolo.c **** 						}
 807:.\Protocolo.c **** 						write_psoc1(val,10);
 4079              		.loc 1 807 0 is_stmt 1
 4080 15f8 2046     		mov	r0, r4
 4081 15fa 0A21     		movs	r1, #10
 4082 15fc FFF7FEFF 		bl	write_psoc1
 4083              	.LVL312:
 808:.\Protocolo.c **** 						print_totalesac(8,val);	
 4084              		.loc 1 808 0
 4085 1600 0820     		movs	r0, #8
 4086 1602 2146     		mov	r1, r4
 4087 1604 FFF7FEFF 		bl	print_totalesac
 4088              	.LVL313:
ARM GAS  C:\Users\IN-002~1\AppData\Local\Temp\ccxO8rjh.s 			page 91


 809:.\Protocolo.c **** 						for(x=0;x<=16;x++){												
 4089              		.loc 1 809 0
 4090 1608 0022     		movs	r2, #0
 4091 160a 384B     		ldr	r3, .L606+4
 4092 160c 1A60     		str	r2, [r3]
 4093 160e 09E0     		b	.L293
 4094              	.L294:
 810:.\Protocolo.c **** 							write_psoc1(val,msn_lecaan[x]);				//LECTURA ANTERIOR
 4095              		.loc 1 810 0 discriminator 3
 4096 1610 354A     		ldr	r2, .L606
 4097 1612 1344     		add	r3, r3, r2
 4098 1614 2046     		mov	r0, r4
 4099 1616 197E     		ldrb	r1, [r3, #24]	@ zero_extendqisi2
 4100 1618 FFF7FEFF 		bl	write_psoc1
 4101              	.LVL314:
 809:.\Protocolo.c **** 						for(x=0;x<=16;x++){												
 4102              		.loc 1 809 0 discriminator 3
 4103 161c 334A     		ldr	r2, .L606+4
 4104 161e 1368     		ldr	r3, [r2]
 4105 1620 0133     		adds	r3, r3, #1
 4106 1622 1360     		str	r3, [r2]
 4107              	.L293:
 809:.\Protocolo.c **** 						for(x=0;x<=16;x++){												
 4108              		.loc 1 809 0 is_stmt 0 discriminator 1
 4109 1624 314B     		ldr	r3, .L606+4
 4110 1626 1B68     		ldr	r3, [r3]
 4111 1628 102B     		cmp	r3, #16
 4112 162a F1D9     		bls	.L294
 811:.\Protocolo.c **** 						}
 812:.\Protocolo.c **** 						write_psoc1(val,10);
 4113              		.loc 1 812 0 is_stmt 1
 4114 162c 2046     		mov	r0, r4
 4115 162e 0A21     		movs	r1, #10
 4116 1630 FFF7FEFF 		bl	write_psoc1
 4117              	.LVL315:
 813:.\Protocolo.c **** 						if(dir==lado.a.dir){
 4118              		.loc 1 813 0
 4119 1634 2E4B     		ldr	r3, .L606+8
 4120 1636 1B78     		ldrb	r3, [r3]	@ zero_extendqisi2
 4121 1638 AB42     		cmp	r3, r5
 4122 163a 05D1     		bne	.L295
 814:.\Protocolo.c **** 							leer_eeprom(256,25);
 4123              		.loc 1 814 0
 4124 163c 4FF48070 		mov	r0, #256
 4125 1640 1921     		movs	r1, #25
 4126 1642 FFF7FEFF 		bl	leer_eeprom
 4127              	.LVL316:
 4128 1646 04E0     		b	.L296
 4129              	.L295:
 815:.\Protocolo.c **** 						}
 816:.\Protocolo.c **** 						else{
 817:.\Protocolo.c **** 							leer_eeprom(345,25);
 4130              		.loc 1 817 0
 4131 1648 40F25910 		movw	r0, #345
 4132 164c 1921     		movs	r1, #25
 4133 164e FFF7FEFF 		bl	leer_eeprom
 4134              	.LVL317:
ARM GAS  C:\Users\IN-002~1\AppData\Local\Temp\ccxO8rjh.s 			page 92


 4135              	.L296:
 818:.\Protocolo.c **** 						}
 819:.\Protocolo.c **** 						print_totales(val);
 4136              		.loc 1 819 0
 4137 1652 2046     		mov	r0, r4
 4138 1654 FFF7FEFF 		bl	print_totales
 4139              	.LVL318:
 820:.\Protocolo.c **** 						for(z=1;z<=8;z++){
 4140              		.loc 1 820 0
 4141 1658 0122     		movs	r2, #1
 4142 165a 264B     		ldr	r3, .L606+12
 4143 165c 1A60     		str	r2, [r3]
 4144 165e 10E0     		b	.L297
 4145              	.L298:
 821:.\Protocolo.c **** 							minuendo[z]=rventa.tdinero[z-1];
 4146              		.loc 1 821 0 discriminator 3
 4147 1660 254A     		ldr	r2, .L606+16
 4148 1662 1A44     		add	r2, r2, r3
 4149 1664 92F8CA10 		ldrb	r1, [r2, #202]	@ zero_extendqisi2
 4150 1668 10AA     		add	r2, sp, #64
 4151 166a 1A44     		add	r2, r2, r3
 4152 166c 02F82C1C 		strb	r1, [r2, #-44]
 822:.\Protocolo.c **** 							sustraendo[z]=buffer_i2c[z+8];
 4153              		.loc 1 822 0 discriminator 3
 4154 1670 03F10801 		add	r1, r3, #8
 4155 1674 2148     		ldr	r0, .L606+20
 4156 1676 415C     		ldrb	r1, [r0, r1]	@ zero_extendqisi2
 4157 1678 02F83C1C 		strb	r1, [r2, #-60]
 820:.\Protocolo.c **** 						for(z=1;z<=8;z++){
 4158              		.loc 1 820 0 discriminator 3
 4159 167c 0133     		adds	r3, r3, #1
 4160 167e 1D4A     		ldr	r2, .L606+12
 4161 1680 1360     		str	r3, [r2]
 4162              	.L297:
 820:.\Protocolo.c **** 						for(z=1;z<=8;z++){
 4163              		.loc 1 820 0 is_stmt 0 discriminator 1
 4164 1682 1C4B     		ldr	r3, .L606+12
 4165 1684 1B68     		ldr	r3, [r3]
 4166 1686 082B     		cmp	r3, #8
 4167 1688 EAD9     		bls	.L298
 823:.\Protocolo.c **** 						}
 824:.\Protocolo.c **** 						minuendo[0]=8;
 4168              		.loc 1 824 0 is_stmt 1
 4169 168a 10A9     		add	r1, sp, #64
 4170 168c 0823     		movs	r3, #8
 4171 168e 01F82C3D 		strb	r3, [r1, #-44]!
 825:.\Protocolo.c **** 						operacion(2,minuendo,sustraendo);
 4172              		.loc 1 825 0
 4173 1692 0220     		movs	r0, #2
 4174 1694 01AA     		add	r2, sp, #4
 4175 1696 FFF7FEFF 		bl	operacion
 4176              	.LVL319:
 826:.\Protocolo.c **** 						for(x=0;x<=17;x++){									
 4177              		.loc 1 826 0
 4178 169a 0022     		movs	r2, #0
 4179 169c 134B     		ldr	r3, .L606+4
 4180 169e 1A60     		str	r2, [r3]
ARM GAS  C:\Users\IN-002~1\AppData\Local\Temp\ccxO8rjh.s 			page 93


 4181 16a0 0AE0     		b	.L299
 4182              	.L300:
 827:.\Protocolo.c **** 							write_psoc1(val,msn_tventas[x]);				//Total de ventas
 4183              		.loc 1 827 0 discriminator 3
 4184 16a2 114A     		ldr	r2, .L606
 4185 16a4 1344     		add	r3, r3, r2
 4186 16a6 2046     		mov	r0, r4
 4187 16a8 93F82C10 		ldrb	r1, [r3, #44]	@ zero_extendqisi2
 4188 16ac FFF7FEFF 		bl	write_psoc1
 4189              	.LVL320:
 826:.\Protocolo.c **** 						for(x=0;x<=17;x++){									
 4190              		.loc 1 826 0 discriminator 3
 4191 16b0 0E4A     		ldr	r2, .L606+4
 4192 16b2 1368     		ldr	r3, [r2]
 4193 16b4 0133     		adds	r3, r3, #1
 4194 16b6 1360     		str	r3, [r2]
 4195              	.L299:
 826:.\Protocolo.c **** 						for(x=0;x<=17;x++){									
 4196              		.loc 1 826 0 is_stmt 0 discriminator 1
 4197 16b8 0C4B     		ldr	r3, .L606+4
 4198 16ba 1B68     		ldr	r3, [r3]
 4199 16bc 112B     		cmp	r3, #17
 4200 16be F0D9     		bls	.L300
 828:.\Protocolo.c **** 						}
 829:.\Protocolo.c **** 						print_valor(resultado,val);							
 4201              		.loc 1 829 0 is_stmt 1
 4202 16c0 0F48     		ldr	r0, .L606+24
 4203 16c2 2146     		mov	r1, r4
 4204 16c4 FFF7FEFF 		bl	print_valor
 4205              	.LVL321:
 830:.\Protocolo.c **** 						if(dir==lado.a.dir){
 4206              		.loc 1 830 0
 4207 16c8 094B     		ldr	r3, .L606+8
 4208 16ca 1B78     		ldrb	r3, [r3]	@ zero_extendqisi2
 4209 16cc AB42     		cmp	r3, r5
 4210 16ce 21D1     		bne	.L301
 831:.\Protocolo.c **** 							write_eeprom(256,corte);
 4211              		.loc 1 831 0
 4212 16d0 4FF48070 		mov	r0, #256
 4213 16d4 09A9     		add	r1, sp, #36
 4214 16d6 FFF7FEFF 		bl	write_eeprom
 4215              	.LVL322:
 832:.\Protocolo.c **** 							write_eeprom(525,resultado);
 4216              		.loc 1 832 0
 4217 16da 40F20D20 		movw	r0, #525
 4218 16de 0849     		ldr	r1, .L606+24
 4219 16e0 FFF7FEFF 		bl	write_eeprom
 4220              	.LVL323:
 4221 16e4 20E0     		b	.L286
 4222              	.L607:
 4223 16e6 00BF     		.align	2
 4224              	.L606:
 4225 16e8 00000000 		.word	.LANCHOR1
 4226 16ec 00000000 		.word	x
 4227 16f0 00000000 		.word	lado
 4228 16f4 00000000 		.word	z
 4229 16f8 FFFFFFFF 		.word	rventa-1
ARM GAS  C:\Users\IN-002~1\AppData\Local\Temp\ccxO8rjh.s 			page 94


 4230 16fc 00000000 		.word	buffer_i2c
 4231 1700 00000000 		.word	resultado
 4232 1704 00000000 		.word	rventa
 4233 1708 00000000 		.word	extra
 4234 170c 00000000 		.word	extra2
 4235 1710 00000000 		.word	producto3n
 4236              	.L301:
 833:.\Protocolo.c **** 						}
 834:.\Protocolo.c **** 						else{
 835:.\Protocolo.c **** 							write_eeprom(345,corte);
 4237              		.loc 1 835 0
 4238 1714 40F25910 		movw	r0, #345
 4239 1718 09A9     		add	r1, sp, #36
 4240 171a FFF7FEFF 		bl	write_eeprom
 4241              	.LVL324:
 836:.\Protocolo.c **** 							write_eeprom(589,resultado);
 4242              		.loc 1 836 0
 4243 171e 40F24D20 		movw	r0, #589
 4244 1722 A449     		ldr	r1, .L608
 4245 1724 FFF7FEFF 		bl	write_eeprom
 4246              	.LVL325:
 4247              	.L286:
 837:.\Protocolo.c **** 						}					
 838:.\Protocolo.c **** 					}
 839:.\Protocolo.c ****                     
 840:.\Protocolo.c ****                     if(((rventa.manguera==(kero&0x0F))&&(dir==lado.a.dir))||((rventa.manguera==(ker
 4248              		.loc 1 840 0
 4249 1728 A34B     		ldr	r3, .L608+4
 4250 172a 93F8E020 		ldrb	r2, [r3, #224]	@ zero_extendqisi2
 4251 172e A34B     		ldr	r3, .L608+8
 4252 1730 1B78     		ldrb	r3, [r3]	@ zero_extendqisi2
 4253 1732 03F00F03 		and	r3, r3, #15
 4254 1736 9342     		cmp	r3, r2
 4255 1738 03D1     		bne	.L302
 4256              		.loc 1 840 0 is_stmt 0 discriminator 1
 4257 173a A14B     		ldr	r3, .L608+12
 4258 173c 1B78     		ldrb	r3, [r3]	@ zero_extendqisi2
 4259 173e AB42     		cmp	r3, r5
 4260 1740 0BD0     		beq	.L303
 4261              	.L302:
 4262              		.loc 1 840 0 discriminator 3
 4263 1742 A04B     		ldr	r3, .L608+16
 4264 1744 1B78     		ldrb	r3, [r3]	@ zero_extendqisi2
 4265 1746 03F00F03 		and	r3, r3, #15
 4266 174a 9A42     		cmp	r2, r3
 4267 174c 40F0C280 		bne	.L304
 4268              		.loc 1 840 0 discriminator 4
 4269 1750 9B4B     		ldr	r3, .L608+12
 4270 1752 1B79     		ldrb	r3, [r3, #4]	@ zero_extendqisi2
 4271 1754 AB42     		cmp	r3, r5
 4272 1756 40F0BD80 		bne	.L304
 4273              	.L303:
 841:.\Protocolo.c **** 						for(x=0;x<=5;x++){									
 4274              		.loc 1 841 0 is_stmt 1
 4275 175a 0022     		movs	r2, #0
 4276 175c 9A4B     		ldr	r3, .L608+20
 4277 175e 1A60     		str	r2, [r3]
ARM GAS  C:\Users\IN-002~1\AppData\Local\Temp\ccxO8rjh.s 			page 95


 4278 1760 08E0     		b	.L305
 4279              	.L306:
 842:.\Protocolo.c **** 						    write_psoc1(val,msn_tc[x]);
 4280              		.loc 1 842 0 discriminator 3
 4281 1762 2046     		mov	r0, r4
 4282 1764 994A     		ldr	r2, .L608+24
 4283 1766 D15C     		ldrb	r1, [r2, r3]	@ zero_extendqisi2
 4284 1768 FFF7FEFF 		bl	write_psoc1
 4285              	.LVL326:
 841:.\Protocolo.c **** 						for(x=0;x<=5;x++){									
 4286              		.loc 1 841 0 discriminator 3
 4287 176c 964A     		ldr	r2, .L608+20
 4288 176e 1368     		ldr	r3, [r2]
 4289 1770 0133     		adds	r3, r3, #1
 4290 1772 1360     		str	r3, [r2]
 4291              	.L305:
 841:.\Protocolo.c **** 						for(x=0;x<=5;x++){									
 4292              		.loc 1 841 0 is_stmt 0 discriminator 1
 4293 1774 944B     		ldr	r3, .L608+20
 4294 1776 1B68     		ldr	r3, [r3]
 4295 1778 052B     		cmp	r3, #5
 4296 177a F2D9     		bls	.L306
 843:.\Protocolo.c **** 					    }
 844:.\Protocolo.c **** 					    write_psoc1(val,10);
 4297              		.loc 1 844 0 is_stmt 1
 4298 177c 2046     		mov	r0, r4
 4299 177e 0A21     		movs	r1, #10
 4300 1780 FFF7FEFF 		bl	write_psoc1
 4301              	.LVL327:
 845:.\Protocolo.c ****                         for(x=0;x<=10;x++){									
 4302              		.loc 1 845 0
 4303 1784 0022     		movs	r2, #0
 4304 1786 904B     		ldr	r3, .L608+20
 4305 1788 1A60     		str	r2, [r3]
 4306 178a 08E0     		b	.L307
 4307              	.L308:
 846:.\Protocolo.c **** 						    write_psoc1(val,producto4n[x]);
 4308              		.loc 1 846 0 discriminator 3
 4309 178c 2046     		mov	r0, r4
 4310 178e 904A     		ldr	r2, .L608+28
 4311 1790 D15C     		ldrb	r1, [r2, r3]	@ zero_extendqisi2
 4312 1792 FFF7FEFF 		bl	write_psoc1
 4313              	.LVL328:
 845:.\Protocolo.c ****                         for(x=0;x<=10;x++){									
 4314              		.loc 1 845 0 discriminator 3
 4315 1796 8C4A     		ldr	r2, .L608+20
 4316 1798 1368     		ldr	r3, [r2]
 4317 179a 0133     		adds	r3, r3, #1
 4318 179c 1360     		str	r3, [r2]
 4319              	.L307:
 845:.\Protocolo.c ****                         for(x=0;x<=10;x++){									
 4320              		.loc 1 845 0 is_stmt 0 discriminator 1
 4321 179e 8A4B     		ldr	r3, .L608+20
 4322 17a0 1B68     		ldr	r3, [r3]
 4323 17a2 0A2B     		cmp	r3, #10
 4324 17a4 F2D9     		bls	.L308
 847:.\Protocolo.c **** 					    }
ARM GAS  C:\Users\IN-002~1\AppData\Local\Temp\ccxO8rjh.s 			page 96


 848:.\Protocolo.c ****                         write_psoc1(val,10);
 4325              		.loc 1 848 0 is_stmt 1
 4326 17a6 2046     		mov	r0, r4
 4327 17a8 0A21     		movs	r1, #10
 4328 17aa FFF7FEFF 		bl	write_psoc1
 4329              	.LVL329:
 849:.\Protocolo.c **** 						for(x=0;x<=14;x++){									
 4330              		.loc 1 849 0
 4331 17ae 0022     		movs	r2, #0
 4332 17b0 854B     		ldr	r3, .L608+20
 4333 17b2 1A60     		str	r2, [r3]
 4334 17b4 09E0     		b	.L309
 4335              	.L310:
 850:.\Protocolo.c **** 							write_psoc1(val,msn_lecact[x]);				//LECTURA ACTUAL
 4336              		.loc 1 850 0 discriminator 3
 4337 17b6 854A     		ldr	r2, .L608+24
 4338 17b8 1344     		add	r3, r3, r2
 4339 17ba 2046     		mov	r0, r4
 4340 17bc 197A     		ldrb	r1, [r3, #8]	@ zero_extendqisi2
 4341 17be FFF7FEFF 		bl	write_psoc1
 4342              	.LVL330:
 849:.\Protocolo.c **** 						for(x=0;x<=14;x++){									
 4343              		.loc 1 849 0 discriminator 3
 4344 17c2 814A     		ldr	r2, .L608+20
 4345 17c4 1368     		ldr	r3, [r2]
 4346 17c6 0133     		adds	r3, r3, #1
 4347 17c8 1360     		str	r3, [r2]
 4348              	.L309:
 849:.\Protocolo.c **** 						for(x=0;x<=14;x++){									
 4349              		.loc 1 849 0 is_stmt 0 discriminator 1
 4350 17ca 7F4B     		ldr	r3, .L608+20
 4351 17cc 1B68     		ldr	r3, [r3]
 4352 17ce 0E2B     		cmp	r3, #14
 4353 17d0 F1D9     		bls	.L310
 851:.\Protocolo.c **** 						}
 852:.\Protocolo.c **** 						write_psoc1(val,10);
 4354              		.loc 1 852 0 is_stmt 1
 4355 17d2 2046     		mov	r0, r4
 4356 17d4 0A21     		movs	r1, #10
 4357 17d6 FFF7FEFF 		bl	write_psoc1
 4358              	.LVL331:
 853:.\Protocolo.c **** 						print_totalesac(8,val);	
 4359              		.loc 1 853 0
 4360 17da 0820     		movs	r0, #8
 4361 17dc 2146     		mov	r1, r4
 4362 17de FFF7FEFF 		bl	print_totalesac
 4363              	.LVL332:
 854:.\Protocolo.c **** 						for(x=0;x<=16;x++){												
 4364              		.loc 1 854 0
 4365 17e2 0022     		movs	r2, #0
 4366 17e4 784B     		ldr	r3, .L608+20
 4367 17e6 1A60     		str	r2, [r3]
 4368 17e8 09E0     		b	.L311
 4369              	.L312:
 855:.\Protocolo.c **** 							write_psoc1(val,msn_lecaan[x]);				//LECTURA ANTERIOR
 4370              		.loc 1 855 0 discriminator 3
 4371 17ea 784A     		ldr	r2, .L608+24
ARM GAS  C:\Users\IN-002~1\AppData\Local\Temp\ccxO8rjh.s 			page 97


 4372 17ec 1344     		add	r3, r3, r2
 4373 17ee 2046     		mov	r0, r4
 4374 17f0 197E     		ldrb	r1, [r3, #24]	@ zero_extendqisi2
 4375 17f2 FFF7FEFF 		bl	write_psoc1
 4376              	.LVL333:
 854:.\Protocolo.c **** 						for(x=0;x<=16;x++){												
 4377              		.loc 1 854 0 discriminator 3
 4378 17f6 744A     		ldr	r2, .L608+20
 4379 17f8 1368     		ldr	r3, [r2]
 4380 17fa 0133     		adds	r3, r3, #1
 4381 17fc 1360     		str	r3, [r2]
 4382              	.L311:
 854:.\Protocolo.c **** 						for(x=0;x<=16;x++){												
 4383              		.loc 1 854 0 is_stmt 0 discriminator 1
 4384 17fe 724B     		ldr	r3, .L608+20
 4385 1800 1B68     		ldr	r3, [r3]
 4386 1802 102B     		cmp	r3, #16
 4387 1804 F1D9     		bls	.L312
 856:.\Protocolo.c **** 						}
 857:.\Protocolo.c **** 						write_psoc1(val,10);
 4388              		.loc 1 857 0 is_stmt 1
 4389 1806 2046     		mov	r0, r4
 4390 1808 0A21     		movs	r1, #10
 4391 180a FFF7FEFF 		bl	write_psoc1
 4392              	.LVL334:
 858:.\Protocolo.c **** 						if(dir==lado.a.dir){
 4393              		.loc 1 858 0
 4394 180e 6C4B     		ldr	r3, .L608+12
 4395 1810 1B78     		ldrb	r3, [r3]	@ zero_extendqisi2
 4396 1812 AB42     		cmp	r3, r5
 4397 1814 05D1     		bne	.L313
 859:.\Protocolo.c **** 							leer_eeprom(1096,25);
 4398              		.loc 1 859 0
 4399 1816 4FF48960 		mov	r0, #1096
 4400 181a 1921     		movs	r1, #25
 4401 181c FFF7FEFF 		bl	leer_eeprom
 4402              	.LVL335:
 4403 1820 04E0     		b	.L314
 4404              	.L313:
 860:.\Protocolo.c **** 						}
 861:.\Protocolo.c **** 						else{
 862:.\Protocolo.c **** 							leer_eeprom(1054,25);
 4405              		.loc 1 862 0
 4406 1822 40F21E40 		movw	r0, #1054
 4407 1826 1921     		movs	r1, #25
 4408 1828 FFF7FEFF 		bl	leer_eeprom
 4409              	.LVL336:
 4410              	.L314:
 863:.\Protocolo.c **** 						}
 864:.\Protocolo.c **** 						print_totales(val);
 4411              		.loc 1 864 0
 4412 182c 2046     		mov	r0, r4
 4413 182e FFF7FEFF 		bl	print_totales
 4414              	.LVL337:
 865:.\Protocolo.c **** 						for(z=1;z<=8;z++){
 4415              		.loc 1 865 0
 4416 1832 0122     		movs	r2, #1
ARM GAS  C:\Users\IN-002~1\AppData\Local\Temp\ccxO8rjh.s 			page 98


 4417 1834 674B     		ldr	r3, .L608+32
 4418 1836 1A60     		str	r2, [r3]
 4419 1838 10E0     		b	.L315
 4420              	.L316:
 866:.\Protocolo.c **** 							minuendo[z]=rventa.tdinero[z-1];
 4421              		.loc 1 866 0 discriminator 3
 4422 183a 674A     		ldr	r2, .L608+36
 4423 183c 1A44     		add	r2, r2, r3
 4424 183e 92F8CA10 		ldrb	r1, [r2, #202]	@ zero_extendqisi2
 4425 1842 10AA     		add	r2, sp, #64
 4426 1844 1A44     		add	r2, r2, r3
 4427 1846 02F82C1C 		strb	r1, [r2, #-44]
 867:.\Protocolo.c **** 							sustraendo[z]=buffer_i2c[z+8];
 4428              		.loc 1 867 0 discriminator 3
 4429 184a 03F10801 		add	r1, r3, #8
 4430 184e 6348     		ldr	r0, .L608+40
 4431 1850 415C     		ldrb	r1, [r0, r1]	@ zero_extendqisi2
 4432 1852 02F83C1C 		strb	r1, [r2, #-60]
 865:.\Protocolo.c **** 						for(z=1;z<=8;z++){
 4433              		.loc 1 865 0 discriminator 3
 4434 1856 0133     		adds	r3, r3, #1
 4435 1858 5E4A     		ldr	r2, .L608+32
 4436 185a 1360     		str	r3, [r2]
 4437              	.L315:
 865:.\Protocolo.c **** 						for(z=1;z<=8;z++){
 4438              		.loc 1 865 0 is_stmt 0 discriminator 1
 4439 185c 5D4B     		ldr	r3, .L608+32
 4440 185e 1B68     		ldr	r3, [r3]
 4441 1860 082B     		cmp	r3, #8
 4442 1862 EAD9     		bls	.L316
 868:.\Protocolo.c **** 						}
 869:.\Protocolo.c **** 						minuendo[0]=8;
 4443              		.loc 1 869 0 is_stmt 1
 4444 1864 10A9     		add	r1, sp, #64
 4445 1866 0823     		movs	r3, #8
 4446 1868 01F82C3D 		strb	r3, [r1, #-44]!
 870:.\Protocolo.c **** 						operacion(2,minuendo,sustraendo);
 4447              		.loc 1 870 0
 4448 186c 0220     		movs	r0, #2
 4449 186e 01AA     		add	r2, sp, #4
 4450 1870 FFF7FEFF 		bl	operacion
 4451              	.LVL338:
 871:.\Protocolo.c **** 						for(x=0;x<=17;x++){									
 4452              		.loc 1 871 0
 4453 1874 0022     		movs	r2, #0
 4454 1876 544B     		ldr	r3, .L608+20
 4455 1878 1A60     		str	r2, [r3]
 4456 187a 0AE0     		b	.L317
 4457              	.L318:
 872:.\Protocolo.c **** 							write_psoc1(val,msn_tventas[x]);				//Total de ventas
 4458              		.loc 1 872 0 discriminator 3
 4459 187c 534A     		ldr	r2, .L608+24
 4460 187e 1344     		add	r3, r3, r2
 4461 1880 2046     		mov	r0, r4
 4462 1882 93F82C10 		ldrb	r1, [r3, #44]	@ zero_extendqisi2
 4463 1886 FFF7FEFF 		bl	write_psoc1
 4464              	.LVL339:
ARM GAS  C:\Users\IN-002~1\AppData\Local\Temp\ccxO8rjh.s 			page 99


 871:.\Protocolo.c **** 						for(x=0;x<=17;x++){									
 4465              		.loc 1 871 0 discriminator 3
 4466 188a 4F4A     		ldr	r2, .L608+20
 4467 188c 1368     		ldr	r3, [r2]
 4468 188e 0133     		adds	r3, r3, #1
 4469 1890 1360     		str	r3, [r2]
 4470              	.L317:
 871:.\Protocolo.c **** 						for(x=0;x<=17;x++){									
 4471              		.loc 1 871 0 is_stmt 0 discriminator 1
 4472 1892 4D4B     		ldr	r3, .L608+20
 4473 1894 1B68     		ldr	r3, [r3]
 4474 1896 112B     		cmp	r3, #17
 4475 1898 F0D9     		bls	.L318
 873:.\Protocolo.c **** 						}
 874:.\Protocolo.c **** 						print_valor(resultado,val);							
 4476              		.loc 1 874 0 is_stmt 1
 4477 189a 4648     		ldr	r0, .L608
 4478 189c 2146     		mov	r1, r4
 4479 189e FFF7FEFF 		bl	print_valor
 4480              	.LVL340:
 875:.\Protocolo.c **** 						if(dir==lado.a.dir){
 4481              		.loc 1 875 0
 4482 18a2 474B     		ldr	r3, .L608+12
 4483 18a4 1B78     		ldrb	r3, [r3]	@ zero_extendqisi2
 4484 18a6 AB42     		cmp	r3, r5
 4485 18a8 0AD1     		bne	.L319
 876:.\Protocolo.c **** 						    write_eeprom(1096,corte);
 4486              		.loc 1 876 0
 4487 18aa 4FF48960 		mov	r0, #1096
 4488 18ae 09A9     		add	r1, sp, #36
 4489 18b0 FFF7FEFF 		bl	write_eeprom
 4490              	.LVL341:
 877:.\Protocolo.c **** 						    write_eeprom(1038,resultado);
 4491              		.loc 1 877 0
 4492 18b4 40F20E40 		movw	r0, #1038
 4493 18b8 3E49     		ldr	r1, .L608
 4494 18ba FFF7FEFF 		bl	write_eeprom
 4495              	.LVL342:
 4496 18be 09E0     		b	.L304
 4497              	.L319:
 878:.\Protocolo.c **** 					    }
 879:.\Protocolo.c **** 					    else{
 880:.\Protocolo.c **** 						    write_eeprom(1054,corte);
 4498              		.loc 1 880 0
 4499 18c0 40F21E40 		movw	r0, #1054
 4500 18c4 09A9     		add	r1, sp, #36
 4501 18c6 FFF7FEFF 		bl	write_eeprom
 4502              	.LVL343:
 881:.\Protocolo.c **** 						    write_eeprom(1081,resultado);
 4503              		.loc 1 881 0
 4504 18ca 40F23940 		movw	r0, #1081
 4505 18ce 3949     		ldr	r1, .L608
 4506 18d0 FFF7FEFF 		bl	write_eeprom
 4507              	.LVL344:
 4508              	.L304:
 692:.\Protocolo.c **** 					rventa.manguera=(Surtidor_rxBuffer[y+2]&0x0F)+1;
 4509              		.loc 1 692 0 discriminator 2
ARM GAS  C:\Users\IN-002~1\AppData\Local\Temp\ccxO8rjh.s 			page 100


 4510 18d4 424A     		ldr	r2, .L608+44
 4511 18d6 1368     		ldr	r3, [r2]
 4512 18d8 1E33     		adds	r3, r3, #30
 4513 18da 1360     		str	r3, [r2]
 4514              	.L239:
 692:.\Protocolo.c **** 					rventa.manguera=(Surtidor_rxBuffer[y+2]&0x0F)+1;
 4515              		.loc 1 692 0 is_stmt 0 discriminator 1
 4516 18dc 404B     		ldr	r3, .L608+44
 4517 18de 1E68     		ldr	r6, [r3]
 4518 18e0 3C2E     		cmp	r6, #60
 4519 18e2 7FF6F9AB 		bls	.L320
 882:.\Protocolo.c **** 						}					
 883:.\Protocolo.c **** 					}
 884:.\Protocolo.c ****                     
 885:.\Protocolo.c **** 				}
 886:.\Protocolo.c **** 				Surtidor_ClearRxBuffer();
 4520              		.loc 1 886 0 is_stmt 1
 4521 18e6 FFF7FEFF 		bl	Surtidor_ClearRxBuffer
 4522              	.LVL345:
 887:.\Protocolo.c **** 				return 3;					
 4523              		.loc 1 887 0
 4524 18ea 0320     		movs	r0, #3
 4525 18ec 01F0B0BC 		b	.L76
 4526              	.L72:
 888:.\Protocolo.c **** 			}			
 889:.\Protocolo.c **** 			else{
 890:.\Protocolo.c **** 				return 0;
 891:.\Protocolo.c **** 			}			
 892:.\Protocolo.c **** 		break;
 893:.\Protocolo.c **** 
 894:.\Protocolo.c **** 		case 46:
 895:.\Protocolo.c **** 			if((Surtidor_rxBuffer[0]==0xFF)&&(Surtidor_rxBuffer[1]==0xF6)&&(Surtidor_rxBuffer[45]==0xF0)&&(S
 4527              		.loc 1 895 0
 4528 18f0 3C4B     		ldr	r3, .L608+48
 4529 18f2 1B78     		ldrb	r3, [r3]	@ zero_extendqisi2
 4530 18f4 DBB2     		uxtb	r3, r3
 4531 18f6 FF2B     		cmp	r3, #255
 4532 18f8 41F09384 		bne	.L579
 4533              		.loc 1 895 0 is_stmt 0 discriminator 1
 4534 18fc 394B     		ldr	r3, .L608+48
 4535 18fe 5B78     		ldrb	r3, [r3, #1]	@ zero_extendqisi2
 4536 1900 DBB2     		uxtb	r3, r3
 4537 1902 F62B     		cmp	r3, #246
 4538 1904 41F08F84 		bne	.L580
 4539              		.loc 1 895 0 discriminator 2
 4540 1908 364B     		ldr	r3, .L608+48
 4541 190a 93F82D30 		ldrb	r3, [r3, #45]	@ zero_extendqisi2
 4542 190e DBB2     		uxtb	r3, r3
 4543 1910 F02B     		cmp	r3, #240
 4544 1912 41F08A84 		bne	.L581
 4545              		.loc 1 895 0 discriminator 3
 4546 1916 334B     		ldr	r3, .L608+48
 4547 1918 DB78     		ldrb	r3, [r3, #3]	@ zero_extendqisi2
 4548 191a DBB2     		uxtb	r3, r3
 4549 191c F92B     		cmp	r3, #249
 4550 191e 41F08684 		bne	.L582
 896:.\Protocolo.c **** 				rventa.manguera=(Surtidor_rxBuffer[2]&0x0F)+1;
ARM GAS  C:\Users\IN-002~1\AppData\Local\Temp\ccxO8rjh.s 			page 101


 4551              		.loc 1 896 0 is_stmt 1
 4552 1922 304B     		ldr	r3, .L608+48
 4553 1924 9978     		ldrb	r1, [r3, #2]	@ zero_extendqisi2
 4554 1926 01F00F01 		and	r1, r1, #15
 4555 192a 0131     		adds	r1, r1, #1
 4556 192c 224B     		ldr	r3, .L608+4
 4557 192e 83F8E010 		strb	r1, [r3, #224]
 897:.\Protocolo.c **** 				for(x=0;x<=11;x++){
 4558              		.loc 1 897 0
 4559 1932 0022     		movs	r2, #0
 4560 1934 244B     		ldr	r3, .L608+20
 4561 1936 1A60     		str	r2, [r3]
 4562 1938 0BE0     		b	.L321
 4563              	.L322:
 898:.\Protocolo.c **** 					rventa.tvolumen[x]=(Surtidor_rxBuffer[x+4]&0x0F);
 4564              		.loc 1 898 0 discriminator 3
 4565 193a 1A1D     		adds	r2, r3, #4
 4566 193c 2948     		ldr	r0, .L608+48
 4567 193e 805C     		ldrb	r0, [r0, r2]	@ zero_extendqisi2
 4568 1940 1D4A     		ldr	r2, .L608+4
 4569 1942 1A44     		add	r2, r2, r3
 4570 1944 00F00F00 		and	r0, r0, #15
 4571 1948 82F8BD00 		strb	r0, [r2, #189]
 897:.\Protocolo.c **** 				for(x=0;x<=11;x++){
 4572              		.loc 1 897 0 discriminator 3
 4573 194c 0133     		adds	r3, r3, #1
 4574 194e 1E4A     		ldr	r2, .L608+20
 4575 1950 1360     		str	r3, [r2]
 4576              	.L321:
 897:.\Protocolo.c **** 				for(x=0;x<=11;x++){
 4577              		.loc 1 897 0 is_stmt 0 discriminator 1
 4578 1952 1D4B     		ldr	r3, .L608+20
 4579 1954 1B68     		ldr	r3, [r3]
 4580 1956 0B2B     		cmp	r3, #11
 4581 1958 EFD9     		bls	.L322
 899:.\Protocolo.c **** 				}
 900:.\Protocolo.c **** 				for(x=0;x<=11;x++){
 4582              		.loc 1 900 0 is_stmt 1
 4583 195a 0022     		movs	r2, #0
 4584 195c 1A4B     		ldr	r3, .L608+20
 4585 195e 1A60     		str	r2, [r3]
 4586 1960 0CE0     		b	.L323
 4587              	.L324:
 901:.\Protocolo.c **** 					rventa.tdinero[x]=(Surtidor_rxBuffer[x+17]&0x0F);
 4588              		.loc 1 901 0 discriminator 3
 4589 1962 03F11102 		add	r2, r3, #17
 4590 1966 1F48     		ldr	r0, .L608+48
 4591 1968 805C     		ldrb	r0, [r0, r2]	@ zero_extendqisi2
 4592 196a 134A     		ldr	r2, .L608+4
 4593 196c 1A44     		add	r2, r2, r3
 4594 196e 00F00F00 		and	r0, r0, #15
 4595 1972 82F8CA00 		strb	r0, [r2, #202]
 900:.\Protocolo.c **** 					rventa.tdinero[x]=(Surtidor_rxBuffer[x+17]&0x0F);
 4596              		.loc 1 900 0 discriminator 3
 4597 1976 0133     		adds	r3, r3, #1
 4598 1978 134A     		ldr	r2, .L608+20
 4599 197a 1360     		str	r3, [r2]
ARM GAS  C:\Users\IN-002~1\AppData\Local\Temp\ccxO8rjh.s 			page 102


 4600              	.L323:
 900:.\Protocolo.c **** 					rventa.tdinero[x]=(Surtidor_rxBuffer[x+17]&0x0F);
 4601              		.loc 1 900 0 is_stmt 0 discriminator 1
 4602 197c 124B     		ldr	r3, .L608+20
 4603 197e 1B68     		ldr	r3, [r3]
 4604 1980 0B2B     		cmp	r3, #11
 4605 1982 EED9     		bls	.L324
 902:.\Protocolo.c **** 				}
 903:.\Protocolo.c **** 				for(z=0;z<=11;z++){
 4606              		.loc 1 903 0 is_stmt 1
 4607 1984 0022     		movs	r2, #0
 4608 1986 134B     		ldr	r3, .L608+32
 4609 1988 1A60     		str	r2, [r3]
 4610 198a 0AE0     		b	.L325
 4611              	.L326:
 904:.\Protocolo.c **** 					corte[z+1]=rventa.tvolumen[z];
 4612              		.loc 1 904 0 discriminator 3
 4613 198c 5A1C     		adds	r2, r3, #1
 4614 198e 0A48     		ldr	r0, .L608+4
 4615 1990 0344     		add	r3, r3, r0
 4616 1992 93F8BD00 		ldrb	r0, [r3, #189]	@ zero_extendqisi2
 4617 1996 10AB     		add	r3, sp, #64
 4618 1998 1344     		add	r3, r3, r2
 4619 199a 03F81C0C 		strb	r0, [r3, #-28]
 903:.\Protocolo.c **** 					corte[z+1]=rventa.tvolumen[z];
 4620              		.loc 1 903 0 discriminator 3
 4621 199e 0D4B     		ldr	r3, .L608+32
 4622 19a0 1A60     		str	r2, [r3]
 4623              	.L325:
 903:.\Protocolo.c **** 					corte[z+1]=rventa.tvolumen[z];
 4624              		.loc 1 903 0 is_stmt 0 discriminator 1
 4625 19a2 0C4B     		ldr	r3, .L608+32
 4626 19a4 1B68     		ldr	r3, [r3]
 4627 19a6 0B2B     		cmp	r3, #11
 4628 19a8 F0D9     		bls	.L326
 905:.\Protocolo.c **** 				}
 906:.\Protocolo.c **** 				for(z=13;z<=24;z++){
 4629              		.loc 1 906 0 is_stmt 1
 4630 19aa 0D22     		movs	r2, #13
 4631 19ac 094B     		ldr	r3, .L608+32
 4632 19ae 1A60     		str	r2, [r3]
 4633 19b0 25E0     		b	.L327
 4634              	.L609:
 4635 19b2 00BF     		.align	2
 4636              	.L608:
 4637 19b4 00000000 		.word	resultado
 4638 19b8 00000000 		.word	rventa
 4639 19bc 00000000 		.word	kero
 4640 19c0 00000000 		.word	lado
 4641 19c4 00000000 		.word	kero2
 4642 19c8 00000000 		.word	x
 4643 19cc 00000000 		.word	.LANCHOR1
 4644 19d0 00000000 		.word	producto4n
 4645 19d4 00000000 		.word	z
 4646 19d8 FFFFFFFF 		.word	rventa-1
 4647 19dc 00000000 		.word	buffer_i2c
 4648 19e0 00000000 		.word	y
ARM GAS  C:\Users\IN-002~1\AppData\Local\Temp\ccxO8rjh.s 			page 103


 4649 19e4 00000000 		.word	Surtidor_rxBuffer
 4650              	.L328:
 907:.\Protocolo.c **** 					corte[z]=rventa.tdinero[z-13];
 4651              		.loc 1 907 0 discriminator 3
 4652 19e8 AF4A     		ldr	r2, .L610
 4653 19ea 1A44     		add	r2, r2, r3
 4654 19ec 92F8CA00 		ldrb	r0, [r2, #202]	@ zero_extendqisi2
 4655 19f0 10AA     		add	r2, sp, #64
 4656 19f2 1A44     		add	r2, r2, r3
 4657 19f4 02F81C0C 		strb	r0, [r2, #-28]
 906:.\Protocolo.c **** 					corte[z]=rventa.tdinero[z-13];
 4658              		.loc 1 906 0 discriminator 3
 4659 19f8 0133     		adds	r3, r3, #1
 4660 19fa AC4A     		ldr	r2, .L610+4
 4661 19fc 1360     		str	r3, [r2]
 4662              	.L327:
 906:.\Protocolo.c **** 					corte[z]=rventa.tdinero[z-13];
 4663              		.loc 1 906 0 is_stmt 0 discriminator 1
 4664 19fe AB4B     		ldr	r3, .L610+4
 4665 1a00 1B68     		ldr	r3, [r3]
 4666 1a02 182B     		cmp	r3, #24
 4667 1a04 F0D9     		bls	.L328
 908:.\Protocolo.c **** 				}
 909:.\Protocolo.c **** 				corte[0]=24;				
 4668              		.loc 1 909 0 is_stmt 1
 4669 1a06 1823     		movs	r3, #24
 4670 1a08 8DF82430 		strb	r3, [sp, #36]
 910:.\Protocolo.c **** 				if(((rventa.manguera==(corriente&0x0F))&&(dir==lado.a.dir))||((rventa.manguera==(corriente2&0x0
 4671              		.loc 1 910 0
 4672 1a0c A84B     		ldr	r3, .L610+8
 4673 1a0e 1B78     		ldrb	r3, [r3]	@ zero_extendqisi2
 4674 1a10 03F00F03 		and	r3, r3, #15
 4675 1a14 8B42     		cmp	r3, r1
 4676 1a16 03D1     		bne	.L329
 4677              		.loc 1 910 0 is_stmt 0 discriminator 1
 4678 1a18 A64B     		ldr	r3, .L610+12
 4679 1a1a 1B78     		ldrb	r3, [r3]	@ zero_extendqisi2
 4680 1a1c AB42     		cmp	r3, r5
 4681 1a1e 0BD0     		beq	.L330
 4682              	.L329:
 4683              		.loc 1 910 0 discriminator 3
 4684 1a20 A54B     		ldr	r3, .L610+16
 4685 1a22 1B78     		ldrb	r3, [r3]	@ zero_extendqisi2
 4686 1a24 03F00F03 		and	r3, r3, #15
 4687 1a28 9942     		cmp	r1, r3
 4688 1a2a 40F0C080 		bne	.L331
 4689              		.loc 1 910 0 discriminator 4
 4690 1a2e A14B     		ldr	r3, .L610+12
 4691 1a30 1B79     		ldrb	r3, [r3, #4]	@ zero_extendqisi2
 4692 1a32 AB42     		cmp	r3, r5
 4693 1a34 40F0BB80 		bne	.L331
 4694              	.L330:
 911:.\Protocolo.c **** 					for(x=0;x<=5;x++){									
 4695              		.loc 1 911 0 is_stmt 1
 4696 1a38 0022     		movs	r2, #0
 4697 1a3a A04B     		ldr	r3, .L610+20
 4698 1a3c 1A60     		str	r2, [r3]
ARM GAS  C:\Users\IN-002~1\AppData\Local\Temp\ccxO8rjh.s 			page 104


 4699 1a3e 08E0     		b	.L332
 4700              	.L333:
 912:.\Protocolo.c **** 						write_psoc1(val,msn_tc[x]);
 4701              		.loc 1 912 0 discriminator 3
 4702 1a40 2046     		mov	r0, r4
 4703 1a42 9F4A     		ldr	r2, .L610+24
 4704 1a44 D15C     		ldrb	r1, [r2, r3]	@ zero_extendqisi2
 4705 1a46 FFF7FEFF 		bl	write_psoc1
 4706              	.LVL346:
 911:.\Protocolo.c **** 					for(x=0;x<=5;x++){									
 4707              		.loc 1 911 0 discriminator 3
 4708 1a4a 9C4A     		ldr	r2, .L610+20
 4709 1a4c 1368     		ldr	r3, [r2]
 4710 1a4e 0133     		adds	r3, r3, #1
 4711 1a50 1360     		str	r3, [r2]
 4712              	.L332:
 911:.\Protocolo.c **** 					for(x=0;x<=5;x++){									
 4713              		.loc 1 911 0 is_stmt 0 discriminator 1
 4714 1a52 9A4B     		ldr	r3, .L610+20
 4715 1a54 1B68     		ldr	r3, [r3]
 4716 1a56 052B     		cmp	r3, #5
 4717 1a58 F2D9     		bls	.L333
 913:.\Protocolo.c **** 					}
 914:.\Protocolo.c **** 					write_psoc1(val,10);
 4718              		.loc 1 914 0 is_stmt 1
 4719 1a5a 2046     		mov	r0, r4
 4720 1a5c 0A21     		movs	r1, #10
 4721 1a5e FFF7FEFF 		bl	write_psoc1
 4722              	.LVL347:
 915:.\Protocolo.c ****                     for(x=0;x<=10;x++){									
 4723              		.loc 1 915 0
 4724 1a62 0022     		movs	r2, #0
 4725 1a64 954B     		ldr	r3, .L610+20
 4726 1a66 1A60     		str	r2, [r3]
 4727 1a68 08E0     		b	.L334
 4728              	.L335:
 916:.\Protocolo.c **** 						write_psoc1(val,producto1n[x]);
 4729              		.loc 1 916 0 discriminator 3
 4730 1a6a 2046     		mov	r0, r4
 4731 1a6c 954A     		ldr	r2, .L610+28
 4732 1a6e D15C     		ldrb	r1, [r2, r3]	@ zero_extendqisi2
 4733 1a70 FFF7FEFF 		bl	write_psoc1
 4734              	.LVL348:
 915:.\Protocolo.c ****                     for(x=0;x<=10;x++){									
 4735              		.loc 1 915 0 discriminator 3
 4736 1a74 914A     		ldr	r2, .L610+20
 4737 1a76 1368     		ldr	r3, [r2]
 4738 1a78 0133     		adds	r3, r3, #1
 4739 1a7a 1360     		str	r3, [r2]
 4740              	.L334:
 915:.\Protocolo.c ****                     for(x=0;x<=10;x++){									
 4741              		.loc 1 915 0 is_stmt 0 discriminator 1
 4742 1a7c 8F4B     		ldr	r3, .L610+20
 4743 1a7e 1B68     		ldr	r3, [r3]
 4744 1a80 0A2B     		cmp	r3, #10
 4745 1a82 F2D9     		bls	.L335
 917:.\Protocolo.c **** 					}
ARM GAS  C:\Users\IN-002~1\AppData\Local\Temp\ccxO8rjh.s 			page 105


 918:.\Protocolo.c ****                     write_psoc1(val,10);
 4746              		.loc 1 918 0 is_stmt 1
 4747 1a84 2046     		mov	r0, r4
 4748 1a86 0A21     		movs	r1, #10
 4749 1a88 FFF7FEFF 		bl	write_psoc1
 4750              	.LVL349:
 919:.\Protocolo.c **** 					for(x=0;x<=14;x++){									
 4751              		.loc 1 919 0
 4752 1a8c 0022     		movs	r2, #0
 4753 1a8e 8B4B     		ldr	r3, .L610+20
 4754 1a90 1A60     		str	r2, [r3]
 4755 1a92 09E0     		b	.L336
 4756              	.L337:
 920:.\Protocolo.c **** 						write_psoc1(val,msn_lecact[x]);				//LECTURA ACTUAL
 4757              		.loc 1 920 0 discriminator 3
 4758 1a94 8A4A     		ldr	r2, .L610+24
 4759 1a96 1344     		add	r3, r3, r2
 4760 1a98 2046     		mov	r0, r4
 4761 1a9a 197A     		ldrb	r1, [r3, #8]	@ zero_extendqisi2
 4762 1a9c FFF7FEFF 		bl	write_psoc1
 4763              	.LVL350:
 919:.\Protocolo.c **** 					for(x=0;x<=14;x++){									
 4764              		.loc 1 919 0 discriminator 3
 4765 1aa0 864A     		ldr	r2, .L610+20
 4766 1aa2 1368     		ldr	r3, [r2]
 4767 1aa4 0133     		adds	r3, r3, #1
 4768 1aa6 1360     		str	r3, [r2]
 4769              	.L336:
 919:.\Protocolo.c **** 					for(x=0;x<=14;x++){									
 4770              		.loc 1 919 0 is_stmt 0 discriminator 1
 4771 1aa8 844B     		ldr	r3, .L610+20
 4772 1aaa 1B68     		ldr	r3, [r3]
 4773 1aac 0E2B     		cmp	r3, #14
 4774 1aae F1D9     		bls	.L337
 921:.\Protocolo.c **** 					}
 922:.\Protocolo.c **** 					write_psoc1(val,10);
 4775              		.loc 1 922 0 is_stmt 1
 4776 1ab0 2046     		mov	r0, r4
 4777 1ab2 0A21     		movs	r1, #10
 4778 1ab4 FFF7FEFF 		bl	write_psoc1
 4779              	.LVL351:
 923:.\Protocolo.c **** 					print_totalesac(12,val);	
 4780              		.loc 1 923 0
 4781 1ab8 0C20     		movs	r0, #12
 4782 1aba 2146     		mov	r1, r4
 4783 1abc FFF7FEFF 		bl	print_totalesac
 4784              	.LVL352:
 924:.\Protocolo.c **** 					for(x=0;x<=16;x++){												
 4785              		.loc 1 924 0
 4786 1ac0 0022     		movs	r2, #0
 4787 1ac2 7E4B     		ldr	r3, .L610+20
 4788 1ac4 1A60     		str	r2, [r3]
 4789 1ac6 09E0     		b	.L338
 4790              	.L339:
 925:.\Protocolo.c **** 						write_psoc1(val,msn_lecaan[x]);				//LECTURA ANTERIOR
 4791              		.loc 1 925 0 discriminator 3
 4792 1ac8 7D4A     		ldr	r2, .L610+24
ARM GAS  C:\Users\IN-002~1\AppData\Local\Temp\ccxO8rjh.s 			page 106


 4793 1aca 1344     		add	r3, r3, r2
 4794 1acc 2046     		mov	r0, r4
 4795 1ace 197E     		ldrb	r1, [r3, #24]	@ zero_extendqisi2
 4796 1ad0 FFF7FEFF 		bl	write_psoc1
 4797              	.LVL353:
 924:.\Protocolo.c **** 					for(x=0;x<=16;x++){												
 4798              		.loc 1 924 0 discriminator 3
 4799 1ad4 794A     		ldr	r2, .L610+20
 4800 1ad6 1368     		ldr	r3, [r2]
 4801 1ad8 0133     		adds	r3, r3, #1
 4802 1ada 1360     		str	r3, [r2]
 4803              	.L338:
 924:.\Protocolo.c **** 					for(x=0;x<=16;x++){												
 4804              		.loc 1 924 0 is_stmt 0 discriminator 1
 4805 1adc 774B     		ldr	r3, .L610+20
 4806 1ade 1B68     		ldr	r3, [r3]
 4807 1ae0 102B     		cmp	r3, #16
 4808 1ae2 F1D9     		bls	.L339
 926:.\Protocolo.c **** 					}
 927:.\Protocolo.c **** 					write_psoc1(val,10);
 4809              		.loc 1 927 0 is_stmt 1
 4810 1ae4 2046     		mov	r0, r4
 4811 1ae6 0A21     		movs	r1, #10
 4812 1ae8 FFF7FEFF 		bl	write_psoc1
 4813              	.LVL354:
 928:.\Protocolo.c **** 					if(dir==lado.a.dir){
 4814              		.loc 1 928 0
 4815 1aec 714B     		ldr	r3, .L610+12
 4816 1aee 1B78     		ldrb	r3, [r3]	@ zero_extendqisi2
 4817 1af0 AB42     		cmp	r3, r5
 4818 1af2 04D1     		bne	.L340
 929:.\Protocolo.c **** 						leer_eeprom(192,25);
 4819              		.loc 1 929 0
 4820 1af4 C020     		movs	r0, #192
 4821 1af6 1921     		movs	r1, #25
 4822 1af8 FFF7FEFF 		bl	leer_eeprom
 4823              	.LVL355:
 4824 1afc 04E0     		b	.L341
 4825              	.L340:
 930:.\Protocolo.c **** 					}
 931:.\Protocolo.c **** 					else{
 932:.\Protocolo.c **** 						leer_eeprom(281,25);
 4826              		.loc 1 932 0
 4827 1afe 40F21910 		movw	r0, #281
 4828 1b02 1921     		movs	r1, #25
 4829 1b04 FFF7FEFF 		bl	leer_eeprom
 4830              	.LVL356:
 4831              	.L341:
 933:.\Protocolo.c **** 					}
 934:.\Protocolo.c **** 					print_totales(val);
 4832              		.loc 1 934 0
 4833 1b08 2046     		mov	r0, r4
 4834 1b0a FFF7FEFF 		bl	print_totales
 4835              	.LVL357:
 935:.\Protocolo.c **** 					for(z=1;z<=12;z++){
 4836              		.loc 1 935 0
 4837 1b0e 0122     		movs	r2, #1
ARM GAS  C:\Users\IN-002~1\AppData\Local\Temp\ccxO8rjh.s 			page 107


 4838 1b10 664B     		ldr	r3, .L610+4
 4839 1b12 1A60     		str	r2, [r3]
 4840 1b14 10E0     		b	.L342
 4841              	.L343:
 936:.\Protocolo.c **** 						minuendo[z]=rventa.tdinero[z-1];
 4842              		.loc 1 936 0 discriminator 3
 4843 1b16 6C4A     		ldr	r2, .L610+32
 4844 1b18 1A44     		add	r2, r2, r3
 4845 1b1a 92F8CA10 		ldrb	r1, [r2, #202]	@ zero_extendqisi2
 4846 1b1e 10AA     		add	r2, sp, #64
 4847 1b20 1A44     		add	r2, r2, r3
 4848 1b22 02F82C1C 		strb	r1, [r2, #-44]
 937:.\Protocolo.c **** 						sustraendo[z]=buffer_i2c[z+12];
 4849              		.loc 1 937 0 discriminator 3
 4850 1b26 03F10C01 		add	r1, r3, #12
 4851 1b2a 6848     		ldr	r0, .L610+36
 4852 1b2c 415C     		ldrb	r1, [r0, r1]	@ zero_extendqisi2
 4853 1b2e 02F83C1C 		strb	r1, [r2, #-60]
 935:.\Protocolo.c **** 					for(z=1;z<=12;z++){
 4854              		.loc 1 935 0 discriminator 3
 4855 1b32 0133     		adds	r3, r3, #1
 4856 1b34 5D4A     		ldr	r2, .L610+4
 4857 1b36 1360     		str	r3, [r2]
 4858              	.L342:
 935:.\Protocolo.c **** 					for(z=1;z<=12;z++){
 4859              		.loc 1 935 0 is_stmt 0 discriminator 1
 4860 1b38 5C4B     		ldr	r3, .L610+4
 4861 1b3a 1B68     		ldr	r3, [r3]
 4862 1b3c 0C2B     		cmp	r3, #12
 4863 1b3e EAD9     		bls	.L343
 938:.\Protocolo.c **** 					}
 939:.\Protocolo.c **** 					minuendo[0]=12;
 4864              		.loc 1 939 0 is_stmt 1
 4865 1b40 10A9     		add	r1, sp, #64
 4866 1b42 0C23     		movs	r3, #12
 4867 1b44 01F82C3D 		strb	r3, [r1, #-44]!
 940:.\Protocolo.c **** 					operacion(2,minuendo,sustraendo);
 4868              		.loc 1 940 0
 4869 1b48 0220     		movs	r0, #2
 4870 1b4a 01AA     		add	r2, sp, #4
 4871 1b4c FFF7FEFF 		bl	operacion
 4872              	.LVL358:
 941:.\Protocolo.c **** 					for(x=0;x<=17;x++){									
 4873              		.loc 1 941 0
 4874 1b50 0022     		movs	r2, #0
 4875 1b52 5A4B     		ldr	r3, .L610+20
 4876 1b54 1A60     		str	r2, [r3]
 4877 1b56 0AE0     		b	.L344
 4878              	.L345:
 942:.\Protocolo.c **** 						write_psoc1(val,msn_tventas[x]);				//Total de ventas
 4879              		.loc 1 942 0 discriminator 3
 4880 1b58 594A     		ldr	r2, .L610+24
 4881 1b5a 1344     		add	r3, r3, r2
 4882 1b5c 2046     		mov	r0, r4
 4883 1b5e 93F82C10 		ldrb	r1, [r3, #44]	@ zero_extendqisi2
 4884 1b62 FFF7FEFF 		bl	write_psoc1
 4885              	.LVL359:
ARM GAS  C:\Users\IN-002~1\AppData\Local\Temp\ccxO8rjh.s 			page 108


 941:.\Protocolo.c **** 					for(x=0;x<=17;x++){									
 4886              		.loc 1 941 0 discriminator 3
 4887 1b66 554A     		ldr	r2, .L610+20
 4888 1b68 1368     		ldr	r3, [r2]
 4889 1b6a 0133     		adds	r3, r3, #1
 4890 1b6c 1360     		str	r3, [r2]
 4891              	.L344:
 941:.\Protocolo.c **** 					for(x=0;x<=17;x++){									
 4892              		.loc 1 941 0 is_stmt 0 discriminator 1
 4893 1b6e 534B     		ldr	r3, .L610+20
 4894 1b70 1B68     		ldr	r3, [r3]
 4895 1b72 112B     		cmp	r3, #17
 4896 1b74 F0D9     		bls	.L345
 943:.\Protocolo.c **** 					}
 944:.\Protocolo.c **** 					print_valor(resultado,val);
 4897              		.loc 1 944 0 is_stmt 1
 4898 1b76 5648     		ldr	r0, .L610+40
 4899 1b78 2146     		mov	r1, r4
 4900 1b7a FFF7FEFF 		bl	print_valor
 4901              	.LVL360:
 945:.\Protocolo.c **** 					if(dir==lado.a.dir){
 4902              		.loc 1 945 0
 4903 1b7e 4D4B     		ldr	r3, .L610+12
 4904 1b80 1B78     		ldrb	r3, [r3]	@ zero_extendqisi2
 4905 1b82 AB42     		cmp	r3, r5
 4906 1b84 09D1     		bne	.L346
 946:.\Protocolo.c **** 						write_eeprom(192,corte);	
 4907              		.loc 1 946 0
 4908 1b86 C020     		movs	r0, #192
 4909 1b88 09A9     		add	r1, sp, #36
 4910 1b8a FFF7FEFF 		bl	write_eeprom
 4911              	.LVL361:
 947:.\Protocolo.c **** 						write_eeprom(512,resultado);
 4912              		.loc 1 947 0
 4913 1b8e 4FF40070 		mov	r0, #512
 4914 1b92 4F49     		ldr	r1, .L610+40
 4915 1b94 FFF7FEFF 		bl	write_eeprom
 4916              	.LVL362:
 4917 1b98 09E0     		b	.L331
 4918              	.L346:
 948:.\Protocolo.c **** 					}
 949:.\Protocolo.c **** 					else{
 950:.\Protocolo.c **** 						write_eeprom(281,corte);
 4919              		.loc 1 950 0
 4920 1b9a 40F21910 		movw	r0, #281
 4921 1b9e 09A9     		add	r1, sp, #36
 4922 1ba0 FFF7FEFF 		bl	write_eeprom
 4923              	.LVL363:
 951:.\Protocolo.c **** 						write_eeprom(551,resultado);
 4924              		.loc 1 951 0
 4925 1ba4 40F22720 		movw	r0, #551
 4926 1ba8 4949     		ldr	r1, .L610+40
 4927 1baa FFF7FEFF 		bl	write_eeprom
 4928              	.LVL364:
 4929              	.L331:
 952:.\Protocolo.c **** 					}
 953:.\Protocolo.c **** 				}
ARM GAS  C:\Users\IN-002~1\AppData\Local\Temp\ccxO8rjh.s 			page 109


 954:.\Protocolo.c **** 				if(((rventa.manguera==(diesel&0x0F))&&(dir==lado.a.dir))||((rventa.manguera==(diesel2&0x0F))&&(
 4930              		.loc 1 954 0
 4931 1bae 494B     		ldr	r3, .L610+44
 4932 1bb0 93F8E020 		ldrb	r2, [r3, #224]	@ zero_extendqisi2
 4933 1bb4 484B     		ldr	r3, .L610+48
 4934 1bb6 1B78     		ldrb	r3, [r3]	@ zero_extendqisi2
 4935 1bb8 03F00F03 		and	r3, r3, #15
 4936 1bbc 9342     		cmp	r3, r2
 4937 1bbe 03D1     		bne	.L347
 4938              		.loc 1 954 0 is_stmt 0 discriminator 1
 4939 1bc0 3C4B     		ldr	r3, .L610+12
 4940 1bc2 1B78     		ldrb	r3, [r3]	@ zero_extendqisi2
 4941 1bc4 AB42     		cmp	r3, r5
 4942 1bc6 0BD0     		beq	.L348
 4943              	.L347:
 4944              		.loc 1 954 0 discriminator 3
 4945 1bc8 444B     		ldr	r3, .L610+52
 4946 1bca 1B78     		ldrb	r3, [r3]	@ zero_extendqisi2
 4947 1bcc 03F00F03 		and	r3, r3, #15
 4948 1bd0 9A42     		cmp	r2, r3
 4949 1bd2 40F0DF80 		bne	.L349
 4950              		.loc 1 954 0 discriminator 4
 4951 1bd6 374B     		ldr	r3, .L610+12
 4952 1bd8 1B79     		ldrb	r3, [r3, #4]	@ zero_extendqisi2
 4953 1bda AB42     		cmp	r3, r5
 4954 1bdc 40F0DA80 		bne	.L349
 4955              	.L348:
 955:.\Protocolo.c **** 					for(x=0;x<=5;x++){									
 4956              		.loc 1 955 0 is_stmt 1
 4957 1be0 0022     		movs	r2, #0
 4958 1be2 364B     		ldr	r3, .L610+20
 4959 1be4 1A60     		str	r2, [r3]
 4960 1be6 08E0     		b	.L350
 4961              	.L351:
 956:.\Protocolo.c **** 						    write_psoc1(val,msn_tc[x]);
 4962              		.loc 1 956 0 discriminator 3
 4963 1be8 2046     		mov	r0, r4
 4964 1bea 354A     		ldr	r2, .L610+24
 4965 1bec D15C     		ldrb	r1, [r2, r3]	@ zero_extendqisi2
 4966 1bee FFF7FEFF 		bl	write_psoc1
 4967              	.LVL365:
 955:.\Protocolo.c **** 					for(x=0;x<=5;x++){									
 4968              		.loc 1 955 0 discriminator 3
 4969 1bf2 324A     		ldr	r2, .L610+20
 4970 1bf4 1368     		ldr	r3, [r2]
 4971 1bf6 0133     		adds	r3, r3, #1
 4972 1bf8 1360     		str	r3, [r2]
 4973              	.L350:
 955:.\Protocolo.c **** 					for(x=0;x<=5;x++){									
 4974              		.loc 1 955 0 is_stmt 0 discriminator 1
 4975 1bfa 304B     		ldr	r3, .L610+20
 4976 1bfc 1B68     		ldr	r3, [r3]
 4977 1bfe 052B     		cmp	r3, #5
 4978 1c00 F2D9     		bls	.L351
 957:.\Protocolo.c **** 					    }
 958:.\Protocolo.c **** 					    write_psoc1(val,10);
 4979              		.loc 1 958 0 is_stmt 1
ARM GAS  C:\Users\IN-002~1\AppData\Local\Temp\ccxO8rjh.s 			page 110


 4980 1c02 2046     		mov	r0, r4
 4981 1c04 0A21     		movs	r1, #10
 4982 1c06 FFF7FEFF 		bl	write_psoc1
 4983              	.LVL366:
 959:.\Protocolo.c ****                     for(x=0;x<=10;x++){									
 4984              		.loc 1 959 0
 4985 1c0a 0022     		movs	r2, #0
 4986 1c0c 2B4B     		ldr	r3, .L610+20
 4987 1c0e 1A60     		str	r2, [r3]
 4988 1c10 08E0     		b	.L352
 4989              	.L353:
 960:.\Protocolo.c **** 						    write_psoc1(val,producto2n[x]);
 4990              		.loc 1 960 0 discriminator 3
 4991 1c12 2046     		mov	r0, r4
 4992 1c14 324A     		ldr	r2, .L610+56
 4993 1c16 D15C     		ldrb	r1, [r2, r3]	@ zero_extendqisi2
 4994 1c18 FFF7FEFF 		bl	write_psoc1
 4995              	.LVL367:
 959:.\Protocolo.c ****                     for(x=0;x<=10;x++){									
 4996              		.loc 1 959 0 discriminator 3
 4997 1c1c 274A     		ldr	r2, .L610+20
 4998 1c1e 1368     		ldr	r3, [r2]
 4999 1c20 0133     		adds	r3, r3, #1
 5000 1c22 1360     		str	r3, [r2]
 5001              	.L352:
 959:.\Protocolo.c ****                     for(x=0;x<=10;x++){									
 5002              		.loc 1 959 0 is_stmt 0 discriminator 1
 5003 1c24 254B     		ldr	r3, .L610+20
 5004 1c26 1B68     		ldr	r3, [r3]
 5005 1c28 0A2B     		cmp	r3, #10
 5006 1c2a F2D9     		bls	.L353
 961:.\Protocolo.c **** 					    }
 962:.\Protocolo.c ****                     write_psoc1(val,10);
 5007              		.loc 1 962 0 is_stmt 1
 5008 1c2c 2046     		mov	r0, r4
 5009 1c2e 0A21     		movs	r1, #10
 5010 1c30 FFF7FEFF 		bl	write_psoc1
 5011              	.LVL368:
 963:.\Protocolo.c **** 					for(x=0;x<=14;x++){									
 5012              		.loc 1 963 0
 5013 1c34 0022     		movs	r2, #0
 5014 1c36 214B     		ldr	r3, .L610+20
 5015 1c38 1A60     		str	r2, [r3]
 5016 1c3a 09E0     		b	.L354
 5017              	.L355:
 964:.\Protocolo.c **** 						write_psoc1(val,msn_lecact[x]);				//LECTURA ACTUAL
 5018              		.loc 1 964 0 discriminator 3
 5019 1c3c 204A     		ldr	r2, .L610+24
 5020 1c3e 1344     		add	r3, r3, r2
 5021 1c40 2046     		mov	r0, r4
 5022 1c42 197A     		ldrb	r1, [r3, #8]	@ zero_extendqisi2
 5023 1c44 FFF7FEFF 		bl	write_psoc1
 5024              	.LVL369:
 963:.\Protocolo.c **** 					for(x=0;x<=14;x++){									
 5025              		.loc 1 963 0 discriminator 3
 5026 1c48 1C4A     		ldr	r2, .L610+20
 5027 1c4a 1368     		ldr	r3, [r2]
ARM GAS  C:\Users\IN-002~1\AppData\Local\Temp\ccxO8rjh.s 			page 111


 5028 1c4c 0133     		adds	r3, r3, #1
 5029 1c4e 1360     		str	r3, [r2]
 5030              	.L354:
 963:.\Protocolo.c **** 					for(x=0;x<=14;x++){									
 5031              		.loc 1 963 0 is_stmt 0 discriminator 1
 5032 1c50 1A4B     		ldr	r3, .L610+20
 5033 1c52 1B68     		ldr	r3, [r3]
 5034 1c54 0E2B     		cmp	r3, #14
 5035 1c56 F1D9     		bls	.L355
 965:.\Protocolo.c **** 					}
 966:.\Protocolo.c **** 					write_psoc1(val,10);
 5036              		.loc 1 966 0 is_stmt 1
 5037 1c58 2046     		mov	r0, r4
 5038 1c5a 0A21     		movs	r1, #10
 5039 1c5c FFF7FEFF 		bl	write_psoc1
 5040              	.LVL370:
 967:.\Protocolo.c **** 					print_totalesac(12,val);	
 5041              		.loc 1 967 0
 5042 1c60 0C20     		movs	r0, #12
 5043 1c62 2146     		mov	r1, r4
 5044 1c64 FFF7FEFF 		bl	print_totalesac
 5045              	.LVL371:
 968:.\Protocolo.c **** 					for(x=0;x<=16;x++){												
 5046              		.loc 1 968 0
 5047 1c68 0022     		movs	r2, #0
 5048 1c6a 144B     		ldr	r3, .L610+20
 5049 1c6c 1A60     		str	r2, [r3]
 5050 1c6e 09E0     		b	.L356
 5051              	.L357:
 969:.\Protocolo.c **** 						write_psoc1(val,msn_lecaan[x]);				//LECTURA ANTERIOR
 5052              		.loc 1 969 0 discriminator 3
 5053 1c70 134A     		ldr	r2, .L610+24
 5054 1c72 1344     		add	r3, r3, r2
 5055 1c74 2046     		mov	r0, r4
 5056 1c76 197E     		ldrb	r1, [r3, #24]	@ zero_extendqisi2
 5057 1c78 FFF7FEFF 		bl	write_psoc1
 5058              	.LVL372:
 968:.\Protocolo.c **** 					for(x=0;x<=16;x++){												
 5059              		.loc 1 968 0 discriminator 3
 5060 1c7c 0F4A     		ldr	r2, .L610+20
 5061 1c7e 1368     		ldr	r3, [r2]
 5062 1c80 0133     		adds	r3, r3, #1
 5063 1c82 1360     		str	r3, [r2]
 5064              	.L356:
 968:.\Protocolo.c **** 					for(x=0;x<=16;x++){												
 5065              		.loc 1 968 0 is_stmt 0 discriminator 1
 5066 1c84 0D4B     		ldr	r3, .L610+20
 5067 1c86 1B68     		ldr	r3, [r3]
 5068 1c88 102B     		cmp	r3, #16
 5069 1c8a F1D9     		bls	.L357
 970:.\Protocolo.c **** 					}
 971:.\Protocolo.c **** 					write_psoc1(val,10);
 5070              		.loc 1 971 0 is_stmt 1
 5071 1c8c 2046     		mov	r0, r4
 5072 1c8e 0A21     		movs	r1, #10
 5073 1c90 FFF7FEFF 		bl	write_psoc1
 5074              	.LVL373:
ARM GAS  C:\Users\IN-002~1\AppData\Local\Temp\ccxO8rjh.s 			page 112


 972:.\Protocolo.c **** 					if(dir==lado.a.dir){
 5075              		.loc 1 972 0
 5076 1c94 074B     		ldr	r3, .L610+12
 5077 1c96 1B78     		ldrb	r3, [r3]	@ zero_extendqisi2
 5078 1c98 AB42     		cmp	r3, r5
 5079 1c9a 23D1     		bne	.L358
 973:.\Protocolo.c **** 						leer_eeprom(217,25);
 5080              		.loc 1 973 0
 5081 1c9c D920     		movs	r0, #217
 5082 1c9e 1921     		movs	r1, #25
 5083 1ca0 FFF7FEFF 		bl	leer_eeprom
 5084              	.LVL374:
 5085 1ca4 23E0     		b	.L359
 5086              	.L611:
 5087 1ca6 00BF     		.align	2
 5088              	.L610:
 5089 1ca8 F3FFFFFF 		.word	rventa-13
 5090 1cac 00000000 		.word	z
 5091 1cb0 00000000 		.word	corriente
 5092 1cb4 00000000 		.word	lado
 5093 1cb8 00000000 		.word	corriente2
 5094 1cbc 00000000 		.word	x
 5095 1cc0 00000000 		.word	.LANCHOR1
 5096 1cc4 00000000 		.word	producto1n
 5097 1cc8 FFFFFFFF 		.word	rventa-1
 5098 1ccc 00000000 		.word	buffer_i2c
 5099 1cd0 00000000 		.word	resultado
 5100 1cd4 00000000 		.word	rventa
 5101 1cd8 00000000 		.word	diesel
 5102 1cdc 00000000 		.word	diesel2
 5103 1ce0 00000000 		.word	producto2n
 5104              	.L358:
 974:.\Protocolo.c **** 					}
 975:.\Protocolo.c **** 					else{
 976:.\Protocolo.c **** 						leer_eeprom(320,25);
 5105              		.loc 1 976 0
 5106 1ce4 4FF4A070 		mov	r0, #320
 5107 1ce8 1921     		movs	r1, #25
 5108 1cea FFF7FEFF 		bl	leer_eeprom
 5109              	.LVL375:
 5110              	.L359:
 977:.\Protocolo.c **** 					}
 978:.\Protocolo.c **** 					print_totales(val);
 5111              		.loc 1 978 0
 5112 1cee 2046     		mov	r0, r4
 5113 1cf0 FFF7FEFF 		bl	print_totales
 5114              	.LVL376:
 979:.\Protocolo.c **** 					for(z=1;z<=12;z++){
 5115              		.loc 1 979 0
 5116 1cf4 0122     		movs	r2, #1
 5117 1cf6 AB4B     		ldr	r3, .L612
 5118 1cf8 1A60     		str	r2, [r3]
 5119 1cfa 10E0     		b	.L360
 5120              	.L361:
 980:.\Protocolo.c **** 						minuendo[z]=rventa.tdinero[z-1];
 5121              		.loc 1 980 0 discriminator 3
 5122 1cfc AA4A     		ldr	r2, .L612+4
ARM GAS  C:\Users\IN-002~1\AppData\Local\Temp\ccxO8rjh.s 			page 113


 5123 1cfe 1A44     		add	r2, r2, r3
 5124 1d00 92F8CA10 		ldrb	r1, [r2, #202]	@ zero_extendqisi2
 5125 1d04 10AA     		add	r2, sp, #64
 5126 1d06 1A44     		add	r2, r2, r3
 5127 1d08 02F82C1C 		strb	r1, [r2, #-44]
 981:.\Protocolo.c **** 						sustraendo[z]=buffer_i2c[z+12];
 5128              		.loc 1 981 0 discriminator 3
 5129 1d0c 03F10C01 		add	r1, r3, #12
 5130 1d10 A648     		ldr	r0, .L612+8
 5131 1d12 415C     		ldrb	r1, [r0, r1]	@ zero_extendqisi2
 5132 1d14 02F83C1C 		strb	r1, [r2, #-60]
 979:.\Protocolo.c **** 					for(z=1;z<=12;z++){
 5133              		.loc 1 979 0 discriminator 3
 5134 1d18 0133     		adds	r3, r3, #1
 5135 1d1a A24A     		ldr	r2, .L612
 5136 1d1c 1360     		str	r3, [r2]
 5137              	.L360:
 979:.\Protocolo.c **** 					for(z=1;z<=12;z++){
 5138              		.loc 1 979 0 is_stmt 0 discriminator 1
 5139 1d1e A14B     		ldr	r3, .L612
 5140 1d20 1B68     		ldr	r3, [r3]
 5141 1d22 0C2B     		cmp	r3, #12
 5142 1d24 EAD9     		bls	.L361
 982:.\Protocolo.c **** 					}
 983:.\Protocolo.c **** 					minuendo[0]=12;
 5143              		.loc 1 983 0 is_stmt 1
 5144 1d26 10A9     		add	r1, sp, #64
 5145 1d28 0C23     		movs	r3, #12
 5146 1d2a 01F82C3D 		strb	r3, [r1, #-44]!
 984:.\Protocolo.c **** 					operacion(2,minuendo,sustraendo);
 5147              		.loc 1 984 0
 5148 1d2e 0220     		movs	r0, #2
 5149 1d30 01AA     		add	r2, sp, #4
 5150 1d32 FFF7FEFF 		bl	operacion
 5151              	.LVL377:
 985:.\Protocolo.c **** 					for(x=0;x<=17;x++){									
 5152              		.loc 1 985 0
 5153 1d36 0022     		movs	r2, #0
 5154 1d38 9D4B     		ldr	r3, .L612+12
 5155 1d3a 1A60     		str	r2, [r3]
 5156 1d3c 0AE0     		b	.L362
 5157              	.L363:
 986:.\Protocolo.c **** 						write_psoc1(val,msn_tventas[x]);				//Total de ventas
 5158              		.loc 1 986 0 discriminator 3
 5159 1d3e 9D4A     		ldr	r2, .L612+16
 5160 1d40 1344     		add	r3, r3, r2
 5161 1d42 2046     		mov	r0, r4
 5162 1d44 93F82C10 		ldrb	r1, [r3, #44]	@ zero_extendqisi2
 5163 1d48 FFF7FEFF 		bl	write_psoc1
 5164              	.LVL378:
 985:.\Protocolo.c **** 					for(x=0;x<=17;x++){									
 5165              		.loc 1 985 0 discriminator 3
 5166 1d4c 984A     		ldr	r2, .L612+12
 5167 1d4e 1368     		ldr	r3, [r2]
 5168 1d50 0133     		adds	r3, r3, #1
 5169 1d52 1360     		str	r3, [r2]
 5170              	.L362:
ARM GAS  C:\Users\IN-002~1\AppData\Local\Temp\ccxO8rjh.s 			page 114


 985:.\Protocolo.c **** 					for(x=0;x<=17;x++){									
 5171              		.loc 1 985 0 is_stmt 0 discriminator 1
 5172 1d54 964B     		ldr	r3, .L612+12
 5173 1d56 1B68     		ldr	r3, [r3]
 5174 1d58 112B     		cmp	r3, #17
 5175 1d5a F0D9     		bls	.L363
 987:.\Protocolo.c **** 					}
 988:.\Protocolo.c **** 					print_valor(resultado,val);				
 5176              		.loc 1 988 0 is_stmt 1
 5177 1d5c 9648     		ldr	r0, .L612+20
 5178 1d5e 2146     		mov	r1, r4
 5179 1d60 FFF7FEFF 		bl	print_valor
 5180              	.LVL379:
 989:.\Protocolo.c **** 					if(dir==lado.a.dir){
 5181              		.loc 1 989 0
 5182 1d64 954B     		ldr	r3, .L612+24
 5183 1d66 1B78     		ldrb	r3, [r3]	@ zero_extendqisi2
 5184 1d68 AB42     		cmp	r3, r5
 5185 1d6a 09D1     		bne	.L364
 990:.\Protocolo.c **** 						write_eeprom(217,corte);
 5186              		.loc 1 990 0
 5187 1d6c D920     		movs	r0, #217
 5188 1d6e 09A9     		add	r1, sp, #36
 5189 1d70 FFF7FEFF 		bl	write_eeprom
 5190              	.LVL380:
 991:.\Protocolo.c **** 						write_eeprom(538,resultado);
 5191              		.loc 1 991 0
 5192 1d74 40F21A20 		movw	r0, #538
 5193 1d78 8F49     		ldr	r1, .L612+20
 5194 1d7a FFF7FEFF 		bl	write_eeprom
 5195              	.LVL381:
 5196 1d7e 09E0     		b	.L349
 5197              	.L364:
 992:.\Protocolo.c **** 					}
 993:.\Protocolo.c **** 					else{
 994:.\Protocolo.c **** 						write_eeprom(320,corte);
 5198              		.loc 1 994 0
 5199 1d80 4FF4A070 		mov	r0, #320
 5200 1d84 09A9     		add	r1, sp, #36
 5201 1d86 FFF7FEFF 		bl	write_eeprom
 5202              	.LVL382:
 995:.\Protocolo.c **** 						write_eeprom(576,resultado);
 5203              		.loc 1 995 0
 5204 1d8a 4FF41070 		mov	r0, #576
 5205 1d8e 8A49     		ldr	r1, .L612+20
 5206 1d90 FFF7FEFF 		bl	write_eeprom
 5207              	.LVL383:
 5208              	.L349:
 996:.\Protocolo.c **** 					}				
 997:.\Protocolo.c **** 				}
 998:.\Protocolo.c **** 				if(((rventa.manguera==(extra&0x0F))&&(dir==lado.a.dir))||((rventa.manguera==(extra2&0x0F))&&(di
 5209              		.loc 1 998 0
 5210 1d94 8A4B     		ldr	r3, .L612+28
 5211 1d96 93F8E020 		ldrb	r2, [r3, #224]	@ zero_extendqisi2
 5212 1d9a 8A4B     		ldr	r3, .L612+32
 5213 1d9c 1B78     		ldrb	r3, [r3]	@ zero_extendqisi2
 5214 1d9e 03F00F03 		and	r3, r3, #15
ARM GAS  C:\Users\IN-002~1\AppData\Local\Temp\ccxO8rjh.s 			page 115


 5215 1da2 9342     		cmp	r3, r2
 5216 1da4 03D1     		bne	.L365
 5217              		.loc 1 998 0 is_stmt 0 discriminator 1
 5218 1da6 854B     		ldr	r3, .L612+24
 5219 1da8 1B78     		ldrb	r3, [r3]	@ zero_extendqisi2
 5220 1daa AB42     		cmp	r3, r5
 5221 1dac 0BD0     		beq	.L366
 5222              	.L365:
 5223              		.loc 1 998 0 discriminator 3
 5224 1dae 864B     		ldr	r3, .L612+36
 5225 1db0 1B78     		ldrb	r3, [r3]	@ zero_extendqisi2
 5226 1db2 03F00F03 		and	r3, r3, #15
 5227 1db6 9A42     		cmp	r2, r3
 5228 1db8 40F0C280 		bne	.L367
 5229              		.loc 1 998 0 discriminator 4
 5230 1dbc 7F4B     		ldr	r3, .L612+24
 5231 1dbe 1B79     		ldrb	r3, [r3, #4]	@ zero_extendqisi2
 5232 1dc0 AB42     		cmp	r3, r5
 5233 1dc2 40F0BD80 		bne	.L367
 5234              	.L366:
 999:.\Protocolo.c **** 					for(x=0;x<=5;x++){									
 5235              		.loc 1 999 0 is_stmt 1
 5236 1dc6 0022     		movs	r2, #0
 5237 1dc8 794B     		ldr	r3, .L612+12
 5238 1dca 1A60     		str	r2, [r3]
 5239 1dcc 08E0     		b	.L368
 5240              	.L369:
1000:.\Protocolo.c **** 						    write_psoc1(val,msn_tc[x]);
 5241              		.loc 1 1000 0 discriminator 3
 5242 1dce 2046     		mov	r0, r4
 5243 1dd0 784A     		ldr	r2, .L612+16
 5244 1dd2 D15C     		ldrb	r1, [r2, r3]	@ zero_extendqisi2
 5245 1dd4 FFF7FEFF 		bl	write_psoc1
 5246              	.LVL384:
 999:.\Protocolo.c **** 					for(x=0;x<=5;x++){									
 5247              		.loc 1 999 0 discriminator 3
 5248 1dd8 754A     		ldr	r2, .L612+12
 5249 1dda 1368     		ldr	r3, [r2]
 5250 1ddc 0133     		adds	r3, r3, #1
 5251 1dde 1360     		str	r3, [r2]
 5252              	.L368:
 999:.\Protocolo.c **** 					for(x=0;x<=5;x++){									
 5253              		.loc 1 999 0 is_stmt 0 discriminator 1
 5254 1de0 734B     		ldr	r3, .L612+12
 5255 1de2 1B68     		ldr	r3, [r3]
 5256 1de4 052B     		cmp	r3, #5
 5257 1de6 F2D9     		bls	.L369
1001:.\Protocolo.c **** 					    }
1002:.\Protocolo.c **** 					    write_psoc1(val,10);
 5258              		.loc 1 1002 0 is_stmt 1
 5259 1de8 2046     		mov	r0, r4
 5260 1dea 0A21     		movs	r1, #10
 5261 1dec FFF7FEFF 		bl	write_psoc1
 5262              	.LVL385:
1003:.\Protocolo.c ****                     for(x=0;x<=10;x++){									
 5263              		.loc 1 1003 0
 5264 1df0 0022     		movs	r2, #0
ARM GAS  C:\Users\IN-002~1\AppData\Local\Temp\ccxO8rjh.s 			page 116


 5265 1df2 6F4B     		ldr	r3, .L612+12
 5266 1df4 1A60     		str	r2, [r3]
 5267 1df6 08E0     		b	.L370
 5268              	.L371:
1004:.\Protocolo.c **** 						    write_psoc1(val,producto3n[x]);
 5269              		.loc 1 1004 0 discriminator 3
 5270 1df8 2046     		mov	r0, r4
 5271 1dfa 744A     		ldr	r2, .L612+40
 5272 1dfc D15C     		ldrb	r1, [r2, r3]	@ zero_extendqisi2
 5273 1dfe FFF7FEFF 		bl	write_psoc1
 5274              	.LVL386:
1003:.\Protocolo.c ****                     for(x=0;x<=10;x++){									
 5275              		.loc 1 1003 0 discriminator 3
 5276 1e02 6B4A     		ldr	r2, .L612+12
 5277 1e04 1368     		ldr	r3, [r2]
 5278 1e06 0133     		adds	r3, r3, #1
 5279 1e08 1360     		str	r3, [r2]
 5280              	.L370:
1003:.\Protocolo.c ****                     for(x=0;x<=10;x++){									
 5281              		.loc 1 1003 0 is_stmt 0 discriminator 1
 5282 1e0a 694B     		ldr	r3, .L612+12
 5283 1e0c 1B68     		ldr	r3, [r3]
 5284 1e0e 0A2B     		cmp	r3, #10
 5285 1e10 F2D9     		bls	.L371
1005:.\Protocolo.c **** 					    }
1006:.\Protocolo.c ****                     write_psoc1(val,10);
 5286              		.loc 1 1006 0 is_stmt 1
 5287 1e12 2046     		mov	r0, r4
 5288 1e14 0A21     		movs	r1, #10
 5289 1e16 FFF7FEFF 		bl	write_psoc1
 5290              	.LVL387:
1007:.\Protocolo.c **** 					for(x=0;x<=14;x++){									
 5291              		.loc 1 1007 0
 5292 1e1a 0022     		movs	r2, #0
 5293 1e1c 644B     		ldr	r3, .L612+12
 5294 1e1e 1A60     		str	r2, [r3]
 5295 1e20 09E0     		b	.L372
 5296              	.L373:
1008:.\Protocolo.c **** 						write_psoc1(val,msn_lecact[x]);				//LECTURA ACTUAL
 5297              		.loc 1 1008 0 discriminator 3
 5298 1e22 644A     		ldr	r2, .L612+16
 5299 1e24 1344     		add	r3, r3, r2
 5300 1e26 2046     		mov	r0, r4
 5301 1e28 197A     		ldrb	r1, [r3, #8]	@ zero_extendqisi2
 5302 1e2a FFF7FEFF 		bl	write_psoc1
 5303              	.LVL388:
1007:.\Protocolo.c **** 					for(x=0;x<=14;x++){									
 5304              		.loc 1 1007 0 discriminator 3
 5305 1e2e 604A     		ldr	r2, .L612+12
 5306 1e30 1368     		ldr	r3, [r2]
 5307 1e32 0133     		adds	r3, r3, #1
 5308 1e34 1360     		str	r3, [r2]
 5309              	.L372:
1007:.\Protocolo.c **** 					for(x=0;x<=14;x++){									
 5310              		.loc 1 1007 0 is_stmt 0 discriminator 1
 5311 1e36 5E4B     		ldr	r3, .L612+12
 5312 1e38 1B68     		ldr	r3, [r3]
ARM GAS  C:\Users\IN-002~1\AppData\Local\Temp\ccxO8rjh.s 			page 117


 5313 1e3a 0E2B     		cmp	r3, #14
 5314 1e3c F1D9     		bls	.L373
1009:.\Protocolo.c **** 					}
1010:.\Protocolo.c **** 					write_psoc1(val,10);
 5315              		.loc 1 1010 0 is_stmt 1
 5316 1e3e 2046     		mov	r0, r4
 5317 1e40 0A21     		movs	r1, #10
 5318 1e42 FFF7FEFF 		bl	write_psoc1
 5319              	.LVL389:
1011:.\Protocolo.c **** 					print_totalesac(12,val);	
 5320              		.loc 1 1011 0
 5321 1e46 0C20     		movs	r0, #12
 5322 1e48 2146     		mov	r1, r4
 5323 1e4a FFF7FEFF 		bl	print_totalesac
 5324              	.LVL390:
1012:.\Protocolo.c **** 					for(x=0;x<=16;x++){												
 5325              		.loc 1 1012 0
 5326 1e4e 0022     		movs	r2, #0
 5327 1e50 574B     		ldr	r3, .L612+12
 5328 1e52 1A60     		str	r2, [r3]
 5329 1e54 09E0     		b	.L374
 5330              	.L375:
1013:.\Protocolo.c **** 						write_psoc1(val,msn_lecaan[x]);				//LECTURA ANTERIOR
 5331              		.loc 1 1013 0 discriminator 3
 5332 1e56 574A     		ldr	r2, .L612+16
 5333 1e58 1344     		add	r3, r3, r2
 5334 1e5a 2046     		mov	r0, r4
 5335 1e5c 197E     		ldrb	r1, [r3, #24]	@ zero_extendqisi2
 5336 1e5e FFF7FEFF 		bl	write_psoc1
 5337              	.LVL391:
1012:.\Protocolo.c **** 					for(x=0;x<=16;x++){												
 5338              		.loc 1 1012 0 discriminator 3
 5339 1e62 534A     		ldr	r2, .L612+12
 5340 1e64 1368     		ldr	r3, [r2]
 5341 1e66 0133     		adds	r3, r3, #1
 5342 1e68 1360     		str	r3, [r2]
 5343              	.L374:
1012:.\Protocolo.c **** 					for(x=0;x<=16;x++){												
 5344              		.loc 1 1012 0 is_stmt 0 discriminator 1
 5345 1e6a 514B     		ldr	r3, .L612+12
 5346 1e6c 1B68     		ldr	r3, [r3]
 5347 1e6e 102B     		cmp	r3, #16
 5348 1e70 F1D9     		bls	.L375
1014:.\Protocolo.c **** 					}
1015:.\Protocolo.c **** 					write_psoc1(val,10);
 5349              		.loc 1 1015 0 is_stmt 1
 5350 1e72 2046     		mov	r0, r4
 5351 1e74 0A21     		movs	r1, #10
 5352 1e76 FFF7FEFF 		bl	write_psoc1
 5353              	.LVL392:
1016:.\Protocolo.c **** 					if(dir==lado.a.dir){
 5354              		.loc 1 1016 0
 5355 1e7a 504B     		ldr	r3, .L612+24
 5356 1e7c 1B78     		ldrb	r3, [r3]	@ zero_extendqisi2
 5357 1e7e AB42     		cmp	r3, r5
 5358 1e80 05D1     		bne	.L376
1017:.\Protocolo.c **** 						leer_eeprom(256,25);
ARM GAS  C:\Users\IN-002~1\AppData\Local\Temp\ccxO8rjh.s 			page 118


 5359              		.loc 1 1017 0
 5360 1e82 4FF48070 		mov	r0, #256
 5361 1e86 1921     		movs	r1, #25
 5362 1e88 FFF7FEFF 		bl	leer_eeprom
 5363              	.LVL393:
 5364 1e8c 04E0     		b	.L377
 5365              	.L376:
1018:.\Protocolo.c **** 					}
1019:.\Protocolo.c **** 					else{
1020:.\Protocolo.c **** 						leer_eeprom(345,25);
 5366              		.loc 1 1020 0
 5367 1e8e 40F25910 		movw	r0, #345
 5368 1e92 1921     		movs	r1, #25
 5369 1e94 FFF7FEFF 		bl	leer_eeprom
 5370              	.LVL394:
 5371              	.L377:
1021:.\Protocolo.c **** 					}
1022:.\Protocolo.c **** 					print_totales(val);
 5372              		.loc 1 1022 0
 5373 1e98 2046     		mov	r0, r4
 5374 1e9a FFF7FEFF 		bl	print_totales
 5375              	.LVL395:
1023:.\Protocolo.c **** 					for(z=1;z<=12;z++){
 5376              		.loc 1 1023 0
 5377 1e9e 0122     		movs	r2, #1
 5378 1ea0 404B     		ldr	r3, .L612
 5379 1ea2 1A60     		str	r2, [r3]
 5380 1ea4 10E0     		b	.L378
 5381              	.L379:
1024:.\Protocolo.c **** 						minuendo[z]=rventa.tdinero[z-1];
 5382              		.loc 1 1024 0 discriminator 3
 5383 1ea6 404A     		ldr	r2, .L612+4
 5384 1ea8 1A44     		add	r2, r2, r3
 5385 1eaa 92F8CA10 		ldrb	r1, [r2, #202]	@ zero_extendqisi2
 5386 1eae 10AA     		add	r2, sp, #64
 5387 1eb0 1A44     		add	r2, r2, r3
 5388 1eb2 02F82C1C 		strb	r1, [r2, #-44]
1025:.\Protocolo.c **** 						sustraendo[z]=buffer_i2c[z+12];
 5389              		.loc 1 1025 0 discriminator 3
 5390 1eb6 03F10C01 		add	r1, r3, #12
 5391 1eba 3C48     		ldr	r0, .L612+8
 5392 1ebc 415C     		ldrb	r1, [r0, r1]	@ zero_extendqisi2
 5393 1ebe 02F83C1C 		strb	r1, [r2, #-60]
1023:.\Protocolo.c **** 					for(z=1;z<=12;z++){
 5394              		.loc 1 1023 0 discriminator 3
 5395 1ec2 0133     		adds	r3, r3, #1
 5396 1ec4 374A     		ldr	r2, .L612
 5397 1ec6 1360     		str	r3, [r2]
 5398              	.L378:
1023:.\Protocolo.c **** 					for(z=1;z<=12;z++){
 5399              		.loc 1 1023 0 is_stmt 0 discriminator 1
 5400 1ec8 364B     		ldr	r3, .L612
 5401 1eca 1B68     		ldr	r3, [r3]
 5402 1ecc 0C2B     		cmp	r3, #12
 5403 1ece EAD9     		bls	.L379
1026:.\Protocolo.c **** 					}
1027:.\Protocolo.c **** 					minuendo[0]=12;
ARM GAS  C:\Users\IN-002~1\AppData\Local\Temp\ccxO8rjh.s 			page 119


 5404              		.loc 1 1027 0 is_stmt 1
 5405 1ed0 10A9     		add	r1, sp, #64
 5406 1ed2 0C23     		movs	r3, #12
 5407 1ed4 01F82C3D 		strb	r3, [r1, #-44]!
1028:.\Protocolo.c **** 					operacion(2,minuendo,sustraendo);
 5408              		.loc 1 1028 0
 5409 1ed8 0220     		movs	r0, #2
 5410 1eda 01AA     		add	r2, sp, #4
 5411 1edc FFF7FEFF 		bl	operacion
 5412              	.LVL396:
1029:.\Protocolo.c **** 					for(x=0;x<=17;x++){									
 5413              		.loc 1 1029 0
 5414 1ee0 0022     		movs	r2, #0
 5415 1ee2 334B     		ldr	r3, .L612+12
 5416 1ee4 1A60     		str	r2, [r3]
 5417 1ee6 0AE0     		b	.L380
 5418              	.L381:
1030:.\Protocolo.c **** 						write_psoc1(val,msn_tventas[x]);				//Total de ventas
 5419              		.loc 1 1030 0 discriminator 3
 5420 1ee8 324A     		ldr	r2, .L612+16
 5421 1eea 1344     		add	r3, r3, r2
 5422 1eec 2046     		mov	r0, r4
 5423 1eee 93F82C10 		ldrb	r1, [r3, #44]	@ zero_extendqisi2
 5424 1ef2 FFF7FEFF 		bl	write_psoc1
 5425              	.LVL397:
1029:.\Protocolo.c **** 					for(x=0;x<=17;x++){									
 5426              		.loc 1 1029 0 discriminator 3
 5427 1ef6 2E4A     		ldr	r2, .L612+12
 5428 1ef8 1368     		ldr	r3, [r2]
 5429 1efa 0133     		adds	r3, r3, #1
 5430 1efc 1360     		str	r3, [r2]
 5431              	.L380:
1029:.\Protocolo.c **** 					for(x=0;x<=17;x++){									
 5432              		.loc 1 1029 0 is_stmt 0 discriminator 1
 5433 1efe 2C4B     		ldr	r3, .L612+12
 5434 1f00 1B68     		ldr	r3, [r3]
 5435 1f02 112B     		cmp	r3, #17
 5436 1f04 F0D9     		bls	.L381
1031:.\Protocolo.c **** 					}
1032:.\Protocolo.c **** 					print_valor(resultado,val);							
 5437              		.loc 1 1032 0 is_stmt 1
 5438 1f06 2C48     		ldr	r0, .L612+20
 5439 1f08 2146     		mov	r1, r4
 5440 1f0a FFF7FEFF 		bl	print_valor
 5441              	.LVL398:
1033:.\Protocolo.c **** 					if(dir==lado.a.dir){
 5442              		.loc 1 1033 0
 5443 1f0e 2B4B     		ldr	r3, .L612+24
 5444 1f10 1B78     		ldrb	r3, [r3]	@ zero_extendqisi2
 5445 1f12 AB42     		cmp	r3, r5
 5446 1f14 0AD1     		bne	.L382
1034:.\Protocolo.c **** 						write_eeprom(256,corte);
 5447              		.loc 1 1034 0
 5448 1f16 4FF48070 		mov	r0, #256
 5449 1f1a 09A9     		add	r1, sp, #36
 5450 1f1c FFF7FEFF 		bl	write_eeprom
 5451              	.LVL399:
ARM GAS  C:\Users\IN-002~1\AppData\Local\Temp\ccxO8rjh.s 			page 120


1035:.\Protocolo.c **** 						write_eeprom(525,resultado);
 5452              		.loc 1 1035 0
 5453 1f20 40F20D20 		movw	r0, #525
 5454 1f24 2449     		ldr	r1, .L612+20
 5455 1f26 FFF7FEFF 		bl	write_eeprom
 5456              	.LVL400:
 5457 1f2a 09E0     		b	.L367
 5458              	.L382:
1036:.\Protocolo.c **** 					}
1037:.\Protocolo.c **** 					else{
1038:.\Protocolo.c **** 						write_eeprom(345,corte);
 5459              		.loc 1 1038 0
 5460 1f2c 40F25910 		movw	r0, #345
 5461 1f30 09A9     		add	r1, sp, #36
 5462 1f32 FFF7FEFF 		bl	write_eeprom
 5463              	.LVL401:
1039:.\Protocolo.c **** 						write_eeprom(589,resultado);
 5464              		.loc 1 1039 0
 5465 1f36 40F24D20 		movw	r0, #589
 5466 1f3a 1F49     		ldr	r1, .L612+20
 5467 1f3c FFF7FEFF 		bl	write_eeprom
 5468              	.LVL402:
 5469              	.L367:
1040:.\Protocolo.c **** 					}					
1041:.\Protocolo.c **** 				}
1042:.\Protocolo.c ****                 
1043:.\Protocolo.c ****                 if(((rventa.manguera==(kero&0x0F))&&(dir==lado.a.dir))||((rventa.manguera==(kero2&0
 5470              		.loc 1 1043 0
 5471 1f40 1F4B     		ldr	r3, .L612+28
 5472 1f42 93F8E020 		ldrb	r2, [r3, #224]	@ zero_extendqisi2
 5473 1f46 224B     		ldr	r3, .L612+44
 5474 1f48 1B78     		ldrb	r3, [r3]	@ zero_extendqisi2
 5475 1f4a 03F00F03 		and	r3, r3, #15
 5476 1f4e 9342     		cmp	r3, r2
 5477 1f50 03D1     		bne	.L383
 5478              		.loc 1 1043 0 is_stmt 0 discriminator 1
 5479 1f52 1A4B     		ldr	r3, .L612+24
 5480 1f54 1B78     		ldrb	r3, [r3]	@ zero_extendqisi2
 5481 1f56 AB42     		cmp	r3, r5
 5482 1f58 0BD0     		beq	.L384
 5483              	.L383:
 5484              		.loc 1 1043 0 discriminator 3
 5485 1f5a 1E4B     		ldr	r3, .L612+48
 5486 1f5c 1B78     		ldrb	r3, [r3]	@ zero_extendqisi2
 5487 1f5e 03F00F03 		and	r3, r3, #15
 5488 1f62 9A42     		cmp	r2, r3
 5489 1f64 40F0DC80 		bne	.L385
 5490              		.loc 1 1043 0 discriminator 4
 5491 1f68 144B     		ldr	r3, .L612+24
 5492 1f6a 1B79     		ldrb	r3, [r3, #4]	@ zero_extendqisi2
 5493 1f6c AB42     		cmp	r3, r5
 5494 1f6e 40F0D780 		bne	.L385
 5495              	.L384:
1044:.\Protocolo.c **** 					for(x=0;x<=5;x++){									
 5496              		.loc 1 1044 0 is_stmt 1
 5497 1f72 0022     		movs	r2, #0
 5498 1f74 0E4B     		ldr	r3, .L612+12
ARM GAS  C:\Users\IN-002~1\AppData\Local\Temp\ccxO8rjh.s 			page 121


 5499 1f76 1A60     		str	r2, [r3]
 5500 1f78 08E0     		b	.L386
 5501              	.L387:
1045:.\Protocolo.c **** 						    write_psoc1(val,msn_tc[x]);
 5502              		.loc 1 1045 0 discriminator 3
 5503 1f7a 2046     		mov	r0, r4
 5504 1f7c 0D4A     		ldr	r2, .L612+16
 5505 1f7e D15C     		ldrb	r1, [r2, r3]	@ zero_extendqisi2
 5506 1f80 FFF7FEFF 		bl	write_psoc1
 5507              	.LVL403:
1044:.\Protocolo.c **** 					for(x=0;x<=5;x++){									
 5508              		.loc 1 1044 0 discriminator 3
 5509 1f84 0A4A     		ldr	r2, .L612+12
 5510 1f86 1368     		ldr	r3, [r2]
 5511 1f88 0133     		adds	r3, r3, #1
 5512 1f8a 1360     		str	r3, [r2]
 5513              	.L386:
1044:.\Protocolo.c **** 					for(x=0;x<=5;x++){									
 5514              		.loc 1 1044 0 is_stmt 0 discriminator 1
 5515 1f8c 084B     		ldr	r3, .L612+12
 5516 1f8e 1B68     		ldr	r3, [r3]
 5517 1f90 052B     		cmp	r3, #5
 5518 1f92 F2D9     		bls	.L387
1046:.\Protocolo.c **** 					    }
1047:.\Protocolo.c **** 					    write_psoc1(val,10);
 5519              		.loc 1 1047 0 is_stmt 1
 5520 1f94 2046     		mov	r0, r4
 5521 1f96 0A21     		movs	r1, #10
 5522 1f98 FFF7FEFF 		bl	write_psoc1
 5523              	.LVL404:
1048:.\Protocolo.c ****                     for(x=0;x<=10;x++){									
 5524              		.loc 1 1048 0
 5525 1f9c 0022     		movs	r2, #0
 5526 1f9e 044B     		ldr	r3, .L612+12
 5527 1fa0 1A60     		str	r2, [r3]
 5528 1fa2 22E0     		b	.L388
 5529              	.L613:
 5530              		.align	2
 5531              	.L612:
 5532 1fa4 00000000 		.word	z
 5533 1fa8 FFFFFFFF 		.word	rventa-1
 5534 1fac 00000000 		.word	buffer_i2c
 5535 1fb0 00000000 		.word	x
 5536 1fb4 00000000 		.word	.LANCHOR1
 5537 1fb8 00000000 		.word	resultado
 5538 1fbc 00000000 		.word	lado
 5539 1fc0 00000000 		.word	rventa
 5540 1fc4 00000000 		.word	extra
 5541 1fc8 00000000 		.word	extra2
 5542 1fcc 00000000 		.word	producto3n
 5543 1fd0 00000000 		.word	kero
 5544 1fd4 00000000 		.word	kero2
 5545              	.L389:
1049:.\Protocolo.c **** 						    write_psoc1(val,producto4n[x]);
 5546              		.loc 1 1049 0 discriminator 3
 5547 1fd8 2046     		mov	r0, r4
 5548 1fda A64A     		ldr	r2, .L614
ARM GAS  C:\Users\IN-002~1\AppData\Local\Temp\ccxO8rjh.s 			page 122


 5549 1fdc D15C     		ldrb	r1, [r2, r3]	@ zero_extendqisi2
 5550 1fde FFF7FEFF 		bl	write_psoc1
 5551              	.LVL405:
1048:.\Protocolo.c ****                     for(x=0;x<=10;x++){									
 5552              		.loc 1 1048 0 discriminator 3
 5553 1fe2 A54A     		ldr	r2, .L614+4
 5554 1fe4 1368     		ldr	r3, [r2]
 5555 1fe6 0133     		adds	r3, r3, #1
 5556 1fe8 1360     		str	r3, [r2]
 5557              	.L388:
1048:.\Protocolo.c ****                     for(x=0;x<=10;x++){									
 5558              		.loc 1 1048 0 is_stmt 0 discriminator 1
 5559 1fea A34B     		ldr	r3, .L614+4
 5560 1fec 1B68     		ldr	r3, [r3]
 5561 1fee 0A2B     		cmp	r3, #10
 5562 1ff0 F2D9     		bls	.L389
1050:.\Protocolo.c **** 					    }
1051:.\Protocolo.c ****                     write_psoc1(val,10);
 5563              		.loc 1 1051 0 is_stmt 1
 5564 1ff2 2046     		mov	r0, r4
 5565 1ff4 0A21     		movs	r1, #10
 5566 1ff6 FFF7FEFF 		bl	write_psoc1
 5567              	.LVL406:
1052:.\Protocolo.c **** 					for(x=0;x<=14;x++){									
 5568              		.loc 1 1052 0
 5569 1ffa 0022     		movs	r2, #0
 5570 1ffc 9E4B     		ldr	r3, .L614+4
 5571 1ffe 1A60     		str	r2, [r3]
 5572 2000 09E0     		b	.L390
 5573              	.L391:
1053:.\Protocolo.c **** 						write_psoc1(val,msn_lecact[x]);				//LECTURA ACTUAL
 5574              		.loc 1 1053 0 discriminator 3
 5575 2002 9E4A     		ldr	r2, .L614+8
 5576 2004 1344     		add	r3, r3, r2
 5577 2006 2046     		mov	r0, r4
 5578 2008 197A     		ldrb	r1, [r3, #8]	@ zero_extendqisi2
 5579 200a FFF7FEFF 		bl	write_psoc1
 5580              	.LVL407:
1052:.\Protocolo.c **** 					for(x=0;x<=14;x++){									
 5581              		.loc 1 1052 0 discriminator 3
 5582 200e 9A4A     		ldr	r2, .L614+4
 5583 2010 1368     		ldr	r3, [r2]
 5584 2012 0133     		adds	r3, r3, #1
 5585 2014 1360     		str	r3, [r2]
 5586              	.L390:
1052:.\Protocolo.c **** 					for(x=0;x<=14;x++){									
 5587              		.loc 1 1052 0 is_stmt 0 discriminator 1
 5588 2016 984B     		ldr	r3, .L614+4
 5589 2018 1B68     		ldr	r3, [r3]
 5590 201a 0E2B     		cmp	r3, #14
 5591 201c F1D9     		bls	.L391
1054:.\Protocolo.c **** 					}
1055:.\Protocolo.c **** 					write_psoc1(val,10);
 5592              		.loc 1 1055 0 is_stmt 1
 5593 201e 2046     		mov	r0, r4
 5594 2020 0A21     		movs	r1, #10
 5595 2022 FFF7FEFF 		bl	write_psoc1
ARM GAS  C:\Users\IN-002~1\AppData\Local\Temp\ccxO8rjh.s 			page 123


 5596              	.LVL408:
1056:.\Protocolo.c **** 					print_totalesac(12,val);	
 5597              		.loc 1 1056 0
 5598 2026 0C20     		movs	r0, #12
 5599 2028 2146     		mov	r1, r4
 5600 202a FFF7FEFF 		bl	print_totalesac
 5601              	.LVL409:
1057:.\Protocolo.c **** 					for(x=0;x<=16;x++){												
 5602              		.loc 1 1057 0
 5603 202e 0022     		movs	r2, #0
 5604 2030 914B     		ldr	r3, .L614+4
 5605 2032 1A60     		str	r2, [r3]
 5606 2034 09E0     		b	.L392
 5607              	.L393:
1058:.\Protocolo.c **** 						write_psoc1(val,msn_lecaan[x]);				//LECTURA ANTERIOR
 5608              		.loc 1 1058 0 discriminator 3
 5609 2036 914A     		ldr	r2, .L614+8
 5610 2038 1344     		add	r3, r3, r2
 5611 203a 2046     		mov	r0, r4
 5612 203c 197E     		ldrb	r1, [r3, #24]	@ zero_extendqisi2
 5613 203e FFF7FEFF 		bl	write_psoc1
 5614              	.LVL410:
1057:.\Protocolo.c **** 					for(x=0;x<=16;x++){												
 5615              		.loc 1 1057 0 discriminator 3
 5616 2042 8D4A     		ldr	r2, .L614+4
 5617 2044 1368     		ldr	r3, [r2]
 5618 2046 0133     		adds	r3, r3, #1
 5619 2048 1360     		str	r3, [r2]
 5620              	.L392:
1057:.\Protocolo.c **** 					for(x=0;x<=16;x++){												
 5621              		.loc 1 1057 0 is_stmt 0 discriminator 1
 5622 204a 8B4B     		ldr	r3, .L614+4
 5623 204c 1B68     		ldr	r3, [r3]
 5624 204e 102B     		cmp	r3, #16
 5625 2050 F1D9     		bls	.L393
1059:.\Protocolo.c **** 					}
1060:.\Protocolo.c **** 					write_psoc1(val,10);
 5626              		.loc 1 1060 0 is_stmt 1
 5627 2052 2046     		mov	r0, r4
 5628 2054 0A21     		movs	r1, #10
 5629 2056 FFF7FEFF 		bl	write_psoc1
 5630              	.LVL411:
1061:.\Protocolo.c **** 					if(dir==lado.a.dir){
 5631              		.loc 1 1061 0
 5632 205a 894B     		ldr	r3, .L614+12
 5633 205c 1B78     		ldrb	r3, [r3]	@ zero_extendqisi2
 5634 205e AB42     		cmp	r3, r5
 5635 2060 05D1     		bne	.L394
1062:.\Protocolo.c **** 						leer_eeprom(1096,25);
 5636              		.loc 1 1062 0
 5637 2062 4FF48960 		mov	r0, #1096
 5638 2066 1921     		movs	r1, #25
 5639 2068 FFF7FEFF 		bl	leer_eeprom
 5640              	.LVL412:
 5641 206c 04E0     		b	.L395
 5642              	.L394:
1063:.\Protocolo.c **** 					}
ARM GAS  C:\Users\IN-002~1\AppData\Local\Temp\ccxO8rjh.s 			page 124


1064:.\Protocolo.c **** 					else{
1065:.\Protocolo.c **** 						leer_eeprom(1054,25);
 5643              		.loc 1 1065 0
 5644 206e 40F21E40 		movw	r0, #1054
 5645 2072 1921     		movs	r1, #25
 5646 2074 FFF7FEFF 		bl	leer_eeprom
 5647              	.LVL413:
 5648              	.L395:
1066:.\Protocolo.c **** 					}
1067:.\Protocolo.c **** 					print_totales(val);
 5649              		.loc 1 1067 0
 5650 2078 2046     		mov	r0, r4
 5651 207a FFF7FEFF 		bl	print_totales
 5652              	.LVL414:
1068:.\Protocolo.c **** 					for(z=1;z<=12;z++){
 5653              		.loc 1 1068 0
 5654 207e 0122     		movs	r2, #1
 5655 2080 804B     		ldr	r3, .L614+16
 5656 2082 1A60     		str	r2, [r3]
 5657 2084 10E0     		b	.L396
 5658              	.L397:
1069:.\Protocolo.c **** 						minuendo[z]=rventa.tdinero[z-1];
 5659              		.loc 1 1069 0 discriminator 3
 5660 2086 804A     		ldr	r2, .L614+20
 5661 2088 1A44     		add	r2, r2, r3
 5662 208a 92F8CA10 		ldrb	r1, [r2, #202]	@ zero_extendqisi2
 5663 208e 10AA     		add	r2, sp, #64
 5664 2090 1A44     		add	r2, r2, r3
 5665 2092 02F82C1C 		strb	r1, [r2, #-44]
1070:.\Protocolo.c **** 						sustraendo[z]=buffer_i2c[z+12];
 5666              		.loc 1 1070 0 discriminator 3
 5667 2096 03F10C01 		add	r1, r3, #12
 5668 209a 7C48     		ldr	r0, .L614+24
 5669 209c 415C     		ldrb	r1, [r0, r1]	@ zero_extendqisi2
 5670 209e 02F83C1C 		strb	r1, [r2, #-60]
1068:.\Protocolo.c **** 					for(z=1;z<=12;z++){
 5671              		.loc 1 1068 0 discriminator 3
 5672 20a2 0133     		adds	r3, r3, #1
 5673 20a4 774A     		ldr	r2, .L614+16
 5674 20a6 1360     		str	r3, [r2]
 5675              	.L396:
1068:.\Protocolo.c **** 					for(z=1;z<=12;z++){
 5676              		.loc 1 1068 0 is_stmt 0 discriminator 1
 5677 20a8 764B     		ldr	r3, .L614+16
 5678 20aa 1B68     		ldr	r3, [r3]
 5679 20ac 0C2B     		cmp	r3, #12
 5680 20ae EAD9     		bls	.L397
1071:.\Protocolo.c **** 					}
1072:.\Protocolo.c **** 					minuendo[0]=12;
 5681              		.loc 1 1072 0 is_stmt 1
 5682 20b0 10A9     		add	r1, sp, #64
 5683 20b2 0C23     		movs	r3, #12
 5684 20b4 01F82C3D 		strb	r3, [r1, #-44]!
1073:.\Protocolo.c **** 					operacion(2,minuendo,sustraendo);
 5685              		.loc 1 1073 0
 5686 20b8 0220     		movs	r0, #2
 5687 20ba 01AA     		add	r2, sp, #4
ARM GAS  C:\Users\IN-002~1\AppData\Local\Temp\ccxO8rjh.s 			page 125


 5688 20bc FFF7FEFF 		bl	operacion
 5689              	.LVL415:
1074:.\Protocolo.c **** 					for(x=0;x<=17;x++){									
 5690              		.loc 1 1074 0
 5691 20c0 0022     		movs	r2, #0
 5692 20c2 6D4B     		ldr	r3, .L614+4
 5693 20c4 1A60     		str	r2, [r3]
 5694 20c6 0AE0     		b	.L398
 5695              	.L399:
1075:.\Protocolo.c **** 						write_psoc1(val,msn_tventas[x]);				//Total de ventas
 5696              		.loc 1 1075 0 discriminator 3
 5697 20c8 6C4A     		ldr	r2, .L614+8
 5698 20ca 1344     		add	r3, r3, r2
 5699 20cc 2046     		mov	r0, r4
 5700 20ce 93F82C10 		ldrb	r1, [r3, #44]	@ zero_extendqisi2
 5701 20d2 FFF7FEFF 		bl	write_psoc1
 5702              	.LVL416:
1074:.\Protocolo.c **** 					for(x=0;x<=17;x++){									
 5703              		.loc 1 1074 0 discriminator 3
 5704 20d6 684A     		ldr	r2, .L614+4
 5705 20d8 1368     		ldr	r3, [r2]
 5706 20da 0133     		adds	r3, r3, #1
 5707 20dc 1360     		str	r3, [r2]
 5708              	.L398:
1074:.\Protocolo.c **** 					for(x=0;x<=17;x++){									
 5709              		.loc 1 1074 0 is_stmt 0 discriminator 1
 5710 20de 664B     		ldr	r3, .L614+4
 5711 20e0 1B68     		ldr	r3, [r3]
 5712 20e2 112B     		cmp	r3, #17
 5713 20e4 F0D9     		bls	.L399
1076:.\Protocolo.c **** 					}
1077:.\Protocolo.c **** 					print_valor(resultado,val);							
 5714              		.loc 1 1077 0 is_stmt 1
 5715 20e6 6A48     		ldr	r0, .L614+28
 5716 20e8 2146     		mov	r1, r4
 5717 20ea FFF7FEFF 		bl	print_valor
 5718              	.LVL417:
1078:.\Protocolo.c **** 					if(dir==lado.a.dir){
 5719              		.loc 1 1078 0
 5720 20ee 644B     		ldr	r3, .L614+12
 5721 20f0 1B78     		ldrb	r3, [r3]	@ zero_extendqisi2
 5722 20f2 AB42     		cmp	r3, r5
 5723 20f4 0AD1     		bne	.L400
1079:.\Protocolo.c **** 						write_eeprom(1096,corte);
 5724              		.loc 1 1079 0
 5725 20f6 4FF48960 		mov	r0, #1096
 5726 20fa 09A9     		add	r1, sp, #36
 5727 20fc FFF7FEFF 		bl	write_eeprom
 5728              	.LVL418:
1080:.\Protocolo.c **** 						write_eeprom(1038,resultado);
 5729              		.loc 1 1080 0
 5730 2100 40F20E40 		movw	r0, #1038
 5731 2104 6249     		ldr	r1, .L614+28
 5732 2106 FFF7FEFF 		bl	write_eeprom
 5733              	.LVL419:
 5734 210a 09E0     		b	.L385
 5735              	.L400:
ARM GAS  C:\Users\IN-002~1\AppData\Local\Temp\ccxO8rjh.s 			page 126


1081:.\Protocolo.c **** 					}
1082:.\Protocolo.c **** 					else{
1083:.\Protocolo.c **** 						write_eeprom(1054,corte);
 5736              		.loc 1 1083 0
 5737 210c 40F21E40 		movw	r0, #1054
 5738 2110 09A9     		add	r1, sp, #36
 5739 2112 FFF7FEFF 		bl	write_eeprom
 5740              	.LVL420:
1084:.\Protocolo.c **** 						write_eeprom(1081,resultado);
 5741              		.loc 1 1084 0
 5742 2116 40F23940 		movw	r0, #1081
 5743 211a 5D49     		ldr	r1, .L614+28
 5744 211c FFF7FEFF 		bl	write_eeprom
 5745              	.LVL421:
 5746              	.L385:
1085:.\Protocolo.c **** 				    }						
1086:.\Protocolo.c **** 				}
1087:.\Protocolo.c **** 				Surtidor_ClearRxBuffer();
 5747              		.loc 1 1087 0
 5748 2120 FFF7FEFF 		bl	Surtidor_ClearRxBuffer
 5749              	.LVL422:
1088:.\Protocolo.c **** 				return 1;
 5750              		.loc 1 1088 0
 5751 2124 0120     		movs	r0, #1
 5752 2126 01F093B8 		b	.L76
 5753              	.L75:
1089:.\Protocolo.c **** 			}
1090:.\Protocolo.c **** 			else{
1091:.\Protocolo.c **** 				return 0;
1092:.\Protocolo.c **** 			}			
1093:.\Protocolo.c **** 		break;
1094:.\Protocolo.c **** 		
1095:.\Protocolo.c **** 		case 88:
1096:.\Protocolo.c **** 			if((Surtidor_rxBuffer[0]==0xFF)&&(Surtidor_rxBuffer[1]==0xF6)&&(Surtidor_rxBuffer[87]==0xF0)&&(S
 5754              		.loc 1 1096 0
 5755 212a 5A4B     		ldr	r3, .L614+32
 5756 212c 1B78     		ldrb	r3, [r3]	@ zero_extendqisi2
 5757 212e DBB2     		uxtb	r3, r3
 5758 2130 FF2B     		cmp	r3, #255
 5759 2132 41F07E80 		bne	.L583
 5760              		.loc 1 1096 0 is_stmt 0 discriminator 1
 5761 2136 574B     		ldr	r3, .L614+32
 5762 2138 5B78     		ldrb	r3, [r3, #1]	@ zero_extendqisi2
 5763 213a DBB2     		uxtb	r3, r3
 5764 213c F62B     		cmp	r3, #246
 5765 213e 41F07A80 		bne	.L584
 5766              		.loc 1 1096 0 discriminator 2
 5767 2142 544B     		ldr	r3, .L614+32
 5768 2144 93F85730 		ldrb	r3, [r3, #87]	@ zero_extendqisi2
 5769 2148 DBB2     		uxtb	r3, r3
 5770 214a F02B     		cmp	r3, #240
 5771 214c 41F07580 		bne	.L585
 5772              		.loc 1 1096 0 discriminator 3
 5773 2150 504B     		ldr	r3, .L614+32
 5774 2152 DB78     		ldrb	r3, [r3, #3]	@ zero_extendqisi2
 5775 2154 DBB2     		uxtb	r3, r3
 5776 2156 F92B     		cmp	r3, #249
ARM GAS  C:\Users\IN-002~1\AppData\Local\Temp\ccxO8rjh.s 			page 127


 5777 2158 41F07180 		bne	.L586
1097:.\Protocolo.c **** 				for(y=0;y<=42;y+=42){
 5778              		.loc 1 1097 0 is_stmt 1
 5779 215c 0022     		movs	r2, #0
 5780 215e 4E4B     		ldr	r3, .L614+36
 5781 2160 1A60     		str	r2, [r3]
 5782 2162 FEE3     		b	.L401
 5783              	.L482:
1098:.\Protocolo.c **** 					rventa.manguera=(Surtidor_rxBuffer[y+2]&0x0F)+1;
 5784              		.loc 1 1098 0
 5785 2164 B31C     		adds	r3, r6, #2
 5786 2166 4B4A     		ldr	r2, .L614+32
 5787 2168 D15C     		ldrb	r1, [r2, r3]	@ zero_extendqisi2
 5788 216a 01F00F01 		and	r1, r1, #15
 5789 216e 0131     		adds	r1, r1, #1
 5790 2170 4A4B     		ldr	r3, .L614+40
 5791 2172 83F8E010 		strb	r1, [r3, #224]
1099:.\Protocolo.c **** 					for(x=0;x<=11;x++){
 5792              		.loc 1 1099 0
 5793 2176 0022     		movs	r2, #0
 5794 2178 3F4B     		ldr	r3, .L614+4
 5795 217a 1A60     		str	r2, [r3]
 5796 217c 0CE0     		b	.L402
 5797              	.L403:
1100:.\Protocolo.c **** 						rventa.tvolumen[x]=(Surtidor_rxBuffer[y+4+x]&0x0F);
 5798              		.loc 1 1100 0 discriminator 3
 5799 217e F218     		adds	r2, r6, r3
 5800 2180 0432     		adds	r2, r2, #4
 5801 2182 4448     		ldr	r0, .L614+32
 5802 2184 805C     		ldrb	r0, [r0, r2]	@ zero_extendqisi2
 5803 2186 454A     		ldr	r2, .L614+40
 5804 2188 1A44     		add	r2, r2, r3
 5805 218a 00F00F00 		and	r0, r0, #15
 5806 218e 82F8BD00 		strb	r0, [r2, #189]
1099:.\Protocolo.c **** 					for(x=0;x<=11;x++){
 5807              		.loc 1 1099 0 discriminator 3
 5808 2192 0133     		adds	r3, r3, #1
 5809 2194 384A     		ldr	r2, .L614+4
 5810 2196 1360     		str	r3, [r2]
 5811              	.L402:
1099:.\Protocolo.c **** 					for(x=0;x<=11;x++){
 5812              		.loc 1 1099 0 is_stmt 0 discriminator 1
 5813 2198 374B     		ldr	r3, .L614+4
 5814 219a 1B68     		ldr	r3, [r3]
 5815 219c 0B2B     		cmp	r3, #11
 5816 219e EED9     		bls	.L403
1101:.\Protocolo.c **** 					}
1102:.\Protocolo.c **** 					for(x=0;x<=11;x++){
 5817              		.loc 1 1102 0 is_stmt 1
 5818 21a0 0022     		movs	r2, #0
 5819 21a2 354B     		ldr	r3, .L614+4
 5820 21a4 1A60     		str	r2, [r3]
 5821 21a6 0CE0     		b	.L404
 5822              	.L405:
1103:.\Protocolo.c **** 						rventa.tdinero[x]=(Surtidor_rxBuffer[y+17+x]&0x0F);
 5823              		.loc 1 1103 0 discriminator 3
 5824 21a8 F218     		adds	r2, r6, r3
ARM GAS  C:\Users\IN-002~1\AppData\Local\Temp\ccxO8rjh.s 			page 128


 5825 21aa 1132     		adds	r2, r2, #17
 5826 21ac 3948     		ldr	r0, .L614+32
 5827 21ae 805C     		ldrb	r0, [r0, r2]	@ zero_extendqisi2
 5828 21b0 3A4A     		ldr	r2, .L614+40
 5829 21b2 1A44     		add	r2, r2, r3
 5830 21b4 00F00F00 		and	r0, r0, #15
 5831 21b8 82F8CA00 		strb	r0, [r2, #202]
1102:.\Protocolo.c **** 						rventa.tdinero[x]=(Surtidor_rxBuffer[y+17+x]&0x0F);
 5832              		.loc 1 1102 0 discriminator 3
 5833 21bc 0133     		adds	r3, r3, #1
 5834 21be 2E4A     		ldr	r2, .L614+4
 5835 21c0 1360     		str	r3, [r2]
 5836              	.L404:
1102:.\Protocolo.c **** 						rventa.tdinero[x]=(Surtidor_rxBuffer[y+17+x]&0x0F);
 5837              		.loc 1 1102 0 is_stmt 0 discriminator 1
 5838 21c2 2D4B     		ldr	r3, .L614+4
 5839 21c4 1B68     		ldr	r3, [r3]
 5840 21c6 0B2B     		cmp	r3, #11
 5841 21c8 EED9     		bls	.L405
1104:.\Protocolo.c **** 					}
1105:.\Protocolo.c **** 					for(z=0;z<=11;z++){
 5842              		.loc 1 1105 0 is_stmt 1
 5843 21ca 0022     		movs	r2, #0
 5844 21cc 2D4B     		ldr	r3, .L614+16
 5845 21ce 1A60     		str	r2, [r3]
 5846 21d0 0AE0     		b	.L406
 5847              	.L407:
1106:.\Protocolo.c **** 						corte[z+1]=rventa.tvolumen[z];
 5848              		.loc 1 1106 0 discriminator 3
 5849 21d2 5A1C     		adds	r2, r3, #1
 5850 21d4 3148     		ldr	r0, .L614+40
 5851 21d6 0344     		add	r3, r3, r0
 5852 21d8 93F8BD00 		ldrb	r0, [r3, #189]	@ zero_extendqisi2
 5853 21dc 10AB     		add	r3, sp, #64
 5854 21de 1344     		add	r3, r3, r2
 5855 21e0 03F81C0C 		strb	r0, [r3, #-28]
1105:.\Protocolo.c **** 						corte[z+1]=rventa.tvolumen[z];
 5856              		.loc 1 1105 0 discriminator 3
 5857 21e4 274B     		ldr	r3, .L614+16
 5858 21e6 1A60     		str	r2, [r3]
 5859              	.L406:
1105:.\Protocolo.c **** 						corte[z+1]=rventa.tvolumen[z];
 5860              		.loc 1 1105 0 is_stmt 0 discriminator 1
 5861 21e8 264B     		ldr	r3, .L614+16
 5862 21ea 1B68     		ldr	r3, [r3]
 5863 21ec 0B2B     		cmp	r3, #11
 5864 21ee F0D9     		bls	.L407
1107:.\Protocolo.c **** 					}
1108:.\Protocolo.c **** 					for(z=13;z<=24;z++){
 5865              		.loc 1 1108 0 is_stmt 1
 5866 21f0 0D22     		movs	r2, #13
 5867 21f2 244B     		ldr	r3, .L614+16
 5868 21f4 1A60     		str	r2, [r3]
 5869 21f6 0AE0     		b	.L408
 5870              	.L409:
1109:.\Protocolo.c **** 						corte[z]=rventa.tdinero[z-13];
 5871              		.loc 1 1109 0 discriminator 3
ARM GAS  C:\Users\IN-002~1\AppData\Local\Temp\ccxO8rjh.s 			page 129


 5872 21f8 294A     		ldr	r2, .L614+44
 5873 21fa 1A44     		add	r2, r2, r3
 5874 21fc 92F8CA00 		ldrb	r0, [r2, #202]	@ zero_extendqisi2
 5875 2200 10AA     		add	r2, sp, #64
 5876 2202 1A44     		add	r2, r2, r3
 5877 2204 02F81C0C 		strb	r0, [r2, #-28]
1108:.\Protocolo.c **** 						corte[z]=rventa.tdinero[z-13];
 5878              		.loc 1 1108 0 discriminator 3
 5879 2208 0133     		adds	r3, r3, #1
 5880 220a 1E4A     		ldr	r2, .L614+16
 5881 220c 1360     		str	r3, [r2]
 5882              	.L408:
1108:.\Protocolo.c **** 						corte[z]=rventa.tdinero[z-13];
 5883              		.loc 1 1108 0 is_stmt 0 discriminator 1
 5884 220e 1D4B     		ldr	r3, .L614+16
 5885 2210 1B68     		ldr	r3, [r3]
 5886 2212 182B     		cmp	r3, #24
 5887 2214 F0D9     		bls	.L409
1110:.\Protocolo.c **** 					}
1111:.\Protocolo.c **** 					corte[0]=24;				
 5888              		.loc 1 1111 0 is_stmt 1
 5889 2216 1823     		movs	r3, #24
 5890 2218 8DF82430 		strb	r3, [sp, #36]
1112:.\Protocolo.c **** 					if(((rventa.manguera==(corriente&0x0F))&&(dir==lado.a.dir))||((rventa.manguera==(corriente2&0x
 5891              		.loc 1 1112 0
 5892 221c 214B     		ldr	r3, .L614+48
 5893 221e 1B78     		ldrb	r3, [r3]	@ zero_extendqisi2
 5894 2220 03F00F03 		and	r3, r3, #15
 5895 2224 8B42     		cmp	r3, r1
 5896 2226 03D1     		bne	.L410
 5897              		.loc 1 1112 0 is_stmt 0 discriminator 1
 5898 2228 154B     		ldr	r3, .L614+12
 5899 222a 1B78     		ldrb	r3, [r3]	@ zero_extendqisi2
 5900 222c AB42     		cmp	r3, r5
 5901 222e 0BD0     		beq	.L411
 5902              	.L410:
 5903              		.loc 1 1112 0 discriminator 3
 5904 2230 1D4B     		ldr	r3, .L614+52
 5905 2232 1B78     		ldrb	r3, [r3]	@ zero_extendqisi2
 5906 2234 03F00F03 		and	r3, r3, #15
 5907 2238 9942     		cmp	r1, r3
 5908 223a 40F0D980 		bne	.L412
 5909              		.loc 1 1112 0 discriminator 4
 5910 223e 104B     		ldr	r3, .L614+12
 5911 2240 1B79     		ldrb	r3, [r3, #4]	@ zero_extendqisi2
 5912 2242 AB42     		cmp	r3, r5
 5913 2244 40F0D480 		bne	.L412
 5914              	.L411:
1113:.\Protocolo.c **** 						for(x=0;x<=5;x++){									
 5915              		.loc 1 1113 0 is_stmt 1
 5916 2248 0022     		movs	r2, #0
 5917 224a 0B4B     		ldr	r3, .L614+4
 5918 224c 1A60     		str	r2, [r3]
 5919 224e 08E0     		b	.L413
 5920              	.L414:
1114:.\Protocolo.c **** 							write_psoc1(val,msn_tc[x]);
 5921              		.loc 1 1114 0 discriminator 3
ARM GAS  C:\Users\IN-002~1\AppData\Local\Temp\ccxO8rjh.s 			page 130


 5922 2250 2046     		mov	r0, r4
 5923 2252 0A4A     		ldr	r2, .L614+8
 5924 2254 D15C     		ldrb	r1, [r2, r3]	@ zero_extendqisi2
 5925 2256 FFF7FEFF 		bl	write_psoc1
 5926              	.LVL423:
1113:.\Protocolo.c **** 						for(x=0;x<=5;x++){									
 5927              		.loc 1 1113 0 discriminator 3
 5928 225a 074A     		ldr	r2, .L614+4
 5929 225c 1368     		ldr	r3, [r2]
 5930 225e 0133     		adds	r3, r3, #1
 5931 2260 1360     		str	r3, [r2]
 5932              	.L413:
1113:.\Protocolo.c **** 						for(x=0;x<=5;x++){									
 5933              		.loc 1 1113 0 is_stmt 0 discriminator 1
 5934 2262 054B     		ldr	r3, .L614+4
 5935 2264 1B68     		ldr	r3, [r3]
 5936 2266 052B     		cmp	r3, #5
 5937 2268 F2D9     		bls	.L414
1115:.\Protocolo.c **** 						}
1116:.\Protocolo.c ****                         for(x=0;x<=10;x++){									
 5938              		.loc 1 1116 0 is_stmt 1
 5939 226a 0022     		movs	r2, #0
 5940 226c 024B     		ldr	r3, .L614+4
 5941 226e 1A60     		str	r2, [r3]
 5942 2270 25E0     		b	.L415
 5943              	.L615:
 5944 2272 00BF     		.align	2
 5945              	.L614:
 5946 2274 00000000 		.word	producto4n
 5947 2278 00000000 		.word	x
 5948 227c 00000000 		.word	.LANCHOR1
 5949 2280 00000000 		.word	lado
 5950 2284 00000000 		.word	z
 5951 2288 FFFFFFFF 		.word	rventa-1
 5952 228c 00000000 		.word	buffer_i2c
 5953 2290 00000000 		.word	resultado
 5954 2294 00000000 		.word	Surtidor_rxBuffer
 5955 2298 00000000 		.word	y
 5956 229c 00000000 		.word	rventa
 5957 22a0 F3FFFFFF 		.word	rventa-13
 5958 22a4 00000000 		.word	corriente
 5959 22a8 00000000 		.word	corriente2
 5960              	.L416:
1117:.\Protocolo.c **** 						write_psoc1(val,producto1n[x]);
 5961              		.loc 1 1117 0 discriminator 3
 5962 22ac 2046     		mov	r0, r4
 5963 22ae A54A     		ldr	r2, .L616
 5964 22b0 D15C     		ldrb	r1, [r2, r3]	@ zero_extendqisi2
 5965 22b2 FFF7FEFF 		bl	write_psoc1
 5966              	.LVL424:
1116:.\Protocolo.c **** 						write_psoc1(val,producto1n[x]);
 5967              		.loc 1 1116 0 discriminator 3
 5968 22b6 A44A     		ldr	r2, .L616+4
 5969 22b8 1368     		ldr	r3, [r2]
 5970 22ba 0133     		adds	r3, r3, #1
 5971 22bc 1360     		str	r3, [r2]
 5972              	.L415:
ARM GAS  C:\Users\IN-002~1\AppData\Local\Temp\ccxO8rjh.s 			page 131


1116:.\Protocolo.c **** 						write_psoc1(val,producto1n[x]);
 5973              		.loc 1 1116 0 is_stmt 0 discriminator 1
 5974 22be A24B     		ldr	r3, .L616+4
 5975 22c0 1B68     		ldr	r3, [r3]
 5976 22c2 0A2B     		cmp	r3, #10
 5977 22c4 F2D9     		bls	.L416
1118:.\Protocolo.c **** 					    }
1119:.\Protocolo.c ****                         write_psoc1(val,10);						
 5978              		.loc 1 1119 0 is_stmt 1
 5979 22c6 2046     		mov	r0, r4
 5980 22c8 0A21     		movs	r1, #10
 5981 22ca FFF7FEFF 		bl	write_psoc1
 5982              	.LVL425:
1120:.\Protocolo.c **** 						for(x=0;x<=14;x++){									
 5983              		.loc 1 1120 0
 5984 22ce 0022     		movs	r2, #0
 5985 22d0 9D4B     		ldr	r3, .L616+4
 5986 22d2 1A60     		str	r2, [r3]
 5987 22d4 09E0     		b	.L417
 5988              	.L418:
1121:.\Protocolo.c **** 							write_psoc1(val,msn_lecact[x]);				//LECTURA ACTUAL
 5989              		.loc 1 1121 0 discriminator 3
 5990 22d6 9D4A     		ldr	r2, .L616+8
 5991 22d8 1344     		add	r3, r3, r2
 5992 22da 2046     		mov	r0, r4
 5993 22dc 197A     		ldrb	r1, [r3, #8]	@ zero_extendqisi2
 5994 22de FFF7FEFF 		bl	write_psoc1
 5995              	.LVL426:
1120:.\Protocolo.c **** 						for(x=0;x<=14;x++){									
 5996              		.loc 1 1120 0 discriminator 3
 5997 22e2 994A     		ldr	r2, .L616+4
 5998 22e4 1368     		ldr	r3, [r2]
 5999 22e6 0133     		adds	r3, r3, #1
 6000 22e8 1360     		str	r3, [r2]
 6001              	.L417:
1120:.\Protocolo.c **** 						for(x=0;x<=14;x++){									
 6002              		.loc 1 1120 0 is_stmt 0 discriminator 1
 6003 22ea 974B     		ldr	r3, .L616+4
 6004 22ec 1B68     		ldr	r3, [r3]
 6005 22ee 0E2B     		cmp	r3, #14
 6006 22f0 F1D9     		bls	.L418
1122:.\Protocolo.c **** 						}
1123:.\Protocolo.c **** 						write_psoc1(val,10);
 6007              		.loc 1 1123 0 is_stmt 1
 6008 22f2 2046     		mov	r0, r4
 6009 22f4 0A21     		movs	r1, #10
 6010 22f6 FFF7FEFF 		bl	write_psoc1
 6011              	.LVL427:
1124:.\Protocolo.c **** 						print_totalesac(12,val);	
 6012              		.loc 1 1124 0
 6013 22fa 0C20     		movs	r0, #12
 6014 22fc 2146     		mov	r1, r4
 6015 22fe FFF7FEFF 		bl	print_totalesac
 6016              	.LVL428:
1125:.\Protocolo.c **** 						for(x=0;x<=16;x++){												
 6017              		.loc 1 1125 0
 6018 2302 0022     		movs	r2, #0
ARM GAS  C:\Users\IN-002~1\AppData\Local\Temp\ccxO8rjh.s 			page 132


 6019 2304 904B     		ldr	r3, .L616+4
 6020 2306 1A60     		str	r2, [r3]
 6021 2308 09E0     		b	.L419
 6022              	.L420:
1126:.\Protocolo.c **** 							write_psoc1(val,msn_lecaan[x]);				//LECTURA ANTERIOR
 6023              		.loc 1 1126 0 discriminator 3
 6024 230a 904A     		ldr	r2, .L616+8
 6025 230c 1344     		add	r3, r3, r2
 6026 230e 2046     		mov	r0, r4
 6027 2310 197E     		ldrb	r1, [r3, #24]	@ zero_extendqisi2
 6028 2312 FFF7FEFF 		bl	write_psoc1
 6029              	.LVL429:
1125:.\Protocolo.c **** 						for(x=0;x<=16;x++){												
 6030              		.loc 1 1125 0 discriminator 3
 6031 2316 8C4A     		ldr	r2, .L616+4
 6032 2318 1368     		ldr	r3, [r2]
 6033 231a 0133     		adds	r3, r3, #1
 6034 231c 1360     		str	r3, [r2]
 6035              	.L419:
1125:.\Protocolo.c **** 						for(x=0;x<=16;x++){												
 6036              		.loc 1 1125 0 is_stmt 0 discriminator 1
 6037 231e 8A4B     		ldr	r3, .L616+4
 6038 2320 1B68     		ldr	r3, [r3]
 6039 2322 102B     		cmp	r3, #16
 6040 2324 F1D9     		bls	.L420
1127:.\Protocolo.c **** 						}
1128:.\Protocolo.c **** 						write_psoc1(val,10);
 6041              		.loc 1 1128 0 is_stmt 1
 6042 2326 2046     		mov	r0, r4
 6043 2328 0A21     		movs	r1, #10
 6044 232a FFF7FEFF 		bl	write_psoc1
 6045              	.LVL430:
1129:.\Protocolo.c **** 						if(dir==lado.a.dir){
 6046              		.loc 1 1129 0
 6047 232e 884B     		ldr	r3, .L616+12
 6048 2330 1B78     		ldrb	r3, [r3]	@ zero_extendqisi2
 6049 2332 AB42     		cmp	r3, r5
 6050 2334 04D1     		bne	.L421
1130:.\Protocolo.c **** 							leer_eeprom(192,25);
 6051              		.loc 1 1130 0
 6052 2336 C020     		movs	r0, #192
 6053 2338 1921     		movs	r1, #25
 6054 233a FFF7FEFF 		bl	leer_eeprom
 6055              	.LVL431:
 6056 233e 04E0     		b	.L422
 6057              	.L421:
1131:.\Protocolo.c **** 						}
1132:.\Protocolo.c **** 						else{
1133:.\Protocolo.c **** 							leer_eeprom(281,25);
 6058              		.loc 1 1133 0
 6059 2340 40F21910 		movw	r0, #281
 6060 2344 1921     		movs	r1, #25
 6061 2346 FFF7FEFF 		bl	leer_eeprom
 6062              	.LVL432:
 6063              	.L422:
1134:.\Protocolo.c **** 						}
1135:.\Protocolo.c **** 						print_totales(val);
ARM GAS  C:\Users\IN-002~1\AppData\Local\Temp\ccxO8rjh.s 			page 133


 6064              		.loc 1 1135 0
 6065 234a 2046     		mov	r0, r4
 6066 234c FFF7FEFF 		bl	print_totales
 6067              	.LVL433:
1136:.\Protocolo.c **** 						for(z=1;z<=12;z++){
 6068              		.loc 1 1136 0
 6069 2350 0122     		movs	r2, #1
 6070 2352 804B     		ldr	r3, .L616+16
 6071 2354 1A60     		str	r2, [r3]
 6072 2356 10E0     		b	.L423
 6073              	.L424:
1137:.\Protocolo.c **** 							minuendo[z]=rventa.tdinero[z-1];
 6074              		.loc 1 1137 0 discriminator 3
 6075 2358 7F4A     		ldr	r2, .L616+20
 6076 235a 1A44     		add	r2, r2, r3
 6077 235c 92F8CA10 		ldrb	r1, [r2, #202]	@ zero_extendqisi2
 6078 2360 10AA     		add	r2, sp, #64
 6079 2362 1A44     		add	r2, r2, r3
 6080 2364 02F82C1C 		strb	r1, [r2, #-44]
1138:.\Protocolo.c **** 							sustraendo[z]=buffer_i2c[z+12];
 6081              		.loc 1 1138 0 discriminator 3
 6082 2368 03F10C01 		add	r1, r3, #12
 6083 236c 7B48     		ldr	r0, .L616+24
 6084 236e 415C     		ldrb	r1, [r0, r1]	@ zero_extendqisi2
 6085 2370 02F83C1C 		strb	r1, [r2, #-60]
1136:.\Protocolo.c **** 						for(z=1;z<=12;z++){
 6086              		.loc 1 1136 0 discriminator 3
 6087 2374 0133     		adds	r3, r3, #1
 6088 2376 774A     		ldr	r2, .L616+16
 6089 2378 1360     		str	r3, [r2]
 6090              	.L423:
1136:.\Protocolo.c **** 						for(z=1;z<=12;z++){
 6091              		.loc 1 1136 0 is_stmt 0 discriminator 1
 6092 237a 764B     		ldr	r3, .L616+16
 6093 237c 1B68     		ldr	r3, [r3]
 6094 237e 0C2B     		cmp	r3, #12
 6095 2380 EAD9     		bls	.L424
1139:.\Protocolo.c **** 						}
1140:.\Protocolo.c **** 						minuendo[0]=12;
 6096              		.loc 1 1140 0 is_stmt 1
 6097 2382 10A9     		add	r1, sp, #64
 6098 2384 0C23     		movs	r3, #12
 6099 2386 01F82C3D 		strb	r3, [r1, #-44]!
1141:.\Protocolo.c **** 						operacion(2,minuendo,sustraendo);
 6100              		.loc 1 1141 0
 6101 238a 0220     		movs	r0, #2
 6102 238c 01AA     		add	r2, sp, #4
 6103 238e FFF7FEFF 		bl	operacion
 6104              	.LVL434:
1142:.\Protocolo.c **** 						for(x=0;x<=17;x++){									
 6105              		.loc 1 1142 0
 6106 2392 0022     		movs	r2, #0
 6107 2394 6C4B     		ldr	r3, .L616+4
 6108 2396 1A60     		str	r2, [r3]
 6109 2398 0AE0     		b	.L425
 6110              	.L426:
1143:.\Protocolo.c **** 							write_psoc1(val,msn_tventas[x]);				//Total de ventas
ARM GAS  C:\Users\IN-002~1\AppData\Local\Temp\ccxO8rjh.s 			page 134


 6111              		.loc 1 1143 0 discriminator 3
 6112 239a 6C4A     		ldr	r2, .L616+8
 6113 239c 1344     		add	r3, r3, r2
 6114 239e 2046     		mov	r0, r4
 6115 23a0 93F82C10 		ldrb	r1, [r3, #44]	@ zero_extendqisi2
 6116 23a4 FFF7FEFF 		bl	write_psoc1
 6117              	.LVL435:
1142:.\Protocolo.c **** 						for(x=0;x<=17;x++){									
 6118              		.loc 1 1142 0 discriminator 3
 6119 23a8 674A     		ldr	r2, .L616+4
 6120 23aa 1368     		ldr	r3, [r2]
 6121 23ac 0133     		adds	r3, r3, #1
 6122 23ae 1360     		str	r3, [r2]
 6123              	.L425:
1142:.\Protocolo.c **** 						for(x=0;x<=17;x++){									
 6124              		.loc 1 1142 0 is_stmt 0 discriminator 1
 6125 23b0 654B     		ldr	r3, .L616+4
 6126 23b2 1B68     		ldr	r3, [r3]
 6127 23b4 112B     		cmp	r3, #17
 6128 23b6 F0D9     		bls	.L426
1144:.\Protocolo.c **** 						}
1145:.\Protocolo.c **** 						print_valor(resultado,val);
 6129              		.loc 1 1145 0 is_stmt 1
 6130 23b8 6948     		ldr	r0, .L616+28
 6131 23ba 2146     		mov	r1, r4
 6132 23bc FFF7FEFF 		bl	print_valor
 6133              	.LVL436:
1146:.\Protocolo.c **** 						if(dir==lado.a.dir){
 6134              		.loc 1 1146 0
 6135 23c0 634B     		ldr	r3, .L616+12
 6136 23c2 1B78     		ldrb	r3, [r3]	@ zero_extendqisi2
 6137 23c4 AB42     		cmp	r3, r5
 6138 23c6 09D1     		bne	.L427
1147:.\Protocolo.c **** 							write_eeprom(192,corte);	
 6139              		.loc 1 1147 0
 6140 23c8 C020     		movs	r0, #192
 6141 23ca 09A9     		add	r1, sp, #36
 6142 23cc FFF7FEFF 		bl	write_eeprom
 6143              	.LVL437:
1148:.\Protocolo.c **** 							write_eeprom(512,resultado);
 6144              		.loc 1 1148 0
 6145 23d0 4FF40070 		mov	r0, #512
 6146 23d4 6249     		ldr	r1, .L616+28
 6147 23d6 FFF7FEFF 		bl	write_eeprom
 6148              	.LVL438:
 6149 23da 09E0     		b	.L412
 6150              	.L427:
1149:.\Protocolo.c **** 						}
1150:.\Protocolo.c **** 						else{
1151:.\Protocolo.c **** 							write_eeprom(281,corte);
 6151              		.loc 1 1151 0
 6152 23dc 40F21910 		movw	r0, #281
 6153 23e0 09A9     		add	r1, sp, #36
 6154 23e2 FFF7FEFF 		bl	write_eeprom
 6155              	.LVL439:
1152:.\Protocolo.c **** 							write_eeprom(551,resultado);
 6156              		.loc 1 1152 0
ARM GAS  C:\Users\IN-002~1\AppData\Local\Temp\ccxO8rjh.s 			page 135


 6157 23e6 40F22720 		movw	r0, #551
 6158 23ea 5D49     		ldr	r1, .L616+28
 6159 23ec FFF7FEFF 		bl	write_eeprom
 6160              	.LVL440:
 6161              	.L412:
1153:.\Protocolo.c **** 						}
1154:.\Protocolo.c **** 					}
1155:.\Protocolo.c **** 					if(((rventa.manguera==(diesel&0x0F))&&(dir==lado.a.dir))||((rventa.manguera==(diesel2&0x0F))&&
 6162              		.loc 1 1155 0
 6163 23f0 5C4B     		ldr	r3, .L616+32
 6164 23f2 93F8E020 		ldrb	r2, [r3, #224]	@ zero_extendqisi2
 6165 23f6 5C4B     		ldr	r3, .L616+36
 6166 23f8 1B78     		ldrb	r3, [r3]	@ zero_extendqisi2
 6167 23fa 03F00F03 		and	r3, r3, #15
 6168 23fe 9342     		cmp	r3, r2
 6169 2400 03D1     		bne	.L428
 6170              		.loc 1 1155 0 is_stmt 0 discriminator 1
 6171 2402 534B     		ldr	r3, .L616+12
 6172 2404 1B78     		ldrb	r3, [r3]	@ zero_extendqisi2
 6173 2406 AB42     		cmp	r3, r5
 6174 2408 0BD0     		beq	.L429
 6175              	.L428:
 6176              		.loc 1 1155 0 discriminator 3
 6177 240a 584B     		ldr	r3, .L616+40
 6178 240c 1B78     		ldrb	r3, [r3]	@ zero_extendqisi2
 6179 240e 03F00F03 		and	r3, r3, #15
 6180 2412 9A42     		cmp	r2, r3
 6181 2414 40F0D980 		bne	.L430
 6182              		.loc 1 1155 0 discriminator 4
 6183 2418 4D4B     		ldr	r3, .L616+12
 6184 241a 1B79     		ldrb	r3, [r3, #4]	@ zero_extendqisi2
 6185 241c AB42     		cmp	r3, r5
 6186 241e 40F0D480 		bne	.L430
 6187              	.L429:
1156:.\Protocolo.c **** 						for(x=0;x<=5;x++){									
 6188              		.loc 1 1156 0 is_stmt 1
 6189 2422 0022     		movs	r2, #0
 6190 2424 484B     		ldr	r3, .L616+4
 6191 2426 1A60     		str	r2, [r3]
 6192 2428 08E0     		b	.L431
 6193              	.L432:
1157:.\Protocolo.c **** 						    write_psoc1(val,msn_tc[x]);
 6194              		.loc 1 1157 0 discriminator 3
 6195 242a 2046     		mov	r0, r4
 6196 242c 474A     		ldr	r2, .L616+8
 6197 242e D15C     		ldrb	r1, [r2, r3]	@ zero_extendqisi2
 6198 2430 FFF7FEFF 		bl	write_psoc1
 6199              	.LVL441:
1156:.\Protocolo.c **** 						for(x=0;x<=5;x++){									
 6200              		.loc 1 1156 0 discriminator 3
 6201 2434 444A     		ldr	r2, .L616+4
 6202 2436 1368     		ldr	r3, [r2]
 6203 2438 0133     		adds	r3, r3, #1
 6204 243a 1360     		str	r3, [r2]
 6205              	.L431:
1156:.\Protocolo.c **** 						for(x=0;x<=5;x++){									
 6206              		.loc 1 1156 0 is_stmt 0 discriminator 1
ARM GAS  C:\Users\IN-002~1\AppData\Local\Temp\ccxO8rjh.s 			page 136


 6207 243c 424B     		ldr	r3, .L616+4
 6208 243e 1B68     		ldr	r3, [r3]
 6209 2440 052B     		cmp	r3, #5
 6210 2442 F2D9     		bls	.L432
1158:.\Protocolo.c **** 					    }
1159:.\Protocolo.c **** 					    write_psoc1(val,10);
 6211              		.loc 1 1159 0 is_stmt 1
 6212 2444 2046     		mov	r0, r4
 6213 2446 0A21     		movs	r1, #10
 6214 2448 FFF7FEFF 		bl	write_psoc1
 6215              	.LVL442:
1160:.\Protocolo.c ****                         for(x=0;x<=10;x++){									
 6216              		.loc 1 1160 0
 6217 244c 0022     		movs	r2, #0
 6218 244e 3E4B     		ldr	r3, .L616+4
 6219 2450 1A60     		str	r2, [r3]
 6220 2452 08E0     		b	.L433
 6221              	.L434:
1161:.\Protocolo.c **** 						    write_psoc1(val,producto2n[x]);
 6222              		.loc 1 1161 0 discriminator 3
 6223 2454 2046     		mov	r0, r4
 6224 2456 464A     		ldr	r2, .L616+44
 6225 2458 D15C     		ldrb	r1, [r2, r3]	@ zero_extendqisi2
 6226 245a FFF7FEFF 		bl	write_psoc1
 6227              	.LVL443:
1160:.\Protocolo.c ****                         for(x=0;x<=10;x++){									
 6228              		.loc 1 1160 0 discriminator 3
 6229 245e 3A4A     		ldr	r2, .L616+4
 6230 2460 1368     		ldr	r3, [r2]
 6231 2462 0133     		adds	r3, r3, #1
 6232 2464 1360     		str	r3, [r2]
 6233              	.L433:
1160:.\Protocolo.c ****                         for(x=0;x<=10;x++){									
 6234              		.loc 1 1160 0 is_stmt 0 discriminator 1
 6235 2466 384B     		ldr	r3, .L616+4
 6236 2468 1B68     		ldr	r3, [r3]
 6237 246a 0A2B     		cmp	r3, #10
 6238 246c F2D9     		bls	.L434
1162:.\Protocolo.c **** 					    }
1163:.\Protocolo.c ****                         write_psoc1(val,10);
 6239              		.loc 1 1163 0 is_stmt 1
 6240 246e 2046     		mov	r0, r4
 6241 2470 0A21     		movs	r1, #10
 6242 2472 FFF7FEFF 		bl	write_psoc1
 6243              	.LVL444:
1164:.\Protocolo.c **** 						for(x=0;x<=14;x++){									
 6244              		.loc 1 1164 0
 6245 2476 0022     		movs	r2, #0
 6246 2478 334B     		ldr	r3, .L616+4
 6247 247a 1A60     		str	r2, [r3]
 6248 247c 09E0     		b	.L435
 6249              	.L436:
1165:.\Protocolo.c **** 							write_psoc1(val,msn_lecact[x]);				//LECTURA ACTUAL
 6250              		.loc 1 1165 0 discriminator 3
 6251 247e 334A     		ldr	r2, .L616+8
 6252 2480 1344     		add	r3, r3, r2
 6253 2482 2046     		mov	r0, r4
ARM GAS  C:\Users\IN-002~1\AppData\Local\Temp\ccxO8rjh.s 			page 137


 6254 2484 197A     		ldrb	r1, [r3, #8]	@ zero_extendqisi2
 6255 2486 FFF7FEFF 		bl	write_psoc1
 6256              	.LVL445:
1164:.\Protocolo.c **** 						for(x=0;x<=14;x++){									
 6257              		.loc 1 1164 0 discriminator 3
 6258 248a 2F4A     		ldr	r2, .L616+4
 6259 248c 1368     		ldr	r3, [r2]
 6260 248e 0133     		adds	r3, r3, #1
 6261 2490 1360     		str	r3, [r2]
 6262              	.L435:
1164:.\Protocolo.c **** 						for(x=0;x<=14;x++){									
 6263              		.loc 1 1164 0 is_stmt 0 discriminator 1
 6264 2492 2D4B     		ldr	r3, .L616+4
 6265 2494 1B68     		ldr	r3, [r3]
 6266 2496 0E2B     		cmp	r3, #14
 6267 2498 F1D9     		bls	.L436
1166:.\Protocolo.c **** 						}
1167:.\Protocolo.c **** 						write_psoc1(val,10);
 6268              		.loc 1 1167 0 is_stmt 1
 6269 249a 2046     		mov	r0, r4
 6270 249c 0A21     		movs	r1, #10
 6271 249e FFF7FEFF 		bl	write_psoc1
 6272              	.LVL446:
1168:.\Protocolo.c **** 						print_totalesac(12,val);	
 6273              		.loc 1 1168 0
 6274 24a2 0C20     		movs	r0, #12
 6275 24a4 2146     		mov	r1, r4
 6276 24a6 FFF7FEFF 		bl	print_totalesac
 6277              	.LVL447:
1169:.\Protocolo.c **** 						for(x=0;x<=16;x++){												
 6278              		.loc 1 1169 0
 6279 24aa 0022     		movs	r2, #0
 6280 24ac 264B     		ldr	r3, .L616+4
 6281 24ae 1A60     		str	r2, [r3]
 6282 24b0 09E0     		b	.L437
 6283              	.L438:
1170:.\Protocolo.c **** 							write_psoc1(val,msn_lecaan[x]);				//LECTURA ANTERIOR
 6284              		.loc 1 1170 0 discriminator 3
 6285 24b2 264A     		ldr	r2, .L616+8
 6286 24b4 1344     		add	r3, r3, r2
 6287 24b6 2046     		mov	r0, r4
 6288 24b8 197E     		ldrb	r1, [r3, #24]	@ zero_extendqisi2
 6289 24ba FFF7FEFF 		bl	write_psoc1
 6290              	.LVL448:
1169:.\Protocolo.c **** 						for(x=0;x<=16;x++){												
 6291              		.loc 1 1169 0 discriminator 3
 6292 24be 224A     		ldr	r2, .L616+4
 6293 24c0 1368     		ldr	r3, [r2]
 6294 24c2 0133     		adds	r3, r3, #1
 6295 24c4 1360     		str	r3, [r2]
 6296              	.L437:
1169:.\Protocolo.c **** 						for(x=0;x<=16;x++){												
 6297              		.loc 1 1169 0 is_stmt 0 discriminator 1
 6298 24c6 204B     		ldr	r3, .L616+4
 6299 24c8 1B68     		ldr	r3, [r3]
 6300 24ca 102B     		cmp	r3, #16
 6301 24cc F1D9     		bls	.L438
ARM GAS  C:\Users\IN-002~1\AppData\Local\Temp\ccxO8rjh.s 			page 138


1171:.\Protocolo.c **** 						}
1172:.\Protocolo.c **** 						write_psoc1(val,10);
 6302              		.loc 1 1172 0 is_stmt 1
 6303 24ce 2046     		mov	r0, r4
 6304 24d0 0A21     		movs	r1, #10
 6305 24d2 FFF7FEFF 		bl	write_psoc1
 6306              	.LVL449:
1173:.\Protocolo.c **** 						if(dir==lado.a.dir){
 6307              		.loc 1 1173 0
 6308 24d6 1E4B     		ldr	r3, .L616+12
 6309 24d8 1B78     		ldrb	r3, [r3]	@ zero_extendqisi2
 6310 24da AB42     		cmp	r3, r5
 6311 24dc 04D1     		bne	.L439
1174:.\Protocolo.c **** 							leer_eeprom(217,25);
 6312              		.loc 1 1174 0
 6313 24de D920     		movs	r0, #217
 6314 24e0 1921     		movs	r1, #25
 6315 24e2 FFF7FEFF 		bl	leer_eeprom
 6316              	.LVL450:
 6317 24e6 04E0     		b	.L440
 6318              	.L439:
1175:.\Protocolo.c **** 						}
1176:.\Protocolo.c **** 						else{
1177:.\Protocolo.c **** 							leer_eeprom(320,25);
 6319              		.loc 1 1177 0
 6320 24e8 4FF4A070 		mov	r0, #320
 6321 24ec 1921     		movs	r1, #25
 6322 24ee FFF7FEFF 		bl	leer_eeprom
 6323              	.LVL451:
 6324              	.L440:
1178:.\Protocolo.c **** 						}
1179:.\Protocolo.c **** 						print_totales(val);
 6325              		.loc 1 1179 0
 6326 24f2 2046     		mov	r0, r4
 6327 24f4 FFF7FEFF 		bl	print_totales
 6328              	.LVL452:
1180:.\Protocolo.c **** 						for(z=1;z<=12;z++){
 6329              		.loc 1 1180 0
 6330 24f8 0122     		movs	r2, #1
 6331 24fa 164B     		ldr	r3, .L616+16
 6332 24fc 1A60     		str	r2, [r3]
 6333 24fe 10E0     		b	.L441
 6334              	.L442:
1181:.\Protocolo.c **** 							minuendo[z]=rventa.tdinero[z-1];
 6335              		.loc 1 1181 0 discriminator 3
 6336 2500 154A     		ldr	r2, .L616+20
 6337 2502 1A44     		add	r2, r2, r3
 6338 2504 92F8CA10 		ldrb	r1, [r2, #202]	@ zero_extendqisi2
 6339 2508 10AA     		add	r2, sp, #64
 6340 250a 1A44     		add	r2, r2, r3
 6341 250c 02F82C1C 		strb	r1, [r2, #-44]
1182:.\Protocolo.c **** 							sustraendo[z]=buffer_i2c[z+12];
 6342              		.loc 1 1182 0 discriminator 3
 6343 2510 03F10C01 		add	r1, r3, #12
 6344 2514 1148     		ldr	r0, .L616+24
 6345 2516 415C     		ldrb	r1, [r0, r1]	@ zero_extendqisi2
 6346 2518 02F83C1C 		strb	r1, [r2, #-60]
ARM GAS  C:\Users\IN-002~1\AppData\Local\Temp\ccxO8rjh.s 			page 139


1180:.\Protocolo.c **** 						for(z=1;z<=12;z++){
 6347              		.loc 1 1180 0 discriminator 3
 6348 251c 0133     		adds	r3, r3, #1
 6349 251e 0D4A     		ldr	r2, .L616+16
 6350 2520 1360     		str	r3, [r2]
 6351              	.L441:
1180:.\Protocolo.c **** 						for(z=1;z<=12;z++){
 6352              		.loc 1 1180 0 is_stmt 0 discriminator 1
 6353 2522 0C4B     		ldr	r3, .L616+16
 6354 2524 1B68     		ldr	r3, [r3]
 6355 2526 0C2B     		cmp	r3, #12
 6356 2528 EAD9     		bls	.L442
1183:.\Protocolo.c **** 						}
1184:.\Protocolo.c **** 						minuendo[0]=12;
 6357              		.loc 1 1184 0 is_stmt 1
 6358 252a 10A9     		add	r1, sp, #64
 6359 252c 0C23     		movs	r3, #12
 6360 252e 01F82C3D 		strb	r3, [r1, #-44]!
1185:.\Protocolo.c **** 						operacion(2,minuendo,sustraendo);
 6361              		.loc 1 1185 0
 6362 2532 0220     		movs	r0, #2
 6363 2534 01AA     		add	r2, sp, #4
 6364 2536 FFF7FEFF 		bl	operacion
 6365              	.LVL453:
1186:.\Protocolo.c **** 						for(x=0;x<=17;x++){									
 6366              		.loc 1 1186 0
 6367 253a 0022     		movs	r2, #0
 6368 253c 024B     		ldr	r3, .L616+4
 6369 253e 1A60     		str	r2, [r3]
 6370 2540 23E0     		b	.L443
 6371              	.L617:
 6372 2542 00BF     		.align	2
 6373              	.L616:
 6374 2544 00000000 		.word	producto1n
 6375 2548 00000000 		.word	x
 6376 254c 00000000 		.word	.LANCHOR1
 6377 2550 00000000 		.word	lado
 6378 2554 00000000 		.word	z
 6379 2558 FFFFFFFF 		.word	rventa-1
 6380 255c 00000000 		.word	buffer_i2c
 6381 2560 00000000 		.word	resultado
 6382 2564 00000000 		.word	rventa
 6383 2568 00000000 		.word	diesel
 6384 256c 00000000 		.word	diesel2
 6385 2570 00000000 		.word	producto2n
 6386              	.L444:
1187:.\Protocolo.c **** 							write_psoc1(val,msn_tventas[x]);				//Total de ventas
 6387              		.loc 1 1187 0 discriminator 3
 6388 2574 A34A     		ldr	r2, .L618
 6389 2576 1344     		add	r3, r3, r2
 6390 2578 2046     		mov	r0, r4
 6391 257a 93F82C10 		ldrb	r1, [r3, #44]	@ zero_extendqisi2
 6392 257e FFF7FEFF 		bl	write_psoc1
 6393              	.LVL454:
1186:.\Protocolo.c **** 						for(x=0;x<=17;x++){									
 6394              		.loc 1 1186 0 discriminator 3
 6395 2582 A14A     		ldr	r2, .L618+4
ARM GAS  C:\Users\IN-002~1\AppData\Local\Temp\ccxO8rjh.s 			page 140


 6396 2584 1368     		ldr	r3, [r2]
 6397 2586 0133     		adds	r3, r3, #1
 6398 2588 1360     		str	r3, [r2]
 6399              	.L443:
1186:.\Protocolo.c **** 						for(x=0;x<=17;x++){									
 6400              		.loc 1 1186 0 is_stmt 0 discriminator 1
 6401 258a 9F4B     		ldr	r3, .L618+4
 6402 258c 1B68     		ldr	r3, [r3]
 6403 258e 112B     		cmp	r3, #17
 6404 2590 F0D9     		bls	.L444
1188:.\Protocolo.c **** 						}
1189:.\Protocolo.c **** 						print_valor(resultado,val);				
 6405              		.loc 1 1189 0 is_stmt 1
 6406 2592 9E48     		ldr	r0, .L618+8
 6407 2594 2146     		mov	r1, r4
 6408 2596 FFF7FEFF 		bl	print_valor
 6409              	.LVL455:
1190:.\Protocolo.c **** 						if(dir==lado.a.dir){
 6410              		.loc 1 1190 0
 6411 259a 9D4B     		ldr	r3, .L618+12
 6412 259c 1B78     		ldrb	r3, [r3]	@ zero_extendqisi2
 6413 259e AB42     		cmp	r3, r5
 6414 25a0 09D1     		bne	.L445
1191:.\Protocolo.c **** 							write_eeprom(217,corte);
 6415              		.loc 1 1191 0
 6416 25a2 D920     		movs	r0, #217
 6417 25a4 09A9     		add	r1, sp, #36
 6418 25a6 FFF7FEFF 		bl	write_eeprom
 6419              	.LVL456:
1192:.\Protocolo.c **** 							write_eeprom(538,resultado);
 6420              		.loc 1 1192 0
 6421 25aa 40F21A20 		movw	r0, #538
 6422 25ae 9749     		ldr	r1, .L618+8
 6423 25b0 FFF7FEFF 		bl	write_eeprom
 6424              	.LVL457:
 6425 25b4 09E0     		b	.L430
 6426              	.L445:
1193:.\Protocolo.c **** 						}
1194:.\Protocolo.c **** 						else{
1195:.\Protocolo.c **** 							write_eeprom(320,corte);
 6427              		.loc 1 1195 0
 6428 25b6 4FF4A070 		mov	r0, #320
 6429 25ba 09A9     		add	r1, sp, #36
 6430 25bc FFF7FEFF 		bl	write_eeprom
 6431              	.LVL458:
1196:.\Protocolo.c **** 							write_eeprom(576,resultado);
 6432              		.loc 1 1196 0
 6433 25c0 4FF41070 		mov	r0, #576
 6434 25c4 9149     		ldr	r1, .L618+8
 6435 25c6 FFF7FEFF 		bl	write_eeprom
 6436              	.LVL459:
 6437              	.L430:
1197:.\Protocolo.c **** 						}				
1198:.\Protocolo.c **** 					}
1199:.\Protocolo.c **** 					if(((rventa.manguera==(extra&0x0F))&&(dir==lado.a.dir))||((rventa.manguera==(extra2&0x0F))&&(d
 6438              		.loc 1 1199 0
 6439 25ca 924B     		ldr	r3, .L618+16
ARM GAS  C:\Users\IN-002~1\AppData\Local\Temp\ccxO8rjh.s 			page 141


 6440 25cc 93F8E020 		ldrb	r2, [r3, #224]	@ zero_extendqisi2
 6441 25d0 914B     		ldr	r3, .L618+20
 6442 25d2 1B78     		ldrb	r3, [r3]	@ zero_extendqisi2
 6443 25d4 03F00F03 		and	r3, r3, #15
 6444 25d8 9342     		cmp	r3, r2
 6445 25da 03D1     		bne	.L446
 6446              		.loc 1 1199 0 is_stmt 0 discriminator 1
 6447 25dc 8C4B     		ldr	r3, .L618+12
 6448 25de 1B78     		ldrb	r3, [r3]	@ zero_extendqisi2
 6449 25e0 AB42     		cmp	r3, r5
 6450 25e2 0BD0     		beq	.L447
 6451              	.L446:
 6452              		.loc 1 1199 0 discriminator 3
 6453 25e4 8D4B     		ldr	r3, .L618+24
 6454 25e6 1B78     		ldrb	r3, [r3]	@ zero_extendqisi2
 6455 25e8 03F00F03 		and	r3, r3, #15
 6456 25ec 9A42     		cmp	r2, r3
 6457 25ee 40F0C280 		bne	.L448
 6458              		.loc 1 1199 0 discriminator 4
 6459 25f2 874B     		ldr	r3, .L618+12
 6460 25f4 1B79     		ldrb	r3, [r3, #4]	@ zero_extendqisi2
 6461 25f6 AB42     		cmp	r3, r5
 6462 25f8 40F0BD80 		bne	.L448
 6463              	.L447:
1200:.\Protocolo.c **** 						for(x=0;x<=5;x++){									
 6464              		.loc 1 1200 0 is_stmt 1
 6465 25fc 0022     		movs	r2, #0
 6466 25fe 824B     		ldr	r3, .L618+4
 6467 2600 1A60     		str	r2, [r3]
 6468 2602 08E0     		b	.L449
 6469              	.L450:
1201:.\Protocolo.c **** 						    write_psoc1(val,msn_tc[x]);
 6470              		.loc 1 1201 0 discriminator 3
 6471 2604 2046     		mov	r0, r4
 6472 2606 7F4A     		ldr	r2, .L618
 6473 2608 D15C     		ldrb	r1, [r2, r3]	@ zero_extendqisi2
 6474 260a FFF7FEFF 		bl	write_psoc1
 6475              	.LVL460:
1200:.\Protocolo.c **** 						for(x=0;x<=5;x++){									
 6476              		.loc 1 1200 0 discriminator 3
 6477 260e 7E4A     		ldr	r2, .L618+4
 6478 2610 1368     		ldr	r3, [r2]
 6479 2612 0133     		adds	r3, r3, #1
 6480 2614 1360     		str	r3, [r2]
 6481              	.L449:
1200:.\Protocolo.c **** 						for(x=0;x<=5;x++){									
 6482              		.loc 1 1200 0 is_stmt 0 discriminator 1
 6483 2616 7C4B     		ldr	r3, .L618+4
 6484 2618 1B68     		ldr	r3, [r3]
 6485 261a 052B     		cmp	r3, #5
 6486 261c F2D9     		bls	.L450
1202:.\Protocolo.c **** 					    }
1203:.\Protocolo.c **** 					    write_psoc1(val,10);
 6487              		.loc 1 1203 0 is_stmt 1
 6488 261e 2046     		mov	r0, r4
 6489 2620 0A21     		movs	r1, #10
 6490 2622 FFF7FEFF 		bl	write_psoc1
ARM GAS  C:\Users\IN-002~1\AppData\Local\Temp\ccxO8rjh.s 			page 142


 6491              	.LVL461:
1204:.\Protocolo.c ****                         for(x=0;x<=10;x++){									
 6492              		.loc 1 1204 0
 6493 2626 0022     		movs	r2, #0
 6494 2628 774B     		ldr	r3, .L618+4
 6495 262a 1A60     		str	r2, [r3]
 6496 262c 08E0     		b	.L451
 6497              	.L452:
1205:.\Protocolo.c **** 						    write_psoc1(val,producto3n[x]);
 6498              		.loc 1 1205 0 discriminator 3
 6499 262e 2046     		mov	r0, r4
 6500 2630 7B4A     		ldr	r2, .L618+28
 6501 2632 D15C     		ldrb	r1, [r2, r3]	@ zero_extendqisi2
 6502 2634 FFF7FEFF 		bl	write_psoc1
 6503              	.LVL462:
1204:.\Protocolo.c ****                         for(x=0;x<=10;x++){									
 6504              		.loc 1 1204 0 discriminator 3
 6505 2638 734A     		ldr	r2, .L618+4
 6506 263a 1368     		ldr	r3, [r2]
 6507 263c 0133     		adds	r3, r3, #1
 6508 263e 1360     		str	r3, [r2]
 6509              	.L451:
1204:.\Protocolo.c ****                         for(x=0;x<=10;x++){									
 6510              		.loc 1 1204 0 is_stmt 0 discriminator 1
 6511 2640 714B     		ldr	r3, .L618+4
 6512 2642 1B68     		ldr	r3, [r3]
 6513 2644 0A2B     		cmp	r3, #10
 6514 2646 F2D9     		bls	.L452
1206:.\Protocolo.c **** 					    }
1207:.\Protocolo.c ****                         write_psoc1(val,10);
 6515              		.loc 1 1207 0 is_stmt 1
 6516 2648 2046     		mov	r0, r4
 6517 264a 0A21     		movs	r1, #10
 6518 264c FFF7FEFF 		bl	write_psoc1
 6519              	.LVL463:
1208:.\Protocolo.c **** 						for(x=0;x<=14;x++){									
 6520              		.loc 1 1208 0
 6521 2650 0022     		movs	r2, #0
 6522 2652 6D4B     		ldr	r3, .L618+4
 6523 2654 1A60     		str	r2, [r3]
 6524 2656 09E0     		b	.L453
 6525              	.L454:
1209:.\Protocolo.c **** 							write_psoc1(val,msn_lecact[x]);				//LECTURA ACTUAL
 6526              		.loc 1 1209 0 discriminator 3
 6527 2658 6A4A     		ldr	r2, .L618
 6528 265a 1344     		add	r3, r3, r2
 6529 265c 2046     		mov	r0, r4
 6530 265e 197A     		ldrb	r1, [r3, #8]	@ zero_extendqisi2
 6531 2660 FFF7FEFF 		bl	write_psoc1
 6532              	.LVL464:
1208:.\Protocolo.c **** 						for(x=0;x<=14;x++){									
 6533              		.loc 1 1208 0 discriminator 3
 6534 2664 684A     		ldr	r2, .L618+4
 6535 2666 1368     		ldr	r3, [r2]
 6536 2668 0133     		adds	r3, r3, #1
 6537 266a 1360     		str	r3, [r2]
 6538              	.L453:
ARM GAS  C:\Users\IN-002~1\AppData\Local\Temp\ccxO8rjh.s 			page 143


1208:.\Protocolo.c **** 						for(x=0;x<=14;x++){									
 6539              		.loc 1 1208 0 is_stmt 0 discriminator 1
 6540 266c 664B     		ldr	r3, .L618+4
 6541 266e 1B68     		ldr	r3, [r3]
 6542 2670 0E2B     		cmp	r3, #14
 6543 2672 F1D9     		bls	.L454
1210:.\Protocolo.c **** 						}
1211:.\Protocolo.c **** 						write_psoc1(val,10);
 6544              		.loc 1 1211 0 is_stmt 1
 6545 2674 2046     		mov	r0, r4
 6546 2676 0A21     		movs	r1, #10
 6547 2678 FFF7FEFF 		bl	write_psoc1
 6548              	.LVL465:
1212:.\Protocolo.c **** 						print_totalesac(12,val);	
 6549              		.loc 1 1212 0
 6550 267c 0C20     		movs	r0, #12
 6551 267e 2146     		mov	r1, r4
 6552 2680 FFF7FEFF 		bl	print_totalesac
 6553              	.LVL466:
1213:.\Protocolo.c **** 						for(x=0;x<=16;x++){												
 6554              		.loc 1 1213 0
 6555 2684 0022     		movs	r2, #0
 6556 2686 604B     		ldr	r3, .L618+4
 6557 2688 1A60     		str	r2, [r3]
 6558 268a 09E0     		b	.L455
 6559              	.L456:
1214:.\Protocolo.c **** 							write_psoc1(val,msn_lecaan[x]);				//LECTURA ANTERIOR
 6560              		.loc 1 1214 0 discriminator 3
 6561 268c 5D4A     		ldr	r2, .L618
 6562 268e 1344     		add	r3, r3, r2
 6563 2690 2046     		mov	r0, r4
 6564 2692 197E     		ldrb	r1, [r3, #24]	@ zero_extendqisi2
 6565 2694 FFF7FEFF 		bl	write_psoc1
 6566              	.LVL467:
1213:.\Protocolo.c **** 						for(x=0;x<=16;x++){												
 6567              		.loc 1 1213 0 discriminator 3
 6568 2698 5B4A     		ldr	r2, .L618+4
 6569 269a 1368     		ldr	r3, [r2]
 6570 269c 0133     		adds	r3, r3, #1
 6571 269e 1360     		str	r3, [r2]
 6572              	.L455:
1213:.\Protocolo.c **** 						for(x=0;x<=16;x++){												
 6573              		.loc 1 1213 0 is_stmt 0 discriminator 1
 6574 26a0 594B     		ldr	r3, .L618+4
 6575 26a2 1B68     		ldr	r3, [r3]
 6576 26a4 102B     		cmp	r3, #16
 6577 26a6 F1D9     		bls	.L456
1215:.\Protocolo.c **** 						}
1216:.\Protocolo.c **** 						write_psoc1(val,10);
 6578              		.loc 1 1216 0 is_stmt 1
 6579 26a8 2046     		mov	r0, r4
 6580 26aa 0A21     		movs	r1, #10
 6581 26ac FFF7FEFF 		bl	write_psoc1
 6582              	.LVL468:
1217:.\Protocolo.c **** 						if(dir==lado.a.dir){
 6583              		.loc 1 1217 0
 6584 26b0 574B     		ldr	r3, .L618+12
ARM GAS  C:\Users\IN-002~1\AppData\Local\Temp\ccxO8rjh.s 			page 144


 6585 26b2 1B78     		ldrb	r3, [r3]	@ zero_extendqisi2
 6586 26b4 AB42     		cmp	r3, r5
 6587 26b6 05D1     		bne	.L457
1218:.\Protocolo.c **** 							leer_eeprom(256,25);
 6588              		.loc 1 1218 0
 6589 26b8 4FF48070 		mov	r0, #256
 6590 26bc 1921     		movs	r1, #25
 6591 26be FFF7FEFF 		bl	leer_eeprom
 6592              	.LVL469:
 6593 26c2 04E0     		b	.L458
 6594              	.L457:
1219:.\Protocolo.c **** 						}
1220:.\Protocolo.c **** 						else{
1221:.\Protocolo.c **** 							leer_eeprom(345,25);
 6595              		.loc 1 1221 0
 6596 26c4 40F25910 		movw	r0, #345
 6597 26c8 1921     		movs	r1, #25
 6598 26ca FFF7FEFF 		bl	leer_eeprom
 6599              	.LVL470:
 6600              	.L458:
1222:.\Protocolo.c **** 						}
1223:.\Protocolo.c **** 						print_totales(val);
 6601              		.loc 1 1223 0
 6602 26ce 2046     		mov	r0, r4
 6603 26d0 FFF7FEFF 		bl	print_totales
 6604              	.LVL471:
1224:.\Protocolo.c **** 						for(z=1;z<=12;z++){
 6605              		.loc 1 1224 0
 6606 26d4 0122     		movs	r2, #1
 6607 26d6 534B     		ldr	r3, .L618+32
 6608 26d8 1A60     		str	r2, [r3]
 6609 26da 10E0     		b	.L459
 6610              	.L460:
1225:.\Protocolo.c **** 							minuendo[z]=rventa.tdinero[z-1];
 6611              		.loc 1 1225 0 discriminator 3
 6612 26dc 524A     		ldr	r2, .L618+36
 6613 26de 1A44     		add	r2, r2, r3
 6614 26e0 92F8CA10 		ldrb	r1, [r2, #202]	@ zero_extendqisi2
 6615 26e4 10AA     		add	r2, sp, #64
 6616 26e6 1A44     		add	r2, r2, r3
 6617 26e8 02F82C1C 		strb	r1, [r2, #-44]
1226:.\Protocolo.c **** 							sustraendo[z]=buffer_i2c[z+12];
 6618              		.loc 1 1226 0 discriminator 3
 6619 26ec 03F10C01 		add	r1, r3, #12
 6620 26f0 4E48     		ldr	r0, .L618+40
 6621 26f2 415C     		ldrb	r1, [r0, r1]	@ zero_extendqisi2
 6622 26f4 02F83C1C 		strb	r1, [r2, #-60]
1224:.\Protocolo.c **** 						for(z=1;z<=12;z++){
 6623              		.loc 1 1224 0 discriminator 3
 6624 26f8 0133     		adds	r3, r3, #1
 6625 26fa 4A4A     		ldr	r2, .L618+32
 6626 26fc 1360     		str	r3, [r2]
 6627              	.L459:
1224:.\Protocolo.c **** 						for(z=1;z<=12;z++){
 6628              		.loc 1 1224 0 is_stmt 0 discriminator 1
 6629 26fe 494B     		ldr	r3, .L618+32
 6630 2700 1B68     		ldr	r3, [r3]
ARM GAS  C:\Users\IN-002~1\AppData\Local\Temp\ccxO8rjh.s 			page 145


 6631 2702 0C2B     		cmp	r3, #12
 6632 2704 EAD9     		bls	.L460
1227:.\Protocolo.c **** 						}
1228:.\Protocolo.c **** 						minuendo[0]=12;
 6633              		.loc 1 1228 0 is_stmt 1
 6634 2706 10A9     		add	r1, sp, #64
 6635 2708 0C23     		movs	r3, #12
 6636 270a 01F82C3D 		strb	r3, [r1, #-44]!
1229:.\Protocolo.c **** 						operacion(2,minuendo,sustraendo);
 6637              		.loc 1 1229 0
 6638 270e 0220     		movs	r0, #2
 6639 2710 01AA     		add	r2, sp, #4
 6640 2712 FFF7FEFF 		bl	operacion
 6641              	.LVL472:
1230:.\Protocolo.c **** 						for(x=0;x<=17;x++){									
 6642              		.loc 1 1230 0
 6643 2716 0022     		movs	r2, #0
 6644 2718 3B4B     		ldr	r3, .L618+4
 6645 271a 1A60     		str	r2, [r3]
 6646 271c 0AE0     		b	.L461
 6647              	.L462:
1231:.\Protocolo.c **** 							write_psoc1(val,msn_tventas[x]);				//Total de ventas
 6648              		.loc 1 1231 0 discriminator 3
 6649 271e 394A     		ldr	r2, .L618
 6650 2720 1344     		add	r3, r3, r2
 6651 2722 2046     		mov	r0, r4
 6652 2724 93F82C10 		ldrb	r1, [r3, #44]	@ zero_extendqisi2
 6653 2728 FFF7FEFF 		bl	write_psoc1
 6654              	.LVL473:
1230:.\Protocolo.c **** 						for(x=0;x<=17;x++){									
 6655              		.loc 1 1230 0 discriminator 3
 6656 272c 364A     		ldr	r2, .L618+4
 6657 272e 1368     		ldr	r3, [r2]
 6658 2730 0133     		adds	r3, r3, #1
 6659 2732 1360     		str	r3, [r2]
 6660              	.L461:
1230:.\Protocolo.c **** 						for(x=0;x<=17;x++){									
 6661              		.loc 1 1230 0 is_stmt 0 discriminator 1
 6662 2734 344B     		ldr	r3, .L618+4
 6663 2736 1B68     		ldr	r3, [r3]
 6664 2738 112B     		cmp	r3, #17
 6665 273a F0D9     		bls	.L462
1232:.\Protocolo.c **** 						}
1233:.\Protocolo.c **** 						print_valor(resultado,val);							
 6666              		.loc 1 1233 0 is_stmt 1
 6667 273c 3348     		ldr	r0, .L618+8
 6668 273e 2146     		mov	r1, r4
 6669 2740 FFF7FEFF 		bl	print_valor
 6670              	.LVL474:
1234:.\Protocolo.c **** 						if(dir==lado.a.dir){
 6671              		.loc 1 1234 0
 6672 2744 324B     		ldr	r3, .L618+12
 6673 2746 1B78     		ldrb	r3, [r3]	@ zero_extendqisi2
 6674 2748 AB42     		cmp	r3, r5
 6675 274a 0AD1     		bne	.L463
1235:.\Protocolo.c **** 							write_eeprom(256,corte);
 6676              		.loc 1 1235 0
ARM GAS  C:\Users\IN-002~1\AppData\Local\Temp\ccxO8rjh.s 			page 146


 6677 274c 4FF48070 		mov	r0, #256
 6678 2750 09A9     		add	r1, sp, #36
 6679 2752 FFF7FEFF 		bl	write_eeprom
 6680              	.LVL475:
1236:.\Protocolo.c **** 							write_eeprom(525,resultado);
 6681              		.loc 1 1236 0
 6682 2756 40F20D20 		movw	r0, #525
 6683 275a 2C49     		ldr	r1, .L618+8
 6684 275c FFF7FEFF 		bl	write_eeprom
 6685              	.LVL476:
 6686 2760 09E0     		b	.L448
 6687              	.L463:
1237:.\Protocolo.c **** 						}
1238:.\Protocolo.c **** 						else{
1239:.\Protocolo.c **** 							write_eeprom(345,corte);
 6688              		.loc 1 1239 0
 6689 2762 40F25910 		movw	r0, #345
 6690 2766 09A9     		add	r1, sp, #36
 6691 2768 FFF7FEFF 		bl	write_eeprom
 6692              	.LVL477:
1240:.\Protocolo.c **** 							write_eeprom(589,resultado);
 6693              		.loc 1 1240 0
 6694 276c 40F24D20 		movw	r0, #589
 6695 2770 2649     		ldr	r1, .L618+8
 6696 2772 FFF7FEFF 		bl	write_eeprom
 6697              	.LVL478:
 6698              	.L448:
1241:.\Protocolo.c **** 						}					
1242:.\Protocolo.c **** 					}
1243:.\Protocolo.c ****                     
1244:.\Protocolo.c ****                     
1245:.\Protocolo.c ****                     if(((rventa.manguera==(kero&0x0F))&&(dir==lado.a.dir))||((rventa.manguera==(ker
 6699              		.loc 1 1245 0
 6700 2776 274B     		ldr	r3, .L618+16
 6701 2778 93F8E020 		ldrb	r2, [r3, #224]	@ zero_extendqisi2
 6702 277c 2C4B     		ldr	r3, .L618+44
 6703 277e 1B78     		ldrb	r3, [r3]	@ zero_extendqisi2
 6704 2780 03F00F03 		and	r3, r3, #15
 6705 2784 9342     		cmp	r3, r2
 6706 2786 03D1     		bne	.L464
 6707              		.loc 1 1245 0 is_stmt 0 discriminator 1
 6708 2788 214B     		ldr	r3, .L618+12
 6709 278a 1B78     		ldrb	r3, [r3]	@ zero_extendqisi2
 6710 278c AB42     		cmp	r3, r5
 6711 278e 0BD0     		beq	.L465
 6712              	.L464:
 6713              		.loc 1 1245 0 discriminator 3
 6714 2790 284B     		ldr	r3, .L618+48
 6715 2792 1B78     		ldrb	r3, [r3]	@ zero_extendqisi2
 6716 2794 03F00F03 		and	r3, r3, #15
 6717 2798 9A42     		cmp	r2, r3
 6718 279a 40F0DE80 		bne	.L466
 6719              		.loc 1 1245 0 discriminator 4
 6720 279e 1C4B     		ldr	r3, .L618+12
 6721 27a0 1B79     		ldrb	r3, [r3, #4]	@ zero_extendqisi2
 6722 27a2 AB42     		cmp	r3, r5
 6723 27a4 40F0D980 		bne	.L466
ARM GAS  C:\Users\IN-002~1\AppData\Local\Temp\ccxO8rjh.s 			page 147


 6724              	.L465:
1246:.\Protocolo.c **** 						for(x=0;x<=5;x++){									
 6725              		.loc 1 1246 0 is_stmt 1
 6726 27a8 0022     		movs	r2, #0
 6727 27aa 174B     		ldr	r3, .L618+4
 6728 27ac 1A60     		str	r2, [r3]
 6729 27ae 08E0     		b	.L467
 6730              	.L468:
1247:.\Protocolo.c **** 						    write_psoc1(val,msn_tc[x]);
 6731              		.loc 1 1247 0 discriminator 3
 6732 27b0 2046     		mov	r0, r4
 6733 27b2 144A     		ldr	r2, .L618
 6734 27b4 D15C     		ldrb	r1, [r2, r3]	@ zero_extendqisi2
 6735 27b6 FFF7FEFF 		bl	write_psoc1
 6736              	.LVL479:
1246:.\Protocolo.c **** 						for(x=0;x<=5;x++){									
 6737              		.loc 1 1246 0 discriminator 3
 6738 27ba 134A     		ldr	r2, .L618+4
 6739 27bc 1368     		ldr	r3, [r2]
 6740 27be 0133     		adds	r3, r3, #1
 6741 27c0 1360     		str	r3, [r2]
 6742              	.L467:
1246:.\Protocolo.c **** 						for(x=0;x<=5;x++){									
 6743              		.loc 1 1246 0 is_stmt 0 discriminator 1
 6744 27c2 114B     		ldr	r3, .L618+4
 6745 27c4 1B68     		ldr	r3, [r3]
 6746 27c6 052B     		cmp	r3, #5
 6747 27c8 F2D9     		bls	.L468
1248:.\Protocolo.c **** 					    }
1249:.\Protocolo.c **** 					    write_psoc1(val,10);
 6748              		.loc 1 1249 0 is_stmt 1
 6749 27ca 2046     		mov	r0, r4
 6750 27cc 0A21     		movs	r1, #10
 6751 27ce FFF7FEFF 		bl	write_psoc1
 6752              	.LVL480:
1250:.\Protocolo.c ****                         for(x=0;x<=10;x++){									
 6753              		.loc 1 1250 0
 6754 27d2 0022     		movs	r2, #0
 6755 27d4 0C4B     		ldr	r3, .L618+4
 6756 27d6 1A60     		str	r2, [r3]
 6757 27d8 08E0     		b	.L469
 6758              	.L470:
1251:.\Protocolo.c **** 						    write_psoc1(val,producto4n[x]);
 6759              		.loc 1 1251 0 discriminator 3
 6760 27da 2046     		mov	r0, r4
 6761 27dc 164A     		ldr	r2, .L618+52
 6762 27de D15C     		ldrb	r1, [r2, r3]	@ zero_extendqisi2
 6763 27e0 FFF7FEFF 		bl	write_psoc1
 6764              	.LVL481:
1250:.\Protocolo.c ****                         for(x=0;x<=10;x++){									
 6765              		.loc 1 1250 0 discriminator 3
 6766 27e4 084A     		ldr	r2, .L618+4
 6767 27e6 1368     		ldr	r3, [r2]
 6768 27e8 0133     		adds	r3, r3, #1
 6769 27ea 1360     		str	r3, [r2]
 6770              	.L469:
1250:.\Protocolo.c ****                         for(x=0;x<=10;x++){									
ARM GAS  C:\Users\IN-002~1\AppData\Local\Temp\ccxO8rjh.s 			page 148


 6771              		.loc 1 1250 0 is_stmt 0 discriminator 1
 6772 27ec 064B     		ldr	r3, .L618+4
 6773 27ee 1B68     		ldr	r3, [r3]
 6774 27f0 0A2B     		cmp	r3, #10
 6775 27f2 F2D9     		bls	.L470
1252:.\Protocolo.c **** 					    }
1253:.\Protocolo.c ****                         write_psoc1(val,10);
 6776              		.loc 1 1253 0 is_stmt 1
 6777 27f4 2046     		mov	r0, r4
 6778 27f6 0A21     		movs	r1, #10
 6779 27f8 FFF7FEFF 		bl	write_psoc1
 6780              	.LVL482:
1254:.\Protocolo.c **** 						for(x=0;x<=14;x++){									
 6781              		.loc 1 1254 0
 6782 27fc 0022     		movs	r2, #0
 6783 27fe 024B     		ldr	r3, .L618+4
 6784 2800 1A60     		str	r2, [r3]
 6785 2802 25E0     		b	.L471
 6786              	.L619:
 6787              		.align	2
 6788              	.L618:
 6789 2804 00000000 		.word	.LANCHOR1
 6790 2808 00000000 		.word	x
 6791 280c 00000000 		.word	resultado
 6792 2810 00000000 		.word	lado
 6793 2814 00000000 		.word	rventa
 6794 2818 00000000 		.word	extra
 6795 281c 00000000 		.word	extra2
 6796 2820 00000000 		.word	producto3n
 6797 2824 00000000 		.word	z
 6798 2828 FFFFFFFF 		.word	rventa-1
 6799 282c 00000000 		.word	buffer_i2c
 6800 2830 00000000 		.word	kero
 6801 2834 00000000 		.word	kero2
 6802 2838 00000000 		.word	producto4n
 6803              	.L472:
1255:.\Protocolo.c **** 							write_psoc1(val,msn_lecact[x]);				//LECTURA ACTUAL
 6804              		.loc 1 1255 0 discriminator 3
 6805 283c AD4A     		ldr	r2, .L620
 6806 283e 1344     		add	r3, r3, r2
 6807 2840 2046     		mov	r0, r4
 6808 2842 197A     		ldrb	r1, [r3, #8]	@ zero_extendqisi2
 6809 2844 FFF7FEFF 		bl	write_psoc1
 6810              	.LVL483:
1254:.\Protocolo.c **** 						for(x=0;x<=14;x++){									
 6811              		.loc 1 1254 0 discriminator 3
 6812 2848 AB4A     		ldr	r2, .L620+4
 6813 284a 1368     		ldr	r3, [r2]
 6814 284c 0133     		adds	r3, r3, #1
 6815 284e 1360     		str	r3, [r2]
 6816              	.L471:
1254:.\Protocolo.c **** 						for(x=0;x<=14;x++){									
 6817              		.loc 1 1254 0 is_stmt 0 discriminator 1
 6818 2850 A94B     		ldr	r3, .L620+4
 6819 2852 1B68     		ldr	r3, [r3]
 6820 2854 0E2B     		cmp	r3, #14
 6821 2856 F1D9     		bls	.L472
ARM GAS  C:\Users\IN-002~1\AppData\Local\Temp\ccxO8rjh.s 			page 149


1256:.\Protocolo.c **** 						}
1257:.\Protocolo.c **** 						write_psoc1(val,10);
 6822              		.loc 1 1257 0 is_stmt 1
 6823 2858 2046     		mov	r0, r4
 6824 285a 0A21     		movs	r1, #10
 6825 285c FFF7FEFF 		bl	write_psoc1
 6826              	.LVL484:
1258:.\Protocolo.c **** 						print_totalesac(12,val);	
 6827              		.loc 1 1258 0
 6828 2860 0C20     		movs	r0, #12
 6829 2862 2146     		mov	r1, r4
 6830 2864 FFF7FEFF 		bl	print_totalesac
 6831              	.LVL485:
1259:.\Protocolo.c **** 						for(x=0;x<=16;x++){												
 6832              		.loc 1 1259 0
 6833 2868 0022     		movs	r2, #0
 6834 286a A34B     		ldr	r3, .L620+4
 6835 286c 1A60     		str	r2, [r3]
 6836 286e 09E0     		b	.L473
 6837              	.L474:
1260:.\Protocolo.c **** 							write_psoc1(val,msn_lecaan[x]);				//LECTURA ANTERIOR
 6838              		.loc 1 1260 0 discriminator 3
 6839 2870 A04A     		ldr	r2, .L620
 6840 2872 1344     		add	r3, r3, r2
 6841 2874 2046     		mov	r0, r4
 6842 2876 197E     		ldrb	r1, [r3, #24]	@ zero_extendqisi2
 6843 2878 FFF7FEFF 		bl	write_psoc1
 6844              	.LVL486:
1259:.\Protocolo.c **** 						for(x=0;x<=16;x++){												
 6845              		.loc 1 1259 0 discriminator 3
 6846 287c 9E4A     		ldr	r2, .L620+4
 6847 287e 1368     		ldr	r3, [r2]
 6848 2880 0133     		adds	r3, r3, #1
 6849 2882 1360     		str	r3, [r2]
 6850              	.L473:
1259:.\Protocolo.c **** 						for(x=0;x<=16;x++){												
 6851              		.loc 1 1259 0 is_stmt 0 discriminator 1
 6852 2884 9C4B     		ldr	r3, .L620+4
 6853 2886 1B68     		ldr	r3, [r3]
 6854 2888 102B     		cmp	r3, #16
 6855 288a F1D9     		bls	.L474
1261:.\Protocolo.c **** 						}
1262:.\Protocolo.c **** 						write_psoc1(val,10);
 6856              		.loc 1 1262 0 is_stmt 1
 6857 288c 2046     		mov	r0, r4
 6858 288e 0A21     		movs	r1, #10
 6859 2890 FFF7FEFF 		bl	write_psoc1
 6860              	.LVL487:
1263:.\Protocolo.c **** 						if(dir==lado.a.dir){
 6861              		.loc 1 1263 0
 6862 2894 994B     		ldr	r3, .L620+8
 6863 2896 1B78     		ldrb	r3, [r3]	@ zero_extendqisi2
 6864 2898 AB42     		cmp	r3, r5
 6865 289a 05D1     		bne	.L475
1264:.\Protocolo.c **** 							leer_eeprom(1096,25);
 6866              		.loc 1 1264 0
 6867 289c 4FF48960 		mov	r0, #1096
ARM GAS  C:\Users\IN-002~1\AppData\Local\Temp\ccxO8rjh.s 			page 150


 6868 28a0 1921     		movs	r1, #25
 6869 28a2 FFF7FEFF 		bl	leer_eeprom
 6870              	.LVL488:
 6871 28a6 04E0     		b	.L476
 6872              	.L475:
1265:.\Protocolo.c **** 						}
1266:.\Protocolo.c **** 						else{
1267:.\Protocolo.c **** 							leer_eeprom(1054,25);
 6873              		.loc 1 1267 0
 6874 28a8 40F21E40 		movw	r0, #1054
 6875 28ac 1921     		movs	r1, #25
 6876 28ae FFF7FEFF 		bl	leer_eeprom
 6877              	.LVL489:
 6878              	.L476:
1268:.\Protocolo.c **** 						}
1269:.\Protocolo.c **** 						print_totales(val);
 6879              		.loc 1 1269 0
 6880 28b2 2046     		mov	r0, r4
 6881 28b4 FFF7FEFF 		bl	print_totales
 6882              	.LVL490:
1270:.\Protocolo.c **** 						for(z=1;z<=12;z++){
 6883              		.loc 1 1270 0
 6884 28b8 0122     		movs	r2, #1
 6885 28ba 914B     		ldr	r3, .L620+12
 6886 28bc 1A60     		str	r2, [r3]
 6887 28be 10E0     		b	.L477
 6888              	.L478:
1271:.\Protocolo.c **** 							minuendo[z]=rventa.tdinero[z-1];
 6889              		.loc 1 1271 0 discriminator 3
 6890 28c0 904A     		ldr	r2, .L620+16
 6891 28c2 1A44     		add	r2, r2, r3
 6892 28c4 92F8CA10 		ldrb	r1, [r2, #202]	@ zero_extendqisi2
 6893 28c8 10AA     		add	r2, sp, #64
 6894 28ca 1A44     		add	r2, r2, r3
 6895 28cc 02F82C1C 		strb	r1, [r2, #-44]
1272:.\Protocolo.c **** 							sustraendo[z]=buffer_i2c[z+12];
 6896              		.loc 1 1272 0 discriminator 3
 6897 28d0 03F10C01 		add	r1, r3, #12
 6898 28d4 8C48     		ldr	r0, .L620+20
 6899 28d6 415C     		ldrb	r1, [r0, r1]	@ zero_extendqisi2
 6900 28d8 02F83C1C 		strb	r1, [r2, #-60]
1270:.\Protocolo.c **** 						for(z=1;z<=12;z++){
 6901              		.loc 1 1270 0 discriminator 3
 6902 28dc 0133     		adds	r3, r3, #1
 6903 28de 884A     		ldr	r2, .L620+12
 6904 28e0 1360     		str	r3, [r2]
 6905              	.L477:
1270:.\Protocolo.c **** 						for(z=1;z<=12;z++){
 6906              		.loc 1 1270 0 is_stmt 0 discriminator 1
 6907 28e2 874B     		ldr	r3, .L620+12
 6908 28e4 1B68     		ldr	r3, [r3]
 6909 28e6 0C2B     		cmp	r3, #12
 6910 28e8 EAD9     		bls	.L478
1273:.\Protocolo.c **** 						}
1274:.\Protocolo.c **** 						minuendo[0]=12;
 6911              		.loc 1 1274 0 is_stmt 1
 6912 28ea 10A9     		add	r1, sp, #64
ARM GAS  C:\Users\IN-002~1\AppData\Local\Temp\ccxO8rjh.s 			page 151


 6913 28ec 0C23     		movs	r3, #12
 6914 28ee 01F82C3D 		strb	r3, [r1, #-44]!
1275:.\Protocolo.c **** 						operacion(2,minuendo,sustraendo);
 6915              		.loc 1 1275 0
 6916 28f2 0220     		movs	r0, #2
 6917 28f4 01AA     		add	r2, sp, #4
 6918 28f6 FFF7FEFF 		bl	operacion
 6919              	.LVL491:
1276:.\Protocolo.c **** 						for(x=0;x<=17;x++){									
 6920              		.loc 1 1276 0
 6921 28fa 0022     		movs	r2, #0
 6922 28fc 7E4B     		ldr	r3, .L620+4
 6923 28fe 1A60     		str	r2, [r3]
 6924 2900 0AE0     		b	.L479
 6925              	.L480:
1277:.\Protocolo.c **** 							write_psoc1(val,msn_tventas[x]);				//Total de ventas
 6926              		.loc 1 1277 0 discriminator 3
 6927 2902 7C4A     		ldr	r2, .L620
 6928 2904 1344     		add	r3, r3, r2
 6929 2906 2046     		mov	r0, r4
 6930 2908 93F82C10 		ldrb	r1, [r3, #44]	@ zero_extendqisi2
 6931 290c FFF7FEFF 		bl	write_psoc1
 6932              	.LVL492:
1276:.\Protocolo.c **** 						for(x=0;x<=17;x++){									
 6933              		.loc 1 1276 0 discriminator 3
 6934 2910 794A     		ldr	r2, .L620+4
 6935 2912 1368     		ldr	r3, [r2]
 6936 2914 0133     		adds	r3, r3, #1
 6937 2916 1360     		str	r3, [r2]
 6938              	.L479:
1276:.\Protocolo.c **** 						for(x=0;x<=17;x++){									
 6939              		.loc 1 1276 0 is_stmt 0 discriminator 1
 6940 2918 774B     		ldr	r3, .L620+4
 6941 291a 1B68     		ldr	r3, [r3]
 6942 291c 112B     		cmp	r3, #17
 6943 291e F0D9     		bls	.L480
1278:.\Protocolo.c **** 						}
1279:.\Protocolo.c **** 						print_valor(resultado,val);							
 6944              		.loc 1 1279 0 is_stmt 1
 6945 2920 7A48     		ldr	r0, .L620+24
 6946 2922 2146     		mov	r1, r4
 6947 2924 FFF7FEFF 		bl	print_valor
 6948              	.LVL493:
1280:.\Protocolo.c **** 						if(dir==lado.a.dir){
 6949              		.loc 1 1280 0
 6950 2928 744B     		ldr	r3, .L620+8
 6951 292a 1B78     		ldrb	r3, [r3]	@ zero_extendqisi2
 6952 292c AB42     		cmp	r3, r5
 6953 292e 0AD1     		bne	.L481
1281:.\Protocolo.c **** 						    write_eeprom(1096,corte);
 6954              		.loc 1 1281 0
 6955 2930 4FF48960 		mov	r0, #1096
 6956 2934 09A9     		add	r1, sp, #36
 6957 2936 FFF7FEFF 		bl	write_eeprom
 6958              	.LVL494:
1282:.\Protocolo.c **** 						    write_eeprom(1038,resultado);
 6959              		.loc 1 1282 0
ARM GAS  C:\Users\IN-002~1\AppData\Local\Temp\ccxO8rjh.s 			page 152


 6960 293a 40F20E40 		movw	r0, #1038
 6961 293e 7349     		ldr	r1, .L620+24
 6962 2940 FFF7FEFF 		bl	write_eeprom
 6963              	.LVL495:
 6964 2944 09E0     		b	.L466
 6965              	.L481:
1283:.\Protocolo.c **** 					    }
1284:.\Protocolo.c **** 					    else{
1285:.\Protocolo.c **** 						    write_eeprom(1054,corte);
 6966              		.loc 1 1285 0
 6967 2946 40F21E40 		movw	r0, #1054
 6968 294a 09A9     		add	r1, sp, #36
 6969 294c FFF7FEFF 		bl	write_eeprom
 6970              	.LVL496:
1286:.\Protocolo.c **** 						    write_eeprom(1081,resultado);
 6971              		.loc 1 1286 0
 6972 2950 40F23940 		movw	r0, #1081
 6973 2954 6D49     		ldr	r1, .L620+24
 6974 2956 FFF7FEFF 		bl	write_eeprom
 6975              	.LVL497:
 6976              	.L466:
1097:.\Protocolo.c **** 					rventa.manguera=(Surtidor_rxBuffer[y+2]&0x0F)+1;
 6977              		.loc 1 1097 0 discriminator 2
 6978 295a 6D4A     		ldr	r2, .L620+28
 6979 295c 1368     		ldr	r3, [r2]
 6980 295e 2A33     		adds	r3, r3, #42
 6981 2960 1360     		str	r3, [r2]
 6982              	.L401:
1097:.\Protocolo.c **** 					rventa.manguera=(Surtidor_rxBuffer[y+2]&0x0F)+1;
 6983              		.loc 1 1097 0 is_stmt 0 discriminator 1
 6984 2962 6B4B     		ldr	r3, .L620+28
 6985 2964 1E68     		ldr	r6, [r3]
 6986 2966 2A2E     		cmp	r6, #42
 6987 2968 7FF6FCAB 		bls	.L482
1287:.\Protocolo.c **** 				        }					
1288:.\Protocolo.c **** 					}
1289:.\Protocolo.c **** 				}
1290:.\Protocolo.c **** 				Surtidor_ClearRxBuffer();
 6988              		.loc 1 1290 0 is_stmt 1
 6989 296c FFF7FEFF 		bl	Surtidor_ClearRxBuffer
 6990              	.LVL498:
1291:.\Protocolo.c **** 				return 2;					
 6991              		.loc 1 1291 0
 6992 2970 0220     		movs	r0, #2
 6993 2972 00F06DBC 		b	.L76
 6994              	.L74:
1292:.\Protocolo.c **** 			}			
1293:.\Protocolo.c **** 			else{
1294:.\Protocolo.c **** 				return 0;
1295:.\Protocolo.c **** 			}			
1296:.\Protocolo.c **** 		break;
1297:.\Protocolo.c **** 		
1298:.\Protocolo.c **** 		case 130:
1299:.\Protocolo.c **** 			if((Surtidor_rxBuffer[0]==0xFF)&&(Surtidor_rxBuffer[1]==0xF6)&&(Surtidor_rxBuffer[129]==0xF0)&&(
 6995              		.loc 1 1299 0
 6996 2976 674B     		ldr	r3, .L620+32
 6997 2978 1B78     		ldrb	r3, [r3]	@ zero_extendqisi2
ARM GAS  C:\Users\IN-002~1\AppData\Local\Temp\ccxO8rjh.s 			page 153


 6998 297a DBB2     		uxtb	r3, r3
 6999 297c FF2B     		cmp	r3, #255
 7000 297e 40F06084 		bne	.L587
 7001              		.loc 1 1299 0 is_stmt 0 discriminator 1
 7002 2982 644B     		ldr	r3, .L620+32
 7003 2984 5B78     		ldrb	r3, [r3, #1]	@ zero_extendqisi2
 7004 2986 DBB2     		uxtb	r3, r3
 7005 2988 F62B     		cmp	r3, #246
 7006 298a 40F05C84 		bne	.L588
 7007              		.loc 1 1299 0 discriminator 2
 7008 298e 614B     		ldr	r3, .L620+32
 7009 2990 93F88130 		ldrb	r3, [r3, #129]	@ zero_extendqisi2
 7010 2994 DBB2     		uxtb	r3, r3
 7011 2996 F02B     		cmp	r3, #240
 7012 2998 40F05784 		bne	.L589
 7013              		.loc 1 1299 0 discriminator 3
 7014 299c 5D4B     		ldr	r3, .L620+32
 7015 299e DB78     		ldrb	r3, [r3, #3]	@ zero_extendqisi2
 7016 29a0 DBB2     		uxtb	r3, r3
 7017 29a2 F92B     		cmp	r3, #249
 7018 29a4 40F05384 		bne	.L590
1300:.\Protocolo.c **** 				for(y=0;y<=84;y+=42){
 7019              		.loc 1 1300 0 is_stmt 1
 7020 29a8 0022     		movs	r2, #0
 7021 29aa 594B     		ldr	r3, .L620+28
 7022 29ac 1A60     		str	r2, [r3]
 7023 29ae 00F002BC 		b	.L483
 7024              	.L564:
1301:.\Protocolo.c **** 					rventa.manguera=(Surtidor_rxBuffer[y+2]&0x0F)+1;
 7025              		.loc 1 1301 0
 7026 29b2 B31C     		adds	r3, r6, #2
 7027 29b4 574A     		ldr	r2, .L620+32
 7028 29b6 D15C     		ldrb	r1, [r2, r3]	@ zero_extendqisi2
 7029 29b8 01F00F01 		and	r1, r1, #15
 7030 29bc 0131     		adds	r1, r1, #1
 7031 29be 564B     		ldr	r3, .L620+36
 7032 29c0 83F8E010 		strb	r1, [r3, #224]
1302:.\Protocolo.c **** 					for(x=0;x<=11;x++){
 7033              		.loc 1 1302 0
 7034 29c4 0022     		movs	r2, #0
 7035 29c6 4C4B     		ldr	r3, .L620+4
 7036 29c8 1A60     		str	r2, [r3]
 7037 29ca 0CE0     		b	.L484
 7038              	.L485:
1303:.\Protocolo.c **** 						rventa.tvolumen[x]=(Surtidor_rxBuffer[y+4+x]&0x0F);
 7039              		.loc 1 1303 0 discriminator 3
 7040 29cc F218     		adds	r2, r6, r3
 7041 29ce 0432     		adds	r2, r2, #4
 7042 29d0 5048     		ldr	r0, .L620+32
 7043 29d2 805C     		ldrb	r0, [r0, r2]	@ zero_extendqisi2
 7044 29d4 504A     		ldr	r2, .L620+36
 7045 29d6 1A44     		add	r2, r2, r3
 7046 29d8 00F00F00 		and	r0, r0, #15
 7047 29dc 82F8BD00 		strb	r0, [r2, #189]
1302:.\Protocolo.c **** 					for(x=0;x<=11;x++){
 7048              		.loc 1 1302 0 discriminator 3
 7049 29e0 0133     		adds	r3, r3, #1
ARM GAS  C:\Users\IN-002~1\AppData\Local\Temp\ccxO8rjh.s 			page 154


 7050 29e2 454A     		ldr	r2, .L620+4
 7051 29e4 1360     		str	r3, [r2]
 7052              	.L484:
1302:.\Protocolo.c **** 					for(x=0;x<=11;x++){
 7053              		.loc 1 1302 0 is_stmt 0 discriminator 1
 7054 29e6 444B     		ldr	r3, .L620+4
 7055 29e8 1B68     		ldr	r3, [r3]
 7056 29ea 0B2B     		cmp	r3, #11
 7057 29ec EED9     		bls	.L485
1304:.\Protocolo.c **** 					}
1305:.\Protocolo.c **** 					for(x=0;x<=11;x++){
 7058              		.loc 1 1305 0 is_stmt 1
 7059 29ee 0022     		movs	r2, #0
 7060 29f0 414B     		ldr	r3, .L620+4
 7061 29f2 1A60     		str	r2, [r3]
 7062 29f4 0CE0     		b	.L486
 7063              	.L487:
1306:.\Protocolo.c **** 						rventa.tdinero[x]=(Surtidor_rxBuffer[y+17+x]&0x0F);
 7064              		.loc 1 1306 0 discriminator 3
 7065 29f6 F218     		adds	r2, r6, r3
 7066 29f8 1132     		adds	r2, r2, #17
 7067 29fa 4648     		ldr	r0, .L620+32
 7068 29fc 805C     		ldrb	r0, [r0, r2]	@ zero_extendqisi2
 7069 29fe 464A     		ldr	r2, .L620+36
 7070 2a00 1A44     		add	r2, r2, r3
 7071 2a02 00F00F00 		and	r0, r0, #15
 7072 2a06 82F8CA00 		strb	r0, [r2, #202]
1305:.\Protocolo.c **** 						rventa.tdinero[x]=(Surtidor_rxBuffer[y+17+x]&0x0F);
 7073              		.loc 1 1305 0 discriminator 3
 7074 2a0a 0133     		adds	r3, r3, #1
 7075 2a0c 3A4A     		ldr	r2, .L620+4
 7076 2a0e 1360     		str	r3, [r2]
 7077              	.L486:
1305:.\Protocolo.c **** 						rventa.tdinero[x]=(Surtidor_rxBuffer[y+17+x]&0x0F);
 7078              		.loc 1 1305 0 is_stmt 0 discriminator 1
 7079 2a10 394B     		ldr	r3, .L620+4
 7080 2a12 1B68     		ldr	r3, [r3]
 7081 2a14 0B2B     		cmp	r3, #11
 7082 2a16 EED9     		bls	.L487
1307:.\Protocolo.c **** 					}
1308:.\Protocolo.c **** 					for(z=0;z<=11;z++){
 7083              		.loc 1 1308 0 is_stmt 1
 7084 2a18 0022     		movs	r2, #0
 7085 2a1a 394B     		ldr	r3, .L620+12
 7086 2a1c 1A60     		str	r2, [r3]
 7087 2a1e 0AE0     		b	.L488
 7088              	.L489:
1309:.\Protocolo.c **** 						corte[z+1]=rventa.tvolumen[z];
 7089              		.loc 1 1309 0 discriminator 3
 7090 2a20 5A1C     		adds	r2, r3, #1
 7091 2a22 3D48     		ldr	r0, .L620+36
 7092 2a24 0344     		add	r3, r3, r0
 7093 2a26 93F8BD00 		ldrb	r0, [r3, #189]	@ zero_extendqisi2
 7094 2a2a 10AB     		add	r3, sp, #64
 7095 2a2c 1344     		add	r3, r3, r2
 7096 2a2e 03F81C0C 		strb	r0, [r3, #-28]
1308:.\Protocolo.c **** 						corte[z+1]=rventa.tvolumen[z];
ARM GAS  C:\Users\IN-002~1\AppData\Local\Temp\ccxO8rjh.s 			page 155


 7097              		.loc 1 1308 0 discriminator 3
 7098 2a32 334B     		ldr	r3, .L620+12
 7099 2a34 1A60     		str	r2, [r3]
 7100              	.L488:
1308:.\Protocolo.c **** 						corte[z+1]=rventa.tvolumen[z];
 7101              		.loc 1 1308 0 is_stmt 0 discriminator 1
 7102 2a36 324B     		ldr	r3, .L620+12
 7103 2a38 1B68     		ldr	r3, [r3]
 7104 2a3a 0B2B     		cmp	r3, #11
 7105 2a3c F0D9     		bls	.L489
1310:.\Protocolo.c **** 					}
1311:.\Protocolo.c **** 					for(z=13;z<=24;z++){
 7106              		.loc 1 1311 0 is_stmt 1
 7107 2a3e 0D22     		movs	r2, #13
 7108 2a40 2F4B     		ldr	r3, .L620+12
 7109 2a42 1A60     		str	r2, [r3]
 7110 2a44 0AE0     		b	.L490
 7111              	.L491:
1312:.\Protocolo.c **** 						corte[z]=rventa.tdinero[z-13];
 7112              		.loc 1 1312 0 discriminator 3
 7113 2a46 354A     		ldr	r2, .L620+40
 7114 2a48 1A44     		add	r2, r2, r3
 7115 2a4a 92F8CA00 		ldrb	r0, [r2, #202]	@ zero_extendqisi2
 7116 2a4e 10AA     		add	r2, sp, #64
 7117 2a50 1A44     		add	r2, r2, r3
 7118 2a52 02F81C0C 		strb	r0, [r2, #-28]
1311:.\Protocolo.c **** 						corte[z]=rventa.tdinero[z-13];
 7119              		.loc 1 1311 0 discriminator 3
 7120 2a56 0133     		adds	r3, r3, #1
 7121 2a58 294A     		ldr	r2, .L620+12
 7122 2a5a 1360     		str	r3, [r2]
 7123              	.L490:
1311:.\Protocolo.c **** 						corte[z]=rventa.tdinero[z-13];
 7124              		.loc 1 1311 0 is_stmt 0 discriminator 1
 7125 2a5c 284B     		ldr	r3, .L620+12
 7126 2a5e 1B68     		ldr	r3, [r3]
 7127 2a60 182B     		cmp	r3, #24
 7128 2a62 F0D9     		bls	.L491
1313:.\Protocolo.c **** 					}
1314:.\Protocolo.c **** 					corte[0]=24;				
 7129              		.loc 1 1314 0 is_stmt 1
 7130 2a64 1823     		movs	r3, #24
 7131 2a66 8DF82430 		strb	r3, [sp, #36]
1315:.\Protocolo.c **** 					if(((rventa.manguera==(corriente&0x0F))&&(dir==lado.a.dir))||((rventa.manguera==(corriente2&0x
 7132              		.loc 1 1315 0
 7133 2a6a 2D4B     		ldr	r3, .L620+44
 7134 2a6c 1B78     		ldrb	r3, [r3]	@ zero_extendqisi2
 7135 2a6e 03F00F03 		and	r3, r3, #15
 7136 2a72 8B42     		cmp	r3, r1
 7137 2a74 03D1     		bne	.L492
 7138              		.loc 1 1315 0 is_stmt 0 discriminator 1
 7139 2a76 214B     		ldr	r3, .L620+8
 7140 2a78 1B78     		ldrb	r3, [r3]	@ zero_extendqisi2
 7141 2a7a AB42     		cmp	r3, r5
 7142 2a7c 0BD0     		beq	.L493
 7143              	.L492:
 7144              		.loc 1 1315 0 discriminator 3
ARM GAS  C:\Users\IN-002~1\AppData\Local\Temp\ccxO8rjh.s 			page 156


 7145 2a7e 294B     		ldr	r3, .L620+48
 7146 2a80 1B78     		ldrb	r3, [r3]	@ zero_extendqisi2
 7147 2a82 03F00F03 		and	r3, r3, #15
 7148 2a86 9942     		cmp	r1, r3
 7149 2a88 40F0DD80 		bne	.L494
 7150              		.loc 1 1315 0 discriminator 4
 7151 2a8c 1B4B     		ldr	r3, .L620+8
 7152 2a8e 1B79     		ldrb	r3, [r3, #4]	@ zero_extendqisi2
 7153 2a90 AB42     		cmp	r3, r5
 7154 2a92 40F0D880 		bne	.L494
 7155              	.L493:
1316:.\Protocolo.c **** 						for(x=0;x<=5;x++){									
 7156              		.loc 1 1316 0 is_stmt 1
 7157 2a96 0022     		movs	r2, #0
 7158 2a98 174B     		ldr	r3, .L620+4
 7159 2a9a 1A60     		str	r2, [r3]
 7160 2a9c 08E0     		b	.L495
 7161              	.L496:
1317:.\Protocolo.c **** 							write_psoc1(val,msn_tc[x]);
 7162              		.loc 1 1317 0 discriminator 3
 7163 2a9e 2046     		mov	r0, r4
 7164 2aa0 144A     		ldr	r2, .L620
 7165 2aa2 D15C     		ldrb	r1, [r2, r3]	@ zero_extendqisi2
 7166 2aa4 FFF7FEFF 		bl	write_psoc1
 7167              	.LVL499:
1316:.\Protocolo.c **** 						for(x=0;x<=5;x++){									
 7168              		.loc 1 1316 0 discriminator 3
 7169 2aa8 134A     		ldr	r2, .L620+4
 7170 2aaa 1368     		ldr	r3, [r2]
 7171 2aac 0133     		adds	r3, r3, #1
 7172 2aae 1360     		str	r3, [r2]
 7173              	.L495:
1316:.\Protocolo.c **** 						for(x=0;x<=5;x++){									
 7174              		.loc 1 1316 0 is_stmt 0 discriminator 1
 7175 2ab0 114B     		ldr	r3, .L620+4
 7176 2ab2 1B68     		ldr	r3, [r3]
 7177 2ab4 052B     		cmp	r3, #5
 7178 2ab6 F2D9     		bls	.L496
1318:.\Protocolo.c **** 						}
1319:.\Protocolo.c **** 						write_psoc1(val,10);
 7179              		.loc 1 1319 0 is_stmt 1
 7180 2ab8 2046     		mov	r0, r4
 7181 2aba 0A21     		movs	r1, #10
 7182 2abc FFF7FEFF 		bl	write_psoc1
 7183              	.LVL500:
1320:.\Protocolo.c ****                         for(x=0;x<=10;x++){									
 7184              		.loc 1 1320 0
 7185 2ac0 0022     		movs	r2, #0
 7186 2ac2 0D4B     		ldr	r3, .L620+4
 7187 2ac4 1A60     		str	r2, [r3]
 7188 2ac6 08E0     		b	.L497
 7189              	.L498:
1321:.\Protocolo.c **** 						write_psoc1(val,producto1n[x]);
 7190              		.loc 1 1321 0 discriminator 3
 7191 2ac8 2046     		mov	r0, r4
 7192 2aca 174A     		ldr	r2, .L620+52
 7193 2acc D15C     		ldrb	r1, [r2, r3]	@ zero_extendqisi2
ARM GAS  C:\Users\IN-002~1\AppData\Local\Temp\ccxO8rjh.s 			page 157


 7194 2ace FFF7FEFF 		bl	write_psoc1
 7195              	.LVL501:
1320:.\Protocolo.c ****                         for(x=0;x<=10;x++){									
 7196              		.loc 1 1320 0 discriminator 3
 7197 2ad2 094A     		ldr	r2, .L620+4
 7198 2ad4 1368     		ldr	r3, [r2]
 7199 2ad6 0133     		adds	r3, r3, #1
 7200 2ad8 1360     		str	r3, [r2]
 7201              	.L497:
1320:.\Protocolo.c ****                         for(x=0;x<=10;x++){									
 7202              		.loc 1 1320 0 is_stmt 0 discriminator 1
 7203 2ada 074B     		ldr	r3, .L620+4
 7204 2adc 1B68     		ldr	r3, [r3]
 7205 2ade 0A2B     		cmp	r3, #10
 7206 2ae0 F2D9     		bls	.L498
1322:.\Protocolo.c **** 					    }
1323:.\Protocolo.c ****                         write_psoc1(val,10);
 7207              		.loc 1 1323 0 is_stmt 1
 7208 2ae2 2046     		mov	r0, r4
 7209 2ae4 0A21     		movs	r1, #10
 7210 2ae6 FFF7FEFF 		bl	write_psoc1
 7211              	.LVL502:
1324:.\Protocolo.c **** 						for(x=0;x<=14;x++){									
 7212              		.loc 1 1324 0
 7213 2aea 0022     		movs	r2, #0
 7214 2aec 024B     		ldr	r3, .L620+4
 7215 2aee 1A60     		str	r2, [r3]
 7216 2af0 26E0     		b	.L499
 7217              	.L621:
 7218 2af2 00BF     		.align	2
 7219              	.L620:
 7220 2af4 00000000 		.word	.LANCHOR1
 7221 2af8 00000000 		.word	x
 7222 2afc 00000000 		.word	lado
 7223 2b00 00000000 		.word	z
 7224 2b04 FFFFFFFF 		.word	rventa-1
 7225 2b08 00000000 		.word	buffer_i2c
 7226 2b0c 00000000 		.word	resultado
 7227 2b10 00000000 		.word	y
 7228 2b14 00000000 		.word	Surtidor_rxBuffer
 7229 2b18 00000000 		.word	rventa
 7230 2b1c F3FFFFFF 		.word	rventa-13
 7231 2b20 00000000 		.word	corriente
 7232 2b24 00000000 		.word	corriente2
 7233 2b28 00000000 		.word	producto1n
 7234              	.L500:
1325:.\Protocolo.c **** 							write_psoc1(val,msn_lecact[x]);				//LECTURA ACTUAL
 7235              		.loc 1 1325 0 discriminator 3
 7236 2b2c AB4A     		ldr	r2, .L622
 7237 2b2e 1344     		add	r3, r3, r2
 7238 2b30 2046     		mov	r0, r4
 7239 2b32 197A     		ldrb	r1, [r3, #8]	@ zero_extendqisi2
 7240 2b34 FFF7FEFF 		bl	write_psoc1
 7241              	.LVL503:
1324:.\Protocolo.c **** 						for(x=0;x<=14;x++){									
 7242              		.loc 1 1324 0 discriminator 3
 7243 2b38 A94A     		ldr	r2, .L622+4
ARM GAS  C:\Users\IN-002~1\AppData\Local\Temp\ccxO8rjh.s 			page 158


 7244 2b3a 1368     		ldr	r3, [r2]
 7245 2b3c 0133     		adds	r3, r3, #1
 7246 2b3e 1360     		str	r3, [r2]
 7247              	.L499:
1324:.\Protocolo.c **** 						for(x=0;x<=14;x++){									
 7248              		.loc 1 1324 0 is_stmt 0 discriminator 1
 7249 2b40 A74B     		ldr	r3, .L622+4
 7250 2b42 1B68     		ldr	r3, [r3]
 7251 2b44 0E2B     		cmp	r3, #14
 7252 2b46 F1D9     		bls	.L500
1326:.\Protocolo.c **** 						}
1327:.\Protocolo.c **** 						write_psoc1(val,10);
 7253              		.loc 1 1327 0 is_stmt 1
 7254 2b48 2046     		mov	r0, r4
 7255 2b4a 0A21     		movs	r1, #10
 7256 2b4c FFF7FEFF 		bl	write_psoc1
 7257              	.LVL504:
1328:.\Protocolo.c **** 						print_totalesac(12,val);	
 7258              		.loc 1 1328 0
 7259 2b50 0C20     		movs	r0, #12
 7260 2b52 2146     		mov	r1, r4
 7261 2b54 FFF7FEFF 		bl	print_totalesac
 7262              	.LVL505:
1329:.\Protocolo.c **** 						for(x=0;x<=16;x++){												
 7263              		.loc 1 1329 0
 7264 2b58 0022     		movs	r2, #0
 7265 2b5a A14B     		ldr	r3, .L622+4
 7266 2b5c 1A60     		str	r2, [r3]
 7267 2b5e 09E0     		b	.L501
 7268              	.L502:
1330:.\Protocolo.c **** 							write_psoc1(val,msn_lecaan[x]);				//LECTURA ANTERIOR
 7269              		.loc 1 1330 0 discriminator 3
 7270 2b60 9E4A     		ldr	r2, .L622
 7271 2b62 1344     		add	r3, r3, r2
 7272 2b64 2046     		mov	r0, r4
 7273 2b66 197E     		ldrb	r1, [r3, #24]	@ zero_extendqisi2
 7274 2b68 FFF7FEFF 		bl	write_psoc1
 7275              	.LVL506:
1329:.\Protocolo.c **** 						for(x=0;x<=16;x++){												
 7276              		.loc 1 1329 0 discriminator 3
 7277 2b6c 9C4A     		ldr	r2, .L622+4
 7278 2b6e 1368     		ldr	r3, [r2]
 7279 2b70 0133     		adds	r3, r3, #1
 7280 2b72 1360     		str	r3, [r2]
 7281              	.L501:
1329:.\Protocolo.c **** 						for(x=0;x<=16;x++){												
 7282              		.loc 1 1329 0 is_stmt 0 discriminator 1
 7283 2b74 9A4B     		ldr	r3, .L622+4
 7284 2b76 1B68     		ldr	r3, [r3]
 7285 2b78 102B     		cmp	r3, #16
 7286 2b7a F1D9     		bls	.L502
1331:.\Protocolo.c **** 						}
1332:.\Protocolo.c **** 						write_psoc1(val,10);
 7287              		.loc 1 1332 0 is_stmt 1
 7288 2b7c 2046     		mov	r0, r4
 7289 2b7e 0A21     		movs	r1, #10
 7290 2b80 FFF7FEFF 		bl	write_psoc1
ARM GAS  C:\Users\IN-002~1\AppData\Local\Temp\ccxO8rjh.s 			page 159


 7291              	.LVL507:
1333:.\Protocolo.c **** 						if(dir==lado.a.dir){
 7292              		.loc 1 1333 0
 7293 2b84 974B     		ldr	r3, .L622+8
 7294 2b86 1B78     		ldrb	r3, [r3]	@ zero_extendqisi2
 7295 2b88 AB42     		cmp	r3, r5
 7296 2b8a 04D1     		bne	.L503
1334:.\Protocolo.c **** 							leer_eeprom(192,25);
 7297              		.loc 1 1334 0
 7298 2b8c C020     		movs	r0, #192
 7299 2b8e 1921     		movs	r1, #25
 7300 2b90 FFF7FEFF 		bl	leer_eeprom
 7301              	.LVL508:
 7302 2b94 04E0     		b	.L504
 7303              	.L503:
1335:.\Protocolo.c **** 						}
1336:.\Protocolo.c **** 						else{
1337:.\Protocolo.c **** 							leer_eeprom(281,25);
 7304              		.loc 1 1337 0
 7305 2b96 40F21910 		movw	r0, #281
 7306 2b9a 1921     		movs	r1, #25
 7307 2b9c FFF7FEFF 		bl	leer_eeprom
 7308              	.LVL509:
 7309              	.L504:
1338:.\Protocolo.c **** 						}
1339:.\Protocolo.c **** 						print_totales(val);
 7310              		.loc 1 1339 0
 7311 2ba0 2046     		mov	r0, r4
 7312 2ba2 FFF7FEFF 		bl	print_totales
 7313              	.LVL510:
1340:.\Protocolo.c **** 						for(z=1;z<=12;z++){
 7314              		.loc 1 1340 0
 7315 2ba6 0122     		movs	r2, #1
 7316 2ba8 8F4B     		ldr	r3, .L622+12
 7317 2baa 1A60     		str	r2, [r3]
 7318 2bac 10E0     		b	.L505
 7319              	.L506:
1341:.\Protocolo.c **** 							minuendo[z]=rventa.tdinero[z-1];
 7320              		.loc 1 1341 0 discriminator 3
 7321 2bae 8F4A     		ldr	r2, .L622+16
 7322 2bb0 1A44     		add	r2, r2, r3
 7323 2bb2 92F8CA10 		ldrb	r1, [r2, #202]	@ zero_extendqisi2
 7324 2bb6 10AA     		add	r2, sp, #64
 7325 2bb8 1A44     		add	r2, r2, r3
 7326 2bba 02F82C1C 		strb	r1, [r2, #-44]
1342:.\Protocolo.c **** 							sustraendo[z]=buffer_i2c[z+12];
 7327              		.loc 1 1342 0 discriminator 3
 7328 2bbe 03F10C01 		add	r1, r3, #12
 7329 2bc2 8B48     		ldr	r0, .L622+20
 7330 2bc4 415C     		ldrb	r1, [r0, r1]	@ zero_extendqisi2
 7331 2bc6 02F83C1C 		strb	r1, [r2, #-60]
1340:.\Protocolo.c **** 						for(z=1;z<=12;z++){
 7332              		.loc 1 1340 0 discriminator 3
 7333 2bca 0133     		adds	r3, r3, #1
 7334 2bcc 864A     		ldr	r2, .L622+12
 7335 2bce 1360     		str	r3, [r2]
 7336              	.L505:
ARM GAS  C:\Users\IN-002~1\AppData\Local\Temp\ccxO8rjh.s 			page 160


1340:.\Protocolo.c **** 						for(z=1;z<=12;z++){
 7337              		.loc 1 1340 0 is_stmt 0 discriminator 1
 7338 2bd0 854B     		ldr	r3, .L622+12
 7339 2bd2 1B68     		ldr	r3, [r3]
 7340 2bd4 0C2B     		cmp	r3, #12
 7341 2bd6 EAD9     		bls	.L506
1343:.\Protocolo.c **** 						}
1344:.\Protocolo.c **** 						minuendo[0]=12;
 7342              		.loc 1 1344 0 is_stmt 1
 7343 2bd8 10A9     		add	r1, sp, #64
 7344 2bda 0C23     		movs	r3, #12
 7345 2bdc 01F82C3D 		strb	r3, [r1, #-44]!
1345:.\Protocolo.c **** 						operacion(2,minuendo,sustraendo);
 7346              		.loc 1 1345 0
 7347 2be0 0220     		movs	r0, #2
 7348 2be2 01AA     		add	r2, sp, #4
 7349 2be4 FFF7FEFF 		bl	operacion
 7350              	.LVL511:
1346:.\Protocolo.c **** 						for(x=0;x<=17;x++){									
 7351              		.loc 1 1346 0
 7352 2be8 0022     		movs	r2, #0
 7353 2bea 7D4B     		ldr	r3, .L622+4
 7354 2bec 1A60     		str	r2, [r3]
 7355 2bee 0AE0     		b	.L507
 7356              	.L508:
1347:.\Protocolo.c **** 							write_psoc1(val,msn_tventas[x]);				//Total de ventas
 7357              		.loc 1 1347 0 discriminator 3
 7358 2bf0 7A4A     		ldr	r2, .L622
 7359 2bf2 1344     		add	r3, r3, r2
 7360 2bf4 2046     		mov	r0, r4
 7361 2bf6 93F82C10 		ldrb	r1, [r3, #44]	@ zero_extendqisi2
 7362 2bfa FFF7FEFF 		bl	write_psoc1
 7363              	.LVL512:
1346:.\Protocolo.c **** 						for(x=0;x<=17;x++){									
 7364              		.loc 1 1346 0 discriminator 3
 7365 2bfe 784A     		ldr	r2, .L622+4
 7366 2c00 1368     		ldr	r3, [r2]
 7367 2c02 0133     		adds	r3, r3, #1
 7368 2c04 1360     		str	r3, [r2]
 7369              	.L507:
1346:.\Protocolo.c **** 						for(x=0;x<=17;x++){									
 7370              		.loc 1 1346 0 is_stmt 0 discriminator 1
 7371 2c06 764B     		ldr	r3, .L622+4
 7372 2c08 1B68     		ldr	r3, [r3]
 7373 2c0a 112B     		cmp	r3, #17
 7374 2c0c F0D9     		bls	.L508
1348:.\Protocolo.c **** 						}
1349:.\Protocolo.c **** 						print_valor(resultado,val);
 7375              		.loc 1 1349 0 is_stmt 1
 7376 2c0e 7948     		ldr	r0, .L622+24
 7377 2c10 2146     		mov	r1, r4
 7378 2c12 FFF7FEFF 		bl	print_valor
 7379              	.LVL513:
1350:.\Protocolo.c **** 						if(dir==lado.a.dir){
 7380              		.loc 1 1350 0
 7381 2c16 734B     		ldr	r3, .L622+8
 7382 2c18 1B78     		ldrb	r3, [r3]	@ zero_extendqisi2
ARM GAS  C:\Users\IN-002~1\AppData\Local\Temp\ccxO8rjh.s 			page 161


 7383 2c1a AB42     		cmp	r3, r5
 7384 2c1c 09D1     		bne	.L509
1351:.\Protocolo.c **** 							write_eeprom(192,corte);	
 7385              		.loc 1 1351 0
 7386 2c1e C020     		movs	r0, #192
 7387 2c20 09A9     		add	r1, sp, #36
 7388 2c22 FFF7FEFF 		bl	write_eeprom
 7389              	.LVL514:
1352:.\Protocolo.c **** 							write_eeprom(512,resultado);
 7390              		.loc 1 1352 0
 7391 2c26 4FF40070 		mov	r0, #512
 7392 2c2a 7249     		ldr	r1, .L622+24
 7393 2c2c FFF7FEFF 		bl	write_eeprom
 7394              	.LVL515:
 7395 2c30 09E0     		b	.L494
 7396              	.L509:
1353:.\Protocolo.c **** 						}
1354:.\Protocolo.c **** 						else{
1355:.\Protocolo.c **** 							write_eeprom(281,corte);
 7397              		.loc 1 1355 0
 7398 2c32 40F21910 		movw	r0, #281
 7399 2c36 09A9     		add	r1, sp, #36
 7400 2c38 FFF7FEFF 		bl	write_eeprom
 7401              	.LVL516:
1356:.\Protocolo.c **** 							write_eeprom(551,resultado);
 7402              		.loc 1 1356 0
 7403 2c3c 40F22720 		movw	r0, #551
 7404 2c40 6C49     		ldr	r1, .L622+24
 7405 2c42 FFF7FEFF 		bl	write_eeprom
 7406              	.LVL517:
 7407              	.L494:
1357:.\Protocolo.c **** 						}
1358:.\Protocolo.c **** 					}
1359:.\Protocolo.c **** 					if(((rventa.manguera==(diesel&0x0F))&&(dir==lado.a.dir))||((rventa.manguera==(diesel2&0x0F))&&
 7408              		.loc 1 1359 0
 7409 2c46 6C4B     		ldr	r3, .L622+28
 7410 2c48 93F8E020 		ldrb	r2, [r3, #224]	@ zero_extendqisi2
 7411 2c4c 6B4B     		ldr	r3, .L622+32
 7412 2c4e 1B78     		ldrb	r3, [r3]	@ zero_extendqisi2
 7413 2c50 03F00F03 		and	r3, r3, #15
 7414 2c54 9342     		cmp	r3, r2
 7415 2c56 03D1     		bne	.L510
 7416              		.loc 1 1359 0 is_stmt 0 discriminator 1
 7417 2c58 624B     		ldr	r3, .L622+8
 7418 2c5a 1B78     		ldrb	r3, [r3]	@ zero_extendqisi2
 7419 2c5c AB42     		cmp	r3, r5
 7420 2c5e 0BD0     		beq	.L511
 7421              	.L510:
 7422              		.loc 1 1359 0 discriminator 3
 7423 2c60 674B     		ldr	r3, .L622+36
 7424 2c62 1B78     		ldrb	r3, [r3]	@ zero_extendqisi2
 7425 2c64 03F00F03 		and	r3, r3, #15
 7426 2c68 9A42     		cmp	r2, r3
 7427 2c6a 40F0D780 		bne	.L512
 7428              		.loc 1 1359 0 discriminator 4
 7429 2c6e 5D4B     		ldr	r3, .L622+8
 7430 2c70 1B79     		ldrb	r3, [r3, #4]	@ zero_extendqisi2
ARM GAS  C:\Users\IN-002~1\AppData\Local\Temp\ccxO8rjh.s 			page 162


 7431 2c72 AB42     		cmp	r3, r5
 7432 2c74 40F0D280 		bne	.L512
 7433              	.L511:
1360:.\Protocolo.c **** 						for(x=0;x<=5;x++){									
 7434              		.loc 1 1360 0 is_stmt 1
 7435 2c78 0022     		movs	r2, #0
 7436 2c7a 594B     		ldr	r3, .L622+4
 7437 2c7c 1A60     		str	r2, [r3]
 7438 2c7e 08E0     		b	.L513
 7439              	.L514:
1361:.\Protocolo.c **** 						    write_psoc1(val,msn_tc[x]);
 7440              		.loc 1 1361 0 discriminator 3
 7441 2c80 2046     		mov	r0, r4
 7442 2c82 564A     		ldr	r2, .L622
 7443 2c84 D15C     		ldrb	r1, [r2, r3]	@ zero_extendqisi2
 7444 2c86 FFF7FEFF 		bl	write_psoc1
 7445              	.LVL518:
1360:.\Protocolo.c **** 						for(x=0;x<=5;x++){									
 7446              		.loc 1 1360 0 discriminator 3
 7447 2c8a 554A     		ldr	r2, .L622+4
 7448 2c8c 1368     		ldr	r3, [r2]
 7449 2c8e 0133     		adds	r3, r3, #1
 7450 2c90 1360     		str	r3, [r2]
 7451              	.L513:
1360:.\Protocolo.c **** 						for(x=0;x<=5;x++){									
 7452              		.loc 1 1360 0 is_stmt 0 discriminator 1
 7453 2c92 534B     		ldr	r3, .L622+4
 7454 2c94 1B68     		ldr	r3, [r3]
 7455 2c96 052B     		cmp	r3, #5
 7456 2c98 F2D9     		bls	.L514
1362:.\Protocolo.c **** 					    }
1363:.\Protocolo.c **** 					    write_psoc1(val,10);
 7457              		.loc 1 1363 0 is_stmt 1
 7458 2c9a 2046     		mov	r0, r4
 7459 2c9c 0A21     		movs	r1, #10
 7460 2c9e FFF7FEFF 		bl	write_psoc1
 7461              	.LVL519:
1364:.\Protocolo.c ****                         for(x=0;x<=10;x++){									
 7462              		.loc 1 1364 0
 7463 2ca2 0022     		movs	r2, #0
 7464 2ca4 4E4B     		ldr	r3, .L622+4
 7465 2ca6 1A60     		str	r2, [r3]
 7466 2ca8 08E0     		b	.L515
 7467              	.L516:
1365:.\Protocolo.c **** 						    write_psoc1(val,producto2n[x]);
 7468              		.loc 1 1365 0 discriminator 3
 7469 2caa 2046     		mov	r0, r4
 7470 2cac 554A     		ldr	r2, .L622+40
 7471 2cae D15C     		ldrb	r1, [r2, r3]	@ zero_extendqisi2
 7472 2cb0 FFF7FEFF 		bl	write_psoc1
 7473              	.LVL520:
1364:.\Protocolo.c ****                         for(x=0;x<=10;x++){									
 7474              		.loc 1 1364 0 discriminator 3
 7475 2cb4 4A4A     		ldr	r2, .L622+4
 7476 2cb6 1368     		ldr	r3, [r2]
 7477 2cb8 0133     		adds	r3, r3, #1
 7478 2cba 1360     		str	r3, [r2]
ARM GAS  C:\Users\IN-002~1\AppData\Local\Temp\ccxO8rjh.s 			page 163


 7479              	.L515:
1364:.\Protocolo.c ****                         for(x=0;x<=10;x++){									
 7480              		.loc 1 1364 0 is_stmt 0 discriminator 1
 7481 2cbc 484B     		ldr	r3, .L622+4
 7482 2cbe 1B68     		ldr	r3, [r3]
 7483 2cc0 0A2B     		cmp	r3, #10
 7484 2cc2 F2D9     		bls	.L516
1366:.\Protocolo.c **** 					    }
1367:.\Protocolo.c ****                         write_psoc1(val,10);
 7485              		.loc 1 1367 0 is_stmt 1
 7486 2cc4 2046     		mov	r0, r4
 7487 2cc6 0A21     		movs	r1, #10
 7488 2cc8 FFF7FEFF 		bl	write_psoc1
 7489              	.LVL521:
1368:.\Protocolo.c **** 						for(x=0;x<=14;x++){									
 7490              		.loc 1 1368 0
 7491 2ccc 0022     		movs	r2, #0
 7492 2cce 444B     		ldr	r3, .L622+4
 7493 2cd0 1A60     		str	r2, [r3]
 7494 2cd2 09E0     		b	.L517
 7495              	.L518:
1369:.\Protocolo.c **** 							write_psoc1(val,msn_lecact[x]);				//LECTURA ACTUAL
 7496              		.loc 1 1369 0 discriminator 3
 7497 2cd4 414A     		ldr	r2, .L622
 7498 2cd6 1344     		add	r3, r3, r2
 7499 2cd8 2046     		mov	r0, r4
 7500 2cda 197A     		ldrb	r1, [r3, #8]	@ zero_extendqisi2
 7501 2cdc FFF7FEFF 		bl	write_psoc1
 7502              	.LVL522:
1368:.\Protocolo.c **** 						for(x=0;x<=14;x++){									
 7503              		.loc 1 1368 0 discriminator 3
 7504 2ce0 3F4A     		ldr	r2, .L622+4
 7505 2ce2 1368     		ldr	r3, [r2]
 7506 2ce4 0133     		adds	r3, r3, #1
 7507 2ce6 1360     		str	r3, [r2]
 7508              	.L517:
1368:.\Protocolo.c **** 						for(x=0;x<=14;x++){									
 7509              		.loc 1 1368 0 is_stmt 0 discriminator 1
 7510 2ce8 3D4B     		ldr	r3, .L622+4
 7511 2cea 1B68     		ldr	r3, [r3]
 7512 2cec 0E2B     		cmp	r3, #14
 7513 2cee F1D9     		bls	.L518
1370:.\Protocolo.c **** 						}
1371:.\Protocolo.c **** 						write_psoc1(val,10);
 7514              		.loc 1 1371 0 is_stmt 1
 7515 2cf0 2046     		mov	r0, r4
 7516 2cf2 0A21     		movs	r1, #10
 7517 2cf4 FFF7FEFF 		bl	write_psoc1
 7518              	.LVL523:
1372:.\Protocolo.c **** 						print_totalesac(12,val);	
 7519              		.loc 1 1372 0
 7520 2cf8 0C20     		movs	r0, #12
 7521 2cfa 2146     		mov	r1, r4
 7522 2cfc FFF7FEFF 		bl	print_totalesac
 7523              	.LVL524:
1373:.\Protocolo.c **** 						for(x=0;x<=16;x++){												
 7524              		.loc 1 1373 0
ARM GAS  C:\Users\IN-002~1\AppData\Local\Temp\ccxO8rjh.s 			page 164


 7525 2d00 0022     		movs	r2, #0
 7526 2d02 374B     		ldr	r3, .L622+4
 7527 2d04 1A60     		str	r2, [r3]
 7528 2d06 09E0     		b	.L519
 7529              	.L520:
1374:.\Protocolo.c **** 							write_psoc1(val,msn_lecaan[x]);				//LECTURA ANTERIOR
 7530              		.loc 1 1374 0 discriminator 3
 7531 2d08 344A     		ldr	r2, .L622
 7532 2d0a 1344     		add	r3, r3, r2
 7533 2d0c 2046     		mov	r0, r4
 7534 2d0e 197E     		ldrb	r1, [r3, #24]	@ zero_extendqisi2
 7535 2d10 FFF7FEFF 		bl	write_psoc1
 7536              	.LVL525:
1373:.\Protocolo.c **** 						for(x=0;x<=16;x++){												
 7537              		.loc 1 1373 0 discriminator 3
 7538 2d14 324A     		ldr	r2, .L622+4
 7539 2d16 1368     		ldr	r3, [r2]
 7540 2d18 0133     		adds	r3, r3, #1
 7541 2d1a 1360     		str	r3, [r2]
 7542              	.L519:
1373:.\Protocolo.c **** 						for(x=0;x<=16;x++){												
 7543              		.loc 1 1373 0 is_stmt 0 discriminator 1
 7544 2d1c 304B     		ldr	r3, .L622+4
 7545 2d1e 1B68     		ldr	r3, [r3]
 7546 2d20 102B     		cmp	r3, #16
 7547 2d22 F1D9     		bls	.L520
1375:.\Protocolo.c **** 						}
1376:.\Protocolo.c **** 						write_psoc1(val,10);
 7548              		.loc 1 1376 0 is_stmt 1
 7549 2d24 2046     		mov	r0, r4
 7550 2d26 0A21     		movs	r1, #10
 7551 2d28 FFF7FEFF 		bl	write_psoc1
 7552              	.LVL526:
1377:.\Protocolo.c **** 						if(dir==lado.a.dir){
 7553              		.loc 1 1377 0
 7554 2d2c 2D4B     		ldr	r3, .L622+8
 7555 2d2e 1B78     		ldrb	r3, [r3]	@ zero_extendqisi2
 7556 2d30 AB42     		cmp	r3, r5
 7557 2d32 04D1     		bne	.L521
1378:.\Protocolo.c **** 							leer_eeprom(217,25);
 7558              		.loc 1 1378 0
 7559 2d34 D920     		movs	r0, #217
 7560 2d36 1921     		movs	r1, #25
 7561 2d38 FFF7FEFF 		bl	leer_eeprom
 7562              	.LVL527:
 7563 2d3c 04E0     		b	.L522
 7564              	.L521:
1379:.\Protocolo.c **** 						}
1380:.\Protocolo.c **** 						else{
1381:.\Protocolo.c **** 							leer_eeprom(320,25);
 7565              		.loc 1 1381 0
 7566 2d3e 4FF4A070 		mov	r0, #320
 7567 2d42 1921     		movs	r1, #25
 7568 2d44 FFF7FEFF 		bl	leer_eeprom
 7569              	.LVL528:
 7570              	.L522:
1382:.\Protocolo.c **** 						}
ARM GAS  C:\Users\IN-002~1\AppData\Local\Temp\ccxO8rjh.s 			page 165


1383:.\Protocolo.c **** 						print_totales(val);
 7571              		.loc 1 1383 0
 7572 2d48 2046     		mov	r0, r4
 7573 2d4a FFF7FEFF 		bl	print_totales
 7574              	.LVL529:
1384:.\Protocolo.c **** 						for(z=1;z<=12;z++){
 7575              		.loc 1 1384 0
 7576 2d4e 0122     		movs	r2, #1
 7577 2d50 254B     		ldr	r3, .L622+12
 7578 2d52 1A60     		str	r2, [r3]
 7579 2d54 10E0     		b	.L523
 7580              	.L524:
1385:.\Protocolo.c **** 							minuendo[z]=rventa.tdinero[z-1];
 7581              		.loc 1 1385 0 discriminator 3
 7582 2d56 254A     		ldr	r2, .L622+16
 7583 2d58 1A44     		add	r2, r2, r3
 7584 2d5a 92F8CA10 		ldrb	r1, [r2, #202]	@ zero_extendqisi2
 7585 2d5e 10AA     		add	r2, sp, #64
 7586 2d60 1A44     		add	r2, r2, r3
 7587 2d62 02F82C1C 		strb	r1, [r2, #-44]
1386:.\Protocolo.c **** 							sustraendo[z]=buffer_i2c[z+12];
 7588              		.loc 1 1386 0 discriminator 3
 7589 2d66 03F10C01 		add	r1, r3, #12
 7590 2d6a 2148     		ldr	r0, .L622+20
 7591 2d6c 415C     		ldrb	r1, [r0, r1]	@ zero_extendqisi2
 7592 2d6e 02F83C1C 		strb	r1, [r2, #-60]
1384:.\Protocolo.c **** 						for(z=1;z<=12;z++){
 7593              		.loc 1 1384 0 discriminator 3
 7594 2d72 0133     		adds	r3, r3, #1
 7595 2d74 1C4A     		ldr	r2, .L622+12
 7596 2d76 1360     		str	r3, [r2]
 7597              	.L523:
1384:.\Protocolo.c **** 						for(z=1;z<=12;z++){
 7598              		.loc 1 1384 0 is_stmt 0 discriminator 1
 7599 2d78 1B4B     		ldr	r3, .L622+12
 7600 2d7a 1B68     		ldr	r3, [r3]
 7601 2d7c 0C2B     		cmp	r3, #12
 7602 2d7e EAD9     		bls	.L524
1387:.\Protocolo.c **** 						}
1388:.\Protocolo.c **** 						minuendo[0]=12;
 7603              		.loc 1 1388 0 is_stmt 1
 7604 2d80 10A9     		add	r1, sp, #64
 7605 2d82 0C23     		movs	r3, #12
 7606 2d84 01F82C3D 		strb	r3, [r1, #-44]!
1389:.\Protocolo.c **** 						operacion(2,minuendo,sustraendo);
 7607              		.loc 1 1389 0
 7608 2d88 0220     		movs	r0, #2
 7609 2d8a 01AA     		add	r2, sp, #4
 7610 2d8c FFF7FEFF 		bl	operacion
 7611              	.LVL530:
1390:.\Protocolo.c **** 						for(x=0;x<=17;x++){									
 7612              		.loc 1 1390 0
 7613 2d90 0022     		movs	r2, #0
 7614 2d92 134B     		ldr	r3, .L622+4
 7615 2d94 1A60     		str	r2, [r3]
 7616 2d96 0AE0     		b	.L525
 7617              	.L526:
ARM GAS  C:\Users\IN-002~1\AppData\Local\Temp\ccxO8rjh.s 			page 166


1391:.\Protocolo.c **** 							write_psoc1(val,msn_tventas[x]);				//Total de ventas
 7618              		.loc 1 1391 0 discriminator 3
 7619 2d98 104A     		ldr	r2, .L622
 7620 2d9a 1344     		add	r3, r3, r2
 7621 2d9c 2046     		mov	r0, r4
 7622 2d9e 93F82C10 		ldrb	r1, [r3, #44]	@ zero_extendqisi2
 7623 2da2 FFF7FEFF 		bl	write_psoc1
 7624              	.LVL531:
1390:.\Protocolo.c **** 						for(x=0;x<=17;x++){									
 7625              		.loc 1 1390 0 discriminator 3
 7626 2da6 0E4A     		ldr	r2, .L622+4
 7627 2da8 1368     		ldr	r3, [r2]
 7628 2daa 0133     		adds	r3, r3, #1
 7629 2dac 1360     		str	r3, [r2]
 7630              	.L525:
1390:.\Protocolo.c **** 						for(x=0;x<=17;x++){									
 7631              		.loc 1 1390 0 is_stmt 0 discriminator 1
 7632 2dae 0C4B     		ldr	r3, .L622+4
 7633 2db0 1B68     		ldr	r3, [r3]
 7634 2db2 112B     		cmp	r3, #17
 7635 2db4 F0D9     		bls	.L526
1392:.\Protocolo.c **** 						}
1393:.\Protocolo.c **** 						print_valor(resultado,val);				
 7636              		.loc 1 1393 0 is_stmt 1
 7637 2db6 0F48     		ldr	r0, .L622+24
 7638 2db8 2146     		mov	r1, r4
 7639 2dba FFF7FEFF 		bl	print_valor
 7640              	.LVL532:
1394:.\Protocolo.c **** 						if(dir==lado.a.dir){
 7641              		.loc 1 1394 0
 7642 2dbe 094B     		ldr	r3, .L622+8
 7643 2dc0 1B78     		ldrb	r3, [r3]	@ zero_extendqisi2
 7644 2dc2 AB42     		cmp	r3, r5
 7645 2dc4 20D1     		bne	.L527
1395:.\Protocolo.c **** 							write_eeprom(217,corte);
 7646              		.loc 1 1395 0
 7647 2dc6 D920     		movs	r0, #217
 7648 2dc8 09A9     		add	r1, sp, #36
 7649 2dca FFF7FEFF 		bl	write_eeprom
 7650              	.LVL533:
1396:.\Protocolo.c **** 							write_eeprom(538,resultado);
 7651              		.loc 1 1396 0
 7652 2dce 40F21A20 		movw	r0, #538
 7653 2dd2 0849     		ldr	r1, .L622+24
 7654 2dd4 FFF7FEFF 		bl	write_eeprom
 7655              	.LVL534:
 7656 2dd8 20E0     		b	.L512
 7657              	.L623:
 7658 2dda 00BF     		.align	2
 7659              	.L622:
 7660 2ddc 00000000 		.word	.LANCHOR1
 7661 2de0 00000000 		.word	x
 7662 2de4 00000000 		.word	lado
 7663 2de8 00000000 		.word	z
 7664 2dec FFFFFFFF 		.word	rventa-1
 7665 2df0 00000000 		.word	buffer_i2c
 7666 2df4 00000000 		.word	resultado
ARM GAS  C:\Users\IN-002~1\AppData\Local\Temp\ccxO8rjh.s 			page 167


 7667 2df8 00000000 		.word	rventa
 7668 2dfc 00000000 		.word	diesel
 7669 2e00 00000000 		.word	diesel2
 7670 2e04 00000000 		.word	producto2n
 7671              	.L527:
1397:.\Protocolo.c **** 						}
1398:.\Protocolo.c **** 						else{
1399:.\Protocolo.c **** 							write_eeprom(320,corte);
 7672              		.loc 1 1399 0
 7673 2e08 4FF4A070 		mov	r0, #320
 7674 2e0c 09A9     		add	r1, sp, #36
 7675 2e0e FFF7FEFF 		bl	write_eeprom
 7676              	.LVL535:
1400:.\Protocolo.c **** 							write_eeprom(576,resultado);
 7677              		.loc 1 1400 0
 7678 2e12 4FF41070 		mov	r0, #576
 7679 2e16 AB49     		ldr	r1, .L624
 7680 2e18 FFF7FEFF 		bl	write_eeprom
 7681              	.LVL536:
 7682              	.L512:
1401:.\Protocolo.c **** 						}				
1402:.\Protocolo.c **** 					}
1403:.\Protocolo.c **** 					if(((rventa.manguera==(extra&0x0F))&&(dir==lado.a.dir))||((rventa.manguera==(extra2&0x0F))&&(d
 7683              		.loc 1 1403 0
 7684 2e1c AA4B     		ldr	r3, .L624+4
 7685 2e1e 93F8E020 		ldrb	r2, [r3, #224]	@ zero_extendqisi2
 7686 2e22 AA4B     		ldr	r3, .L624+8
 7687 2e24 1B78     		ldrb	r3, [r3]	@ zero_extendqisi2
 7688 2e26 03F00F03 		and	r3, r3, #15
 7689 2e2a 9342     		cmp	r3, r2
 7690 2e2c 03D1     		bne	.L528
 7691              		.loc 1 1403 0 is_stmt 0 discriminator 1
 7692 2e2e A84B     		ldr	r3, .L624+12
 7693 2e30 1B78     		ldrb	r3, [r3]	@ zero_extendqisi2
 7694 2e32 AB42     		cmp	r3, r5
 7695 2e34 0BD0     		beq	.L529
 7696              	.L528:
 7697              		.loc 1 1403 0 discriminator 3
 7698 2e36 A74B     		ldr	r3, .L624+16
 7699 2e38 1B78     		ldrb	r3, [r3]	@ zero_extendqisi2
 7700 2e3a 03F00F03 		and	r3, r3, #15
 7701 2e3e 9A42     		cmp	r2, r3
 7702 2e40 40F0C280 		bne	.L530
 7703              		.loc 1 1403 0 discriminator 4
 7704 2e44 A24B     		ldr	r3, .L624+12
 7705 2e46 1B79     		ldrb	r3, [r3, #4]	@ zero_extendqisi2
 7706 2e48 AB42     		cmp	r3, r5
 7707 2e4a 40F0BD80 		bne	.L530
 7708              	.L529:
1404:.\Protocolo.c **** 						for(x=0;x<=5;x++){									
 7709              		.loc 1 1404 0 is_stmt 1
 7710 2e4e 0022     		movs	r2, #0
 7711 2e50 A14B     		ldr	r3, .L624+20
 7712 2e52 1A60     		str	r2, [r3]
 7713 2e54 08E0     		b	.L531
 7714              	.L532:
1405:.\Protocolo.c **** 						    write_psoc1(val,msn_tc[x]);
ARM GAS  C:\Users\IN-002~1\AppData\Local\Temp\ccxO8rjh.s 			page 168


 7715              		.loc 1 1405 0 discriminator 3
 7716 2e56 2046     		mov	r0, r4
 7717 2e58 A04A     		ldr	r2, .L624+24
 7718 2e5a D15C     		ldrb	r1, [r2, r3]	@ zero_extendqisi2
 7719 2e5c FFF7FEFF 		bl	write_psoc1
 7720              	.LVL537:
1404:.\Protocolo.c **** 						for(x=0;x<=5;x++){									
 7721              		.loc 1 1404 0 discriminator 3
 7722 2e60 9D4A     		ldr	r2, .L624+20
 7723 2e62 1368     		ldr	r3, [r2]
 7724 2e64 0133     		adds	r3, r3, #1
 7725 2e66 1360     		str	r3, [r2]
 7726              	.L531:
1404:.\Protocolo.c **** 						for(x=0;x<=5;x++){									
 7727              		.loc 1 1404 0 is_stmt 0 discriminator 1
 7728 2e68 9B4B     		ldr	r3, .L624+20
 7729 2e6a 1B68     		ldr	r3, [r3]
 7730 2e6c 052B     		cmp	r3, #5
 7731 2e6e F2D9     		bls	.L532
1406:.\Protocolo.c **** 					    }
1407:.\Protocolo.c **** 					    write_psoc1(val,10);
 7732              		.loc 1 1407 0 is_stmt 1
 7733 2e70 2046     		mov	r0, r4
 7734 2e72 0A21     		movs	r1, #10
 7735 2e74 FFF7FEFF 		bl	write_psoc1
 7736              	.LVL538:
1408:.\Protocolo.c ****                         for(x=0;x<=10;x++){									
 7737              		.loc 1 1408 0
 7738 2e78 0022     		movs	r2, #0
 7739 2e7a 974B     		ldr	r3, .L624+20
 7740 2e7c 1A60     		str	r2, [r3]
 7741 2e7e 08E0     		b	.L533
 7742              	.L534:
1409:.\Protocolo.c **** 						    write_psoc1(val,producto3n[x]);
 7743              		.loc 1 1409 0 discriminator 3
 7744 2e80 2046     		mov	r0, r4
 7745 2e82 974A     		ldr	r2, .L624+28
 7746 2e84 D15C     		ldrb	r1, [r2, r3]	@ zero_extendqisi2
 7747 2e86 FFF7FEFF 		bl	write_psoc1
 7748              	.LVL539:
1408:.\Protocolo.c ****                         for(x=0;x<=10;x++){									
 7749              		.loc 1 1408 0 discriminator 3
 7750 2e8a 934A     		ldr	r2, .L624+20
 7751 2e8c 1368     		ldr	r3, [r2]
 7752 2e8e 0133     		adds	r3, r3, #1
 7753 2e90 1360     		str	r3, [r2]
 7754              	.L533:
1408:.\Protocolo.c ****                         for(x=0;x<=10;x++){									
 7755              		.loc 1 1408 0 is_stmt 0 discriminator 1
 7756 2e92 914B     		ldr	r3, .L624+20
 7757 2e94 1B68     		ldr	r3, [r3]
 7758 2e96 0A2B     		cmp	r3, #10
 7759 2e98 F2D9     		bls	.L534
1410:.\Protocolo.c **** 					    }
1411:.\Protocolo.c ****                         write_psoc1(val,10);
 7760              		.loc 1 1411 0 is_stmt 1
 7761 2e9a 2046     		mov	r0, r4
ARM GAS  C:\Users\IN-002~1\AppData\Local\Temp\ccxO8rjh.s 			page 169


 7762 2e9c 0A21     		movs	r1, #10
 7763 2e9e FFF7FEFF 		bl	write_psoc1
 7764              	.LVL540:
1412:.\Protocolo.c **** 						for(x=0;x<=14;x++){									
 7765              		.loc 1 1412 0
 7766 2ea2 0022     		movs	r2, #0
 7767 2ea4 8C4B     		ldr	r3, .L624+20
 7768 2ea6 1A60     		str	r2, [r3]
 7769 2ea8 09E0     		b	.L535
 7770              	.L536:
1413:.\Protocolo.c **** 							write_psoc1(val,msn_lecact[x]);				//LECTURA ACTUAL
 7771              		.loc 1 1413 0 discriminator 3
 7772 2eaa 8C4A     		ldr	r2, .L624+24
 7773 2eac 1344     		add	r3, r3, r2
 7774 2eae 2046     		mov	r0, r4
 7775 2eb0 197A     		ldrb	r1, [r3, #8]	@ zero_extendqisi2
 7776 2eb2 FFF7FEFF 		bl	write_psoc1
 7777              	.LVL541:
1412:.\Protocolo.c **** 						for(x=0;x<=14;x++){									
 7778              		.loc 1 1412 0 discriminator 3
 7779 2eb6 884A     		ldr	r2, .L624+20
 7780 2eb8 1368     		ldr	r3, [r2]
 7781 2eba 0133     		adds	r3, r3, #1
 7782 2ebc 1360     		str	r3, [r2]
 7783              	.L535:
1412:.\Protocolo.c **** 						for(x=0;x<=14;x++){									
 7784              		.loc 1 1412 0 is_stmt 0 discriminator 1
 7785 2ebe 864B     		ldr	r3, .L624+20
 7786 2ec0 1B68     		ldr	r3, [r3]
 7787 2ec2 0E2B     		cmp	r3, #14
 7788 2ec4 F1D9     		bls	.L536
1414:.\Protocolo.c **** 						}
1415:.\Protocolo.c **** 						write_psoc1(val,10);
 7789              		.loc 1 1415 0 is_stmt 1
 7790 2ec6 2046     		mov	r0, r4
 7791 2ec8 0A21     		movs	r1, #10
 7792 2eca FFF7FEFF 		bl	write_psoc1
 7793              	.LVL542:
1416:.\Protocolo.c **** 						print_totalesac(12,val);	
 7794              		.loc 1 1416 0
 7795 2ece 0C20     		movs	r0, #12
 7796 2ed0 2146     		mov	r1, r4
 7797 2ed2 FFF7FEFF 		bl	print_totalesac
 7798              	.LVL543:
1417:.\Protocolo.c **** 						for(x=0;x<=16;x++){												
 7799              		.loc 1 1417 0
 7800 2ed6 0022     		movs	r2, #0
 7801 2ed8 7F4B     		ldr	r3, .L624+20
 7802 2eda 1A60     		str	r2, [r3]
 7803 2edc 09E0     		b	.L537
 7804              	.L538:
1418:.\Protocolo.c **** 							write_psoc1(val,msn_lecaan[x]);				//LECTURA ANTERIOR
 7805              		.loc 1 1418 0 discriminator 3
 7806 2ede 7F4A     		ldr	r2, .L624+24
 7807 2ee0 1344     		add	r3, r3, r2
 7808 2ee2 2046     		mov	r0, r4
 7809 2ee4 197E     		ldrb	r1, [r3, #24]	@ zero_extendqisi2
ARM GAS  C:\Users\IN-002~1\AppData\Local\Temp\ccxO8rjh.s 			page 170


 7810 2ee6 FFF7FEFF 		bl	write_psoc1
 7811              	.LVL544:
1417:.\Protocolo.c **** 						for(x=0;x<=16;x++){												
 7812              		.loc 1 1417 0 discriminator 3
 7813 2eea 7B4A     		ldr	r2, .L624+20
 7814 2eec 1368     		ldr	r3, [r2]
 7815 2eee 0133     		adds	r3, r3, #1
 7816 2ef0 1360     		str	r3, [r2]
 7817              	.L537:
1417:.\Protocolo.c **** 						for(x=0;x<=16;x++){												
 7818              		.loc 1 1417 0 is_stmt 0 discriminator 1
 7819 2ef2 794B     		ldr	r3, .L624+20
 7820 2ef4 1B68     		ldr	r3, [r3]
 7821 2ef6 102B     		cmp	r3, #16
 7822 2ef8 F1D9     		bls	.L538
1419:.\Protocolo.c **** 						}
1420:.\Protocolo.c **** 						write_psoc1(val,10);
 7823              		.loc 1 1420 0 is_stmt 1
 7824 2efa 2046     		mov	r0, r4
 7825 2efc 0A21     		movs	r1, #10
 7826 2efe FFF7FEFF 		bl	write_psoc1
 7827              	.LVL545:
1421:.\Protocolo.c **** 						if(dir==lado.a.dir){
 7828              		.loc 1 1421 0
 7829 2f02 734B     		ldr	r3, .L624+12
 7830 2f04 1B78     		ldrb	r3, [r3]	@ zero_extendqisi2
 7831 2f06 AB42     		cmp	r3, r5
 7832 2f08 05D1     		bne	.L539
1422:.\Protocolo.c **** 							leer_eeprom(256,25);
 7833              		.loc 1 1422 0
 7834 2f0a 4FF48070 		mov	r0, #256
 7835 2f0e 1921     		movs	r1, #25
 7836 2f10 FFF7FEFF 		bl	leer_eeprom
 7837              	.LVL546:
 7838 2f14 04E0     		b	.L540
 7839              	.L539:
1423:.\Protocolo.c **** 						}
1424:.\Protocolo.c **** 						else{
1425:.\Protocolo.c **** 							leer_eeprom(345,25);
 7840              		.loc 1 1425 0
 7841 2f16 40F25910 		movw	r0, #345
 7842 2f1a 1921     		movs	r1, #25
 7843 2f1c FFF7FEFF 		bl	leer_eeprom
 7844              	.LVL547:
 7845              	.L540:
1426:.\Protocolo.c **** 						}
1427:.\Protocolo.c **** 						print_totales(val);
 7846              		.loc 1 1427 0
 7847 2f20 2046     		mov	r0, r4
 7848 2f22 FFF7FEFF 		bl	print_totales
 7849              	.LVL548:
1428:.\Protocolo.c **** 						for(z=1;z<=12;z++){
 7850              		.loc 1 1428 0
 7851 2f26 0122     		movs	r2, #1
 7852 2f28 6E4B     		ldr	r3, .L624+32
 7853 2f2a 1A60     		str	r2, [r3]
 7854 2f2c 10E0     		b	.L541
ARM GAS  C:\Users\IN-002~1\AppData\Local\Temp\ccxO8rjh.s 			page 171


 7855              	.L542:
1429:.\Protocolo.c **** 							minuendo[z]=rventa.tdinero[z-1];
 7856              		.loc 1 1429 0 discriminator 3
 7857 2f2e 6E4A     		ldr	r2, .L624+36
 7858 2f30 1A44     		add	r2, r2, r3
 7859 2f32 92F8CA10 		ldrb	r1, [r2, #202]	@ zero_extendqisi2
 7860 2f36 10AA     		add	r2, sp, #64
 7861 2f38 1A44     		add	r2, r2, r3
 7862 2f3a 02F82C1C 		strb	r1, [r2, #-44]
1430:.\Protocolo.c **** 							sustraendo[z]=buffer_i2c[z+12];
 7863              		.loc 1 1430 0 discriminator 3
 7864 2f3e 03F10C01 		add	r1, r3, #12
 7865 2f42 6A48     		ldr	r0, .L624+40
 7866 2f44 415C     		ldrb	r1, [r0, r1]	@ zero_extendqisi2
 7867 2f46 02F83C1C 		strb	r1, [r2, #-60]
1428:.\Protocolo.c **** 						for(z=1;z<=12;z++){
 7868              		.loc 1 1428 0 discriminator 3
 7869 2f4a 0133     		adds	r3, r3, #1
 7870 2f4c 654A     		ldr	r2, .L624+32
 7871 2f4e 1360     		str	r3, [r2]
 7872              	.L541:
1428:.\Protocolo.c **** 						for(z=1;z<=12;z++){
 7873              		.loc 1 1428 0 is_stmt 0 discriminator 1
 7874 2f50 644B     		ldr	r3, .L624+32
 7875 2f52 1B68     		ldr	r3, [r3]
 7876 2f54 0C2B     		cmp	r3, #12
 7877 2f56 EAD9     		bls	.L542
1431:.\Protocolo.c **** 						}
1432:.\Protocolo.c **** 						minuendo[0]=12;
 7878              		.loc 1 1432 0 is_stmt 1
 7879 2f58 10A9     		add	r1, sp, #64
 7880 2f5a 0C23     		movs	r3, #12
 7881 2f5c 01F82C3D 		strb	r3, [r1, #-44]!
1433:.\Protocolo.c **** 						operacion(2,minuendo,sustraendo);
 7882              		.loc 1 1433 0
 7883 2f60 0220     		movs	r0, #2
 7884 2f62 01AA     		add	r2, sp, #4
 7885 2f64 FFF7FEFF 		bl	operacion
 7886              	.LVL549:
1434:.\Protocolo.c **** 						for(x=0;x<=17;x++){									
 7887              		.loc 1 1434 0
 7888 2f68 0022     		movs	r2, #0
 7889 2f6a 5B4B     		ldr	r3, .L624+20
 7890 2f6c 1A60     		str	r2, [r3]
 7891 2f6e 0AE0     		b	.L543
 7892              	.L544:
1435:.\Protocolo.c **** 							write_psoc1(val,msn_tventas[x]);				//Total de ventas
 7893              		.loc 1 1435 0 discriminator 3
 7894 2f70 5A4A     		ldr	r2, .L624+24
 7895 2f72 1344     		add	r3, r3, r2
 7896 2f74 2046     		mov	r0, r4
 7897 2f76 93F82C10 		ldrb	r1, [r3, #44]	@ zero_extendqisi2
 7898 2f7a FFF7FEFF 		bl	write_psoc1
 7899              	.LVL550:
1434:.\Protocolo.c **** 						for(x=0;x<=17;x++){									
 7900              		.loc 1 1434 0 discriminator 3
 7901 2f7e 564A     		ldr	r2, .L624+20
ARM GAS  C:\Users\IN-002~1\AppData\Local\Temp\ccxO8rjh.s 			page 172


 7902 2f80 1368     		ldr	r3, [r2]
 7903 2f82 0133     		adds	r3, r3, #1
 7904 2f84 1360     		str	r3, [r2]
 7905              	.L543:
1434:.\Protocolo.c **** 						for(x=0;x<=17;x++){									
 7906              		.loc 1 1434 0 is_stmt 0 discriminator 1
 7907 2f86 544B     		ldr	r3, .L624+20
 7908 2f88 1B68     		ldr	r3, [r3]
 7909 2f8a 112B     		cmp	r3, #17
 7910 2f8c F0D9     		bls	.L544
1436:.\Protocolo.c **** 						}
1437:.\Protocolo.c **** 						print_valor(resultado,val);							
 7911              		.loc 1 1437 0 is_stmt 1
 7912 2f8e 4D48     		ldr	r0, .L624
 7913 2f90 2146     		mov	r1, r4
 7914 2f92 FFF7FEFF 		bl	print_valor
 7915              	.LVL551:
1438:.\Protocolo.c **** 						if(dir==lado.a.dir){
 7916              		.loc 1 1438 0
 7917 2f96 4E4B     		ldr	r3, .L624+12
 7918 2f98 1B78     		ldrb	r3, [r3]	@ zero_extendqisi2
 7919 2f9a AB42     		cmp	r3, r5
 7920 2f9c 0AD1     		bne	.L545
1439:.\Protocolo.c **** 							write_eeprom(256,corte);
 7921              		.loc 1 1439 0
 7922 2f9e 4FF48070 		mov	r0, #256
 7923 2fa2 09A9     		add	r1, sp, #36
 7924 2fa4 FFF7FEFF 		bl	write_eeprom
 7925              	.LVL552:
1440:.\Protocolo.c **** 							write_eeprom(525,resultado);
 7926              		.loc 1 1440 0
 7927 2fa8 40F20D20 		movw	r0, #525
 7928 2fac 4549     		ldr	r1, .L624
 7929 2fae FFF7FEFF 		bl	write_eeprom
 7930              	.LVL553:
 7931 2fb2 09E0     		b	.L530
 7932              	.L545:
1441:.\Protocolo.c **** 						}
1442:.\Protocolo.c **** 						else{
1443:.\Protocolo.c **** 							write_eeprom(345,corte);
 7933              		.loc 1 1443 0
 7934 2fb4 40F25910 		movw	r0, #345
 7935 2fb8 09A9     		add	r1, sp, #36
 7936 2fba FFF7FEFF 		bl	write_eeprom
 7937              	.LVL554:
1444:.\Protocolo.c **** 							write_eeprom(589,resultado);
 7938              		.loc 1 1444 0
 7939 2fbe 40F24D20 		movw	r0, #589
 7940 2fc2 4049     		ldr	r1, .L624
 7941 2fc4 FFF7FEFF 		bl	write_eeprom
 7942              	.LVL555:
 7943              	.L530:
1445:.\Protocolo.c **** 						}					
1446:.\Protocolo.c **** 					}
1447:.\Protocolo.c ****                     
1448:.\Protocolo.c ****                     if(((rventa.manguera==(kero&0x0F))&&(dir==lado.a.dir))||((rventa.manguera==(ker
 7944              		.loc 1 1448 0
ARM GAS  C:\Users\IN-002~1\AppData\Local\Temp\ccxO8rjh.s 			page 173


 7945 2fc8 3F4B     		ldr	r3, .L624+4
 7946 2fca 93F8E020 		ldrb	r2, [r3, #224]	@ zero_extendqisi2
 7947 2fce 484B     		ldr	r3, .L624+44
 7948 2fd0 1B78     		ldrb	r3, [r3]	@ zero_extendqisi2
 7949 2fd2 03F00F03 		and	r3, r3, #15
 7950 2fd6 9342     		cmp	r3, r2
 7951 2fd8 03D1     		bne	.L546
 7952              		.loc 1 1448 0 is_stmt 0 discriminator 1
 7953 2fda 3D4B     		ldr	r3, .L624+12
 7954 2fdc 1B78     		ldrb	r3, [r3]	@ zero_extendqisi2
 7955 2fde AB42     		cmp	r3, r5
 7956 2fe0 0BD0     		beq	.L547
 7957              	.L546:
 7958              		.loc 1 1448 0 discriminator 3
 7959 2fe2 444B     		ldr	r3, .L624+48
 7960 2fe4 1B78     		ldrb	r3, [r3]	@ zero_extendqisi2
 7961 2fe6 03F00F03 		and	r3, r3, #15
 7962 2fea 9A42     		cmp	r2, r3
 7963 2fec 40F0DF80 		bne	.L548
 7964              		.loc 1 1448 0 discriminator 4
 7965 2ff0 374B     		ldr	r3, .L624+12
 7966 2ff2 1B79     		ldrb	r3, [r3, #4]	@ zero_extendqisi2
 7967 2ff4 AB42     		cmp	r3, r5
 7968 2ff6 40F0DA80 		bne	.L548
 7969              	.L547:
1449:.\Protocolo.c **** 						for(x=0;x<=5;x++){									
 7970              		.loc 1 1449 0 is_stmt 1
 7971 2ffa 0022     		movs	r2, #0
 7972 2ffc 364B     		ldr	r3, .L624+20
 7973 2ffe 1A60     		str	r2, [r3]
 7974 3000 08E0     		b	.L549
 7975              	.L550:
1450:.\Protocolo.c **** 						    write_psoc1(val,msn_tc[x]);
 7976              		.loc 1 1450 0 discriminator 3
 7977 3002 2046     		mov	r0, r4
 7978 3004 354A     		ldr	r2, .L624+24
 7979 3006 D15C     		ldrb	r1, [r2, r3]	@ zero_extendqisi2
 7980 3008 FFF7FEFF 		bl	write_psoc1
 7981              	.LVL556:
1449:.\Protocolo.c **** 						for(x=0;x<=5;x++){									
 7982              		.loc 1 1449 0 discriminator 3
 7983 300c 324A     		ldr	r2, .L624+20
 7984 300e 1368     		ldr	r3, [r2]
 7985 3010 0133     		adds	r3, r3, #1
 7986 3012 1360     		str	r3, [r2]
 7987              	.L549:
1449:.\Protocolo.c **** 						for(x=0;x<=5;x++){									
 7988              		.loc 1 1449 0 is_stmt 0 discriminator 1
 7989 3014 304B     		ldr	r3, .L624+20
 7990 3016 1B68     		ldr	r3, [r3]
 7991 3018 052B     		cmp	r3, #5
 7992 301a F2D9     		bls	.L550
1451:.\Protocolo.c **** 					    }
1452:.\Protocolo.c **** 					    write_psoc1(val,10);
 7993              		.loc 1 1452 0 is_stmt 1
 7994 301c 2046     		mov	r0, r4
 7995 301e 0A21     		movs	r1, #10
ARM GAS  C:\Users\IN-002~1\AppData\Local\Temp\ccxO8rjh.s 			page 174


 7996 3020 FFF7FEFF 		bl	write_psoc1
 7997              	.LVL557:
1453:.\Protocolo.c ****                         for(x=0;x<=10;x++){									
 7998              		.loc 1 1453 0
 7999 3024 0022     		movs	r2, #0
 8000 3026 2C4B     		ldr	r3, .L624+20
 8001 3028 1A60     		str	r2, [r3]
 8002 302a 08E0     		b	.L551
 8003              	.L552:
1454:.\Protocolo.c **** 						    write_psoc1(val,producto4n[x]);
 8004              		.loc 1 1454 0 discriminator 3
 8005 302c 2046     		mov	r0, r4
 8006 302e 324A     		ldr	r2, .L624+52
 8007 3030 D15C     		ldrb	r1, [r2, r3]	@ zero_extendqisi2
 8008 3032 FFF7FEFF 		bl	write_psoc1
 8009              	.LVL558:
1453:.\Protocolo.c ****                         for(x=0;x<=10;x++){									
 8010              		.loc 1 1453 0 discriminator 3
 8011 3036 284A     		ldr	r2, .L624+20
 8012 3038 1368     		ldr	r3, [r2]
 8013 303a 0133     		adds	r3, r3, #1
 8014 303c 1360     		str	r3, [r2]
 8015              	.L551:
1453:.\Protocolo.c ****                         for(x=0;x<=10;x++){									
 8016              		.loc 1 1453 0 is_stmt 0 discriminator 1
 8017 303e 264B     		ldr	r3, .L624+20
 8018 3040 1B68     		ldr	r3, [r3]
 8019 3042 0A2B     		cmp	r3, #10
 8020 3044 F2D9     		bls	.L552
1455:.\Protocolo.c **** 					    }
1456:.\Protocolo.c ****                         write_psoc1(val,10);
 8021              		.loc 1 1456 0 is_stmt 1
 8022 3046 2046     		mov	r0, r4
 8023 3048 0A21     		movs	r1, #10
 8024 304a FFF7FEFF 		bl	write_psoc1
 8025              	.LVL559:
1457:.\Protocolo.c **** 						for(x=0;x<=14;x++){									
 8026              		.loc 1 1457 0
 8027 304e 0022     		movs	r2, #0
 8028 3050 214B     		ldr	r3, .L624+20
 8029 3052 1A60     		str	r2, [r3]
 8030 3054 09E0     		b	.L553
 8031              	.L554:
1458:.\Protocolo.c **** 							write_psoc1(val,msn_lecact[x]);				//LECTURA ACTUAL
 8032              		.loc 1 1458 0 discriminator 3
 8033 3056 214A     		ldr	r2, .L624+24
 8034 3058 1344     		add	r3, r3, r2
 8035 305a 2046     		mov	r0, r4
 8036 305c 197A     		ldrb	r1, [r3, #8]	@ zero_extendqisi2
 8037 305e FFF7FEFF 		bl	write_psoc1
 8038              	.LVL560:
1457:.\Protocolo.c **** 						for(x=0;x<=14;x++){									
 8039              		.loc 1 1457 0 discriminator 3
 8040 3062 1D4A     		ldr	r2, .L624+20
 8041 3064 1368     		ldr	r3, [r2]
 8042 3066 0133     		adds	r3, r3, #1
 8043 3068 1360     		str	r3, [r2]
ARM GAS  C:\Users\IN-002~1\AppData\Local\Temp\ccxO8rjh.s 			page 175


 8044              	.L553:
1457:.\Protocolo.c **** 						for(x=0;x<=14;x++){									
 8045              		.loc 1 1457 0 is_stmt 0 discriminator 1
 8046 306a 1B4B     		ldr	r3, .L624+20
 8047 306c 1B68     		ldr	r3, [r3]
 8048 306e 0E2B     		cmp	r3, #14
 8049 3070 F1D9     		bls	.L554
1459:.\Protocolo.c **** 						}
1460:.\Protocolo.c **** 						write_psoc1(val,10);
 8050              		.loc 1 1460 0 is_stmt 1
 8051 3072 2046     		mov	r0, r4
 8052 3074 0A21     		movs	r1, #10
 8053 3076 FFF7FEFF 		bl	write_psoc1
 8054              	.LVL561:
1461:.\Protocolo.c **** 						print_totalesac(12,val);	
 8055              		.loc 1 1461 0
 8056 307a 0C20     		movs	r0, #12
 8057 307c 2146     		mov	r1, r4
 8058 307e FFF7FEFF 		bl	print_totalesac
 8059              	.LVL562:
1462:.\Protocolo.c **** 						for(x=0;x<=16;x++){												
 8060              		.loc 1 1462 0
 8061 3082 0022     		movs	r2, #0
 8062 3084 144B     		ldr	r3, .L624+20
 8063 3086 1A60     		str	r2, [r3]
 8064 3088 09E0     		b	.L555
 8065              	.L556:
1463:.\Protocolo.c **** 							write_psoc1(val,msn_lecaan[x]);				//LECTURA ANTERIOR
 8066              		.loc 1 1463 0 discriminator 3
 8067 308a 144A     		ldr	r2, .L624+24
 8068 308c 1344     		add	r3, r3, r2
 8069 308e 2046     		mov	r0, r4
 8070 3090 197E     		ldrb	r1, [r3, #24]	@ zero_extendqisi2
 8071 3092 FFF7FEFF 		bl	write_psoc1
 8072              	.LVL563:
1462:.\Protocolo.c **** 						for(x=0;x<=16;x++){												
 8073              		.loc 1 1462 0 discriminator 3
 8074 3096 104A     		ldr	r2, .L624+20
 8075 3098 1368     		ldr	r3, [r2]
 8076 309a 0133     		adds	r3, r3, #1
 8077 309c 1360     		str	r3, [r2]
 8078              	.L555:
1462:.\Protocolo.c **** 						for(x=0;x<=16;x++){												
 8079              		.loc 1 1462 0 is_stmt 0 discriminator 1
 8080 309e 0E4B     		ldr	r3, .L624+20
 8081 30a0 1B68     		ldr	r3, [r3]
 8082 30a2 102B     		cmp	r3, #16
 8083 30a4 F1D9     		bls	.L556
1464:.\Protocolo.c **** 						}
1465:.\Protocolo.c **** 						write_psoc1(val,10);
 8084              		.loc 1 1465 0 is_stmt 1
 8085 30a6 2046     		mov	r0, r4
 8086 30a8 0A21     		movs	r1, #10
 8087 30aa FFF7FEFF 		bl	write_psoc1
 8088              	.LVL564:
1466:.\Protocolo.c **** 						if(dir==lado.a.dir){
 8089              		.loc 1 1466 0
ARM GAS  C:\Users\IN-002~1\AppData\Local\Temp\ccxO8rjh.s 			page 176


 8090 30ae 084B     		ldr	r3, .L624+12
 8091 30b0 1B78     		ldrb	r3, [r3]	@ zero_extendqisi2
 8092 30b2 AB42     		cmp	r3, r5
 8093 30b4 22D1     		bne	.L557
1467:.\Protocolo.c **** 							leer_eeprom(1096,25);
 8094              		.loc 1 1467 0
 8095 30b6 4FF48960 		mov	r0, #1096
 8096 30ba 1921     		movs	r1, #25
 8097 30bc FFF7FEFF 		bl	leer_eeprom
 8098              	.LVL565:
 8099 30c0 21E0     		b	.L558
 8100              	.L625:
 8101 30c2 00BF     		.align	2
 8102              	.L624:
 8103 30c4 00000000 		.word	resultado
 8104 30c8 00000000 		.word	rventa
 8105 30cc 00000000 		.word	extra
 8106 30d0 00000000 		.word	lado
 8107 30d4 00000000 		.word	extra2
 8108 30d8 00000000 		.word	x
 8109 30dc 00000000 		.word	.LANCHOR1
 8110 30e0 00000000 		.word	producto3n
 8111 30e4 00000000 		.word	z
 8112 30e8 FFFFFFFF 		.word	rventa-1
 8113 30ec 00000000 		.word	buffer_i2c
 8114 30f0 00000000 		.word	kero
 8115 30f4 00000000 		.word	kero2
 8116 30f8 00000000 		.word	producto4n
 8117              	.L557:
1468:.\Protocolo.c **** 						}
1469:.\Protocolo.c **** 						else{
1470:.\Protocolo.c **** 							leer_eeprom(1054,25);
 8118              		.loc 1 1470 0
 8119 30fc 40F21E40 		movw	r0, #1054
 8120 3100 1921     		movs	r1, #25
 8121 3102 FFF7FEFF 		bl	leer_eeprom
 8122              	.LVL566:
 8123              	.L558:
1471:.\Protocolo.c **** 						}
1472:.\Protocolo.c **** 						print_totales(val);
 8124              		.loc 1 1472 0
 8125 3106 2046     		mov	r0, r4
 8126 3108 FFF7FEFF 		bl	print_totales
 8127              	.LVL567:
1473:.\Protocolo.c **** 						for(z=1;z<=12;z++){
 8128              		.loc 1 1473 0
 8129 310c 0122     		movs	r2, #1
 8130 310e 514B     		ldr	r3, .L626
 8131 3110 1A60     		str	r2, [r3]
 8132 3112 10E0     		b	.L559
 8133              	.L560:
1474:.\Protocolo.c **** 							minuendo[z]=rventa.tdinero[z-1];
 8134              		.loc 1 1474 0 discriminator 3
 8135 3114 504A     		ldr	r2, .L626+4
 8136 3116 1A44     		add	r2, r2, r3
 8137 3118 92F8CA10 		ldrb	r1, [r2, #202]	@ zero_extendqisi2
 8138 311c 10AA     		add	r2, sp, #64
ARM GAS  C:\Users\IN-002~1\AppData\Local\Temp\ccxO8rjh.s 			page 177


 8139 311e 1A44     		add	r2, r2, r3
 8140 3120 02F82C1C 		strb	r1, [r2, #-44]
1475:.\Protocolo.c **** 							sustraendo[z]=buffer_i2c[z+12];
 8141              		.loc 1 1475 0 discriminator 3
 8142 3124 03F10C01 		add	r1, r3, #12
 8143 3128 4C48     		ldr	r0, .L626+8
 8144 312a 415C     		ldrb	r1, [r0, r1]	@ zero_extendqisi2
 8145 312c 02F83C1C 		strb	r1, [r2, #-60]
1473:.\Protocolo.c **** 						for(z=1;z<=12;z++){
 8146              		.loc 1 1473 0 discriminator 3
 8147 3130 0133     		adds	r3, r3, #1
 8148 3132 484A     		ldr	r2, .L626
 8149 3134 1360     		str	r3, [r2]
 8150              	.L559:
1473:.\Protocolo.c **** 						for(z=1;z<=12;z++){
 8151              		.loc 1 1473 0 is_stmt 0 discriminator 1
 8152 3136 474B     		ldr	r3, .L626
 8153 3138 1B68     		ldr	r3, [r3]
 8154 313a 0C2B     		cmp	r3, #12
 8155 313c EAD9     		bls	.L560
1476:.\Protocolo.c **** 						}
1477:.\Protocolo.c **** 						minuendo[0]=12;
 8156              		.loc 1 1477 0 is_stmt 1
 8157 313e 10A9     		add	r1, sp, #64
 8158 3140 0C23     		movs	r3, #12
 8159 3142 01F82C3D 		strb	r3, [r1, #-44]!
1478:.\Protocolo.c **** 						operacion(2,minuendo,sustraendo);
 8160              		.loc 1 1478 0
 8161 3146 0220     		movs	r0, #2
 8162 3148 01AA     		add	r2, sp, #4
 8163 314a FFF7FEFF 		bl	operacion
 8164              	.LVL568:
1479:.\Protocolo.c **** 						for(x=0;x<=17;x++){									
 8165              		.loc 1 1479 0
 8166 314e 0022     		movs	r2, #0
 8167 3150 434B     		ldr	r3, .L626+12
 8168 3152 1A60     		str	r2, [r3]
 8169 3154 0AE0     		b	.L561
 8170              	.L562:
1480:.\Protocolo.c **** 							write_psoc1(val,msn_tventas[x]);				//Total de ventas
 8171              		.loc 1 1480 0 discriminator 3
 8172 3156 434A     		ldr	r2, .L626+16
 8173 3158 1344     		add	r3, r3, r2
 8174 315a 2046     		mov	r0, r4
 8175 315c 93F82C10 		ldrb	r1, [r3, #44]	@ zero_extendqisi2
 8176 3160 FFF7FEFF 		bl	write_psoc1
 8177              	.LVL569:
1479:.\Protocolo.c **** 						for(x=0;x<=17;x++){									
 8178              		.loc 1 1479 0 discriminator 3
 8179 3164 3E4A     		ldr	r2, .L626+12
 8180 3166 1368     		ldr	r3, [r2]
 8181 3168 0133     		adds	r3, r3, #1
 8182 316a 1360     		str	r3, [r2]
 8183              	.L561:
1479:.\Protocolo.c **** 						for(x=0;x<=17;x++){									
 8184              		.loc 1 1479 0 is_stmt 0 discriminator 1
 8185 316c 3C4B     		ldr	r3, .L626+12
ARM GAS  C:\Users\IN-002~1\AppData\Local\Temp\ccxO8rjh.s 			page 178


 8186 316e 1B68     		ldr	r3, [r3]
 8187 3170 112B     		cmp	r3, #17
 8188 3172 F0D9     		bls	.L562
1481:.\Protocolo.c **** 						}
1482:.\Protocolo.c **** 						print_valor(resultado,val);							
 8189              		.loc 1 1482 0 is_stmt 1
 8190 3174 3C48     		ldr	r0, .L626+20
 8191 3176 2146     		mov	r1, r4
 8192 3178 FFF7FEFF 		bl	print_valor
 8193              	.LVL570:
1483:.\Protocolo.c **** 						if(dir==lado.a.dir){
 8194              		.loc 1 1483 0
 8195 317c 3B4B     		ldr	r3, .L626+24
 8196 317e 1B78     		ldrb	r3, [r3]	@ zero_extendqisi2
 8197 3180 AB42     		cmp	r3, r5
 8198 3182 0AD1     		bne	.L563
1484:.\Protocolo.c **** 						    write_eeprom(1096,corte);
 8199              		.loc 1 1484 0
 8200 3184 4FF48960 		mov	r0, #1096
 8201 3188 09A9     		add	r1, sp, #36
 8202 318a FFF7FEFF 		bl	write_eeprom
 8203              	.LVL571:
1485:.\Protocolo.c **** 						    write_eeprom(1038,resultado);
 8204              		.loc 1 1485 0
 8205 318e 40F20E40 		movw	r0, #1038
 8206 3192 3549     		ldr	r1, .L626+20
 8207 3194 FFF7FEFF 		bl	write_eeprom
 8208              	.LVL572:
 8209 3198 09E0     		b	.L548
 8210              	.L563:
1486:.\Protocolo.c **** 					    }
1487:.\Protocolo.c **** 					    else{
1488:.\Protocolo.c **** 						    write_eeprom(1054,corte);
 8211              		.loc 1 1488 0
 8212 319a 40F21E40 		movw	r0, #1054
 8213 319e 09A9     		add	r1, sp, #36
 8214 31a0 FFF7FEFF 		bl	write_eeprom
 8215              	.LVL573:
1489:.\Protocolo.c **** 						    write_eeprom(1081,resultado);
 8216              		.loc 1 1489 0
 8217 31a4 40F23940 		movw	r0, #1081
 8218 31a8 2F49     		ldr	r1, .L626+20
 8219 31aa FFF7FEFF 		bl	write_eeprom
 8220              	.LVL574:
 8221              	.L548:
1300:.\Protocolo.c **** 					rventa.manguera=(Surtidor_rxBuffer[y+2]&0x0F)+1;
 8222              		.loc 1 1300 0 discriminator 2
 8223 31ae 304A     		ldr	r2, .L626+28
 8224 31b0 1368     		ldr	r3, [r2]
 8225 31b2 2A33     		adds	r3, r3, #42
 8226 31b4 1360     		str	r3, [r2]
 8227              	.L483:
1300:.\Protocolo.c **** 					rventa.manguera=(Surtidor_rxBuffer[y+2]&0x0F)+1;
 8228              		.loc 1 1300 0 is_stmt 0 discriminator 1
 8229 31b6 2E4B     		ldr	r3, .L626+28
 8230 31b8 1E68     		ldr	r6, [r3]
 8231 31ba 542E     		cmp	r6, #84
ARM GAS  C:\Users\IN-002~1\AppData\Local\Temp\ccxO8rjh.s 			page 179


 8232 31bc 7FF6F9AB 		bls	.L564
1490:.\Protocolo.c **** 				        }					
1491:.\Protocolo.c **** 					}
1492:.\Protocolo.c **** 				}
1493:.\Protocolo.c **** 				Surtidor_ClearRxBuffer();
 8233              		.loc 1 1493 0 is_stmt 1
 8234 31c0 FFF7FEFF 		bl	Surtidor_ClearRxBuffer
 8235              	.LVL575:
1494:.\Protocolo.c **** 				return 3;					
 8236              		.loc 1 1494 0
 8237 31c4 0320     		movs	r0, #3
 8238 31c6 43E0     		b	.L76
 8239              	.L68:
1495:.\Protocolo.c **** 			}			
1496:.\Protocolo.c **** 			else{
1497:.\Protocolo.c **** 				return 0;
1498:.\Protocolo.c **** 			}			
1499:.\Protocolo.c **** 		break;
1500:.\Protocolo.c **** 			
1501:.\Protocolo.c **** 		default:
1502:.\Protocolo.c ****             for(x=0;x<15;x++){									
 8240              		.loc 1 1502 0
 8241 31c8 0022     		movs	r2, #0
 8242 31ca 254B     		ldr	r3, .L626+12
 8243 31cc 1A60     		str	r2, [r3]
 8244 31ce 0AE0     		b	.L565
 8245              	.L566:
1503:.\Protocolo.c **** 				write_psoc1(val,msn_totalcero[x]);				//Total de ventas
 8246              		.loc 1 1503 0 discriminator 3
 8247 31d0 244A     		ldr	r2, .L626+16
 8248 31d2 1344     		add	r3, r3, r2
 8249 31d4 2046     		mov	r0, r4
 8250 31d6 93F84010 		ldrb	r1, [r3, #64]	@ zero_extendqisi2
 8251 31da FFF7FEFF 		bl	write_psoc1
 8252              	.LVL576:
1502:.\Protocolo.c **** 				write_psoc1(val,msn_totalcero[x]);				//Total de ventas
 8253              		.loc 1 1502 0 discriminator 3
 8254 31de 204A     		ldr	r2, .L626+12
 8255 31e0 1368     		ldr	r3, [r2]
 8256 31e2 0133     		adds	r3, r3, #1
 8257 31e4 1360     		str	r3, [r2]
 8258              	.L565:
1502:.\Protocolo.c **** 				write_psoc1(val,msn_totalcero[x]);				//Total de ventas
 8259              		.loc 1 1502 0 is_stmt 0 discriminator 1
 8260 31e6 1E4B     		ldr	r3, .L626+12
 8261 31e8 1B68     		ldr	r3, [r3]
 8262 31ea 0E2B     		cmp	r3, #14
 8263 31ec F0D9     		bls	.L566
1504:.\Protocolo.c **** 			}
1505:.\Protocolo.c **** 			return 0;	
 8264              		.loc 1 1505 0 is_stmt 1
 8265 31ee 0020     		movs	r0, #0
 8266 31f0 2EE0     		b	.L76
 8267              	.L567:
 482:.\Protocolo.c **** 			}
 8268              		.loc 1 482 0
 8269 31f2 0020     		movs	r0, #0
ARM GAS  C:\Users\IN-002~1\AppData\Local\Temp\ccxO8rjh.s 			page 180


 8270 31f4 2CE0     		b	.L76
 8271              	.L568:
 8272 31f6 0020     		movs	r0, #0
 8273 31f8 2AE0     		b	.L76
 8274              	.L569:
 8275 31fa 0020     		movs	r0, #0
 8276 31fc 28E0     		b	.L76
 8277              	.L570:
 8278 31fe 0020     		movs	r0, #0
 8279 3200 26E0     		b	.L76
 8280              	.L571:
 686:.\Protocolo.c **** 			}
 8281              		.loc 1 686 0
 8282 3202 0020     		movs	r0, #0
 8283 3204 24E0     		b	.L76
 8284              	.L572:
 8285 3206 0020     		movs	r0, #0
 8286 3208 22E0     		b	.L76
 8287              	.L573:
 8288 320a 0020     		movs	r0, #0
 8289 320c 20E0     		b	.L76
 8290              	.L574:
 8291 320e 0020     		movs	r0, #0
 8292 3210 1EE0     		b	.L76
 8293              	.L575:
 890:.\Protocolo.c **** 			}			
 8294              		.loc 1 890 0
 8295 3212 0020     		movs	r0, #0
 8296 3214 1CE0     		b	.L76
 8297              	.L576:
 8298 3216 0020     		movs	r0, #0
 8299 3218 1AE0     		b	.L76
 8300              	.L577:
 8301 321a 0020     		movs	r0, #0
 8302 321c 18E0     		b	.L76
 8303              	.L578:
 8304 321e 0020     		movs	r0, #0
 8305 3220 16E0     		b	.L76
 8306              	.L579:
1091:.\Protocolo.c **** 			}			
 8307              		.loc 1 1091 0
 8308 3222 0020     		movs	r0, #0
 8309 3224 14E0     		b	.L76
 8310              	.L580:
 8311 3226 0020     		movs	r0, #0
 8312 3228 12E0     		b	.L76
 8313              	.L581:
 8314 322a 0020     		movs	r0, #0
 8315 322c 10E0     		b	.L76
 8316              	.L582:
 8317 322e 0020     		movs	r0, #0
 8318 3230 0EE0     		b	.L76
 8319              	.L583:
1294:.\Protocolo.c **** 			}			
 8320              		.loc 1 1294 0
 8321 3232 0020     		movs	r0, #0
 8322 3234 0CE0     		b	.L76
ARM GAS  C:\Users\IN-002~1\AppData\Local\Temp\ccxO8rjh.s 			page 181


 8323              	.L584:
 8324 3236 0020     		movs	r0, #0
 8325 3238 0AE0     		b	.L76
 8326              	.L585:
 8327 323a 0020     		movs	r0, #0
 8328 323c 08E0     		b	.L76
 8329              	.L586:
 8330 323e 0020     		movs	r0, #0
 8331 3240 06E0     		b	.L76
 8332              	.L587:
1497:.\Protocolo.c **** 			}			
 8333              		.loc 1 1497 0
 8334 3242 0020     		movs	r0, #0
 8335 3244 04E0     		b	.L76
 8336              	.L588:
 8337 3246 0020     		movs	r0, #0
 8338 3248 02E0     		b	.L76
 8339              	.L589:
 8340 324a 0020     		movs	r0, #0
 8341 324c 00E0     		b	.L76
 8342              	.L590:
 8343 324e 0020     		movs	r0, #0
 8344              	.L76:
1506:.\Protocolo.c **** 		break;	
1507:.\Protocolo.c **** 	}		
1508:.\Protocolo.c **** }
 8345              		.loc 1 1508 0
 8346 3250 10B0     		add	sp, sp, #64
 8347              		.cfi_def_cfa_offset 16
 8348              		@ sp needed
 8349 3252 70BD     		pop	{r4, r5, r6, pc}
 8350              	.L627:
 8351              		.align	2
 8352              	.L626:
 8353 3254 00000000 		.word	z
 8354 3258 FFFFFFFF 		.word	rventa-1
 8355 325c 00000000 		.word	buffer_i2c
 8356 3260 00000000 		.word	x
 8357 3264 00000000 		.word	.LANCHOR1
 8358 3268 00000000 		.word	resultado
 8359 326c 00000000 		.word	lado
 8360 3270 00000000 		.word	y
 8361              		.cfi_endproc
 8362              	.LFE68:
 8363              		.size	get_totales, .-get_totales
 8364              		.section	.text.programar,"ax",%progbits
 8365              		.align	2
 8366              		.global	programar
 8367              		.thumb
 8368              		.thumb_func
 8369              		.type	programar, %function
 8370              	programar:
 8371              	.LFB69:
1509:.\Protocolo.c **** 
1510:.\Protocolo.c **** /*
1511:.\Protocolo.c **** ***************************************************************************************************
1512:.\Protocolo.c **** *                                         uint8 programar(uint8 dir)
ARM GAS  C:\Users\IN-002~1\AppData\Local\Temp\ccxO8rjh.s 			page 182


1513:.\Protocolo.c **** *
1514:.\Protocolo.c **** * Description : 
1515:.\Protocolo.c **** *               
1516:.\Protocolo.c **** *
1517:.\Protocolo.c **** * Argument(s) : none
1518:.\Protocolo.c **** *
1519:.\Protocolo.c **** * Return(s)   : none
1520:.\Protocolo.c **** *
1521:.\Protocolo.c **** * Caller(s)   : 
1522:.\Protocolo.c **** *
1523:.\Protocolo.c **** * Note(s)     : none.
1524:.\Protocolo.c **** ***************************************************************************************************
1525:.\Protocolo.c **** */
1526:.\Protocolo.c **** uint8 programar(uint8 dir, uint8 grado, uint8 *valor, uint8 preset){
 8372              		.loc 1 1526 0
 8373              		.cfi_startproc
 8374              		@ args = 0, pretend = 0, frame = 24
 8375              		@ frame_needed = 0, uses_anonymous_args = 0
 8376              	.LVL577:
 8377 0000 2DE9F041 		push	{r4, r5, r6, r7, r8, lr}
 8378              		.cfi_def_cfa_offset 24
 8379              		.cfi_offset 4, -24
 8380              		.cfi_offset 5, -20
 8381              		.cfi_offset 6, -16
 8382              		.cfi_offset 7, -12
 8383              		.cfi_offset 8, -8
 8384              		.cfi_offset 14, -4
 8385 0004 86B0     		sub	sp, sp, #24
 8386              		.cfi_def_cfa_offset 48
1527:.\Protocolo.c **** 	uint8 buffer[18]={0,0,0,0,0,0,0,0,0,0,0,0,0,0,0,0,0,0},size=0,temp,i,j,decimal=0;
 8387              		.loc 1 1527 0
 8388 0006 0024     		movs	r4, #0
 8389 0008 0194     		str	r4, [sp, #4]
 8390 000a 0294     		str	r4, [sp, #8]
 8391 000c 0394     		str	r4, [sp, #12]
 8392 000e 0494     		str	r4, [sp, #16]
 8393 0010 ADF81440 		strh	r4, [sp, #20]	@ movhi
 8394              	.LVL578:
1528:.\Protocolo.c **** 	temp=4;
1529:.\Protocolo.c **** 	if(((versurt==5)||(versurt==6))&&(preset==1)){
 8395              		.loc 1 1529 0
 8396 0014 C24C     		ldr	r4, .L692
 8397 0016 2478     		ldrb	r4, [r4]	@ zero_extendqisi2
 8398 0018 651F     		subs	r5, r4, #5
 8399 001a EDB2     		uxtb	r5, r5
 8400 001c 012D     		cmp	r5, #1
 8401 001e 04D8     		bhi	.L679
 8402              		.loc 1 1529 0 is_stmt 0 discriminator 1
 8403 0020 012B     		cmp	r3, #1
 8404 0022 05D0     		beq	.L680
1528:.\Protocolo.c **** 	temp=4;
 8405              		.loc 1 1528 0 is_stmt 1
 8406 0024 4FF0040E 		mov	lr, #4
 8407 0028 04E0     		b	.L629
 8408              	.L679:
 8409 002a 4FF0040E 		mov	lr, #4
 8410 002e 01E0     		b	.L629
ARM GAS  C:\Users\IN-002~1\AppData\Local\Temp\ccxO8rjh.s 			page 183


 8411              	.L680:
1530:.\Protocolo.c **** 		temp=3;
 8412              		.loc 1 1530 0
 8413 0030 4FF0030E 		mov	lr, #3
 8414              	.L629:
 8415              	.LVL579:
1531:.\Protocolo.c **** 	}
1532:.\Protocolo.c **** 	if((versurt==5)&&(preset==2)){
 8416              		.loc 1 1532 0
 8417 0034 052C     		cmp	r4, #5
 8418 0036 03D1     		bne	.L630
 8419              		.loc 1 1532 0 is_stmt 0 discriminator 1
 8420 0038 022B     		cmp	r3, #2
 8421 003a 01D1     		bne	.L630
1533:.\Protocolo.c **** 		temp=5;
 8422              		.loc 1 1533 0 is_stmt 1
 8423 003c 4FF0050E 		mov	lr, #5
 8424              	.LVL580:
 8425              	.L630:
1534:.\Protocolo.c **** 	}
1535:.\Protocolo.c **** 	if((versurt==7)&&(preset==1)){
 8426              		.loc 1 1535 0
 8427 0040 072C     		cmp	r4, #7
 8428 0042 03D1     		bne	.L631
 8429              		.loc 1 1535 0 is_stmt 0 discriminator 1
 8430 0044 012B     		cmp	r3, #1
 8431 0046 01D1     		bne	.L631
1536:.\Protocolo.c **** 		temp=0;
 8432              		.loc 1 1536 0 is_stmt 1
 8433 0048 4FF0000E 		mov	lr, #0
 8434              	.LVL581:
 8435              	.L631:
1537:.\Protocolo.c **** 	}
1538:.\Protocolo.c **** 	if((versurt==7)&&(preset==2)){
 8436              		.loc 1 1538 0
 8437 004c 072C     		cmp	r4, #7
 8438 004e 03D1     		bne	.L632
 8439              		.loc 1 1538 0 is_stmt 0 discriminator 1
 8440 0050 022B     		cmp	r3, #2
 8441 0052 01D1     		bne	.L632
1539:.\Protocolo.c **** 		temp=2;
 8442              		.loc 1 1539 0 is_stmt 1
 8443 0054 4FF0020E 		mov	lr, #2
 8444              	.LVL582:
 8445              	.L632:
1540:.\Protocolo.c **** 	}	
1541:.\Protocolo.c **** 	decimal=0;
 8446              		.loc 1 1541 0
 8447 0058 0025     		movs	r5, #0
1542:.\Protocolo.c **** 	for(i=1;i<=valor[0];i++){
 8448              		.loc 1 1542 0
 8449 005a 0124     		movs	r4, #1
 8450 005c 0FE0     		b	.L633
 8451              	.LVL583:
 8452              	.L636:
1543:.\Protocolo.c **** 		if(decimal>=1){
 8453              		.loc 1 1543 0
ARM GAS  C:\Users\IN-002~1\AppData\Local\Temp\ccxO8rjh.s 			page 184


 8454 005e 25B1     		cbz	r5, .L634
1544:.\Protocolo.c **** 			decimal++;
 8455              		.loc 1 1544 0
 8456 0060 0135     		adds	r5, r5, #1
 8457              	.LVL584:
 8458 0062 EDB2     		uxtb	r5, r5
 8459              	.LVL585:
1545:.\Protocolo.c **** 			valor[i]=valor[i+1];
 8460              		.loc 1 1545 0
 8461 0064 1619     		adds	r6, r2, r4
 8462 0066 7678     		ldrb	r6, [r6, #1]	@ zero_extendqisi2
 8463 0068 1655     		strb	r6, [r2, r4]
 8464              	.L634:
1546:.\Protocolo.c **** 		}				
1547:.\Protocolo.c **** 		if(valor[i]==','){
 8465              		.loc 1 1547 0
 8466 006a 165D     		ldrb	r6, [r2, r4]	@ zero_extendqisi2
 8467 006c 2C2E     		cmp	r6, #44
 8468 006e 04D1     		bne	.L635
1548:.\Protocolo.c **** 			decimal++;
 8469              		.loc 1 1548 0
 8470 0070 0135     		adds	r5, r5, #1
 8471              	.LVL586:
 8472 0072 EDB2     		uxtb	r5, r5
 8473              	.LVL587:
1549:.\Protocolo.c **** 			valor[i]=valor[i+1];
 8474              		.loc 1 1549 0
 8475 0074 1619     		adds	r6, r2, r4
 8476 0076 7678     		ldrb	r6, [r6, #1]	@ zero_extendqisi2
 8477 0078 1655     		strb	r6, [r2, r4]
 8478              	.L635:
1542:.\Protocolo.c **** 		if(decimal>=1){
 8479              		.loc 1 1542 0 discriminator 2
 8480 007a 0134     		adds	r4, r4, #1
 8481              	.LVL588:
 8482 007c E4B2     		uxtb	r4, r4
 8483              	.LVL589:
 8484              	.L633:
1542:.\Protocolo.c **** 		if(decimal>=1){
 8485              		.loc 1 1542 0 is_stmt 0 discriminator 1
 8486 007e 1678     		ldrb	r6, [r2]	@ zero_extendqisi2
 8487 0080 A642     		cmp	r6, r4
 8488 0082 ECD2     		bcs	.L636
1550:.\Protocolo.c **** 		}
1551:.\Protocolo.c **** 	}
1552:.\Protocolo.c **** 	if(decimal>=1){
 8489              		.loc 1 1552 0 is_stmt 1
 8490 0084 1DB1     		cbz	r5, .L637
1553:.\Protocolo.c **** 		decimal=decimal-1;
 8491              		.loc 1 1553 0
 8492 0086 013D     		subs	r5, r5, #1
 8493              	.LVL590:
 8494 0088 EDB2     		uxtb	r5, r5
 8495              	.LVL591:
1554:.\Protocolo.c **** 		valor[0]=valor[0]-1;
 8496              		.loc 1 1554 0
 8497 008a 013E     		subs	r6, r6, #1
ARM GAS  C:\Users\IN-002~1\AppData\Local\Temp\ccxO8rjh.s 			page 185


 8498 008c 1670     		strb	r6, [r2]
 8499              	.L637:
1555:.\Protocolo.c **** 	}	
1556:.\Protocolo.c **** 	if(decimal>=4){
 8500              		.loc 1 1556 0
 8501 008e 032D     		cmp	r5, #3
 8502 0090 00F2EC81 		bhi	.L684
1557:.\Protocolo.c **** 		return 0;
1558:.\Protocolo.c **** 	}	
1559:.\Protocolo.c **** 	if(versurt!=7){		
 8503              		.loc 1 1559 0
 8504 0094 A24C     		ldr	r4, .L692
 8505              	.LVL592:
 8506 0096 94F800C0 		ldrb	ip, [r4]	@ zero_extendqisi2
 8507 009a BCF1070F 		cmp	ip, #7
 8508 009e 00F0F080 		beq	.L685
1560:.\Protocolo.c **** 		buffer[0]=0xFF;
 8509              		.loc 1 1560 0
 8510 00a2 FF24     		movs	r4, #255
 8511 00a4 8DF80440 		strb	r4, [sp, #4]
1561:.\Protocolo.c **** 		buffer[1]=(0xE0|temp);
 8512              		.loc 1 1561 0
 8513 00a8 6EF01F04 		orn	r4, lr, #31
 8514 00ac 8DF80540 		strb	r4, [sp, #5]
1562:.\Protocolo.c **** 		buffer[2]=(0xF0|preset);
 8515              		.loc 1 1562 0
 8516 00b0 63F00F04 		orn	r4, r3, #15
 8517 00b4 8DF80640 		strb	r4, [sp, #6]
1563:.\Protocolo.c **** 		buffer[3]=0xF4;
 8518              		.loc 1 1563 0
 8519 00b8 F424     		movs	r4, #244
 8520 00ba 8DF80740 		strb	r4, [sp, #7]
1564:.\Protocolo.c **** 		buffer[4]=0xF8;	
 8521              		.loc 1 1564 0
 8522 00be F824     		movs	r4, #248
 8523 00c0 8DF80840 		strb	r4, [sp, #8]
 8524              	.LVL593:
1565:.\Protocolo.c **** 		for(i=5;i<((5+decimalD)-decimal);i++){
 8525              		.loc 1 1565 0
 8526 00c4 0524     		movs	r4, #5
 8527 00c6 06E0     		b	.L640
 8528              	.LVL594:
 8529              	.L641:
1566:.\Protocolo.c **** 			buffer[i]=0xE0;
 8530              		.loc 1 1566 0 discriminator 3
 8531 00c8 06AE     		add	r6, sp, #24
 8532 00ca 2644     		add	r6, r6, r4
 8533 00cc E027     		movs	r7, #224
 8534 00ce 06F8147C 		strb	r7, [r6, #-20]
1565:.\Protocolo.c **** 		for(i=5;i<((5+decimalD)-decimal);i++){
 8535              		.loc 1 1565 0 discriminator 3
 8536 00d2 0134     		adds	r4, r4, #1
 8537              	.LVL595:
 8538 00d4 E4B2     		uxtb	r4, r4
 8539              	.LVL596:
 8540              	.L640:
1565:.\Protocolo.c **** 		for(i=5;i<((5+decimalD)-decimal);i++){
ARM GAS  C:\Users\IN-002~1\AppData\Local\Temp\ccxO8rjh.s 			page 186


 8541              		.loc 1 1565 0 is_stmt 0 discriminator 1
 8542 00d6 A046     		mov	r8, r4
 8543 00d8 924E     		ldr	r6, .L692+4
 8544 00da 3678     		ldrb	r6, [r6]	@ zero_extendqisi2
 8545 00dc 0536     		adds	r6, r6, #5
 8546 00de 761B     		subs	r6, r6, r5
 8547 00e0 B442     		cmp	r4, r6
 8548 00e2 F1DB     		blt	.L641
 8549 00e4 0DE0     		b	.L642
 8550              	.LVL597:
 8551              	.L643:
1567:.\Protocolo.c **** 		}
1568:.\Protocolo.c **** 		for(j=i;j<(i+valor[0]);j++){
1569:.\Protocolo.c **** 			buffer[j]=(0xE0|(valor[valor[0]-(j-i)]&0x0F));	
 8552              		.loc 1 1569 0 is_stmt 1 discriminator 3
 8553 00e6 C4EB0806 		rsb	r6, r4, r8
 8554 00ea 3744     		add	r7, r7, r6
 8555 00ec D65D     		ldrb	r6, [r2, r7]	@ zero_extendqisi2
 8556 00ee 06AF     		add	r7, sp, #24
 8557 00f0 2744     		add	r7, r7, r4
 8558 00f2 06F00F06 		and	r6, r6, #15
 8559 00f6 66F01F06 		orn	r6, r6, #31
 8560 00fa 07F8146C 		strb	r6, [r7, #-20]
1568:.\Protocolo.c **** 			buffer[j]=(0xE0|(valor[valor[0]-(j-i)]&0x0F));	
 8561              		.loc 1 1568 0 discriminator 3
 8562 00fe 0134     		adds	r4, r4, #1
 8563              	.LVL598:
 8564 0100 E4B2     		uxtb	r4, r4
 8565              	.LVL599:
 8566              	.L642:
1568:.\Protocolo.c **** 			buffer[j]=(0xE0|(valor[valor[0]-(j-i)]&0x0F));	
 8567              		.loc 1 1568 0 is_stmt 0 discriminator 1
 8568 0102 1778     		ldrb	r7, [r2]	@ zero_extendqisi2
 8569 0104 08EB0706 		add	r6, r8, r7
 8570 0108 B442     		cmp	r4, r6
 8571 010a ECDB     		blt	.L643
 8572 010c 07E0     		b	.L644
 8573              	.LVL600:
 8574              	.L645:
1570:.\Protocolo.c **** 		}
1571:.\Protocolo.c **** 		for(i=j;i<=10;i++){
1572:.\Protocolo.c **** 			buffer[i]=0xE0;
 8575              		.loc 1 1572 0 is_stmt 1 discriminator 3
 8576 010e 06AE     		add	r6, sp, #24
 8577 0110 2644     		add	r6, r6, r4
 8578 0112 4FF0E008 		mov	r8, #224
 8579 0116 06F8148C 		strb	r8, [r6, #-20]
1571:.\Protocolo.c **** 			buffer[i]=0xE0;
 8580              		.loc 1 1571 0 discriminator 3
 8581 011a 0134     		adds	r4, r4, #1
 8582              	.LVL601:
 8583 011c E4B2     		uxtb	r4, r4
 8584              	.LVL602:
 8585              	.L644:
1571:.\Protocolo.c **** 			buffer[i]=0xE0;
 8586              		.loc 1 1571 0 is_stmt 0 discriminator 1
 8587 011e 0A2C     		cmp	r4, #10
ARM GAS  C:\Users\IN-002~1\AppData\Local\Temp\ccxO8rjh.s 			page 187


 8588 0120 F5D9     		bls	.L645
1573:.\Protocolo.c **** 		}
1574:.\Protocolo.c **** 		buffer[11]=0xFB;
 8589              		.loc 1 1574 0 is_stmt 1
 8590 0122 FB24     		movs	r4, #251
 8591              	.LVL603:
 8592 0124 8DF80F40 		strb	r4, [sp, #15]
1575:.\Protocolo.c **** 		buffer[12]=0;
 8593              		.loc 1 1575 0
 8594 0128 0024     		movs	r4, #0
 8595 012a 8DF81040 		strb	r4, [sp, #16]
 8596              	.LVL604:
1576:.\Protocolo.c **** 		for(i=0;i<=11;i++){
 8597              		.loc 1 1576 0
 8598 012e 0CE0     		b	.L646
 8599              	.LVL605:
 8600              	.L647:
1577:.\Protocolo.c **** 			buffer[12]+=(buffer[i]&0x0F);	
 8601              		.loc 1 1577 0 discriminator 3
 8602 0130 06AE     		add	r6, sp, #24
 8603 0132 2644     		add	r6, r6, r4
 8604 0134 16F8146C 		ldrb	r6, [r6, #-20]	@ zero_extendqisi2
 8605 0138 06F00F06 		and	r6, r6, #15
 8606 013c 9DF81080 		ldrb	r8, [sp, #16]	@ zero_extendqisi2
 8607 0140 4644     		add	r6, r6, r8
 8608 0142 8DF81060 		strb	r6, [sp, #16]
1576:.\Protocolo.c **** 		for(i=0;i<=11;i++){
 8609              		.loc 1 1576 0 discriminator 3
 8610 0146 0134     		adds	r4, r4, #1
 8611              	.LVL606:
 8612 0148 E4B2     		uxtb	r4, r4
 8613              	.LVL607:
 8614              	.L646:
1576:.\Protocolo.c **** 		for(i=0;i<=11;i++){
 8615              		.loc 1 1576 0 is_stmt 0 discriminator 1
 8616 014a 0B2C     		cmp	r4, #11
 8617 014c F0D9     		bls	.L647
1578:.\Protocolo.c **** 		}
1579:.\Protocolo.c **** 		buffer[12]=(((~buffer[12])+1)&0x0F)|0xE0;
 8618              		.loc 1 1579 0 is_stmt 1
 8619 014e 9DF81040 		ldrb	r4, [sp, #16]	@ zero_extendqisi2
 8620              	.LVL608:
 8621 0152 6442     		negs	r4, r4
 8622 0154 04F00F04 		and	r4, r4, #15
 8623 0158 64F01F04 		orn	r4, r4, #31
 8624 015c 8DF81040 		strb	r4, [sp, #16]
1580:.\Protocolo.c **** 		buffer[13]=0xF0;
 8625              		.loc 1 1580 0
 8626 0160 F024     		movs	r4, #240
 8627 0162 8DF81140 		strb	r4, [sp, #17]
 8628              	.LVL609:
1581:.\Protocolo.c **** 		size=13;
1582:.\Protocolo.c **** 		if(versurt==5){
 8629              		.loc 1 1582 0
 8630 0166 BCF1050F 		cmp	ip, #5
 8631 016a 23D1     		bne	.L686
1583:.\Protocolo.c **** 			buffer[10]=0xFB;
ARM GAS  C:\Users\IN-002~1\AppData\Local\Temp\ccxO8rjh.s 			page 188


 8632              		.loc 1 1583 0
 8633 016c FB24     		movs	r4, #251
 8634 016e 8DF80E40 		strb	r4, [sp, #14]
1584:.\Protocolo.c **** 			buffer[11]=0;
 8635              		.loc 1 1584 0
 8636 0172 0024     		movs	r4, #0
 8637 0174 8DF80F40 		strb	r4, [sp, #15]
 8638              	.LVL610:
1585:.\Protocolo.c **** 			for(i=0;i<=10;i++){
 8639              		.loc 1 1585 0
 8640 0178 0CE0     		b	.L649
 8641              	.LVL611:
 8642              	.L650:
1586:.\Protocolo.c **** 				buffer[11]+=(buffer[i]&0x0F);	
 8643              		.loc 1 1586 0 discriminator 3
 8644 017a 06AE     		add	r6, sp, #24
 8645 017c 2644     		add	r6, r6, r4
 8646 017e 16F8146C 		ldrb	r6, [r6, #-20]	@ zero_extendqisi2
 8647 0182 06F00F06 		and	r6, r6, #15
 8648 0186 9DF80FC0 		ldrb	ip, [sp, #15]	@ zero_extendqisi2
 8649 018a 6644     		add	r6, r6, ip
 8650 018c 8DF80F60 		strb	r6, [sp, #15]
1585:.\Protocolo.c **** 			for(i=0;i<=10;i++){
 8651              		.loc 1 1585 0 discriminator 3
 8652 0190 0134     		adds	r4, r4, #1
 8653              	.LVL612:
 8654 0192 E4B2     		uxtb	r4, r4
 8655              	.LVL613:
 8656              	.L649:
1585:.\Protocolo.c **** 			for(i=0;i<=10;i++){
 8657              		.loc 1 1585 0 is_stmt 0 discriminator 1
 8658 0194 0A2C     		cmp	r4, #10
 8659 0196 F0D9     		bls	.L650
1587:.\Protocolo.c **** 			}
1588:.\Protocolo.c **** 			buffer[11]=(((~buffer[11])+1)&0x0F)|0xE0;
 8660              		.loc 1 1588 0 is_stmt 1
 8661 0198 9DF80F40 		ldrb	r4, [sp, #15]	@ zero_extendqisi2
 8662              	.LVL614:
 8663 019c 6442     		negs	r4, r4
 8664 019e 04F00F04 		and	r4, r4, #15
 8665 01a2 64F01F04 		orn	r4, r4, #31
 8666 01a6 8DF80F40 		strb	r4, [sp, #15]
1589:.\Protocolo.c **** 			buffer[12]=0xF0;
 8667              		.loc 1 1589 0
 8668 01aa F024     		movs	r4, #240
 8669 01ac 8DF81040 		strb	r4, [sp, #16]
 8670              	.LVL615:
1590:.\Protocolo.c **** 			size=12;		
 8671              		.loc 1 1590 0
 8672 01b0 0C24     		movs	r4, #12
 8673 01b2 00E0     		b	.L648
 8674              	.LVL616:
 8675              	.L686:
1581:.\Protocolo.c **** 		if(versurt==5){
 8676              		.loc 1 1581 0
 8677 01b4 0D24     		movs	r4, #13
 8678              	.LVL617:
ARM GAS  C:\Users\IN-002~1\AppData\Local\Temp\ccxO8rjh.s 			page 189


 8679              	.L648:
1591:.\Protocolo.c **** 		}
1592:.\Protocolo.c **** 		if(preset==1){
 8680              		.loc 1 1592 0
 8681 01b6 012B     		cmp	r3, #1
 8682 01b8 64D1     		bne	.L639
1593:.\Protocolo.c **** 			if(decimal==3){
 8683              		.loc 1 1593 0
 8684 01ba 032D     		cmp	r5, #3
 8685 01bc 03D1     		bne	.L651
1594:.\Protocolo.c **** 				valor[0]=valor[0]-1;
 8686              		.loc 1 1594 0
 8687 01be 013F     		subs	r7, r7, #1
 8688 01c0 1770     		strb	r7, [r2]
1595:.\Protocolo.c **** 				decimal=decimal-1;
 8689              		.loc 1 1595 0
 8690 01c2 013D     		subs	r5, r5, #1
 8691              	.LVL618:
 8692 01c4 EDB2     		uxtb	r5, r5
 8693              	.LVL619:
 8694              	.L651:
1596:.\Protocolo.c **** 			}
1597:.\Protocolo.c **** 			buffer[4]=0xF6;
 8695              		.loc 1 1597 0
 8696 01c6 F624     		movs	r4, #246
 8697              	.LVL620:
 8698 01c8 8DF80840 		strb	r4, [sp, #8]
1598:.\Protocolo.c **** 			buffer[5]=(0xE0|(grado-1));
 8699              		.loc 1 1598 0
 8700 01cc 4C1E     		subs	r4, r1, #1
 8701 01ce 64F01F04 		orn	r4, r4, #31
 8702 01d2 8DF80940 		strb	r4, [sp, #9]
1599:.\Protocolo.c **** 			buffer[6]=0xF8;
 8703              		.loc 1 1599 0
 8704 01d6 F824     		movs	r4, #248
 8705 01d8 8DF80A40 		strb	r4, [sp, #10]
 8706              	.LVL621:
1600:.\Protocolo.c **** 			for(i=7;i<((7+(decimalV-1))-decimal);i++){
 8707              		.loc 1 1600 0
 8708 01dc 0724     		movs	r4, #7
 8709 01de 06E0     		b	.L652
 8710              	.LVL622:
 8711              	.L653:
1601:.\Protocolo.c **** 				buffer[i]=0xE0;
 8712              		.loc 1 1601 0 discriminator 3
 8713 01e0 06AE     		add	r6, sp, #24
 8714 01e2 2644     		add	r6, r6, r4
 8715 01e4 E027     		movs	r7, #224
 8716 01e6 06F8147C 		strb	r7, [r6, #-20]
1600:.\Protocolo.c **** 			for(i=7;i<((7+(decimalV-1))-decimal);i++){
 8717              		.loc 1 1600 0 discriminator 3
 8718 01ea 0134     		adds	r4, r4, #1
 8719              	.LVL623:
 8720 01ec E4B2     		uxtb	r4, r4
 8721              	.LVL624:
 8722              	.L652:
1600:.\Protocolo.c **** 			for(i=7;i<((7+(decimalV-1))-decimal);i++){
ARM GAS  C:\Users\IN-002~1\AppData\Local\Temp\ccxO8rjh.s 			page 190


 8723              		.loc 1 1600 0 is_stmt 0 discriminator 1
 8724 01ee 2746     		mov	r7, r4
 8725 01f0 4D4E     		ldr	r6, .L692+8
 8726 01f2 3678     		ldrb	r6, [r6]	@ zero_extendqisi2
 8727 01f4 0636     		adds	r6, r6, #6
 8728 01f6 761B     		subs	r6, r6, r5
 8729 01f8 B442     		cmp	r4, r6
 8730 01fa F1DB     		blt	.L653
 8731 01fc 0DE0     		b	.L654
 8732              	.LVL625:
 8733              	.L655:
1602:.\Protocolo.c **** 			}
1603:.\Protocolo.c **** 			for(j=i;j<(i+valor[0]);j++){
1604:.\Protocolo.c **** 				buffer[j]=(0xE0|(valor[valor[0]-(j-i)]&0x0F));	
 8734              		.loc 1 1604 0 is_stmt 1 discriminator 3
 8735 01fe 3E1B     		subs	r6, r7, r4
 8736 0200 6644     		add	r6, r6, ip
 8737 0202 965D     		ldrb	r6, [r2, r6]	@ zero_extendqisi2
 8738 0204 0DF1180C 		add	ip, sp, #24
 8739 0208 A444     		add	ip, ip, r4
 8740 020a 06F00F06 		and	r6, r6, #15
 8741 020e 66F01F06 		orn	r6, r6, #31
 8742 0212 0CF8146C 		strb	r6, [ip, #-20]
1603:.\Protocolo.c **** 				buffer[j]=(0xE0|(valor[valor[0]-(j-i)]&0x0F));	
 8743              		.loc 1 1603 0 discriminator 3
 8744 0216 0134     		adds	r4, r4, #1
 8745              	.LVL626:
 8746 0218 E4B2     		uxtb	r4, r4
 8747              	.LVL627:
 8748              	.L654:
1603:.\Protocolo.c **** 				buffer[j]=(0xE0|(valor[valor[0]-(j-i)]&0x0F));	
 8749              		.loc 1 1603 0 is_stmt 0 discriminator 1
 8750 021a 92F800C0 		ldrb	ip, [r2]	@ zero_extendqisi2
 8751 021e 07EB0C06 		add	r6, r7, ip
 8752 0222 B442     		cmp	r4, r6
 8753 0224 EBDB     		blt	.L655
 8754 0226 06E0     		b	.L656
 8755              	.LVL628:
 8756              	.L657:
1605:.\Protocolo.c **** 			}
1606:.\Protocolo.c **** 			for(i=j;i<=11;i++){
1607:.\Protocolo.c **** 				buffer[i]=0xE0;
 8757              		.loc 1 1607 0 is_stmt 1 discriminator 3
 8758 0228 06AE     		add	r6, sp, #24
 8759 022a 2644     		add	r6, r6, r4
 8760 022c E027     		movs	r7, #224
 8761 022e 06F8147C 		strb	r7, [r6, #-20]
1606:.\Protocolo.c **** 				buffer[i]=0xE0;
 8762              		.loc 1 1606 0 discriminator 3
 8763 0232 0134     		adds	r4, r4, #1
 8764              	.LVL629:
 8765 0234 E4B2     		uxtb	r4, r4
 8766              	.LVL630:
 8767              	.L656:
1606:.\Protocolo.c **** 				buffer[i]=0xE0;
 8768              		.loc 1 1606 0 is_stmt 0 discriminator 1
 8769 0236 0B2C     		cmp	r4, #11
ARM GAS  C:\Users\IN-002~1\AppData\Local\Temp\ccxO8rjh.s 			page 191


 8770 0238 F6D9     		bls	.L657
1608:.\Protocolo.c **** 			}			
1609:.\Protocolo.c **** 			buffer[12]=0xFB;
 8771              		.loc 1 1609 0 is_stmt 1
 8772 023a FB24     		movs	r4, #251
 8773              	.LVL631:
 8774 023c 8DF81040 		strb	r4, [sp, #16]
1610:.\Protocolo.c **** 			buffer[13]=0;
 8775              		.loc 1 1610 0
 8776 0240 0024     		movs	r4, #0
 8777 0242 8DF81140 		strb	r4, [sp, #17]
 8778              	.LVL632:
1611:.\Protocolo.c **** 			for(i=0;i<=12;i++){
 8779              		.loc 1 1611 0
 8780 0246 0CE0     		b	.L658
 8781              	.LVL633:
 8782              	.L659:
1612:.\Protocolo.c **** 				buffer[13]+=(buffer[i]&0x0F);	
 8783              		.loc 1 1612 0 discriminator 3
 8784 0248 06AE     		add	r6, sp, #24
 8785 024a 2644     		add	r6, r6, r4
 8786 024c 16F8146C 		ldrb	r6, [r6, #-20]	@ zero_extendqisi2
 8787 0250 06F00F06 		and	r6, r6, #15
 8788 0254 9DF81170 		ldrb	r7, [sp, #17]	@ zero_extendqisi2
 8789 0258 3E44     		add	r6, r6, r7
 8790 025a 8DF81160 		strb	r6, [sp, #17]
1611:.\Protocolo.c **** 			for(i=0;i<=12;i++){
 8791              		.loc 1 1611 0 discriminator 3
 8792 025e 0134     		adds	r4, r4, #1
 8793              	.LVL634:
 8794 0260 E4B2     		uxtb	r4, r4
 8795              	.LVL635:
 8796              	.L658:
1611:.\Protocolo.c **** 			for(i=0;i<=12;i++){
 8797              		.loc 1 1611 0 is_stmt 0 discriminator 1
 8798 0262 0C2C     		cmp	r4, #12
 8799 0264 F0D9     		bls	.L659
1613:.\Protocolo.c **** 			}
1614:.\Protocolo.c **** 			buffer[13]=(((~buffer[13])+1)&0x0F)|0xE0;			
 8800              		.loc 1 1614 0 is_stmt 1
 8801 0266 9DF81140 		ldrb	r4, [sp, #17]	@ zero_extendqisi2
 8802              	.LVL636:
 8803 026a 6442     		negs	r4, r4
 8804 026c 04F00F04 		and	r4, r4, #15
 8805 0270 64F01F04 		orn	r4, r4, #31
 8806 0274 8DF81140 		strb	r4, [sp, #17]
1615:.\Protocolo.c **** 			buffer[14]=0xF0;
 8807              		.loc 1 1615 0
 8808 0278 F024     		movs	r4, #240
 8809 027a 8DF81240 		strb	r4, [sp, #18]
 8810              	.LVL637:
1616:.\Protocolo.c **** 			size=14;
 8811              		.loc 1 1616 0
 8812 027e 0E24     		movs	r4, #14
 8813 0280 00E0     		b	.L639
 8814              	.LVL638:
 8815              	.L685:
ARM GAS  C:\Users\IN-002~1\AppData\Local\Temp\ccxO8rjh.s 			page 192


1527:.\Protocolo.c **** 	temp=4;
 8816              		.loc 1 1527 0
 8817 0282 0024     		movs	r4, #0
 8818              	.LVL639:
 8819              	.L639:
1617:.\Protocolo.c **** 		}	
1618:.\Protocolo.c **** 	}	
1619:.\Protocolo.c **** 	if(versurt==7){
 8820              		.loc 1 1619 0
 8821 0284 264E     		ldr	r6, .L692
 8822 0286 3678     		ldrb	r6, [r6]	@ zero_extendqisi2
 8823 0288 072E     		cmp	r6, #7
 8824 028a 40F0C780 		bne	.L660
1620:.\Protocolo.c **** 		buffer[0]=0xFF;
 8825              		.loc 1 1620 0
 8826 028e FF24     		movs	r4, #255
 8827              	.LVL640:
 8828 0290 8DF80440 		strb	r4, [sp, #4]
1621:.\Protocolo.c **** 		buffer[1]=(0xE0|temp);
 8829              		.loc 1 1621 0
 8830 0294 6EF01F0E 		orn	lr, lr, #31
 8831              	.LVL641:
 8832 0298 8DF805E0 		strb	lr, [sp, #5]
1622:.\Protocolo.c **** 		buffer[2]=(0xF0|preset);
 8833              		.loc 1 1622 0
 8834 029c 63F00F04 		orn	r4, r3, #15
 8835 02a0 8DF80640 		strb	r4, [sp, #6]
1623:.\Protocolo.c **** 		buffer[3]=0xF4;
 8836              		.loc 1 1623 0
 8837 02a4 F424     		movs	r4, #244
 8838 02a6 8DF80740 		strb	r4, [sp, #7]
1624:.\Protocolo.c **** 		buffer[4]=0xF8;	
 8839              		.loc 1 1624 0
 8840 02aa F824     		movs	r4, #248
 8841 02ac 8DF80840 		strb	r4, [sp, #8]
 8842              	.LVL642:
1625:.\Protocolo.c **** 		for(i=5;i<((5+decimalD)-decimal);i++){
 8843              		.loc 1 1625 0
 8844 02b0 0524     		movs	r4, #5
 8845 02b2 06E0     		b	.L661
 8846              	.LVL643:
 8847              	.L662:
1626:.\Protocolo.c **** 			buffer[i]=0xE0;
 8848              		.loc 1 1626 0 discriminator 3
 8849 02b4 06AE     		add	r6, sp, #24
 8850 02b6 2644     		add	r6, r6, r4
 8851 02b8 E027     		movs	r7, #224
 8852 02ba 06F8147C 		strb	r7, [r6, #-20]
1625:.\Protocolo.c **** 		for(i=5;i<((5+decimalD)-decimal);i++){
 8853              		.loc 1 1625 0 discriminator 3
 8854 02be 0134     		adds	r4, r4, #1
 8855              	.LVL644:
 8856 02c0 E4B2     		uxtb	r4, r4
 8857              	.LVL645:
 8858              	.L661:
1625:.\Protocolo.c **** 		for(i=5;i<((5+decimalD)-decimal);i++){
 8859              		.loc 1 1625 0 is_stmt 0 discriminator 1
ARM GAS  C:\Users\IN-002~1\AppData\Local\Temp\ccxO8rjh.s 			page 193


 8860 02c2 A646     		mov	lr, r4
 8861 02c4 174E     		ldr	r6, .L692+4
 8862 02c6 3678     		ldrb	r6, [r6]	@ zero_extendqisi2
 8863 02c8 0536     		adds	r6, r6, #5
 8864 02ca 2F46     		mov	r7, r5
 8865 02cc 761B     		subs	r6, r6, r5
 8866 02ce B442     		cmp	r4, r6
 8867 02d0 F0DB     		blt	.L662
 8868 02d2 0DE0     		b	.L663
 8869              	.LVL646:
 8870              	.L664:
1627:.\Protocolo.c **** 		}
1628:.\Protocolo.c **** 		for(j=i;j<(i+valor[0]);j++){
1629:.\Protocolo.c **** 			buffer[j]=(0xE0|(valor[valor[0]-(j-i)]&0x0F));	
 8871              		.loc 1 1629 0 is_stmt 1 discriminator 3
 8872 02d4 C4EB0E05 		rsb	r5, r4, lr
 8873 02d8 2E44     		add	r6, r6, r5
 8874 02da 955D     		ldrb	r5, [r2, r6]	@ zero_extendqisi2
 8875 02dc 06AE     		add	r6, sp, #24
 8876 02de 2644     		add	r6, r6, r4
 8877 02e0 05F00F05 		and	r5, r5, #15
 8878 02e4 65F01F05 		orn	r5, r5, #31
 8879 02e8 06F8145C 		strb	r5, [r6, #-20]
1628:.\Protocolo.c **** 			buffer[j]=(0xE0|(valor[valor[0]-(j-i)]&0x0F));	
 8880              		.loc 1 1628 0 discriminator 3
 8881 02ec 0134     		adds	r4, r4, #1
 8882              	.LVL647:
 8883 02ee E4B2     		uxtb	r4, r4
 8884              	.LVL648:
 8885              	.L663:
1628:.\Protocolo.c **** 			buffer[j]=(0xE0|(valor[valor[0]-(j-i)]&0x0F));	
 8886              		.loc 1 1628 0 is_stmt 0 discriminator 1
 8887 02f0 1678     		ldrb	r6, [r2]	@ zero_extendqisi2
 8888 02f2 0EEB0605 		add	r5, lr, r6
 8889 02f6 AC42     		cmp	r4, r5
 8890 02f8 ECDB     		blt	.L664
 8891 02fa 07E0     		b	.L665
 8892              	.LVL649:
 8893              	.L666:
1630:.\Protocolo.c **** 		}
1631:.\Protocolo.c **** 		for(i=j;i<=12;i++){
1632:.\Protocolo.c **** 			buffer[i]=0xE0;
 8894              		.loc 1 1632 0 is_stmt 1 discriminator 3
 8895 02fc 06AD     		add	r5, sp, #24
 8896 02fe 2544     		add	r5, r5, r4
 8897 0300 4FF0E00E 		mov	lr, #224
 8898 0304 05F814EC 		strb	lr, [r5, #-20]
1631:.\Protocolo.c **** 			buffer[i]=0xE0;
 8899              		.loc 1 1631 0 discriminator 3
 8900 0308 0134     		adds	r4, r4, #1
 8901              	.LVL650:
 8902 030a E4B2     		uxtb	r4, r4
 8903              	.LVL651:
 8904              	.L665:
1631:.\Protocolo.c **** 			buffer[i]=0xE0;
 8905              		.loc 1 1631 0 is_stmt 0 discriminator 1
 8906 030c 0C2C     		cmp	r4, #12
ARM GAS  C:\Users\IN-002~1\AppData\Local\Temp\ccxO8rjh.s 			page 194


 8907 030e F5D9     		bls	.L666
1633:.\Protocolo.c **** 		}
1634:.\Protocolo.c **** 		buffer[13]=0xFB;
 8908              		.loc 1 1634 0 is_stmt 1
 8909 0310 FB24     		movs	r4, #251
 8910              	.LVL652:
 8911 0312 8DF81140 		strb	r4, [sp, #17]
1635:.\Protocolo.c **** 		buffer[14]=0;
 8912              		.loc 1 1635 0
 8913 0316 0024     		movs	r4, #0
 8914 0318 8DF81240 		strb	r4, [sp, #18]
 8915              	.LVL653:
1636:.\Protocolo.c **** 		for(i=0;i<=13;i++){
 8916              		.loc 1 1636 0
 8917 031c 13E0     		b	.L667
 8918              	.L693:
 8919 031e 00BF     		.align	2
 8920              	.L692:
 8921 0320 00000000 		.word	versurt
 8922 0324 00000000 		.word	decimalD
 8923 0328 00000000 		.word	decimalV
 8924              	.LVL654:
 8925              	.L668:
1637:.\Protocolo.c **** 			buffer[14]+=(buffer[i]&0x0F);	
 8926              		.loc 1 1637 0 discriminator 3
 8927 032c 06AD     		add	r5, sp, #24
 8928 032e 2544     		add	r5, r5, r4
 8929 0330 15F8145C 		ldrb	r5, [r5, #-20]	@ zero_extendqisi2
 8930 0334 05F00F05 		and	r5, r5, #15
 8931 0338 9DF812E0 		ldrb	lr, [sp, #18]	@ zero_extendqisi2
 8932 033c 7544     		add	r5, r5, lr
 8933 033e 8DF81250 		strb	r5, [sp, #18]
1636:.\Protocolo.c **** 		for(i=0;i<=13;i++){
 8934              		.loc 1 1636 0 discriminator 3
 8935 0342 0134     		adds	r4, r4, #1
 8936              	.LVL655:
 8937 0344 E4B2     		uxtb	r4, r4
 8938              	.LVL656:
 8939              	.L667:
1636:.\Protocolo.c **** 		for(i=0;i<=13;i++){
 8940              		.loc 1 1636 0 is_stmt 0 discriminator 1
 8941 0346 0D2C     		cmp	r4, #13
 8942 0348 F0D9     		bls	.L668
1638:.\Protocolo.c **** 		}
1639:.\Protocolo.c **** 		buffer[14]=(((~buffer[14])+1)&0x0F)|0xE0;
 8943              		.loc 1 1639 0 is_stmt 1
 8944 034a 9DF81240 		ldrb	r4, [sp, #18]	@ zero_extendqisi2
 8945              	.LVL657:
 8946 034e 6442     		negs	r4, r4
 8947 0350 04F00F04 		and	r4, r4, #15
 8948 0354 64F01F04 		orn	r4, r4, #31
 8949 0358 8DF81240 		strb	r4, [sp, #18]
1640:.\Protocolo.c **** 		buffer[15]=0xF0;
 8950              		.loc 1 1640 0
 8951 035c F024     		movs	r4, #240
 8952 035e 8DF81340 		strb	r4, [sp, #19]
 8953              	.LVL658:
ARM GAS  C:\Users\IN-002~1\AppData\Local\Temp\ccxO8rjh.s 			page 195


1641:.\Protocolo.c **** 		size=15;
1642:.\Protocolo.c **** 		if(preset==1){
 8954              		.loc 1 1642 0
 8955 0362 012B     		cmp	r3, #1
 8956 0364 59D1     		bne	.L687
1643:.\Protocolo.c **** 			buffer[4]=0xF6;
 8957              		.loc 1 1643 0
 8958 0366 F623     		movs	r3, #246
 8959              	.LVL659:
 8960 0368 8DF80830 		strb	r3, [sp, #8]
1644:.\Protocolo.c **** 			buffer[5]=(0xE0|(grado-1));
 8961              		.loc 1 1644 0
 8962 036c 4B1E     		subs	r3, r1, #1
 8963 036e 63F01F03 		orn	r3, r3, #31
 8964 0372 8DF80930 		strb	r3, [sp, #9]
1645:.\Protocolo.c **** 			buffer[6]=0xF8;
 8965              		.loc 1 1645 0
 8966 0376 F823     		movs	r3, #248
 8967 0378 8DF80A30 		strb	r3, [sp, #10]
 8968              	.LVL660:
1646:.\Protocolo.c **** 			for(i=7;i<((7+decimalV)-decimal);i++){
 8969              		.loc 1 1646 0
 8970 037c 0723     		movs	r3, #7
 8971 037e 06E0     		b	.L669
 8972              	.LVL661:
 8973              	.L670:
1647:.\Protocolo.c **** 				buffer[i]=0xE0;
 8974              		.loc 1 1647 0 discriminator 3
 8975 0380 06A9     		add	r1, sp, #24
 8976 0382 1944     		add	r1, r1, r3
 8977 0384 E024     		movs	r4, #224
 8978 0386 01F8144C 		strb	r4, [r1, #-20]
1646:.\Protocolo.c **** 			for(i=7;i<((7+decimalV)-decimal);i++){
 8979              		.loc 1 1646 0 discriminator 3
 8980 038a 0133     		adds	r3, r3, #1
 8981              	.LVL662:
 8982 038c DBB2     		uxtb	r3, r3
 8983              	.LVL663:
 8984              	.L669:
1646:.\Protocolo.c **** 			for(i=7;i<((7+decimalV)-decimal);i++){
 8985              		.loc 1 1646 0 is_stmt 0 discriminator 1
 8986 038e 1C46     		mov	r4, r3
 8987 0390 3C49     		ldr	r1, .L694
 8988 0392 0978     		ldrb	r1, [r1]	@ zero_extendqisi2
 8989 0394 0731     		adds	r1, r1, #7
 8990 0396 C91B     		subs	r1, r1, r7
 8991 0398 8B42     		cmp	r3, r1
 8992 039a F1DB     		blt	.L670
 8993 039c 0CE0     		b	.L671
 8994              	.LVL664:
 8995              	.L672:
1648:.\Protocolo.c **** 			}
1649:.\Protocolo.c **** 			for(j=i;j<(i+valor[0]);j++){
1650:.\Protocolo.c **** 				buffer[j]=(0xE0|(valor[valor[0]-(j-i)]&0x0F));	
 8996              		.loc 1 1650 0 is_stmt 1 discriminator 3
 8997 039e E11A     		subs	r1, r4, r3
 8998 03a0 3144     		add	r1, r1, r6
ARM GAS  C:\Users\IN-002~1\AppData\Local\Temp\ccxO8rjh.s 			page 196


 8999 03a2 515C     		ldrb	r1, [r2, r1]	@ zero_extendqisi2
 9000 03a4 06AD     		add	r5, sp, #24
 9001 03a6 1D44     		add	r5, r5, r3
 9002 03a8 01F00F01 		and	r1, r1, #15
 9003 03ac 61F01F01 		orn	r1, r1, #31
 9004 03b0 05F8141C 		strb	r1, [r5, #-20]
1649:.\Protocolo.c **** 				buffer[j]=(0xE0|(valor[valor[0]-(j-i)]&0x0F));	
 9005              		.loc 1 1649 0 discriminator 3
 9006 03b4 0133     		adds	r3, r3, #1
 9007              	.LVL665:
 9008 03b6 DBB2     		uxtb	r3, r3
 9009              	.LVL666:
 9010              	.L671:
1649:.\Protocolo.c **** 				buffer[j]=(0xE0|(valor[valor[0]-(j-i)]&0x0F));	
 9011              		.loc 1 1649 0 is_stmt 0 discriminator 1
 9012 03b8 3119     		adds	r1, r6, r4
 9013 03ba 8B42     		cmp	r3, r1
 9014 03bc EFDB     		blt	.L672
 9015 03be 06E0     		b	.L673
 9016              	.LVL667:
 9017              	.L674:
1651:.\Protocolo.c **** 			}
1652:.\Protocolo.c **** 			for(i=j;i<=14;i++){
1653:.\Protocolo.c **** 				buffer[i]=0xE0;
 9018              		.loc 1 1653 0 is_stmt 1 discriminator 3
 9019 03c0 06AA     		add	r2, sp, #24
 9020 03c2 1A44     		add	r2, r2, r3
 9021 03c4 E021     		movs	r1, #224
 9022 03c6 02F8141C 		strb	r1, [r2, #-20]
1652:.\Protocolo.c **** 				buffer[i]=0xE0;
 9023              		.loc 1 1652 0 discriminator 3
 9024 03ca 0133     		adds	r3, r3, #1
 9025              	.LVL668:
 9026 03cc DBB2     		uxtb	r3, r3
 9027              	.LVL669:
 9028              	.L673:
1652:.\Protocolo.c **** 				buffer[i]=0xE0;
 9029              		.loc 1 1652 0 is_stmt 0 discriminator 1
 9030 03ce 0E2B     		cmp	r3, #14
 9031 03d0 F6D9     		bls	.L674
1654:.\Protocolo.c **** 			}			
1655:.\Protocolo.c **** 			buffer[15]=0xFB;
 9032              		.loc 1 1655 0 is_stmt 1
 9033 03d2 FB23     		movs	r3, #251
 9034              	.LVL670:
 9035 03d4 8DF81330 		strb	r3, [sp, #19]
1656:.\Protocolo.c **** 			buffer[16]=0;
 9036              		.loc 1 1656 0
 9037 03d8 0023     		movs	r3, #0
 9038 03da 8DF81430 		strb	r3, [sp, #20]
 9039              	.LVL671:
1657:.\Protocolo.c **** 			for(i=0;i<=15;i++){
 9040              		.loc 1 1657 0
 9041 03de 0CE0     		b	.L675
 9042              	.LVL672:
 9043              	.L676:
1658:.\Protocolo.c **** 				buffer[16]+=(buffer[i]&0x0F);	
ARM GAS  C:\Users\IN-002~1\AppData\Local\Temp\ccxO8rjh.s 			page 197


 9044              		.loc 1 1658 0 discriminator 3
 9045 03e0 06AA     		add	r2, sp, #24
 9046 03e2 1A44     		add	r2, r2, r3
 9047 03e4 12F8142C 		ldrb	r2, [r2, #-20]	@ zero_extendqisi2
 9048 03e8 02F00F02 		and	r2, r2, #15
 9049 03ec 9DF81410 		ldrb	r1, [sp, #20]	@ zero_extendqisi2
 9050 03f0 0A44     		add	r2, r2, r1
 9051 03f2 8DF81420 		strb	r2, [sp, #20]
1657:.\Protocolo.c **** 			for(i=0;i<=15;i++){
 9052              		.loc 1 1657 0 discriminator 3
 9053 03f6 0133     		adds	r3, r3, #1
 9054              	.LVL673:
 9055 03f8 DBB2     		uxtb	r3, r3
 9056              	.LVL674:
 9057              	.L675:
1657:.\Protocolo.c **** 			for(i=0;i<=15;i++){
 9058              		.loc 1 1657 0 is_stmt 0 discriminator 1
 9059 03fa 0F2B     		cmp	r3, #15
 9060 03fc F0D9     		bls	.L676
1659:.\Protocolo.c **** 			}
1660:.\Protocolo.c **** 			buffer[16]=(((~buffer[16])+1)&0x0F)|0xE0;			
 9061              		.loc 1 1660 0 is_stmt 1
 9062 03fe 9DF81430 		ldrb	r3, [sp, #20]	@ zero_extendqisi2
 9063              	.LVL675:
 9064 0402 5B42     		negs	r3, r3
 9065 0404 03F00F03 		and	r3, r3, #15
 9066 0408 63F01F03 		orn	r3, r3, #31
 9067 040c 8DF81430 		strb	r3, [sp, #20]
1661:.\Protocolo.c **** 			buffer[17]=0xF0;
 9068              		.loc 1 1661 0
 9069 0410 F023     		movs	r3, #240
 9070 0412 8DF81530 		strb	r3, [sp, #21]
 9071              	.LVL676:
1662:.\Protocolo.c **** 			size=17;
 9072              		.loc 1 1662 0
 9073 0416 1124     		movs	r4, #17
 9074 0418 00E0     		b	.L660
 9075              	.LVL677:
 9076              	.L687:
1641:.\Protocolo.c **** 		if(preset==1){
 9077              		.loc 1 1641 0
 9078 041a 0F24     		movs	r4, #15
 9079              	.LVL678:
 9080              	.L660:
 9081 041c 0546     		mov	r5, r0
 9082              	.LVL679:
1663:.\Protocolo.c **** 		}		
1664:.\Protocolo.c **** 	}	
1665:.\Protocolo.c **** 	Surtidor_PutChar(0x20|dir);	
 9083              		.loc 1 1665 0
 9084 041e 40F02000 		orr	r0, r0, #32
 9085              	.LVL680:
 9086 0422 FFF7FEFF 		bl	Surtidor_PutChar
 9087              	.LVL681:
1666:.\Protocolo.c ****     CyDelay(50);
 9088              		.loc 1 1666 0
 9089 0426 3220     		movs	r0, #50
ARM GAS  C:\Users\IN-002~1\AppData\Local\Temp\ccxO8rjh.s 			page 198


 9090 0428 FFF7FEFF 		bl	CyDelay
 9091              	.LVL682:
1667:.\Protocolo.c ****     if(Surtidor_GetRxBufferSize()>=1){
 9092              		.loc 1 1667 0
 9093 042c FFF7FEFF 		bl	Surtidor_GetRxBufferSize
 9094              	.LVL683:
 9095 0430 F0B1     		cbz	r0, .L688
1668:.\Protocolo.c **** 		if(Surtidor_ReadRxData()==(0xD0|dir)){
 9096              		.loc 1 1668 0
 9097 0432 FFF7FEFF 		bl	Surtidor_ReadRxData
 9098              	.LVL684:
 9099 0436 45F0D003 		orr	r3, r5, #208
 9100 043a 9842     		cmp	r0, r3
 9101 043c 1AD1     		bne	.L689
1669:.\Protocolo.c ****             Surtidor_ClearRxBuffer();
 9102              		.loc 1 1669 0
 9103 043e FFF7FEFF 		bl	Surtidor_ClearRxBuffer
 9104              	.LVL685:
1670:.\Protocolo.c ****             for(i=0;i<=size;i++){
 9105              		.loc 1 1670 0
 9106 0442 0026     		movs	r6, #0
 9107 0444 07E0     		b	.L677
 9108              	.LVL686:
 9109              	.L678:
1671:.\Protocolo.c ****                	Surtidor_PutChar(buffer[i]);
 9110              		.loc 1 1671 0 discriminator 3
 9111 0446 06AB     		add	r3, sp, #24
 9112 0448 3344     		add	r3, r3, r6
 9113 044a 13F8140C 		ldrb	r0, [r3, #-20]	@ zero_extendqisi2
 9114 044e FFF7FEFF 		bl	Surtidor_PutChar
 9115              	.LVL687:
1670:.\Protocolo.c ****             for(i=0;i<=size;i++){
 9116              		.loc 1 1670 0 discriminator 3
 9117 0452 0136     		adds	r6, r6, #1
 9118              	.LVL688:
 9119 0454 F6B2     		uxtb	r6, r6
 9120              	.LVL689:
 9121              	.L677:
1670:.\Protocolo.c ****             for(i=0;i<=size;i++){
 9122              		.loc 1 1670 0 is_stmt 0 discriminator 1
 9123 0456 A642     		cmp	r6, r4
 9124 0458 F5D9     		bls	.L678
1672:.\Protocolo.c ****             }
1673:.\Protocolo.c **** 			CyDelay(50);
 9125              		.loc 1 1673 0 is_stmt 1
 9126 045a 3220     		movs	r0, #50
 9127 045c FFF7FEFF 		bl	CyDelay
 9128              	.LVL690:
1674:.\Protocolo.c **** 			if(get_estado(dir)==0){
 9129              		.loc 1 1674 0
 9130 0460 2846     		mov	r0, r5
 9131 0462 FFF7FEFF 		bl	get_estado
 9132              	.LVL691:
 9133 0466 0346     		mov	r3, r0
 9134 0468 30B9     		cbnz	r0, .L690
 9135 046a 06E0     		b	.L638
 9136              	.LVL692:
ARM GAS  C:\Users\IN-002~1\AppData\Local\Temp\ccxO8rjh.s 			page 199


 9137              	.L684:
1557:.\Protocolo.c **** 	}	
 9138              		.loc 1 1557 0
 9139 046c 0023     		movs	r3, #0
 9140              	.LVL693:
 9141 046e 04E0     		b	.L638
 9142              	.LVL694:
 9143              	.L688:
1675:.\Protocolo.c **** 				return 0;
1676:.\Protocolo.c **** 			}
1677:.\Protocolo.c **** 			else{
1678:.\Protocolo.c **** 				return 1;
1679:.\Protocolo.c **** 			}
1680:.\Protocolo.c **** 		}
1681:.\Protocolo.c **** 		else{
1682:.\Protocolo.c **** 			return 0;
1683:.\Protocolo.c **** 		}
1684:.\Protocolo.c **** 	}
1685:.\Protocolo.c **** 	else{
1686:.\Protocolo.c **** 		return 0;	
 9144              		.loc 1 1686 0
 9145 0470 0023     		movs	r3, #0
 9146 0472 02E0     		b	.L638
 9147              	.L689:
1682:.\Protocolo.c **** 		}
 9148              		.loc 1 1682 0
 9149 0474 0023     		movs	r3, #0
 9150 0476 00E0     		b	.L638
 9151              	.LVL695:
 9152              	.L690:
1678:.\Protocolo.c **** 			}
 9153              		.loc 1 1678 0
 9154 0478 0123     		movs	r3, #1
 9155              	.LVL696:
 9156              	.L638:
1687:.\Protocolo.c **** 	}
1688:.\Protocolo.c **** }
 9157              		.loc 1 1688 0
 9158 047a 1846     		mov	r0, r3
 9159 047c 06B0     		add	sp, sp, #24
 9160              		.cfi_def_cfa_offset 24
 9161              		@ sp needed
 9162 047e BDE8F081 		pop	{r4, r5, r6, r7, r8, pc}
 9163              	.L695:
 9164 0482 00BF     		.align	2
 9165              	.L694:
 9166 0484 00000000 		.word	decimalV
 9167              		.cfi_endproc
 9168              	.LFE69:
 9169              		.size	programar, .-programar
 9170              		.section	.text.cambiar_precio,"ax",%progbits
 9171              		.align	2
 9172              		.global	cambiar_precio
 9173              		.thumb
 9174              		.thumb_func
 9175              		.type	cambiar_precio, %function
 9176              	cambiar_precio:
ARM GAS  C:\Users\IN-002~1\AppData\Local\Temp\ccxO8rjh.s 			page 200


 9177              	.LFB70:
1689:.\Protocolo.c **** /*
1690:.\Protocolo.c **** ***************************************************************************************************
1691:.\Protocolo.c **** *                                         uint8 programar(uint8 dir)
1692:.\Protocolo.c **** *
1693:.\Protocolo.c **** * Description : 
1694:.\Protocolo.c **** *               
1695:.\Protocolo.c **** *
1696:.\Protocolo.c **** * Argument(s) : none
1697:.\Protocolo.c **** *
1698:.\Protocolo.c **** * Return(s)   : none
1699:.\Protocolo.c **** *
1700:.\Protocolo.c **** * Caller(s)   : 
1701:.\Protocolo.c **** *
1702:.\Protocolo.c **** * Note(s)     : none.
1703:.\Protocolo.c **** ***************************************************************************************************
1704:.\Protocolo.c **** */
1705:.\Protocolo.c **** uint8 cambiar_precio(uint8 dir){
 9178              		.loc 1 1705 0
 9179              		.cfi_startproc
 9180              		@ args = 0, pretend = 0, frame = 16
 9181              		@ frame_needed = 0, uses_anonymous_args = 0
 9182              	.LVL697:
 9183 0000 30B5     		push	{r4, r5, lr}
 9184              		.cfi_def_cfa_offset 12
 9185              		.cfi_offset 4, -12
 9186              		.cfi_offset 5, -8
 9187              		.cfi_offset 14, -4
 9188 0002 85B0     		sub	sp, sp, #20
 9189              		.cfi_def_cfa_offset 32
 9190 0004 0446     		mov	r4, r0
1706:.\Protocolo.c **** 	uint8 buffer[15]={0,0,0,0,0,0,0,0,0,0,0,0,0,0,0},size;
 9191              		.loc 1 1706 0
 9192 0006 0023     		movs	r3, #0
 9193 0008 8DF80030 		strb	r3, [sp]
 9194 000c 8DF80130 		strb	r3, [sp, #1]
 9195 0010 8DF80230 		strb	r3, [sp, #2]
 9196 0014 8DF80330 		strb	r3, [sp, #3]
 9197 0018 8DF80430 		strb	r3, [sp, #4]
 9198 001c 8DF80530 		strb	r3, [sp, #5]
 9199 0020 8DF80630 		strb	r3, [sp, #6]
 9200 0024 8DF80730 		strb	r3, [sp, #7]
 9201 0028 8DF80830 		strb	r3, [sp, #8]
 9202 002c 8DF80930 		strb	r3, [sp, #9]
 9203 0030 8DF80A30 		strb	r3, [sp, #10]
 9204 0034 8DF80B30 		strb	r3, [sp, #11]
 9205 0038 8DF80C30 		strb	r3, [sp, #12]
 9206 003c 8DF80D30 		strb	r3, [sp, #13]
 9207 0040 8DF80E30 		strb	r3, [sp, #14]
1707:.\Protocolo.c **** 	if(versurt!=7){
 9208              		.loc 1 1707 0
 9209 0044 984B     		ldr	r3, .L723
 9210 0046 1B78     		ldrb	r3, [r3]	@ zero_extendqisi2
 9211 0048 072B     		cmp	r3, #7
 9212 004a 00F08A80 		beq	.L697
1708:.\Protocolo.c **** 		buffer[0]=0xFF;
 9213              		.loc 1 1708 0
ARM GAS  C:\Users\IN-002~1\AppData\Local\Temp\ccxO8rjh.s 			page 201


 9214 004e FF23     		movs	r3, #255
 9215 0050 8DF80030 		strb	r3, [sp]
1709:.\Protocolo.c **** 		buffer[1]=0xE5;
 9216              		.loc 1 1709 0
 9217 0054 E523     		movs	r3, #229
 9218 0056 8DF80130 		strb	r3, [sp, #1]
1710:.\Protocolo.c **** 		buffer[2]=0xF4;
 9219              		.loc 1 1710 0
 9220 005a F423     		movs	r3, #244
 9221 005c 8DF80230 		strb	r3, [sp, #2]
1711:.\Protocolo.c **** 		buffer[3]=0xF6;
 9222              		.loc 1 1711 0
 9223 0060 F623     		movs	r3, #246
 9224 0062 8DF80330 		strb	r3, [sp, #3]
1712:.\Protocolo.c **** 		buffer[4]=(0xE0|((rventa.producto&0x0f)-1));
 9225              		.loc 1 1712 0
 9226 0066 914B     		ldr	r3, .L723+4
 9227 0068 93F8A330 		ldrb	r3, [r3, #163]	@ zero_extendqisi2
 9228 006c 03F00F03 		and	r3, r3, #15
 9229 0070 013B     		subs	r3, r3, #1
 9230 0072 63F01F03 		orn	r3, r3, #31
 9231 0076 8DF80430 		strb	r3, [sp, #4]
1713:.\Protocolo.c **** 		buffer[5]=0xF7;	
 9232              		.loc 1 1713 0
 9233 007a F723     		movs	r3, #247
 9234 007c 8DF80530 		strb	r3, [sp, #5]
1714:.\Protocolo.c **** 		if(ppux10==0){
 9235              		.loc 1 1714 0
 9236 0080 8B4B     		ldr	r3, .L723+8
 9237 0082 1B78     		ldrb	r3, [r3]	@ zero_extendqisi2
 9238 0084 D3B9     		cbnz	r3, .L698
1715:.\Protocolo.c **** 			for(x=6;x<(6+teclas1);x++){
 9239              		.loc 1 1715 0
 9240 0086 0622     		movs	r2, #6
 9241 0088 8A4B     		ldr	r3, .L723+12
 9242 008a 1A60     		str	r2, [r3]
 9243 008c 0EE0     		b	.L699
 9244              	.L700:
1716:.\Protocolo.c **** 				buffer[x]=(0xE0|(Buffer_LCD1.valor[teclas1-(x-6)]&0x0F));
 9245              		.loc 1 1716 0 discriminator 3
 9246 008e D21A     		subs	r2, r2, r3
 9247 0090 8949     		ldr	r1, .L723+16
 9248 0092 0A44     		add	r2, r2, r1
 9249 0094 D27A     		ldrb	r2, [r2, #11]	@ zero_extendqisi2
 9250 0096 04A9     		add	r1, sp, #16
 9251 0098 1944     		add	r1, r1, r3
 9252 009a 02F00F02 		and	r2, r2, #15
 9253 009e 62F01F02 		orn	r2, r2, #31
 9254 00a2 01F8102C 		strb	r2, [r1, #-16]
1715:.\Protocolo.c **** 			for(x=6;x<(6+teclas1);x++){
 9255              		.loc 1 1715 0 discriminator 3
 9256 00a6 0133     		adds	r3, r3, #1
 9257 00a8 824A     		ldr	r2, .L723+12
 9258 00aa 1360     		str	r3, [r2]
 9259              	.L699:
1715:.\Protocolo.c **** 			for(x=6;x<(6+teclas1);x++){
 9260              		.loc 1 1715 0 is_stmt 0 discriminator 1
ARM GAS  C:\Users\IN-002~1\AppData\Local\Temp\ccxO8rjh.s 			page 202


 9261 00ac 834B     		ldr	r3, .L723+20
 9262 00ae 1A78     		ldrb	r2, [r3]	@ zero_extendqisi2
 9263 00b0 911D     		adds	r1, r2, #6
 9264 00b2 804B     		ldr	r3, .L723+12
 9265 00b4 1B68     		ldr	r3, [r3]
 9266 00b6 9942     		cmp	r1, r3
 9267 00b8 E9D8     		bhi	.L700
 9268 00ba 1CE0     		b	.L701
 9269              	.L698:
1717:.\Protocolo.c **** 			}
1718:.\Protocolo.c **** 		}
1719:.\Protocolo.c **** 		else{
1720:.\Protocolo.c **** 			teclas1=teclas1-1;
 9270              		.loc 1 1720 0 is_stmt 1
 9271 00bc 7F4B     		ldr	r3, .L723+20
 9272 00be 1978     		ldrb	r1, [r3]	@ zero_extendqisi2
 9273 00c0 0139     		subs	r1, r1, #1
 9274 00c2 C9B2     		uxtb	r1, r1
 9275 00c4 1970     		strb	r1, [r3]
1721:.\Protocolo.c **** 			for(x=6;x<(6+teclas1);x++){
 9276              		.loc 1 1721 0
 9277 00c6 0622     		movs	r2, #6
 9278 00c8 7A4B     		ldr	r3, .L723+12
 9279 00ca 1A60     		str	r2, [r3]
 9280 00cc 0EE0     		b	.L702
 9281              	.LVL698:
 9282              	.L703:
1722:.\Protocolo.c **** 				buffer[x]=(0xE0|(Buffer_LCD1.valor[teclas1-(x-6)]&0x0F));
 9283              		.loc 1 1722 0 discriminator 3
 9284 00ce C81A     		subs	r0, r1, r3
 9285 00d0 794A     		ldr	r2, .L723+16
 9286 00d2 0244     		add	r2, r2, r0
 9287 00d4 D27A     		ldrb	r2, [r2, #11]	@ zero_extendqisi2
 9288 00d6 04A8     		add	r0, sp, #16
 9289 00d8 1844     		add	r0, r0, r3
 9290 00da 02F00F02 		and	r2, r2, #15
 9291 00de 62F01F02 		orn	r2, r2, #31
 9292 00e2 00F8102C 		strb	r2, [r0, #-16]
1721:.\Protocolo.c **** 			for(x=6;x<(6+teclas1);x++){
 9293              		.loc 1 1721 0 discriminator 3
 9294 00e6 0133     		adds	r3, r3, #1
 9295 00e8 724A     		ldr	r2, .L723+12
 9296 00ea 1360     		str	r3, [r2]
 9297              	.L702:
1721:.\Protocolo.c **** 			for(x=6;x<(6+teclas1);x++){
 9298              		.loc 1 1721 0 is_stmt 0 discriminator 1
 9299 00ec 8A1D     		adds	r2, r1, #6
 9300 00ee 714B     		ldr	r3, .L723+12
 9301 00f0 1B68     		ldr	r3, [r3]
 9302 00f2 9A42     		cmp	r2, r3
 9303 00f4 EBD8     		bhi	.L703
 9304              	.L701:
1723:.\Protocolo.c **** 			}	
1724:.\Protocolo.c **** 		}
1725:.\Protocolo.c **** 		for(y=x;y<=9;y++){
 9305              		.loc 1 1725 0 is_stmt 1
 9306 00f6 6F4B     		ldr	r3, .L723+12
ARM GAS  C:\Users\IN-002~1\AppData\Local\Temp\ccxO8rjh.s 			page 203


 9307 00f8 1A68     		ldr	r2, [r3]
 9308 00fa 714B     		ldr	r3, .L723+24
 9309 00fc 1A60     		str	r2, [r3]
 9310 00fe 07E0     		b	.L704
 9311              	.L705:
1726:.\Protocolo.c **** 			buffer[y]=0xE0;	
 9312              		.loc 1 1726 0 discriminator 3
 9313 0100 04AA     		add	r2, sp, #16
 9314 0102 1A44     		add	r2, r2, r3
 9315 0104 E021     		movs	r1, #224
 9316 0106 02F8101C 		strb	r1, [r2, #-16]
1725:.\Protocolo.c **** 			buffer[y]=0xE0;	
 9317              		.loc 1 1725 0 discriminator 3
 9318 010a 0133     		adds	r3, r3, #1
 9319 010c 6C4A     		ldr	r2, .L723+24
 9320 010e 1360     		str	r3, [r2]
 9321              	.L704:
1725:.\Protocolo.c **** 			buffer[y]=0xE0;	
 9322              		.loc 1 1725 0 is_stmt 0 discriminator 1
 9323 0110 6B4B     		ldr	r3, .L723+24
 9324 0112 1B68     		ldr	r3, [r3]
 9325 0114 092B     		cmp	r3, #9
 9326 0116 F3D9     		bls	.L705
1727:.\Protocolo.c **** 		}
1728:.\Protocolo.c **** 		buffer[10]=0xFB;
 9327              		.loc 1 1728 0 is_stmt 1
 9328 0118 FB23     		movs	r3, #251
 9329 011a 8DF80A30 		strb	r3, [sp, #10]
1729:.\Protocolo.c **** 		for(x=0;x<=10;x++){
 9330              		.loc 1 1729 0
 9331 011e 0022     		movs	r2, #0
 9332 0120 644B     		ldr	r3, .L723+12
 9333 0122 1A60     		str	r2, [r3]
 9334 0124 0DE0     		b	.L706
 9335              	.L707:
1730:.\Protocolo.c **** 			buffer[11]+=(buffer[x]&0x0F);	
 9336              		.loc 1 1730 0 discriminator 3
 9337 0126 04AA     		add	r2, sp, #16
 9338 0128 1A44     		add	r2, r2, r3
 9339 012a 12F8102C 		ldrb	r2, [r2, #-16]	@ zero_extendqisi2
 9340 012e 02F00F02 		and	r2, r2, #15
 9341 0132 9DF80B10 		ldrb	r1, [sp, #11]	@ zero_extendqisi2
 9342 0136 0A44     		add	r2, r2, r1
 9343 0138 8DF80B20 		strb	r2, [sp, #11]
1729:.\Protocolo.c **** 		for(x=0;x<=10;x++){
 9344              		.loc 1 1729 0 discriminator 3
 9345 013c 0133     		adds	r3, r3, #1
 9346 013e 5D4A     		ldr	r2, .L723+12
 9347 0140 1360     		str	r3, [r2]
 9348              	.L706:
1729:.\Protocolo.c **** 		for(x=0;x<=10;x++){
 9349              		.loc 1 1729 0 is_stmt 0 discriminator 1
 9350 0142 5C4B     		ldr	r3, .L723+12
 9351 0144 1B68     		ldr	r3, [r3]
 9352 0146 0A2B     		cmp	r3, #10
 9353 0148 EDD9     		bls	.L707
1731:.\Protocolo.c **** 		}
ARM GAS  C:\Users\IN-002~1\AppData\Local\Temp\ccxO8rjh.s 			page 204


1732:.\Protocolo.c **** 		buffer[11]=(((~buffer[11])+1)&0x0F)|0xE0;
 9354              		.loc 1 1732 0 is_stmt 1
 9355 014a 9DF80B30 		ldrb	r3, [sp, #11]	@ zero_extendqisi2
 9356 014e 5B42     		negs	r3, r3
 9357 0150 03F00F03 		and	r3, r3, #15
 9358 0154 63F01F03 		orn	r3, r3, #31
 9359 0158 8DF80B30 		strb	r3, [sp, #11]
1733:.\Protocolo.c **** 		buffer[12]=0xF0;
 9360              		.loc 1 1733 0
 9361 015c F023     		movs	r3, #240
 9362 015e 8DF80C30 		strb	r3, [sp, #12]
 9363              	.LVL699:
 9364              	.L697:
1734:.\Protocolo.c **** 		size=12;
1735:.\Protocolo.c **** 	}
1736:.\Protocolo.c **** 	if(versurt==7){
 9365              		.loc 1 1736 0
 9366 0162 514B     		ldr	r3, .L723
 9367 0164 1B78     		ldrb	r3, [r3]	@ zero_extendqisi2
 9368 0166 072B     		cmp	r3, #7
 9369 0168 68D1     		bne	.L718
1737:.\Protocolo.c **** 		buffer[0]=0xFF;
 9370              		.loc 1 1737 0
 9371 016a FF23     		movs	r3, #255
 9372 016c 8DF80030 		strb	r3, [sp]
1738:.\Protocolo.c **** 		buffer[1]=0xE3;
 9373              		.loc 1 1738 0
 9374 0170 E323     		movs	r3, #227
 9375 0172 8DF80130 		strb	r3, [sp, #1]
1739:.\Protocolo.c **** 		buffer[2]=0xF4;
 9376              		.loc 1 1739 0
 9377 0176 F423     		movs	r3, #244
 9378 0178 8DF80230 		strb	r3, [sp, #2]
1740:.\Protocolo.c **** 		buffer[3]=0xF6;
 9379              		.loc 1 1740 0
 9380 017c F623     		movs	r3, #246
 9381 017e 8DF80330 		strb	r3, [sp, #3]
1741:.\Protocolo.c **** 		buffer[4]=(0xE0|((rventa.producto&0x0f)-1));
 9382              		.loc 1 1741 0
 9383 0182 4A4B     		ldr	r3, .L723+4
 9384 0184 93F8A330 		ldrb	r3, [r3, #163]	@ zero_extendqisi2
 9385 0188 03F00F03 		and	r3, r3, #15
 9386 018c 013B     		subs	r3, r3, #1
 9387 018e 63F01F03 		orn	r3, r3, #31
 9388 0192 8DF80430 		strb	r3, [sp, #4]
1742:.\Protocolo.c **** 		buffer[5]=0xF7;		
 9389              		.loc 1 1742 0
 9390 0196 F723     		movs	r3, #247
 9391 0198 8DF80530 		strb	r3, [sp, #5]
1743:.\Protocolo.c **** 		for(x=6;x<(6+teclas1);x++){
 9392              		.loc 1 1743 0
 9393 019c 0622     		movs	r2, #6
 9394 019e 454B     		ldr	r3, .L723+12
 9395 01a0 1A60     		str	r2, [r3]
 9396 01a2 0EE0     		b	.L709
 9397              	.L710:
1744:.\Protocolo.c **** 			buffer[x]=(0xE0|(Buffer_LCD1.valor[teclas1-(x-6)]&0x0F));
ARM GAS  C:\Users\IN-002~1\AppData\Local\Temp\ccxO8rjh.s 			page 205


 9398              		.loc 1 1744 0 discriminator 3
 9399 01a4 D21A     		subs	r2, r2, r3
 9400 01a6 4449     		ldr	r1, .L723+16
 9401 01a8 0A44     		add	r2, r2, r1
 9402 01aa D27A     		ldrb	r2, [r2, #11]	@ zero_extendqisi2
 9403 01ac 04A9     		add	r1, sp, #16
 9404 01ae 1944     		add	r1, r1, r3
 9405 01b0 02F00F02 		and	r2, r2, #15
 9406 01b4 62F01F02 		orn	r2, r2, #31
 9407 01b8 01F8102C 		strb	r2, [r1, #-16]
1743:.\Protocolo.c **** 		for(x=6;x<(6+teclas1);x++){
 9408              		.loc 1 1743 0 discriminator 3
 9409 01bc 0133     		adds	r3, r3, #1
 9410 01be 3D4A     		ldr	r2, .L723+12
 9411 01c0 1360     		str	r3, [r2]
 9412              	.L709:
1743:.\Protocolo.c **** 		for(x=6;x<(6+teclas1);x++){
 9413              		.loc 1 1743 0 is_stmt 0 discriminator 1
 9414 01c2 3E4B     		ldr	r3, .L723+20
 9415 01c4 1A78     		ldrb	r2, [r3]	@ zero_extendqisi2
 9416 01c6 911D     		adds	r1, r2, #6
 9417 01c8 3A4B     		ldr	r3, .L723+12
 9418 01ca 1B68     		ldr	r3, [r3]
 9419 01cc 9942     		cmp	r1, r3
 9420 01ce E9D8     		bhi	.L710
1745:.\Protocolo.c **** 		}	
1746:.\Protocolo.c **** 		for(y=x;y<=11;y++){
 9421              		.loc 1 1746 0 is_stmt 1
 9422 01d0 3B4A     		ldr	r2, .L723+24
 9423 01d2 1360     		str	r3, [r2]
 9424 01d4 07E0     		b	.L711
 9425              	.L712:
1747:.\Protocolo.c **** 			buffer[y]=0xE0;	
 9426              		.loc 1 1747 0 discriminator 3
 9427 01d6 04AA     		add	r2, sp, #16
 9428 01d8 1A44     		add	r2, r2, r3
 9429 01da E021     		movs	r1, #224
 9430 01dc 02F8101C 		strb	r1, [r2, #-16]
1746:.\Protocolo.c **** 			buffer[y]=0xE0;	
 9431              		.loc 1 1746 0 discriminator 3
 9432 01e0 0133     		adds	r3, r3, #1
 9433 01e2 374A     		ldr	r2, .L723+24
 9434 01e4 1360     		str	r3, [r2]
 9435              	.L711:
1746:.\Protocolo.c **** 			buffer[y]=0xE0;	
 9436              		.loc 1 1746 0 is_stmt 0 discriminator 1
 9437 01e6 364B     		ldr	r3, .L723+24
 9438 01e8 1B68     		ldr	r3, [r3]
 9439 01ea 0B2B     		cmp	r3, #11
 9440 01ec F3D9     		bls	.L712
1748:.\Protocolo.c **** 		}		
1749:.\Protocolo.c **** 		buffer[12]=0xFB;
 9441              		.loc 1 1749 0 is_stmt 1
 9442 01ee FB23     		movs	r3, #251
 9443 01f0 8DF80C30 		strb	r3, [sp, #12]
1750:.\Protocolo.c **** 		for(x=0;x<=12;x++){
 9444              		.loc 1 1750 0
ARM GAS  C:\Users\IN-002~1\AppData\Local\Temp\ccxO8rjh.s 			page 206


 9445 01f4 0022     		movs	r2, #0
 9446 01f6 2F4B     		ldr	r3, .L723+12
 9447 01f8 1A60     		str	r2, [r3]
 9448 01fa 0DE0     		b	.L713
 9449              	.L714:
1751:.\Protocolo.c **** 			buffer[13]+=(buffer[x]&0x0F);	
 9450              		.loc 1 1751 0 discriminator 3
 9451 01fc 04AA     		add	r2, sp, #16
 9452 01fe 1A44     		add	r2, r2, r3
 9453 0200 12F8102C 		ldrb	r2, [r2, #-16]	@ zero_extendqisi2
 9454 0204 02F00F02 		and	r2, r2, #15
 9455 0208 9DF80D10 		ldrb	r1, [sp, #13]	@ zero_extendqisi2
 9456 020c 0A44     		add	r2, r2, r1
 9457 020e 8DF80D20 		strb	r2, [sp, #13]
1750:.\Protocolo.c **** 		for(x=0;x<=12;x++){
 9458              		.loc 1 1750 0 discriminator 3
 9459 0212 0133     		adds	r3, r3, #1
 9460 0214 274A     		ldr	r2, .L723+12
 9461 0216 1360     		str	r3, [r2]
 9462              	.L713:
1750:.\Protocolo.c **** 		for(x=0;x<=12;x++){
 9463              		.loc 1 1750 0 is_stmt 0 discriminator 1
 9464 0218 264B     		ldr	r3, .L723+12
 9465 021a 1B68     		ldr	r3, [r3]
 9466 021c 0C2B     		cmp	r3, #12
 9467 021e EDD9     		bls	.L714
1752:.\Protocolo.c **** 		}
1753:.\Protocolo.c **** 		buffer[13]=(((~buffer[13])+1)&0x0F)|0xE0;
 9468              		.loc 1 1753 0 is_stmt 1
 9469 0220 9DF80D30 		ldrb	r3, [sp, #13]	@ zero_extendqisi2
 9470 0224 5B42     		negs	r3, r3
 9471 0226 03F00F03 		and	r3, r3, #15
 9472 022a 63F01F03 		orn	r3, r3, #31
 9473 022e 8DF80D30 		strb	r3, [sp, #13]
1754:.\Protocolo.c **** 		buffer[14]=0xF0;
 9474              		.loc 1 1754 0
 9475 0232 F023     		movs	r3, #240
 9476 0234 8DF80E30 		strb	r3, [sp, #14]
 9477              	.LVL700:
1755:.\Protocolo.c **** 		size=14;
 9478              		.loc 1 1755 0
 9479 0238 0E25     		movs	r5, #14
 9480 023a 00E0     		b	.L708
 9481              	.LVL701:
 9482              	.L718:
 9483 023c 0C25     		movs	r5, #12
 9484              	.LVL702:
 9485              	.L708:
1756:.\Protocolo.c **** 	}	
1757:.\Protocolo.c **** 	Surtidor_PutChar(0x20|dir);	
 9486              		.loc 1 1757 0
 9487 023e 44F02000 		orr	r0, r4, #32
 9488 0242 FFF7FEFF 		bl	Surtidor_PutChar
 9489              	.LVL703:
1758:.\Protocolo.c ****     CyDelay(100);
 9490              		.loc 1 1758 0
 9491 0246 6420     		movs	r0, #100
ARM GAS  C:\Users\IN-002~1\AppData\Local\Temp\ccxO8rjh.s 			page 207


 9492 0248 FFF7FEFF 		bl	CyDelay
 9493              	.LVL704:
1759:.\Protocolo.c ****     if(Surtidor_GetRxBufferSize()>=1){
 9494              		.loc 1 1759 0
 9495 024c FFF7FEFF 		bl	Surtidor_GetRxBufferSize
 9496              	.LVL705:
 9497 0250 10B3     		cbz	r0, .L719
1760:.\Protocolo.c **** 		if(Surtidor_ReadRxData()==(0xD0|dir)){
 9498              		.loc 1 1760 0
 9499 0252 FFF7FEFF 		bl	Surtidor_ReadRxData
 9500              	.LVL706:
 9501 0256 44F0D003 		orr	r3, r4, #208
 9502 025a 9842     		cmp	r0, r3
 9503 025c 1ED1     		bne	.L720
1761:.\Protocolo.c ****             Surtidor_ClearRxBuffer();
 9504              		.loc 1 1761 0
 9505 025e FFF7FEFF 		bl	Surtidor_ClearRxBuffer
 9506              	.LVL707:
1762:.\Protocolo.c ****             for(x=0;x<=size;x++){
 9507              		.loc 1 1762 0
 9508 0262 0022     		movs	r2, #0
 9509 0264 134B     		ldr	r3, .L723+12
 9510 0266 1A60     		str	r2, [r3]
 9511 0268 09E0     		b	.L716
 9512              	.L717:
1763:.\Protocolo.c ****                	Surtidor_PutChar(buffer[x]); 	
 9513              		.loc 1 1763 0 discriminator 3
 9514 026a 04AA     		add	r2, sp, #16
 9515 026c 1344     		add	r3, r3, r2
 9516 026e 13F8100C 		ldrb	r0, [r3, #-16]	@ zero_extendqisi2
 9517 0272 FFF7FEFF 		bl	Surtidor_PutChar
 9518              	.LVL708:
1762:.\Protocolo.c ****             for(x=0;x<=size;x++){
 9519              		.loc 1 1762 0 discriminator 3
 9520 0276 0F4A     		ldr	r2, .L723+12
 9521 0278 1368     		ldr	r3, [r2]
 9522 027a 0133     		adds	r3, r3, #1
 9523 027c 1360     		str	r3, [r2]
 9524              	.L716:
1762:.\Protocolo.c ****             for(x=0;x<=size;x++){
 9525              		.loc 1 1762 0 is_stmt 0 discriminator 1
 9526 027e 0D4B     		ldr	r3, .L723+12
 9527 0280 1B68     		ldr	r3, [r3]
 9528 0282 9D42     		cmp	r5, r3
 9529 0284 F1D2     		bcs	.L717
1764:.\Protocolo.c ****             }
1765:.\Protocolo.c **** 			CyDelay(50);
 9530              		.loc 1 1765 0 is_stmt 1
 9531 0286 3220     		movs	r0, #50
 9532 0288 FFF7FEFF 		bl	CyDelay
 9533              	.LVL709:
1766:.\Protocolo.c **** 			if(get_estado(dir)==0){
 9534              		.loc 1 1766 0
 9535 028c 2046     		mov	r0, r4
 9536 028e FFF7FEFF 		bl	get_estado
 9537              	.LVL710:
 9538 0292 0346     		mov	r3, r0
ARM GAS  C:\Users\IN-002~1\AppData\Local\Temp\ccxO8rjh.s 			page 208


 9539 0294 20B9     		cbnz	r0, .L721
 9540 0296 04E0     		b	.L715
 9541              	.L719:
1767:.\Protocolo.c **** 				return 0;
1768:.\Protocolo.c **** 			}
1769:.\Protocolo.c **** 			else{
1770:.\Protocolo.c **** 				return 1;
1771:.\Protocolo.c **** 			}
1772:.\Protocolo.c **** 		}
1773:.\Protocolo.c **** 		else{
1774:.\Protocolo.c **** 			return 0;
1775:.\Protocolo.c **** 		}
1776:.\Protocolo.c **** 	}
1777:.\Protocolo.c **** 	else{
1778:.\Protocolo.c **** 		return 0;	
 9542              		.loc 1 1778 0
 9543 0298 0023     		movs	r3, #0
 9544 029a 02E0     		b	.L715
 9545              	.L720:
1774:.\Protocolo.c **** 		}
 9546              		.loc 1 1774 0
 9547 029c 0023     		movs	r3, #0
 9548 029e 00E0     		b	.L715
 9549              	.L721:
1770:.\Protocolo.c **** 			}
 9550              		.loc 1 1770 0
 9551 02a0 0123     		movs	r3, #1
 9552              	.L715:
1779:.\Protocolo.c **** 	}
1780:.\Protocolo.c **** }
 9553              		.loc 1 1780 0
 9554 02a2 1846     		mov	r0, r3
 9555 02a4 05B0     		add	sp, sp, #20
 9556              		.cfi_def_cfa_offset 12
 9557              		@ sp needed
 9558 02a6 30BD     		pop	{r4, r5, pc}
 9559              	.LVL711:
 9560              	.L724:
 9561              		.align	2
 9562              	.L723:
 9563 02a8 00000000 		.word	versurt
 9564 02ac 00000000 		.word	rventa
 9565 02b0 00000000 		.word	ppux10
 9566 02b4 00000000 		.word	x
 9567 02b8 06000000 		.word	Buffer_LCD1+6
 9568 02bc 00000000 		.word	teclas1
 9569 02c0 00000000 		.word	y
 9570              		.cfi_endproc
 9571              	.LFE70:
 9572              		.size	cambiar_precio, .-cambiar_precio
 9573              		.global	msn_totalcero
 9574              		.global	msn_tventas
 9575              		.global	msn_lecaan
 9576              		.global	msn_lecact
 9577              		.global	msn_tk
 9578              		.global	msn_td
 9579              		.global	msn_te
ARM GAS  C:\Users\IN-002~1\AppData\Local\Temp\ccxO8rjh.s 			page 209


 9580              		.global	msn_tc
 9581              		.comm	rventa2,225,4
 9582              		.comm	rventa,225,4
 9583              		.comm	lado,8,4
 9584              		.comm	producto,1,1
 9585              		.comm	producto2,1,1
 9586              		.comm	producto1,1,1
 9587              		.comm	modulo,400,4
 9588              		.comm	w,4,4
 9589              		.comm	z,4,4
 9590              		.comm	y,4,4
 9591              		.comm	x,4,4
 9592              		.comm	estado_0,1,1
 9593              		.comm	Buffer_LCD2,152,4
 9594              		.comm	Buffer_LCD1,152,4
 9595              		.comm	no_venta,4,4
 9596              		.comm	no_imprime2,1,1
 9597              		.comm	no_imprime,1,1
 9598              		.comm	n_copias,1,4
 9599              		.comm	a_copias,1,1
 9600              		.comm	producto4n,11,4
 9601              		.comm	producto3n,11,4
 9602              		.comm	producto2n,11,4
 9603              		.comm	producto1n,11,4
 9604              		.comm	nombreproducto,1,1
 9605              		.comm	id_venta,18,4
 9606              		.comm	id_corte,2,2
 9607              		.comm	copia_recibo2,2,4
 9608              		.comm	copia_recibo,2,4
 9609              		.comm	print2,2,4
 9610              		.comm	print1,2,4
 9611              		.comm	crc_total,1,1
 9612              		.comm	pos_ibutton,1,1
 9613              		.comm	fecha_corte,6,4
 9614              		.comm	decimalD,1,1
 9615              		.comm	decimalV,1,1
 9616              		.comm	tipo_imp,2,4
 9617              		.comm	bandera,2,4
 9618              		.comm	ppux10,1,1
 9619              		.comm	teclado2,1,1
 9620              		.comm	teclado,1,1
 9621              		.comm	resultado,14,4
 9622              		.comm	buffer_i2c,64,4
 9623              		.comm	kero2,1,1
 9624              		.comm	diesel2,1,1
 9625              		.comm	corriente2,1,1
 9626              		.comm	extra2,1,1
 9627              		.comm	kero,1,1
 9628              		.comm	corriente,1,1
 9629              		.comm	diesel,1,1
 9630              		.comm	extra,1,1
 9631              		.comm	versurt,1,1
 9632              		.comm	version,1,1
 9633              		.comm	comas2,1,1
 9634              		.comm	comas1,1,1
 9635              		.comm	teclas2,1,1
 9636              		.comm	teclas1,1,1
ARM GAS  C:\Users\IN-002~1\AppData\Local\Temp\ccxO8rjh.s 			page 210


 9637              		.comm	cont1,1,1
 9638              		.comm	ok_LCD2,1,1
 9639              		.comm	ok_LCD1,1,1
 9640              		.comm	count_protector2,1,1
 9641              		.comm	count_protector,1,1
 9642              		.comm	flujo_LCD2,1,1
 9643              		.comm	flujo_LCD,1,1
 9644              		.section	.rodata
 9645              		.align	2
 9646              		.set	.LANCHOR0,. + 0
 9647              	.LC0:
 9648 0000 FF       		.byte	-1
 9649 0001 E9       		.byte	-23
 9650 0002 FE       		.byte	-2
 9651 0003 E0       		.byte	-32
 9652 0004 E1       		.byte	-31
 9653 0005 E0       		.byte	-32
 9654 0006 FB       		.byte	-5
 9655 0007 EE       		.byte	-18
 9656 0008 F0       		.byte	-16
 9657 0009 000000   		.data
 9658              		.align	2
 9659              		.set	.LANCHOR1,. + 0
 9660              		.type	msn_tc, %object
 9661              		.size	msn_tc, 6
 9662              	msn_tc:
 9663 0000 544F5441 		.ascii	"TOTAL\000"
 9663      4C00
 9664 0006 0000     		.space	2
 9665              		.type	msn_lecact, %object
 9666              		.size	msn_lecact, 15
 9667              	msn_lecact:
 9668 0008 56616C6F 		.ascii	"Valor actual: \000"
 9668      72206163 
 9668      7475616C 
 9668      3A2000
 9669 0017 00       		.space	1
 9670              		.type	msn_lecaan, %object
 9671              		.size	msn_lecaan, 17
 9672              	msn_lecaan:
 9673 0018 56616C6F 		.ascii	"Valor anterior:  "
 9673      7220616E 
 9673      74657269 
 9673      6F723A20 
 9673      20
 9674 0029 000000   		.space	3
 9675              		.type	msn_tventas, %object
 9676              		.size	msn_tventas, 18
 9677              	msn_tventas:
 9678 002c 44696E65 		.ascii	"Dinero total: $   "
 9678      726F2074 
 9678      6F74616C 
 9678      3A202420 
 9678      2020
 9679 003e 0000     		.space	2
 9680              		.type	msn_totalcero, %object
 9681              		.size	msn_totalcero, 15
ARM GAS  C:\Users\IN-002~1\AppData\Local\Temp\ccxO8rjh.s 			page 211


 9682              	msn_totalcero:
 9683 0040 4E4F2054 		.ascii	"NO TOMO TOTALES"
 9683      4F4D4F20 
 9683      544F5441 
 9683      4C4553
 9684 004f 00       		.space	1
 9685              		.type	msn_tk, %object
 9686              		.size	msn_tk, 10
 9687              	msn_tk:
 9688 0050 4B45524F 		.ascii	"KERO TOTAL"
 9688      20544F54 
 9688      414C
 9689 005a 0000     		.space	2
 9690              		.type	msn_td, %object
 9691              		.size	msn_td, 14
 9692              	msn_td:
 9693 005c 53414E53 		.ascii	"SANS P TOTAL\000"
 9693      20502054 
 9693      4F54414C 
 9693      00
 9694 0069 00       		.space	1
 9695 006a 0000     		.space	2
 9696              		.type	msn_te, %object
 9697              		.size	msn_te, 13
 9698              	msn_te:
 9699 006c 44494553 		.ascii	"DIESEL TOTAL\000"
 9699      454C2054 
 9699      4F54414C 
 9699      00
 9700 0079 000000   		.text
 9701              	.Letext0:
 9702              		.file 2 "c:\\program files (x86)\\cypress\\psoc creator\\3.3\\psoc creator\\import\\gnu\\arm\\4.9.
 9703              		.file 3 "c:\\program files (x86)\\cypress\\psoc creator\\3.3\\psoc creator\\import\\gnu\\arm\\4.9.
 9704              		.file 4 "Generated_Source\\PSoC5/cytypes.h"
 9705              		.file 5 ".\\VariablesG.h"
 9706              		.file 6 "Generated_Source\\PSoC5/Surtidor.h"
 9707              		.file 7 "Generated_Source\\PSoC5/core_cm3.h"
 9708              		.file 8 "Generated_Source\\PSoC5/CyLib.h"
 9709              		.file 9 ".\\i2c.h"
 9710              		.file 10 ".\\Print.h"
 9711              		.section	.debug_info,"",%progbits
 9712              	.Ldebug_info0:
 9713 0000 0C3C0000 		.4byte	0x3c0c
 9714 0004 0400     		.2byte	0x4
 9715 0006 00000000 		.4byte	.Ldebug_abbrev0
 9716 000a 04       		.byte	0x4
 9717 000b 01       		.uleb128 0x1
 9718 000c 1B050000 		.4byte	.LASF142
 9719 0010 01       		.byte	0x1
 9720 0011 F3010000 		.4byte	.LASF143
 9721 0015 A8010000 		.4byte	.LASF144
 9722 0019 00000000 		.4byte	.Ldebug_ranges0+0
 9723 001d 00000000 		.4byte	0
 9724 0021 00000000 		.4byte	.Ldebug_line0
 9725 0025 02       		.uleb128 0x2
 9726 0026 01       		.byte	0x1
 9727 0027 06       		.byte	0x6
ARM GAS  C:\Users\IN-002~1\AppData\Local\Temp\ccxO8rjh.s 			page 212


 9728 0028 BA050000 		.4byte	.LASF0
 9729 002c 02       		.uleb128 0x2
 9730 002d 01       		.byte	0x1
 9731 002e 08       		.byte	0x8
 9732 002f 0D050000 		.4byte	.LASF1
 9733 0033 02       		.uleb128 0x2
 9734 0034 02       		.byte	0x2
 9735 0035 05       		.byte	0x5
 9736 0036 24040000 		.4byte	.LASF2
 9737 003a 02       		.uleb128 0x2
 9738 003b 02       		.byte	0x2
 9739 003c 07       		.byte	0x7
 9740 003d DC050000 		.4byte	.LASF3
 9741 0041 03       		.uleb128 0x3
 9742 0042 7F000000 		.4byte	.LASF9
 9743 0046 02       		.byte	0x2
 9744 0047 3F       		.byte	0x3f
 9745 0048 4C000000 		.4byte	0x4c
 9746 004c 02       		.uleb128 0x2
 9747 004d 04       		.byte	0x4
 9748 004e 05       		.byte	0x5
 9749 004f 2E040000 		.4byte	.LASF4
 9750 0053 02       		.uleb128 0x2
 9751 0054 04       		.byte	0x4
 9752 0055 07       		.byte	0x7
 9753 0056 BF040000 		.4byte	.LASF5
 9754 005a 02       		.uleb128 0x2
 9755 005b 08       		.byte	0x8
 9756 005c 05       		.byte	0x5
 9757 005d 51030000 		.4byte	.LASF6
 9758 0061 02       		.uleb128 0x2
 9759 0062 08       		.byte	0x8
 9760 0063 07       		.byte	0x7
 9761 0064 91010000 		.4byte	.LASF7
 9762 0068 04       		.uleb128 0x4
 9763 0069 04       		.byte	0x4
 9764 006a 05       		.byte	0x5
 9765 006b 696E7400 		.ascii	"int\000"
 9766 006f 02       		.uleb128 0x2
 9767 0070 04       		.byte	0x4
 9768 0071 07       		.byte	0x7
 9769 0072 51000000 		.4byte	.LASF8
 9770 0076 03       		.uleb128 0x3
 9771 0077 EE040000 		.4byte	.LASF10
 9772 007b 03       		.byte	0x3
 9773 007c 2C       		.byte	0x2c
 9774 007d 41000000 		.4byte	0x41
 9775 0081 03       		.uleb128 0x3
 9776 0082 22060000 		.4byte	.LASF11
 9777 0086 04       		.byte	0x4
 9778 0087 B4       		.byte	0xb4
 9779 0088 2C000000 		.4byte	0x2c
 9780 008c 03       		.uleb128 0x3
 9781 008d 06030000 		.4byte	.LASF12
 9782 0091 04       		.byte	0x4
 9783 0092 B5       		.byte	0xb5
 9784 0093 3A000000 		.4byte	0x3a
ARM GAS  C:\Users\IN-002~1\AppData\Local\Temp\ccxO8rjh.s 			page 213


 9785 0097 03       		.uleb128 0x3
 9786 0098 B0030000 		.4byte	.LASF13
 9787 009c 04       		.byte	0x4
 9788 009d B6       		.byte	0xb6
 9789 009e 53000000 		.4byte	0x53
 9790 00a2 02       		.uleb128 0x2
 9791 00a3 04       		.byte	0x4
 9792 00a4 04       		.byte	0x4
 9793 00a5 5F010000 		.4byte	.LASF14
 9794 00a9 02       		.uleb128 0x2
 9795 00aa 08       		.byte	0x8
 9796 00ab 04       		.byte	0x4
 9797 00ac 28060000 		.4byte	.LASF15
 9798 00b0 02       		.uleb128 0x2
 9799 00b1 01       		.byte	0x1
 9800 00b2 08       		.byte	0x8
 9801 00b3 F3020000 		.4byte	.LASF16
 9802 00b7 02       		.uleb128 0x2
 9803 00b8 04       		.byte	0x4
 9804 00b9 07       		.byte	0x7
 9805 00ba B6040000 		.4byte	.LASF17
 9806 00be 05       		.uleb128 0x5
 9807 00bf 4A000000 		.4byte	.LASF28
 9808 00c3 98       		.byte	0x98
 9809 00c4 05       		.byte	0x5
 9810 00c5 8A       		.byte	0x8a
 9811 00c6 65010000 		.4byte	0x165
 9812 00ca 06       		.uleb128 0x6
 9813 00cb AB030000 		.4byte	.LASF18
 9814 00cf 05       		.byte	0x5
 9815 00d0 8B       		.byte	0x8b
 9816 00d1 81000000 		.4byte	0x81
 9817 00d5 00       		.byte	0
 9818 00d6 07       		.uleb128 0x7
 9819 00d7 706F7300 		.ascii	"pos\000"
 9820 00db 05       		.byte	0x5
 9821 00dc 8C       		.byte	0x8c
 9822 00dd 81000000 		.4byte	0x81
 9823 00e1 01       		.byte	0x1
 9824 00e2 06       		.uleb128 0x6
 9825 00e3 AD000000 		.4byte	.LASF19
 9826 00e7 05       		.byte	0x5
 9827 00e8 8D       		.byte	0x8d
 9828 00e9 81000000 		.4byte	0x81
 9829 00ed 02       		.byte	0x2
 9830 00ee 06       		.uleb128 0x6
 9831 00ef 38010000 		.4byte	.LASF20
 9832 00f3 05       		.byte	0x5
 9833 00f4 8E       		.byte	0x8e
 9834 00f5 81000000 		.4byte	0x81
 9835 00f9 03       		.byte	0x3
 9836 00fa 07       		.uleb128 0x7
 9837 00fb 6B6D00   		.ascii	"km\000"
 9838 00fe 05       		.byte	0x5
 9839 00ff 8F       		.byte	0x8f
 9840 0100 65010000 		.4byte	0x165
 9841 0104 04       		.byte	0x4
ARM GAS  C:\Users\IN-002~1\AppData\Local\Temp\ccxO8rjh.s 			page 214


 9842 0105 06       		.uleb128 0x6
 9843 0106 C6050000 		.4byte	.LASF21
 9844 010a 05       		.byte	0x5
 9845 010b 90       		.byte	0x90
 9846 010c 75010000 		.4byte	0x175
 9847 0110 0B       		.byte	0xb
 9848 0111 07       		.uleb128 0x7
 9849 0112 696400   		.ascii	"id\000"
 9850 0115 05       		.byte	0x5
 9851 0116 91       		.byte	0x91
 9852 0117 75010000 		.4byte	0x175
 9853 011b 29       		.byte	0x29
 9854 011c 06       		.uleb128 0x6
 9855 011d EC010000 		.4byte	.LASF22
 9856 0121 05       		.byte	0x5
 9857 0122 92       		.byte	0x92
 9858 0123 75010000 		.4byte	0x175
 9859 0127 47       		.byte	0x47
 9860 0128 06       		.uleb128 0x6
 9861 0129 46020000 		.4byte	.LASF23
 9862 012d 05       		.byte	0x5
 9863 012e 93       		.byte	0x93
 9864 012f 75010000 		.4byte	0x175
 9865 0133 65       		.byte	0x65
 9866 0134 06       		.uleb128 0x6
 9867 0135 89000000 		.4byte	.LASF24
 9868 0139 05       		.byte	0x5
 9869 013a 94       		.byte	0x94
 9870 013b 81000000 		.4byte	0x81
 9871 013f 83       		.byte	0x83
 9872 0140 06       		.uleb128 0x6
 9873 0141 81030000 		.4byte	.LASF25
 9874 0145 05       		.byte	0x5
 9875 0146 95       		.byte	0x95
 9876 0147 85010000 		.4byte	0x185
 9877 014b 84       		.byte	0x84
 9878 014c 06       		.uleb128 0x6
 9879 014d 00000000 		.4byte	.LASF26
 9880 0151 05       		.byte	0x5
 9881 0152 96       		.byte	0x96
 9882 0153 95010000 		.4byte	0x195
 9883 0157 8E       		.byte	0x8e
 9884 0158 06       		.uleb128 0x6
 9885 0159 22030000 		.4byte	.LASF27
 9886 015d 05       		.byte	0x5
 9887 015e 97       		.byte	0x97
 9888 015f 81000000 		.4byte	0x81
 9889 0163 97       		.byte	0x97
 9890 0164 00       		.byte	0
 9891 0165 08       		.uleb128 0x8
 9892 0166 81000000 		.4byte	0x81
 9893 016a 75010000 		.4byte	0x175
 9894 016e 09       		.uleb128 0x9
 9895 016f B7000000 		.4byte	0xb7
 9896 0173 06       		.byte	0x6
 9897 0174 00       		.byte	0
 9898 0175 08       		.uleb128 0x8
ARM GAS  C:\Users\IN-002~1\AppData\Local\Temp\ccxO8rjh.s 			page 215


 9899 0176 81000000 		.4byte	0x81
 9900 017a 85010000 		.4byte	0x185
 9901 017e 09       		.uleb128 0x9
 9902 017f B7000000 		.4byte	0xb7
 9903 0183 1D       		.byte	0x1d
 9904 0184 00       		.byte	0
 9905 0185 08       		.uleb128 0x8
 9906 0186 81000000 		.4byte	0x81
 9907 018a 95010000 		.4byte	0x195
 9908 018e 09       		.uleb128 0x9
 9909 018f B7000000 		.4byte	0xb7
 9910 0193 09       		.byte	0x9
 9911 0194 00       		.byte	0
 9912 0195 08       		.uleb128 0x8
 9913 0196 81000000 		.4byte	0x81
 9914 019a A5010000 		.4byte	0x1a5
 9915 019e 09       		.uleb128 0x9
 9916 019f B7000000 		.4byte	0xb7
 9917 01a3 08       		.byte	0x8
 9918 01a4 00       		.byte	0
 9919 01a5 0A       		.uleb128 0xa
 9920 01a6 706F7300 		.ascii	"pos\000"
 9921 01aa 04       		.byte	0x4
 9922 01ab 05       		.byte	0x5
 9923 01ac 9F       		.byte	0x9f
 9924 01ad E2010000 		.4byte	0x1e2
 9925 01b1 07       		.uleb128 0x7
 9926 01b2 64697200 		.ascii	"dir\000"
 9927 01b6 05       		.byte	0x5
 9928 01b7 A0       		.byte	0xa0
 9929 01b8 81000000 		.4byte	0x81
 9930 01bc 00       		.byte	0
 9931 01bd 06       		.uleb128 0x6
 9932 01be DA030000 		.4byte	.LASF29
 9933 01c2 05       		.byte	0x5
 9934 01c3 A1       		.byte	0xa1
 9935 01c4 81000000 		.4byte	0x81
 9936 01c8 01       		.byte	0x1
 9937 01c9 06       		.uleb128 0x6
 9938 01ca 47060000 		.4byte	.LASF30
 9939 01ce 05       		.byte	0x5
 9940 01cf A2       		.byte	0xa2
 9941 01d0 81000000 		.4byte	0x81
 9942 01d4 02       		.byte	0x2
 9943 01d5 06       		.uleb128 0x6
 9944 01d6 14000000 		.4byte	.LASF31
 9945 01da 05       		.byte	0x5
 9946 01db A3       		.byte	0xa3
 9947 01dc 81000000 		.4byte	0x81
 9948 01e0 03       		.byte	0x3
 9949 01e1 00       		.byte	0
 9950 01e2 05       		.uleb128 0x5
 9951 01e3 5D040000 		.4byte	.LASF32
 9952 01e7 08       		.byte	0x8
 9953 01e8 05       		.byte	0x5
 9954 01e9 A7       		.byte	0xa7
 9955 01ea 03020000 		.4byte	0x203
ARM GAS  C:\Users\IN-002~1\AppData\Local\Temp\ccxO8rjh.s 			page 216


 9956 01ee 07       		.uleb128 0x7
 9957 01ef 6100     		.ascii	"a\000"
 9958 01f1 05       		.byte	0x5
 9959 01f2 A8       		.byte	0xa8
 9960 01f3 A5010000 		.4byte	0x1a5
 9961 01f7 00       		.byte	0
 9962 01f8 07       		.uleb128 0x7
 9963 01f9 6200     		.ascii	"b\000"
 9964 01fb 05       		.byte	0x5
 9965 01fc A9       		.byte	0xa9
 9966 01fd A5010000 		.4byte	0x1a5
 9967 0201 04       		.byte	0x4
 9968 0202 00       		.byte	0
 9969 0203 05       		.uleb128 0x5
 9970 0204 C0030000 		.4byte	.LASF33
 9971 0208 E1       		.byte	0xe1
 9972 0209 05       		.byte	0x5
 9973 020a AC       		.byte	0xac
 9974 020b E8020000 		.4byte	0x2e8
 9975 020f 06       		.uleb128 0x6
 9976 0210 F4030000 		.4byte	.LASF34
 9977 0214 05       		.byte	0x5
 9978 0215 AD       		.byte	0xad
 9979 0216 75010000 		.4byte	0x175
 9980 021a 00       		.byte	0
 9981 021b 07       		.uleb128 0x7
 9982 021c 6E697400 		.ascii	"nit\000"
 9983 0220 05       		.byte	0x5
 9984 0221 AE       		.byte	0xae
 9985 0222 E8020000 		.4byte	0x2e8
 9986 0226 1E       		.byte	0x1e
 9987 0227 06       		.uleb128 0x6
 9988 0228 68030000 		.4byte	.LASF35
 9989 022c 05       		.byte	0x5
 9990 022d AF       		.byte	0xaf
 9991 022e F8020000 		.4byte	0x2f8
 9992 0232 2D       		.byte	0x2d
 9993 0233 06       		.uleb128 0x6
 9994 0234 89020000 		.4byte	.LASF36
 9995 0238 05       		.byte	0x5
 9996 0239 B0       		.byte	0xb0
 9997 023a 08030000 		.4byte	0x308
 9998 023e 2F       		.byte	0x2f
 9999 023f 06       		.uleb128 0x6
 10000 0240 22010000 		.4byte	.LASF37
 10001 0244 05       		.byte	0x5
 10002 0245 B1       		.byte	0xb1
 10003 0246 75010000 		.4byte	0x175
 10004 024a 43       		.byte	0x43
 10005 024b 06       		.uleb128 0x6
 10006 024c 85010000 		.4byte	.LASF38
 10007 0250 05       		.byte	0x5
 10008 0251 B2       		.byte	0xb2
 10009 0252 75010000 		.4byte	0x175
 10010 0256 61       		.byte	0x61
 10011 0257 06       		.uleb128 0x6
 10012 0258 8B010000 		.4byte	.LASF39
ARM GAS  C:\Users\IN-002~1\AppData\Local\Temp\ccxO8rjh.s 			page 217


 10013 025c 05       		.byte	0x5
 10014 025d B3       		.byte	0xb3
 10015 025e 75010000 		.4byte	0x175
 10016 0262 7F       		.byte	0x7f
 10017 0263 06       		.uleb128 0x6
 10018 0264 B4050000 		.4byte	.LASF40
 10019 0268 05       		.byte	0x5
 10020 0269 B4       		.byte	0xb4
 10021 026a 18030000 		.4byte	0x318
 10022 026e 9D       		.byte	0x9d
 10023 026f 06       		.uleb128 0x6
 10024 0270 D2000000 		.4byte	.LASF41
 10025 0274 05       		.byte	0x5
 10026 0275 B5       		.byte	0xb5
 10027 0276 F8020000 		.4byte	0x2f8
 10028 027a A0       		.byte	0xa0
 10029 027b 06       		.uleb128 0x6
 10030 027c 08010000 		.4byte	.LASF42
 10031 0280 05       		.byte	0x5
 10032 0281 B6       		.byte	0xb6
 10033 0282 81000000 		.4byte	0x81
 10034 0286 A2       		.byte	0xa2
 10035 0287 06       		.uleb128 0x6
 10036 0288 5F030000 		.4byte	.LASF43
 10037 028c 05       		.byte	0x5
 10038 028d B7       		.byte	0xb7
 10039 028e 81000000 		.4byte	0x81
 10040 0292 A3       		.byte	0xa3
 10041 0293 07       		.uleb128 0x7
 10042 0294 70707500 		.ascii	"ppu\000"
 10043 0298 05       		.byte	0x5
 10044 0299 B8       		.byte	0xb8
 10045 029a 65010000 		.4byte	0x165
 10046 029e A4       		.byte	0xa4
 10047 029f 06       		.uleb128 0x6
 10048 02a0 C7030000 		.4byte	.LASF44
 10049 02a4 05       		.byte	0x5
 10050 02a5 B9       		.byte	0xb9
 10051 02a6 95010000 		.4byte	0x195
 10052 02aa AB       		.byte	0xab
 10053 02ab 06       		.uleb128 0x6
 10054 02ac 7B020000 		.4byte	.LASF45
 10055 02b0 05       		.byte	0x5
 10056 02b1 BA       		.byte	0xba
 10057 02b2 95010000 		.4byte	0x195
 10058 02b6 B4       		.byte	0xb4
 10059 02b7 06       		.uleb128 0x6
 10060 02b8 B0020000 		.4byte	.LASF46
 10061 02bc 05       		.byte	0x5
 10062 02bd BB       		.byte	0xbb
 10063 02be 28030000 		.4byte	0x328
 10064 02c2 BD       		.byte	0xbd
 10065 02c3 06       		.uleb128 0x6
 10066 02c4 00010000 		.4byte	.LASF47
 10067 02c8 05       		.byte	0x5
 10068 02c9 BC       		.byte	0xbc
 10069 02ca 28030000 		.4byte	0x328
ARM GAS  C:\Users\IN-002~1\AppData\Local\Temp\ccxO8rjh.s 			page 218


 10070 02ce CA       		.byte	0xca
 10071 02cf 06       		.uleb128 0x6
 10072 02d0 00000000 		.4byte	.LASF26
 10073 02d4 05       		.byte	0x5
 10074 02d5 BD       		.byte	0xbd
 10075 02d6 95010000 		.4byte	0x195
 10076 02da D7       		.byte	0xd7
 10077 02db 06       		.uleb128 0x6
 10078 02dc 47060000 		.4byte	.LASF30
 10079 02e0 05       		.byte	0x5
 10080 02e1 BE       		.byte	0xbe
 10081 02e2 81000000 		.4byte	0x81
 10082 02e6 E0       		.byte	0xe0
 10083 02e7 00       		.byte	0
 10084 02e8 08       		.uleb128 0x8
 10085 02e9 81000000 		.4byte	0x81
 10086 02ed F8020000 		.4byte	0x2f8
 10087 02f1 09       		.uleb128 0x9
 10088 02f2 B7000000 		.4byte	0xb7
 10089 02f6 0E       		.byte	0xe
 10090 02f7 00       		.byte	0
 10091 02f8 08       		.uleb128 0x8
 10092 02f9 81000000 		.4byte	0x81
 10093 02fd 08030000 		.4byte	0x308
 10094 0301 09       		.uleb128 0x9
 10095 0302 B7000000 		.4byte	0xb7
 10096 0306 01       		.byte	0x1
 10097 0307 00       		.byte	0
 10098 0308 08       		.uleb128 0x8
 10099 0309 81000000 		.4byte	0x81
 10100 030d 18030000 		.4byte	0x318
 10101 0311 09       		.uleb128 0x9
 10102 0312 B7000000 		.4byte	0xb7
 10103 0316 13       		.byte	0x13
 10104 0317 00       		.byte	0
 10105 0318 08       		.uleb128 0x8
 10106 0319 81000000 		.4byte	0x81
 10107 031d 28030000 		.4byte	0x328
 10108 0321 09       		.uleb128 0x9
 10109 0322 B7000000 		.4byte	0xb7
 10110 0326 02       		.byte	0x2
 10111 0327 00       		.byte	0
 10112 0328 08       		.uleb128 0x8
 10113 0329 81000000 		.4byte	0x81
 10114 032d 38030000 		.4byte	0x338
 10115 0331 09       		.uleb128 0x9
 10116 0332 B7000000 		.4byte	0xb7
 10117 0336 0C       		.byte	0xc
 10118 0337 00       		.byte	0
 10119 0338 0B       		.uleb128 0xb
 10120 0339 73020000 		.4byte	.LASF48
 10121 033d 01       		.byte	0x1
 10122 033e 29       		.byte	0x29
 10123 033f 81000000 		.4byte	0x81
 10124 0343 00000000 		.4byte	.LFB63
 10125 0347 80000000 		.4byte	.LFE63-.LFB63
 10126 034b 01       		.uleb128 0x1
ARM GAS  C:\Users\IN-002~1\AppData\Local\Temp\ccxO8rjh.s 			page 219


 10127 034c 9C       		.byte	0x9c
 10128 034d AB030000 		.4byte	0x3ab
 10129 0351 0C       		.uleb128 0xc
 10130 0352 7800     		.ascii	"x\000"
 10131 0354 01       		.byte	0x1
 10132 0355 2A       		.byte	0x2a
 10133 0356 81000000 		.4byte	0x81
 10134 035a 00000000 		.4byte	.LLST0
 10135 035e 0D       		.uleb128 0xd
 10136 035f 14000000 		.4byte	.LVL2
 10137 0363 2E3B0000 		.4byte	0x3b2e
 10138 0367 72030000 		.4byte	0x372
 10139 036b 0E       		.uleb128 0xe
 10140 036c 01       		.uleb128 0x1
 10141 036d 50       		.byte	0x50
 10142 036e 02       		.uleb128 0x2
 10143 036f 74       		.byte	0x74
 10144 0370 00       		.sleb128 0
 10145 0371 00       		.byte	0
 10146 0372 0D       		.uleb128 0xd
 10147 0373 1A000000 		.4byte	.LVL3
 10148 0377 3F3B0000 		.4byte	0x3b3f
 10149 037b 86030000 		.4byte	0x386
 10150 037f 0E       		.uleb128 0xe
 10151 0380 01       		.uleb128 0x1
 10152 0381 50       		.byte	0x50
 10153 0382 02       		.uleb128 0x2
 10154 0383 08       		.byte	0x8
 10155 0384 64       		.byte	0x64
 10156 0385 00       		.byte	0
 10157 0386 0F       		.uleb128 0xf
 10158 0387 1E000000 		.4byte	.LVL4
 10159 038b 503B0000 		.4byte	0x3b50
 10160 038f 0F       		.uleb128 0xf
 10161 0390 30000000 		.4byte	.LVL5
 10162 0394 5B3B0000 		.4byte	0x3b5b
 10163 0398 0F       		.uleb128 0xf
 10164 0399 34000000 		.4byte	.LVL6
 10165 039d 503B0000 		.4byte	0x3b50
 10166 03a1 0F       		.uleb128 0xf
 10167 03a2 46000000 		.4byte	.LVL7
 10168 03a6 5B3B0000 		.4byte	0x3b5b
 10169 03aa 00       		.byte	0
 10170 03ab 0B       		.uleb128 0xb
 10171 03ac A9050000 		.4byte	.LASF49
 10172 03b0 01       		.byte	0x1
 10173 03b1 4E       		.byte	0x4e
 10174 03b2 81000000 		.4byte	0x81
 10175 03b6 00000000 		.4byte	.LFB64
 10176 03ba 26000000 		.4byte	.LFE64-.LFB64
 10177 03be 01       		.uleb128 0x1
 10178 03bf 9C       		.byte	0x9c
 10179 03c0 1B040000 		.4byte	0x41b
 10180 03c4 10       		.uleb128 0x10
 10181 03c5 64697200 		.ascii	"dir\000"
 10182 03c9 01       		.byte	0x1
 10183 03ca 4E       		.byte	0x4e
ARM GAS  C:\Users\IN-002~1\AppData\Local\Temp\ccxO8rjh.s 			page 220


 10184 03cb 81000000 		.4byte	0x81
 10185 03cf 2A000000 		.4byte	.LLST1
 10186 03d3 11       		.uleb128 0x11
 10187 03d4 DA030000 		.4byte	.LASF29
 10188 03d8 01       		.byte	0x1
 10189 03d9 4F       		.byte	0x4f
 10190 03da 81000000 		.4byte	0x81
 10191 03de 4B000000 		.4byte	.LLST2
 10192 03e2 0F       		.uleb128 0xf
 10193 03e3 06000000 		.4byte	.LVL15
 10194 03e7 2E3B0000 		.4byte	0x3b2e
 10195 03eb 0D       		.uleb128 0xd
 10196 03ec 0C000000 		.4byte	.LVL16
 10197 03f0 3F3B0000 		.4byte	0x3b3f
 10198 03f4 FF030000 		.4byte	0x3ff
 10199 03f8 0E       		.uleb128 0xe
 10200 03f9 01       		.uleb128 0x1
 10201 03fa 50       		.byte	0x50
 10202 03fb 02       		.uleb128 0x2
 10203 03fc 08       		.byte	0x8
 10204 03fd 32       		.byte	0x32
 10205 03fe 00       		.byte	0
 10206 03ff 0F       		.uleb128 0xf
 10207 0400 10000000 		.4byte	.LVL17
 10208 0404 503B0000 		.4byte	0x3b50
 10209 0408 0F       		.uleb128 0xf
 10210 0409 16000000 		.4byte	.LVL18
 10211 040d 623B0000 		.4byte	0x3b62
 10212 0411 0F       		.uleb128 0xf
 10213 0412 1E000000 		.4byte	.LVL20
 10214 0416 5B3B0000 		.4byte	0x3b5b
 10215 041a 00       		.byte	0
 10216 041b 0B       		.uleb128 0xb
 10217 041c 9C040000 		.4byte	.LASF50
 10218 0420 01       		.byte	0x1
 10219 0421 61       		.byte	0x61
 10220 0422 81000000 		.4byte	0x81
 10221 0426 00000000 		.4byte	.LFB65
 10222 042a E8000000 		.4byte	.LFE65-.LFB65
 10223 042e 01       		.uleb128 0x1
 10224 042f 9C       		.byte	0x9c
 10225 0430 FE040000 		.4byte	0x4fe
 10226 0434 10       		.uleb128 0x10
 10227 0435 76616C00 		.ascii	"val\000"
 10228 0439 01       		.byte	0x1
 10229 043a 61       		.byte	0x61
 10230 043b 81000000 		.4byte	0x81
 10231 043f 5E000000 		.4byte	.LLST3
 10232 0443 12       		.uleb128 0x12
 10233 0444 2F060000 		.4byte	.LASF51
 10234 0448 01       		.byte	0x1
 10235 0449 62       		.byte	0x62
 10236 044a FE040000 		.4byte	0x4fe
 10237 044e 02       		.uleb128 0x2
 10238 044f 91       		.byte	0x91
 10239 0450 64       		.sleb128 -28
 10240 0451 0C       		.uleb128 0xc
ARM GAS  C:\Users\IN-002~1\AppData\Local\Temp\ccxO8rjh.s 			page 221


 10241 0452 7800     		.ascii	"x\000"
 10242 0454 01       		.byte	0x1
 10243 0455 62       		.byte	0x62
 10244 0456 81000000 		.4byte	0x81
 10245 045a 7F000000 		.4byte	.LLST4
 10246 045e 12       		.uleb128 0x12
 10247 045f DA020000 		.4byte	.LASF52
 10248 0463 01       		.byte	0x1
 10249 0464 62       		.byte	0x62
 10250 0465 95010000 		.4byte	0x195
 10251 0469 02       		.uleb128 0x2
 10252 046a 91       		.byte	0x91
 10253 046b 58       		.sleb128 -40
 10254 046c 0D       		.uleb128 0xd
 10255 046d 1C000000 		.4byte	.LVL24
 10256 0471 2E3B0000 		.4byte	0x3b2e
 10257 0475 83040000 		.4byte	0x483
 10258 0479 0E       		.uleb128 0xe
 10259 047a 01       		.uleb128 0x1
 10260 047b 50       		.byte	0x50
 10261 047c 05       		.uleb128 0x5
 10262 047d 74       		.byte	0x74
 10263 047e 00       		.sleb128 0
 10264 047f 08       		.byte	0x8
 10265 0480 20       		.byte	0x20
 10266 0481 21       		.byte	0x21
 10267 0482 00       		.byte	0
 10268 0483 0D       		.uleb128 0xd
 10269 0484 28000000 		.4byte	.LVL25
 10270 0488 3F3B0000 		.4byte	0x3b3f
 10271 048c 97040000 		.4byte	0x497
 10272 0490 0E       		.uleb128 0xe
 10273 0491 01       		.uleb128 0x1
 10274 0492 50       		.byte	0x50
 10275 0493 02       		.uleb128 0x2
 10276 0494 08       		.byte	0x8
 10277 0495 64       		.byte	0x64
 10278 0496 00       		.byte	0
 10279 0497 0F       		.uleb128 0xf
 10280 0498 2C000000 		.4byte	.LVL26
 10281 049c 503B0000 		.4byte	0x3b50
 10282 04a0 0F       		.uleb128 0xf
 10283 04a1 34000000 		.4byte	.LVL27
 10284 04a5 623B0000 		.4byte	0x3b62
 10285 04a9 0F       		.uleb128 0xf
 10286 04aa 40000000 		.4byte	.LVL28
 10287 04ae 5B3B0000 		.4byte	0x3b5b
 10288 04b2 0D       		.uleb128 0xd
 10289 04b3 50000000 		.4byte	.LVL30
 10290 04b7 2E3B0000 		.4byte	0x3b2e
 10291 04bb CE040000 		.4byte	0x4ce
 10292 04bf 0E       		.uleb128 0xe
 10293 04c0 01       		.uleb128 0x1
 10294 04c1 50       		.byte	0x50
 10295 04c2 0A       		.uleb128 0xa
 10296 04c3 91       		.byte	0x91
 10297 04c4 00       		.sleb128 0
ARM GAS  C:\Users\IN-002~1\AppData\Local\Temp\ccxO8rjh.s 			page 222


 10298 04c5 74       		.byte	0x74
 10299 04c6 00       		.sleb128 0
 10300 04c7 22       		.byte	0x22
 10301 04c8 08       		.byte	0x8
 10302 04c9 28       		.byte	0x28
 10303 04ca 1C       		.byte	0x1c
 10304 04cb 94       		.byte	0x94
 10305 04cc 01       		.byte	0x1
 10306 04cd 00       		.byte	0
 10307 04ce 0D       		.uleb128 0xd
 10308 04cf 5E000000 		.4byte	.LVL33
 10309 04d3 3F3B0000 		.4byte	0x3b3f
 10310 04d7 E2040000 		.4byte	0x4e2
 10311 04db 0E       		.uleb128 0xe
 10312 04dc 01       		.uleb128 0x1
 10313 04dd 50       		.byte	0x50
 10314 04de 02       		.uleb128 0x2
 10315 04df 08       		.byte	0x8
 10316 04e0 C8       		.byte	0xc8
 10317 04e1 00       		.byte	0
 10318 04e2 0F       		.uleb128 0xf
 10319 04e3 62000000 		.4byte	.LVL34
 10320 04e7 503B0000 		.4byte	0x3b50
 10321 04eb 0F       		.uleb128 0xf
 10322 04ec 6E000000 		.4byte	.LVL35
 10323 04f0 623B0000 		.4byte	0x3b62
 10324 04f4 0F       		.uleb128 0xf
 10325 04f5 86000000 		.4byte	.LVL39
 10326 04f9 5B3B0000 		.4byte	0x3b5b
 10327 04fd 00       		.byte	0
 10328 04fe 08       		.uleb128 0x8
 10329 04ff 81000000 		.4byte	0x81
 10330 0503 0E050000 		.4byte	0x50e
 10331 0507 09       		.uleb128 0x9
 10332 0508 B7000000 		.4byte	0xb7
 10333 050c 12       		.byte	0x12
 10334 050d 00       		.byte	0
 10335 050e 13       		.uleb128 0x13
 10336 050f D2020000 		.4byte	.LASF145
 10337 0513 01       		.byte	0x1
 10338 0514 A2       		.byte	0xa2
 10339 0515 00000000 		.4byte	.LFB66
 10340 0519 12000000 		.4byte	.LFE66-.LFB66
 10341 051d 01       		.uleb128 0x1
 10342 051e 9C       		.byte	0x9c
 10343 051f 4C050000 		.4byte	0x54c
 10344 0523 10       		.uleb128 0x10
 10345 0524 76616C00 		.ascii	"val\000"
 10346 0528 01       		.byte	0x1
 10347 0529 A2       		.byte	0xa2
 10348 052a 81000000 		.4byte	0x81
 10349 052e BF000000 		.4byte	.LLST5
 10350 0532 0F       		.uleb128 0xf
 10351 0533 0A000000 		.4byte	.LVL45
 10352 0537 2E3B0000 		.4byte	0x3b2e
 10353 053b 14       		.uleb128 0x14
 10354 053c 10000000 		.4byte	.LVL46
ARM GAS  C:\Users\IN-002~1\AppData\Local\Temp\ccxO8rjh.s 			page 223


 10355 0540 3F3B0000 		.4byte	0x3b3f
 10356 0544 0E       		.uleb128 0xe
 10357 0545 01       		.uleb128 0x1
 10358 0546 50       		.byte	0x50
 10359 0547 02       		.uleb128 0x2
 10360 0548 08       		.byte	0x8
 10361 0549 C8       		.byte	0xc8
 10362 054a 00       		.byte	0
 10363 054b 00       		.byte	0
 10364 054c 0B       		.uleb128 0xb
 10365 054d 83020000 		.4byte	.LASF53
 10366 0551 01       		.byte	0x1
 10367 0552 B7       		.byte	0xb7
 10368 0553 81000000 		.4byte	0x81
 10369 0557 00000000 		.4byte	.LFB67
 10370 055b E8010000 		.4byte	.LFE67-.LFB67
 10371 055f 01       		.uleb128 0x1
 10372 0560 9C       		.byte	0x9c
 10373 0561 9A060000 		.4byte	0x69a
 10374 0565 10       		.uleb128 0x10
 10375 0566 76616C00 		.ascii	"val\000"
 10376 056a 01       		.byte	0x1
 10377 056b B7       		.byte	0xb7
 10378 056c 81000000 		.4byte	0x81
 10379 0570 E0000000 		.4byte	.LLST6
 10380 0574 12       		.uleb128 0x12
 10381 0575 D1040000 		.4byte	.LASF54
 10382 0579 01       		.byte	0x1
 10383 057a B8       		.byte	0xb8
 10384 057b 9A060000 		.4byte	0x69a
 10385 057f 02       		.uleb128 0x2
 10386 0580 91       		.byte	0x91
 10387 0581 48       		.sleb128 -56
 10388 0582 0C       		.uleb128 0xc
 10389 0583 7800     		.ascii	"x\000"
 10390 0585 01       		.byte	0x1
 10391 0586 B8       		.byte	0xb8
 10392 0587 81000000 		.4byte	0x81
 10393 058b 01010000 		.4byte	.LLST7
 10394 058f 0C       		.uleb128 0xc
 10395 0590 706F7300 		.ascii	"pos\000"
 10396 0594 01       		.byte	0x1
 10397 0595 B8       		.byte	0xb8
 10398 0596 81000000 		.4byte	0x81
 10399 059a E7010000 		.4byte	.LLST8
 10400 059e 0C       		.uleb128 0xc
 10401 059f 7900     		.ascii	"y\000"
 10402 05a1 01       		.byte	0x1
 10403 05a2 B8       		.byte	0xb8
 10404 05a3 81000000 		.4byte	0x81
 10405 05a7 1C020000 		.4byte	.LLST9
 10406 05ab 0D       		.uleb128 0xd
 10407 05ac 0E000000 		.4byte	.LVL50
 10408 05b0 2E3B0000 		.4byte	0x3b2e
 10409 05b4 C2050000 		.4byte	0x5c2
 10410 05b8 0E       		.uleb128 0xe
 10411 05b9 01       		.uleb128 0x1
ARM GAS  C:\Users\IN-002~1\AppData\Local\Temp\ccxO8rjh.s 			page 224


 10412 05ba 50       		.byte	0x50
 10413 05bb 05       		.uleb128 0x5
 10414 05bc 74       		.byte	0x74
 10415 05bd 00       		.sleb128 0
 10416 05be 08       		.byte	0x8
 10417 05bf 40       		.byte	0x40
 10418 05c0 21       		.byte	0x21
 10419 05c1 00       		.byte	0
 10420 05c2 0D       		.uleb128 0xd
 10421 05c3 16000000 		.4byte	.LVL51
 10422 05c7 3F3B0000 		.4byte	0x3b3f
 10423 05cb D7050000 		.4byte	0x5d7
 10424 05cf 0E       		.uleb128 0xe
 10425 05d0 01       		.uleb128 0x1
 10426 05d1 50       		.byte	0x50
 10427 05d2 03       		.uleb128 0x3
 10428 05d3 0A       		.byte	0xa
 10429 05d4 2C01     		.2byte	0x12c
 10430 05d6 00       		.byte	0
 10431 05d7 0F       		.uleb128 0xf
 10432 05d8 1A000000 		.4byte	.LVL52
 10433 05dc 503B0000 		.4byte	0x3b50
 10434 05e0 0F       		.uleb128 0xf
 10435 05e1 26000000 		.4byte	.LVL54
 10436 05e5 623B0000 		.4byte	0x3b62
 10437 05e9 0F       		.uleb128 0xf
 10438 05ea 3A000000 		.4byte	.LVL59
 10439 05ee 503B0000 		.4byte	0x3b50
 10440 05f2 0F       		.uleb128 0xf
 10441 05f3 42000000 		.4byte	.LVL60
 10442 05f7 5B3B0000 		.4byte	0x3b5b
 10443 05fb 0D       		.uleb128 0xd
 10444 05fc 88010000 		.4byte	.LVL101
 10445 0600 6D3B0000 		.4byte	0x3b6d
 10446 0604 16060000 		.4byte	0x616
 10447 0608 0E       		.uleb128 0xe
 10448 0609 01       		.uleb128 0x1
 10449 060a 51       		.byte	0x51
 10450 060b 02       		.uleb128 0x2
 10451 060c 74       		.byte	0x74
 10452 060d 00       		.sleb128 0
 10453 060e 0E       		.uleb128 0xe
 10454 060f 01       		.uleb128 0x1
 10455 0610 50       		.byte	0x50
 10456 0611 03       		.uleb128 0x3
 10457 0612 0A       		.byte	0xa
 10458 0613 C901     		.2byte	0x1c9
 10459 0615 00       		.byte	0
 10460 0616 0D       		.uleb128 0xd
 10461 0617 94010000 		.4byte	.LVL102
 10462 061b 6D3B0000 		.4byte	0x3b6d
 10463 061f 31060000 		.4byte	0x631
 10464 0623 0E       		.uleb128 0xe
 10465 0624 01       		.uleb128 0x1
 10466 0625 51       		.byte	0x51
 10467 0626 02       		.uleb128 0x2
 10468 0627 74       		.byte	0x74
ARM GAS  C:\Users\IN-002~1\AppData\Local\Temp\ccxO8rjh.s 			page 225


 10469 0628 09       		.sleb128 9
 10470 0629 0E       		.uleb128 0xe
 10471 062a 01       		.uleb128 0x1
 10472 062b 50       		.byte	0x50
 10473 062c 03       		.uleb128 0x3
 10474 062d 0A       		.byte	0xa
 10475 062e D201     		.2byte	0x1d2
 10476 0630 00       		.byte	0
 10477 0631 0D       		.uleb128 0xd
 10478 0632 9E010000 		.4byte	.LVL103
 10479 0636 6D3B0000 		.4byte	0x3b6d
 10480 063a 4C060000 		.4byte	0x64c
 10481 063e 0E       		.uleb128 0xe
 10482 063f 01       		.uleb128 0x1
 10483 0640 51       		.byte	0x51
 10484 0641 02       		.uleb128 0x2
 10485 0642 74       		.byte	0x74
 10486 0643 79       		.sleb128 -7
 10487 0644 0E       		.uleb128 0xe
 10488 0645 01       		.uleb128 0x1
 10489 0646 50       		.byte	0x50
 10490 0647 03       		.uleb128 0x3
 10491 0648 0A       		.byte	0xa
 10492 0649 DB01     		.2byte	0x1db
 10493 064b 00       		.byte	0
 10494 064c 0D       		.uleb128 0xd
 10495 064d AE010000 		.4byte	.LVL104
 10496 0651 6D3B0000 		.4byte	0x3b6d
 10497 0655 67060000 		.4byte	0x667
 10498 0659 0E       		.uleb128 0xe
 10499 065a 01       		.uleb128 0x1
 10500 065b 51       		.byte	0x51
 10501 065c 02       		.uleb128 0x2
 10502 065d 74       		.byte	0x74
 10503 065e 00       		.sleb128 0
 10504 065f 0E       		.uleb128 0xe
 10505 0660 01       		.uleb128 0x1
 10506 0661 50       		.byte	0x50
 10507 0662 03       		.uleb128 0x3
 10508 0663 0A       		.byte	0xa
 10509 0664 E201     		.2byte	0x1e2
 10510 0666 00       		.byte	0
 10511 0667 0D       		.uleb128 0xd
 10512 0668 B8010000 		.4byte	.LVL105
 10513 066c 6D3B0000 		.4byte	0x3b6d
 10514 0670 82060000 		.4byte	0x682
 10515 0674 0E       		.uleb128 0xe
 10516 0675 01       		.uleb128 0x1
 10517 0676 51       		.byte	0x51
 10518 0677 02       		.uleb128 0x2
 10519 0678 74       		.byte	0x74
 10520 0679 79       		.sleb128 -7
 10521 067a 0E       		.uleb128 0xe
 10522 067b 01       		.uleb128 0x1
 10523 067c 50       		.byte	0x50
 10524 067d 03       		.uleb128 0x3
 10525 067e 0A       		.byte	0xa
ARM GAS  C:\Users\IN-002~1\AppData\Local\Temp\ccxO8rjh.s 			page 226


 10526 067f F401     		.2byte	0x1f4
 10527 0681 00       		.byte	0
 10528 0682 14       		.uleb128 0x14
 10529 0683 C4010000 		.4byte	.LVL106
 10530 0687 6D3B0000 		.4byte	0x3b6d
 10531 068b 0E       		.uleb128 0xe
 10532 068c 01       		.uleb128 0x1
 10533 068d 51       		.byte	0x51
 10534 068e 02       		.uleb128 0x2
 10535 068f 74       		.byte	0x74
 10536 0690 09       		.sleb128 9
 10537 0691 0E       		.uleb128 0xe
 10538 0692 01       		.uleb128 0x1
 10539 0693 50       		.byte	0x50
 10540 0694 03       		.uleb128 0x3
 10541 0695 0A       		.byte	0xa
 10542 0696 EB01     		.2byte	0x1eb
 10543 0698 00       		.byte	0
 10544 0699 00       		.byte	0
 10545 069a 08       		.uleb128 0x8
 10546 069b 81000000 		.4byte	0x81
 10547 069f AA060000 		.4byte	0x6aa
 10548 06a3 09       		.uleb128 0x9
 10549 06a4 B7000000 		.4byte	0xb7
 10550 06a8 26       		.byte	0x26
 10551 06a9 00       		.byte	0
 10552 06aa 15       		.uleb128 0x15
 10553 06ab 51040000 		.4byte	.LASF55
 10554 06af 01       		.byte	0x1
 10555 06b0 1601     		.2byte	0x116
 10556 06b2 81000000 		.4byte	0x81
 10557 06b6 00000000 		.4byte	.LFB68
 10558 06ba 74320000 		.4byte	.LFE68-.LFB68
 10559 06be 01       		.uleb128 0x1
 10560 06bf 9C       		.byte	0x9c
 10561 06c0 9D330000 		.4byte	0x339d
 10562 06c4 16       		.uleb128 0x16
 10563 06c5 64697200 		.ascii	"dir\000"
 10564 06c9 01       		.byte	0x1
 10565 06ca 1601     		.2byte	0x116
 10566 06cc 81000000 		.4byte	0x81
 10567 06d0 8A020000 		.4byte	.LLST10
 10568 06d4 16       		.uleb128 0x16
 10569 06d5 76616C00 		.ascii	"val\000"
 10570 06d9 01       		.byte	0x1
 10571 06da 1601     		.2byte	0x116
 10572 06dc 81000000 		.4byte	0x81
 10573 06e0 AB020000 		.4byte	.LLST11
 10574 06e4 17       		.uleb128 0x17
 10575 06e5 F8020000 		.4byte	.LASF56
 10576 06e9 01       		.byte	0x1
 10577 06ea 1701     		.2byte	0x117
 10578 06ec 9D330000 		.4byte	0x339d
 10579 06f0 02       		.uleb128 0x2
 10580 06f1 91       		.byte	0x91
 10581 06f2 54       		.sleb128 -44
 10582 06f3 17       		.uleb128 0x17
ARM GAS  C:\Users\IN-002~1\AppData\Local\Temp\ccxO8rjh.s 			page 227


 10583 06f4 EF050000 		.4byte	.LASF57
 10584 06f8 01       		.byte	0x1
 10585 06f9 1701     		.2byte	0x117
 10586 06fb AD330000 		.4byte	0x33ad
 10587 06ff 02       		.uleb128 0x2
 10588 0700 91       		.byte	0x91
 10589 0701 44       		.sleb128 -60
 10590 0702 17       		.uleb128 0x17
 10591 0703 4C020000 		.4byte	.LASF58
 10592 0707 01       		.byte	0x1
 10593 0708 1701     		.2byte	0x117
 10594 070a AD330000 		.4byte	0x33ad
 10595 070e 03       		.uleb128 0x3
 10596 070f 91       		.byte	0x91
 10597 0710 B47F     		.sleb128 -76
 10598 0712 0D       		.uleb128 0xd
 10599 0713 10000000 		.4byte	.LVL112
 10600 0717 2E3B0000 		.4byte	0x3b2e
 10601 071b 29070000 		.4byte	0x729
 10602 071f 0E       		.uleb128 0xe
 10603 0720 01       		.uleb128 0x1
 10604 0721 50       		.byte	0x50
 10605 0722 05       		.uleb128 0x5
 10606 0723 75       		.byte	0x75
 10607 0724 00       		.sleb128 0
 10608 0725 08       		.byte	0x8
 10609 0726 50       		.byte	0x50
 10610 0727 21       		.byte	0x21
 10611 0728 00       		.byte	0
 10612 0729 0D       		.uleb128 0xd
 10613 072a 18000000 		.4byte	.LVL113
 10614 072e 3F3B0000 		.4byte	0x3b3f
 10615 0732 3E070000 		.4byte	0x73e
 10616 0736 0E       		.uleb128 0xe
 10617 0737 01       		.uleb128 0x1
 10618 0738 50       		.byte	0x50
 10619 0739 03       		.uleb128 0x3
 10620 073a 0A       		.byte	0xa
 10621 073b E803     		.2byte	0x3e8
 10622 073d 00       		.byte	0
 10623 073e 0F       		.uleb128 0xf
 10624 073f 1C000000 		.4byte	.LVL114
 10625 0743 503B0000 		.4byte	0x3b50
 10626 0747 0D       		.uleb128 0xd
 10627 0748 6C010000 		.4byte	.LVL115
 10628 074c 873B0000 		.4byte	0x3b87
 10629 0750 5B070000 		.4byte	0x75b
 10630 0754 0E       		.uleb128 0xe
 10631 0755 01       		.uleb128 0x1
 10632 0756 50       		.byte	0x50
 10633 0757 02       		.uleb128 0x2
 10634 0758 74       		.byte	0x74
 10635 0759 00       		.sleb128 0
 10636 075a 00       		.byte	0
 10637 075b 0D       		.uleb128 0xd
 10638 075c 84010000 		.4byte	.LVL116
 10639 0760 873B0000 		.4byte	0x3b87
ARM GAS  C:\Users\IN-002~1\AppData\Local\Temp\ccxO8rjh.s 			page 228


 10640 0764 74070000 		.4byte	0x774
 10641 0768 0E       		.uleb128 0xe
 10642 0769 01       		.uleb128 0x1
 10643 076a 51       		.byte	0x51
 10644 076b 01       		.uleb128 0x1
 10645 076c 3A       		.byte	0x3a
 10646 076d 0E       		.uleb128 0xe
 10647 076e 01       		.uleb128 0x1
 10648 076f 50       		.byte	0x50
 10649 0770 02       		.uleb128 0x2
 10650 0771 74       		.byte	0x74
 10651 0772 00       		.sleb128 0
 10652 0773 00       		.byte	0
 10653 0774 0D       		.uleb128 0xd
 10654 0775 96010000 		.4byte	.LVL117
 10655 0779 873B0000 		.4byte	0x3b87
 10656 077d 88070000 		.4byte	0x788
 10657 0781 0E       		.uleb128 0xe
 10658 0782 01       		.uleb128 0x1
 10659 0783 50       		.byte	0x50
 10660 0784 02       		.uleb128 0x2
 10661 0785 74       		.byte	0x74
 10662 0786 00       		.sleb128 0
 10663 0787 00       		.byte	0
 10664 0788 0D       		.uleb128 0xd
 10665 0789 AE010000 		.4byte	.LVL118
 10666 078d 873B0000 		.4byte	0x3b87
 10667 0791 A1070000 		.4byte	0x7a1
 10668 0795 0E       		.uleb128 0xe
 10669 0796 01       		.uleb128 0x1
 10670 0797 51       		.byte	0x51
 10671 0798 01       		.uleb128 0x1
 10672 0799 3A       		.byte	0x3a
 10673 079a 0E       		.uleb128 0xe
 10674 079b 01       		.uleb128 0x1
 10675 079c 50       		.byte	0x50
 10676 079d 02       		.uleb128 0x2
 10677 079e 74       		.byte	0x74
 10678 079f 00       		.sleb128 0
 10679 07a0 00       		.byte	0
 10680 07a1 0D       		.uleb128 0xd
 10681 07a2 C2010000 		.4byte	.LVL119
 10682 07a6 873B0000 		.4byte	0x3b87
 10683 07aa B5070000 		.4byte	0x7b5
 10684 07ae 0E       		.uleb128 0xe
 10685 07af 01       		.uleb128 0x1
 10686 07b0 50       		.byte	0x50
 10687 07b1 02       		.uleb128 0x2
 10688 07b2 74       		.byte	0x74
 10689 07b3 00       		.sleb128 0
 10690 07b4 00       		.byte	0
 10691 07b5 0D       		.uleb128 0xd
 10692 07b6 DA010000 		.4byte	.LVL120
 10693 07ba 873B0000 		.4byte	0x3b87
 10694 07be CE070000 		.4byte	0x7ce
 10695 07c2 0E       		.uleb128 0xe
 10696 07c3 01       		.uleb128 0x1
ARM GAS  C:\Users\IN-002~1\AppData\Local\Temp\ccxO8rjh.s 			page 229


 10697 07c4 51       		.byte	0x51
 10698 07c5 01       		.uleb128 0x1
 10699 07c6 3A       		.byte	0x3a
 10700 07c7 0E       		.uleb128 0xe
 10701 07c8 01       		.uleb128 0x1
 10702 07c9 50       		.byte	0x50
 10703 07ca 02       		.uleb128 0x2
 10704 07cb 74       		.byte	0x74
 10705 07cc 00       		.sleb128 0
 10706 07cd 00       		.byte	0
 10707 07ce 0D       		.uleb128 0xd
 10708 07cf E2010000 		.4byte	.LVL121
 10709 07d3 A13B0000 		.4byte	0x3ba1
 10710 07d7 E7070000 		.4byte	0x7e7
 10711 07db 0E       		.uleb128 0xe
 10712 07dc 01       		.uleb128 0x1
 10713 07dd 51       		.byte	0x51
 10714 07de 02       		.uleb128 0x2
 10715 07df 74       		.byte	0x74
 10716 07e0 00       		.sleb128 0
 10717 07e1 0E       		.uleb128 0xe
 10718 07e2 01       		.uleb128 0x1
 10719 07e3 50       		.byte	0x50
 10720 07e4 01       		.uleb128 0x1
 10721 07e5 38       		.byte	0x38
 10722 07e6 00       		.byte	0
 10723 07e7 0D       		.uleb128 0xd
 10724 07e8 F6010000 		.4byte	.LVL122
 10725 07ec 873B0000 		.4byte	0x3b87
 10726 07f0 FB070000 		.4byte	0x7fb
 10727 07f4 0E       		.uleb128 0xe
 10728 07f5 01       		.uleb128 0x1
 10729 07f6 50       		.byte	0x50
 10730 07f7 02       		.uleb128 0x2
 10731 07f8 74       		.byte	0x74
 10732 07f9 00       		.sleb128 0
 10733 07fa 00       		.byte	0
 10734 07fb 0D       		.uleb128 0xd
 10735 07fc 0E020000 		.4byte	.LVL123
 10736 0800 873B0000 		.4byte	0x3b87
 10737 0804 14080000 		.4byte	0x814
 10738 0808 0E       		.uleb128 0xe
 10739 0809 01       		.uleb128 0x1
 10740 080a 51       		.byte	0x51
 10741 080b 01       		.uleb128 0x1
 10742 080c 3A       		.byte	0x3a
 10743 080d 0E       		.uleb128 0xe
 10744 080e 01       		.uleb128 0x1
 10745 080f 50       		.byte	0x50
 10746 0810 02       		.uleb128 0x2
 10747 0811 74       		.byte	0x74
 10748 0812 00       		.sleb128 0
 10749 0813 00       		.byte	0
 10750 0814 0D       		.uleb128 0xd
 10751 0815 1E020000 		.4byte	.LVL124
 10752 0819 B73B0000 		.4byte	0x3bb7
 10753 081d 2D080000 		.4byte	0x82d
ARM GAS  C:\Users\IN-002~1\AppData\Local\Temp\ccxO8rjh.s 			page 230


 10754 0821 0E       		.uleb128 0xe
 10755 0822 01       		.uleb128 0x1
 10756 0823 51       		.byte	0x51
 10757 0824 01       		.uleb128 0x1
 10758 0825 49       		.byte	0x49
 10759 0826 0E       		.uleb128 0xe
 10760 0827 01       		.uleb128 0x1
 10761 0828 50       		.byte	0x50
 10762 0829 02       		.uleb128 0x2
 10763 082a 08       		.byte	0x8
 10764 082b C0       		.byte	0xc0
 10765 082c 00       		.byte	0
 10766 082d 0D       		.uleb128 0xd
 10767 082e 2A020000 		.4byte	.LVL125
 10768 0832 B73B0000 		.4byte	0x3bb7
 10769 0836 47080000 		.4byte	0x847
 10770 083a 0E       		.uleb128 0xe
 10771 083b 01       		.uleb128 0x1
 10772 083c 51       		.byte	0x51
 10773 083d 01       		.uleb128 0x1
 10774 083e 49       		.byte	0x49
 10775 083f 0E       		.uleb128 0xe
 10776 0840 01       		.uleb128 0x1
 10777 0841 50       		.byte	0x50
 10778 0842 03       		.uleb128 0x3
 10779 0843 0A       		.byte	0xa
 10780 0844 1901     		.2byte	0x119
 10781 0846 00       		.byte	0
 10782 0847 0D       		.uleb128 0xd
 10783 0848 30020000 		.4byte	.LVL126
 10784 084c D13B0000 		.4byte	0x3bd1
 10785 0850 5B080000 		.4byte	0x85b
 10786 0854 0E       		.uleb128 0xe
 10787 0855 01       		.uleb128 0x1
 10788 0856 50       		.byte	0x50
 10789 0857 02       		.uleb128 0x2
 10790 0858 74       		.byte	0x74
 10791 0859 00       		.sleb128 0
 10792 085a 00       		.byte	0
 10793 085b 0D       		.uleb128 0xd
 10794 085c 72020000 		.4byte	.LVL127
 10795 0860 E23B0000 		.4byte	0x3be2
 10796 0864 7B080000 		.4byte	0x87b
 10797 0868 0E       		.uleb128 0xe
 10798 0869 01       		.uleb128 0x1
 10799 086a 52       		.byte	0x52
 10800 086b 03       		.uleb128 0x3
 10801 086c 91       		.byte	0x91
 10802 086d B47F     		.sleb128 -76
 10803 086f 0E       		.uleb128 0xe
 10804 0870 01       		.uleb128 0x1
 10805 0871 51       		.byte	0x51
 10806 0872 02       		.uleb128 0x2
 10807 0873 91       		.byte	0x91
 10808 0874 44       		.sleb128 -60
 10809 0875 0E       		.uleb128 0xe
 10810 0876 01       		.uleb128 0x1
ARM GAS  C:\Users\IN-002~1\AppData\Local\Temp\ccxO8rjh.s 			page 231


 10811 0877 50       		.byte	0x50
 10812 0878 01       		.uleb128 0x1
 10813 0879 32       		.byte	0x32
 10814 087a 00       		.byte	0
 10815 087b 0D       		.uleb128 0xd
 10816 087c 88020000 		.4byte	.LVL128
 10817 0880 873B0000 		.4byte	0x3b87
 10818 0884 8F080000 		.4byte	0x88f
 10819 0888 0E       		.uleb128 0xe
 10820 0889 01       		.uleb128 0x1
 10821 088a 50       		.byte	0x50
 10822 088b 02       		.uleb128 0x2
 10823 088c 74       		.byte	0x74
 10824 088d 00       		.sleb128 0
 10825 088e 00       		.byte	0
 10826 088f 0D       		.uleb128 0xd
 10827 0890 A0020000 		.4byte	.LVL129
 10828 0894 FD3B0000 		.4byte	0x3bfd
 10829 0898 AC080000 		.4byte	0x8ac
 10830 089c 0E       		.uleb128 0xe
 10831 089d 01       		.uleb128 0x1
 10832 089e 51       		.byte	0x51
 10833 089f 02       		.uleb128 0x2
 10834 08a0 74       		.byte	0x74
 10835 08a1 00       		.sleb128 0
 10836 08a2 0E       		.uleb128 0xe
 10837 08a3 01       		.uleb128 0x1
 10838 08a4 50       		.byte	0x50
 10839 08a5 05       		.uleb128 0x5
 10840 08a6 03       		.byte	0x3
 10841 08a7 00000000 		.4byte	resultado
 10842 08ab 00       		.byte	0
 10843 08ac 0D       		.uleb128 0xd
 10844 08ad B0020000 		.4byte	.LVL130
 10845 08b1 6D3B0000 		.4byte	0x3b6d
 10846 08b5 C6080000 		.4byte	0x8c6
 10847 08b9 0E       		.uleb128 0xe
 10848 08ba 01       		.uleb128 0x1
 10849 08bb 51       		.byte	0x51
 10850 08bc 02       		.uleb128 0x2
 10851 08bd 91       		.byte	0x91
 10852 08be 54       		.sleb128 -44
 10853 08bf 0E       		.uleb128 0xe
 10854 08c0 01       		.uleb128 0x1
 10855 08c1 50       		.byte	0x50
 10856 08c2 02       		.uleb128 0x2
 10857 08c3 08       		.byte	0x8
 10858 08c4 C0       		.byte	0xc0
 10859 08c5 00       		.byte	0
 10860 08c6 0D       		.uleb128 0xd
 10861 08c7 BA020000 		.4byte	.LVL131
 10862 08cb 6D3B0000 		.4byte	0x3b6d
 10863 08cf E4080000 		.4byte	0x8e4
 10864 08d3 0E       		.uleb128 0xe
 10865 08d4 01       		.uleb128 0x1
 10866 08d5 51       		.byte	0x51
 10867 08d6 05       		.uleb128 0x5
ARM GAS  C:\Users\IN-002~1\AppData\Local\Temp\ccxO8rjh.s 			page 232


 10868 08d7 03       		.byte	0x3
 10869 08d8 00000000 		.4byte	resultado
 10870 08dc 0E       		.uleb128 0xe
 10871 08dd 01       		.uleb128 0x1
 10872 08de 50       		.byte	0x50
 10873 08df 03       		.uleb128 0x3
 10874 08e0 0A       		.byte	0xa
 10875 08e1 0002     		.2byte	0x200
 10876 08e3 00       		.byte	0
 10877 08e4 0D       		.uleb128 0xd
 10878 08e5 FA020000 		.4byte	.LVL132
 10879 08e9 6D3B0000 		.4byte	0x3b6d
 10880 08ed FF080000 		.4byte	0x8ff
 10881 08f1 0E       		.uleb128 0xe
 10882 08f2 01       		.uleb128 0x1
 10883 08f3 51       		.byte	0x51
 10884 08f4 02       		.uleb128 0x2
 10885 08f5 91       		.byte	0x91
 10886 08f6 54       		.sleb128 -44
 10887 08f7 0E       		.uleb128 0xe
 10888 08f8 01       		.uleb128 0x1
 10889 08f9 50       		.byte	0x50
 10890 08fa 03       		.uleb128 0x3
 10891 08fb 0A       		.byte	0xa
 10892 08fc 1901     		.2byte	0x119
 10893 08fe 00       		.byte	0
 10894 08ff 0D       		.uleb128 0xd
 10895 0900 04030000 		.4byte	.LVL133
 10896 0904 6D3B0000 		.4byte	0x3b6d
 10897 0908 1D090000 		.4byte	0x91d
 10898 090c 0E       		.uleb128 0xe
 10899 090d 01       		.uleb128 0x1
 10900 090e 51       		.byte	0x51
 10901 090f 05       		.uleb128 0x5
 10902 0910 03       		.byte	0x3
 10903 0911 00000000 		.4byte	resultado
 10904 0915 0E       		.uleb128 0xe
 10905 0916 01       		.uleb128 0x1
 10906 0917 50       		.byte	0x50
 10907 0918 03       		.uleb128 0x3
 10908 0919 0A       		.byte	0xa
 10909 091a 2702     		.2byte	0x227
 10910 091c 00       		.byte	0
 10911 091d 0D       		.uleb128 0xd
 10912 091e 48030000 		.4byte	.LVL134
 10913 0922 873B0000 		.4byte	0x3b87
 10914 0926 31090000 		.4byte	0x931
 10915 092a 0E       		.uleb128 0xe
 10916 092b 01       		.uleb128 0x1
 10917 092c 50       		.byte	0x50
 10918 092d 02       		.uleb128 0x2
 10919 092e 74       		.byte	0x74
 10920 092f 00       		.sleb128 0
 10921 0930 00       		.byte	0
 10922 0931 0D       		.uleb128 0xd
 10923 0932 60030000 		.4byte	.LVL135
 10924 0936 873B0000 		.4byte	0x3b87
ARM GAS  C:\Users\IN-002~1\AppData\Local\Temp\ccxO8rjh.s 			page 233


 10925 093a 4A090000 		.4byte	0x94a
 10926 093e 0E       		.uleb128 0xe
 10927 093f 01       		.uleb128 0x1
 10928 0940 51       		.byte	0x51
 10929 0941 01       		.uleb128 0x1
 10930 0942 3A       		.byte	0x3a
 10931 0943 0E       		.uleb128 0xe
 10932 0944 01       		.uleb128 0x1
 10933 0945 50       		.byte	0x50
 10934 0946 02       		.uleb128 0x2
 10935 0947 74       		.byte	0x74
 10936 0948 00       		.sleb128 0
 10937 0949 00       		.byte	0
 10938 094a 0D       		.uleb128 0xd
 10939 094b 72030000 		.4byte	.LVL136
 10940 094f 873B0000 		.4byte	0x3b87
 10941 0953 5E090000 		.4byte	0x95e
 10942 0957 0E       		.uleb128 0xe
 10943 0958 01       		.uleb128 0x1
 10944 0959 50       		.byte	0x50
 10945 095a 02       		.uleb128 0x2
 10946 095b 74       		.byte	0x74
 10947 095c 00       		.sleb128 0
 10948 095d 00       		.byte	0
 10949 095e 0D       		.uleb128 0xd
 10950 095f 8A030000 		.4byte	.LVL137
 10951 0963 873B0000 		.4byte	0x3b87
 10952 0967 77090000 		.4byte	0x977
 10953 096b 0E       		.uleb128 0xe
 10954 096c 01       		.uleb128 0x1
 10955 096d 51       		.byte	0x51
 10956 096e 01       		.uleb128 0x1
 10957 096f 3A       		.byte	0x3a
 10958 0970 0E       		.uleb128 0xe
 10959 0971 01       		.uleb128 0x1
 10960 0972 50       		.byte	0x50
 10961 0973 02       		.uleb128 0x2
 10962 0974 74       		.byte	0x74
 10963 0975 00       		.sleb128 0
 10964 0976 00       		.byte	0
 10965 0977 0D       		.uleb128 0xd
 10966 0978 9E030000 		.4byte	.LVL138
 10967 097c 873B0000 		.4byte	0x3b87
 10968 0980 8B090000 		.4byte	0x98b
 10969 0984 0E       		.uleb128 0xe
 10970 0985 01       		.uleb128 0x1
 10971 0986 50       		.byte	0x50
 10972 0987 02       		.uleb128 0x2
 10973 0988 74       		.byte	0x74
 10974 0989 00       		.sleb128 0
 10975 098a 00       		.byte	0
 10976 098b 0D       		.uleb128 0xd
 10977 098c B6030000 		.4byte	.LVL139
 10978 0990 873B0000 		.4byte	0x3b87
 10979 0994 A4090000 		.4byte	0x9a4
 10980 0998 0E       		.uleb128 0xe
 10981 0999 01       		.uleb128 0x1
ARM GAS  C:\Users\IN-002~1\AppData\Local\Temp\ccxO8rjh.s 			page 234


 10982 099a 51       		.byte	0x51
 10983 099b 01       		.uleb128 0x1
 10984 099c 3A       		.byte	0x3a
 10985 099d 0E       		.uleb128 0xe
 10986 099e 01       		.uleb128 0x1
 10987 099f 50       		.byte	0x50
 10988 09a0 02       		.uleb128 0x2
 10989 09a1 74       		.byte	0x74
 10990 09a2 00       		.sleb128 0
 10991 09a3 00       		.byte	0
 10992 09a4 0D       		.uleb128 0xd
 10993 09a5 BE030000 		.4byte	.LVL140
 10994 09a9 A13B0000 		.4byte	0x3ba1
 10995 09ad BD090000 		.4byte	0x9bd
 10996 09b1 0E       		.uleb128 0xe
 10997 09b2 01       		.uleb128 0x1
 10998 09b3 51       		.byte	0x51
 10999 09b4 02       		.uleb128 0x2
 11000 09b5 74       		.byte	0x74
 11001 09b6 00       		.sleb128 0
 11002 09b7 0E       		.uleb128 0xe
 11003 09b8 01       		.uleb128 0x1
 11004 09b9 50       		.byte	0x50
 11005 09ba 01       		.uleb128 0x1
 11006 09bb 38       		.byte	0x38
 11007 09bc 00       		.byte	0
 11008 09bd 0D       		.uleb128 0xd
 11009 09be D2030000 		.4byte	.LVL141
 11010 09c2 873B0000 		.4byte	0x3b87
 11011 09c6 D1090000 		.4byte	0x9d1
 11012 09ca 0E       		.uleb128 0xe
 11013 09cb 01       		.uleb128 0x1
 11014 09cc 50       		.byte	0x50
 11015 09cd 02       		.uleb128 0x2
 11016 09ce 74       		.byte	0x74
 11017 09cf 00       		.sleb128 0
 11018 09d0 00       		.byte	0
 11019 09d1 0D       		.uleb128 0xd
 11020 09d2 EA030000 		.4byte	.LVL142
 11021 09d6 873B0000 		.4byte	0x3b87
 11022 09da EA090000 		.4byte	0x9ea
 11023 09de 0E       		.uleb128 0xe
 11024 09df 01       		.uleb128 0x1
 11025 09e0 51       		.byte	0x51
 11026 09e1 01       		.uleb128 0x1
 11027 09e2 3A       		.byte	0x3a
 11028 09e3 0E       		.uleb128 0xe
 11029 09e4 01       		.uleb128 0x1
 11030 09e5 50       		.byte	0x50
 11031 09e6 02       		.uleb128 0x2
 11032 09e7 74       		.byte	0x74
 11033 09e8 00       		.sleb128 0
 11034 09e9 00       		.byte	0
 11035 09ea 0D       		.uleb128 0xd
 11036 09eb FA030000 		.4byte	.LVL143
 11037 09ef B73B0000 		.4byte	0x3bb7
 11038 09f3 030A0000 		.4byte	0xa03
ARM GAS  C:\Users\IN-002~1\AppData\Local\Temp\ccxO8rjh.s 			page 235


 11039 09f7 0E       		.uleb128 0xe
 11040 09f8 01       		.uleb128 0x1
 11041 09f9 51       		.byte	0x51
 11042 09fa 01       		.uleb128 0x1
 11043 09fb 49       		.byte	0x49
 11044 09fc 0E       		.uleb128 0xe
 11045 09fd 01       		.uleb128 0x1
 11046 09fe 50       		.byte	0x50
 11047 09ff 02       		.uleb128 0x2
 11048 0a00 08       		.byte	0x8
 11049 0a01 D9       		.byte	0xd9
 11050 0a02 00       		.byte	0
 11051 0a03 0D       		.uleb128 0xd
 11052 0a04 06040000 		.4byte	.LVL144
 11053 0a08 B73B0000 		.4byte	0x3bb7
 11054 0a0c 1D0A0000 		.4byte	0xa1d
 11055 0a10 0E       		.uleb128 0xe
 11056 0a11 01       		.uleb128 0x1
 11057 0a12 51       		.byte	0x51
 11058 0a13 01       		.uleb128 0x1
 11059 0a14 49       		.byte	0x49
 11060 0a15 0E       		.uleb128 0xe
 11061 0a16 01       		.uleb128 0x1
 11062 0a17 50       		.byte	0x50
 11063 0a18 03       		.uleb128 0x3
 11064 0a19 0A       		.byte	0xa
 11065 0a1a 4001     		.2byte	0x140
 11066 0a1c 00       		.byte	0
 11067 0a1d 0D       		.uleb128 0xd
 11068 0a1e 0C040000 		.4byte	.LVL145
 11069 0a22 D13B0000 		.4byte	0x3bd1
 11070 0a26 310A0000 		.4byte	0xa31
 11071 0a2a 0E       		.uleb128 0xe
 11072 0a2b 01       		.uleb128 0x1
 11073 0a2c 50       		.byte	0x50
 11074 0a2d 02       		.uleb128 0x2
 11075 0a2e 74       		.byte	0x74
 11076 0a2f 00       		.sleb128 0
 11077 0a30 00       		.byte	0
 11078 0a31 0D       		.uleb128 0xd
 11079 0a32 4E040000 		.4byte	.LVL146
 11080 0a36 E23B0000 		.4byte	0x3be2
 11081 0a3a 510A0000 		.4byte	0xa51
 11082 0a3e 0E       		.uleb128 0xe
 11083 0a3f 01       		.uleb128 0x1
 11084 0a40 52       		.byte	0x52
 11085 0a41 03       		.uleb128 0x3
 11086 0a42 91       		.byte	0x91
 11087 0a43 B47F     		.sleb128 -76
 11088 0a45 0E       		.uleb128 0xe
 11089 0a46 01       		.uleb128 0x1
 11090 0a47 51       		.byte	0x51
 11091 0a48 02       		.uleb128 0x2
 11092 0a49 91       		.byte	0x91
 11093 0a4a 44       		.sleb128 -60
 11094 0a4b 0E       		.uleb128 0xe
 11095 0a4c 01       		.uleb128 0x1
ARM GAS  C:\Users\IN-002~1\AppData\Local\Temp\ccxO8rjh.s 			page 236


 11096 0a4d 50       		.byte	0x50
 11097 0a4e 01       		.uleb128 0x1
 11098 0a4f 32       		.byte	0x32
 11099 0a50 00       		.byte	0
 11100 0a51 0D       		.uleb128 0xd
 11101 0a52 64040000 		.4byte	.LVL147
 11102 0a56 873B0000 		.4byte	0x3b87
 11103 0a5a 650A0000 		.4byte	0xa65
 11104 0a5e 0E       		.uleb128 0xe
 11105 0a5f 01       		.uleb128 0x1
 11106 0a60 50       		.byte	0x50
 11107 0a61 02       		.uleb128 0x2
 11108 0a62 74       		.byte	0x74
 11109 0a63 00       		.sleb128 0
 11110 0a64 00       		.byte	0
 11111 0a65 0D       		.uleb128 0xd
 11112 0a66 7C040000 		.4byte	.LVL148
 11113 0a6a FD3B0000 		.4byte	0x3bfd
 11114 0a6e 820A0000 		.4byte	0xa82
 11115 0a72 0E       		.uleb128 0xe
 11116 0a73 01       		.uleb128 0x1
 11117 0a74 51       		.byte	0x51
 11118 0a75 02       		.uleb128 0x2
 11119 0a76 74       		.byte	0x74
 11120 0a77 00       		.sleb128 0
 11121 0a78 0E       		.uleb128 0xe
 11122 0a79 01       		.uleb128 0x1
 11123 0a7a 50       		.byte	0x50
 11124 0a7b 05       		.uleb128 0x5
 11125 0a7c 03       		.byte	0x3
 11126 0a7d 00000000 		.4byte	resultado
 11127 0a81 00       		.byte	0
 11128 0a82 0D       		.uleb128 0xd
 11129 0a83 8C040000 		.4byte	.LVL149
 11130 0a87 6D3B0000 		.4byte	0x3b6d
 11131 0a8b 9C0A0000 		.4byte	0xa9c
 11132 0a8f 0E       		.uleb128 0xe
 11133 0a90 01       		.uleb128 0x1
 11134 0a91 51       		.byte	0x51
 11135 0a92 02       		.uleb128 0x2
 11136 0a93 91       		.byte	0x91
 11137 0a94 54       		.sleb128 -44
 11138 0a95 0E       		.uleb128 0xe
 11139 0a96 01       		.uleb128 0x1
 11140 0a97 50       		.byte	0x50
 11141 0a98 02       		.uleb128 0x2
 11142 0a99 08       		.byte	0x8
 11143 0a9a D9       		.byte	0xd9
 11144 0a9b 00       		.byte	0
 11145 0a9c 0D       		.uleb128 0xd
 11146 0a9d 96040000 		.4byte	.LVL150
 11147 0aa1 6D3B0000 		.4byte	0x3b6d
 11148 0aa5 BA0A0000 		.4byte	0xaba
 11149 0aa9 0E       		.uleb128 0xe
 11150 0aaa 01       		.uleb128 0x1
 11151 0aab 51       		.byte	0x51
 11152 0aac 05       		.uleb128 0x5
ARM GAS  C:\Users\IN-002~1\AppData\Local\Temp\ccxO8rjh.s 			page 237


 11153 0aad 03       		.byte	0x3
 11154 0aae 00000000 		.4byte	resultado
 11155 0ab2 0E       		.uleb128 0xe
 11156 0ab3 01       		.uleb128 0x1
 11157 0ab4 50       		.byte	0x50
 11158 0ab5 03       		.uleb128 0x3
 11159 0ab6 0A       		.byte	0xa
 11160 0ab7 1A02     		.2byte	0x21a
 11161 0ab9 00       		.byte	0
 11162 0aba 0D       		.uleb128 0xd
 11163 0abb A2040000 		.4byte	.LVL151
 11164 0abf 6D3B0000 		.4byte	0x3b6d
 11165 0ac3 D50A0000 		.4byte	0xad5
 11166 0ac7 0E       		.uleb128 0xe
 11167 0ac8 01       		.uleb128 0x1
 11168 0ac9 51       		.byte	0x51
 11169 0aca 02       		.uleb128 0x2
 11170 0acb 91       		.byte	0x91
 11171 0acc 54       		.sleb128 -44
 11172 0acd 0E       		.uleb128 0xe
 11173 0ace 01       		.uleb128 0x1
 11174 0acf 50       		.byte	0x50
 11175 0ad0 03       		.uleb128 0x3
 11176 0ad1 0A       		.byte	0xa
 11177 0ad2 4001     		.2byte	0x140
 11178 0ad4 00       		.byte	0
 11179 0ad5 0D       		.uleb128 0xd
 11180 0ad6 AC040000 		.4byte	.LVL152
 11181 0ada 6D3B0000 		.4byte	0x3b6d
 11182 0ade F30A0000 		.4byte	0xaf3
 11183 0ae2 0E       		.uleb128 0xe
 11184 0ae3 01       		.uleb128 0x1
 11185 0ae4 51       		.byte	0x51
 11186 0ae5 05       		.uleb128 0x5
 11187 0ae6 03       		.byte	0x3
 11188 0ae7 00000000 		.4byte	resultado
 11189 0aeb 0E       		.uleb128 0xe
 11190 0aec 01       		.uleb128 0x1
 11191 0aed 50       		.byte	0x50
 11192 0aee 03       		.uleb128 0x3
 11193 0aef 0A       		.byte	0xa
 11194 0af0 4002     		.2byte	0x240
 11195 0af2 00       		.byte	0
 11196 0af3 0D       		.uleb128 0xd
 11197 0af4 F0040000 		.4byte	.LVL153
 11198 0af8 873B0000 		.4byte	0x3b87
 11199 0afc 070B0000 		.4byte	0xb07
 11200 0b00 0E       		.uleb128 0xe
 11201 0b01 01       		.uleb128 0x1
 11202 0b02 50       		.byte	0x50
 11203 0b03 02       		.uleb128 0x2
 11204 0b04 74       		.byte	0x74
 11205 0b05 00       		.sleb128 0
 11206 0b06 00       		.byte	0
 11207 0b07 0D       		.uleb128 0xd
 11208 0b08 08050000 		.4byte	.LVL154
 11209 0b0c 873B0000 		.4byte	0x3b87
ARM GAS  C:\Users\IN-002~1\AppData\Local\Temp\ccxO8rjh.s 			page 238


 11210 0b10 200B0000 		.4byte	0xb20
 11211 0b14 0E       		.uleb128 0xe
 11212 0b15 01       		.uleb128 0x1
 11213 0b16 51       		.byte	0x51
 11214 0b17 01       		.uleb128 0x1
 11215 0b18 3A       		.byte	0x3a
 11216 0b19 0E       		.uleb128 0xe
 11217 0b1a 01       		.uleb128 0x1
 11218 0b1b 50       		.byte	0x50
 11219 0b1c 02       		.uleb128 0x2
 11220 0b1d 74       		.byte	0x74
 11221 0b1e 00       		.sleb128 0
 11222 0b1f 00       		.byte	0
 11223 0b20 0D       		.uleb128 0xd
 11224 0b21 1A050000 		.4byte	.LVL155
 11225 0b25 873B0000 		.4byte	0x3b87
 11226 0b29 340B0000 		.4byte	0xb34
 11227 0b2d 0E       		.uleb128 0xe
 11228 0b2e 01       		.uleb128 0x1
 11229 0b2f 50       		.byte	0x50
 11230 0b30 02       		.uleb128 0x2
 11231 0b31 74       		.byte	0x74
 11232 0b32 00       		.sleb128 0
 11233 0b33 00       		.byte	0
 11234 0b34 0D       		.uleb128 0xd
 11235 0b35 32050000 		.4byte	.LVL156
 11236 0b39 873B0000 		.4byte	0x3b87
 11237 0b3d 4D0B0000 		.4byte	0xb4d
 11238 0b41 0E       		.uleb128 0xe
 11239 0b42 01       		.uleb128 0x1
 11240 0b43 51       		.byte	0x51
 11241 0b44 01       		.uleb128 0x1
 11242 0b45 3A       		.byte	0x3a
 11243 0b46 0E       		.uleb128 0xe
 11244 0b47 01       		.uleb128 0x1
 11245 0b48 50       		.byte	0x50
 11246 0b49 02       		.uleb128 0x2
 11247 0b4a 74       		.byte	0x74
 11248 0b4b 00       		.sleb128 0
 11249 0b4c 00       		.byte	0
 11250 0b4d 0D       		.uleb128 0xd
 11251 0b4e 46050000 		.4byte	.LVL157
 11252 0b52 873B0000 		.4byte	0x3b87
 11253 0b56 610B0000 		.4byte	0xb61
 11254 0b5a 0E       		.uleb128 0xe
 11255 0b5b 01       		.uleb128 0x1
 11256 0b5c 50       		.byte	0x50
 11257 0b5d 02       		.uleb128 0x2
 11258 0b5e 74       		.byte	0x74
 11259 0b5f 00       		.sleb128 0
 11260 0b60 00       		.byte	0
 11261 0b61 0D       		.uleb128 0xd
 11262 0b62 5E050000 		.4byte	.LVL158
 11263 0b66 873B0000 		.4byte	0x3b87
 11264 0b6a 7A0B0000 		.4byte	0xb7a
 11265 0b6e 0E       		.uleb128 0xe
 11266 0b6f 01       		.uleb128 0x1
ARM GAS  C:\Users\IN-002~1\AppData\Local\Temp\ccxO8rjh.s 			page 239


 11267 0b70 51       		.byte	0x51
 11268 0b71 01       		.uleb128 0x1
 11269 0b72 3A       		.byte	0x3a
 11270 0b73 0E       		.uleb128 0xe
 11271 0b74 01       		.uleb128 0x1
 11272 0b75 50       		.byte	0x50
 11273 0b76 02       		.uleb128 0x2
 11274 0b77 74       		.byte	0x74
 11275 0b78 00       		.sleb128 0
 11276 0b79 00       		.byte	0
 11277 0b7a 0D       		.uleb128 0xd
 11278 0b7b 66050000 		.4byte	.LVL159
 11279 0b7f A13B0000 		.4byte	0x3ba1
 11280 0b83 930B0000 		.4byte	0xb93
 11281 0b87 0E       		.uleb128 0xe
 11282 0b88 01       		.uleb128 0x1
 11283 0b89 51       		.byte	0x51
 11284 0b8a 02       		.uleb128 0x2
 11285 0b8b 74       		.byte	0x74
 11286 0b8c 00       		.sleb128 0
 11287 0b8d 0E       		.uleb128 0xe
 11288 0b8e 01       		.uleb128 0x1
 11289 0b8f 50       		.byte	0x50
 11290 0b90 01       		.uleb128 0x1
 11291 0b91 38       		.byte	0x38
 11292 0b92 00       		.byte	0
 11293 0b93 0D       		.uleb128 0xd
 11294 0b94 7A050000 		.4byte	.LVL160
 11295 0b98 873B0000 		.4byte	0x3b87
 11296 0b9c A70B0000 		.4byte	0xba7
 11297 0ba0 0E       		.uleb128 0xe
 11298 0ba1 01       		.uleb128 0x1
 11299 0ba2 50       		.byte	0x50
 11300 0ba3 02       		.uleb128 0x2
 11301 0ba4 74       		.byte	0x74
 11302 0ba5 00       		.sleb128 0
 11303 0ba6 00       		.byte	0
 11304 0ba7 0D       		.uleb128 0xd
 11305 0ba8 92050000 		.4byte	.LVL161
 11306 0bac 873B0000 		.4byte	0x3b87
 11307 0bb0 C00B0000 		.4byte	0xbc0
 11308 0bb4 0E       		.uleb128 0xe
 11309 0bb5 01       		.uleb128 0x1
 11310 0bb6 51       		.byte	0x51
 11311 0bb7 01       		.uleb128 0x1
 11312 0bb8 3A       		.byte	0x3a
 11313 0bb9 0E       		.uleb128 0xe
 11314 0bba 01       		.uleb128 0x1
 11315 0bbb 50       		.byte	0x50
 11316 0bbc 02       		.uleb128 0x2
 11317 0bbd 74       		.byte	0x74
 11318 0bbe 00       		.sleb128 0
 11319 0bbf 00       		.byte	0
 11320 0bc0 0D       		.uleb128 0xd
 11321 0bc1 A4050000 		.4byte	.LVL162
 11322 0bc5 B73B0000 		.4byte	0x3bb7
 11323 0bc9 DA0B0000 		.4byte	0xbda
ARM GAS  C:\Users\IN-002~1\AppData\Local\Temp\ccxO8rjh.s 			page 240


 11324 0bcd 0E       		.uleb128 0xe
 11325 0bce 01       		.uleb128 0x1
 11326 0bcf 51       		.byte	0x51
 11327 0bd0 01       		.uleb128 0x1
 11328 0bd1 49       		.byte	0x49
 11329 0bd2 0E       		.uleb128 0xe
 11330 0bd3 01       		.uleb128 0x1
 11331 0bd4 50       		.byte	0x50
 11332 0bd5 03       		.uleb128 0x3
 11333 0bd6 0A       		.byte	0xa
 11334 0bd7 0001     		.2byte	0x100
 11335 0bd9 00       		.byte	0
 11336 0bda 0D       		.uleb128 0xd
 11337 0bdb B0050000 		.4byte	.LVL163
 11338 0bdf B73B0000 		.4byte	0x3bb7
 11339 0be3 F40B0000 		.4byte	0xbf4
 11340 0be7 0E       		.uleb128 0xe
 11341 0be8 01       		.uleb128 0x1
 11342 0be9 51       		.byte	0x51
 11343 0bea 01       		.uleb128 0x1
 11344 0beb 49       		.byte	0x49
 11345 0bec 0E       		.uleb128 0xe
 11346 0bed 01       		.uleb128 0x1
 11347 0bee 50       		.byte	0x50
 11348 0bef 03       		.uleb128 0x3
 11349 0bf0 0A       		.byte	0xa
 11350 0bf1 5901     		.2byte	0x159
 11351 0bf3 00       		.byte	0
 11352 0bf4 0D       		.uleb128 0xd
 11353 0bf5 B6050000 		.4byte	.LVL164
 11354 0bf9 D13B0000 		.4byte	0x3bd1
 11355 0bfd 080C0000 		.4byte	0xc08
 11356 0c01 0E       		.uleb128 0xe
 11357 0c02 01       		.uleb128 0x1
 11358 0c03 50       		.byte	0x50
 11359 0c04 02       		.uleb128 0x2
 11360 0c05 74       		.byte	0x74
 11361 0c06 00       		.sleb128 0
 11362 0c07 00       		.byte	0
 11363 0c08 0D       		.uleb128 0xd
 11364 0c09 32060000 		.4byte	.LVL165
 11365 0c0d E23B0000 		.4byte	0x3be2
 11366 0c11 280C0000 		.4byte	0xc28
 11367 0c15 0E       		.uleb128 0xe
 11368 0c16 01       		.uleb128 0x1
 11369 0c17 52       		.byte	0x52
 11370 0c18 03       		.uleb128 0x3
 11371 0c19 91       		.byte	0x91
 11372 0c1a B47F     		.sleb128 -76
 11373 0c1c 0E       		.uleb128 0xe
 11374 0c1d 01       		.uleb128 0x1
 11375 0c1e 51       		.byte	0x51
 11376 0c1f 02       		.uleb128 0x2
 11377 0c20 91       		.byte	0x91
 11378 0c21 44       		.sleb128 -60
 11379 0c22 0E       		.uleb128 0xe
 11380 0c23 01       		.uleb128 0x1
ARM GAS  C:\Users\IN-002~1\AppData\Local\Temp\ccxO8rjh.s 			page 241


 11381 0c24 50       		.byte	0x50
 11382 0c25 01       		.uleb128 0x1
 11383 0c26 32       		.byte	0x32
 11384 0c27 00       		.byte	0
 11385 0c28 0D       		.uleb128 0xd
 11386 0c29 48060000 		.4byte	.LVL166
 11387 0c2d 873B0000 		.4byte	0x3b87
 11388 0c31 3C0C0000 		.4byte	0xc3c
 11389 0c35 0E       		.uleb128 0xe
 11390 0c36 01       		.uleb128 0x1
 11391 0c37 50       		.byte	0x50
 11392 0c38 02       		.uleb128 0x2
 11393 0c39 74       		.byte	0x74
 11394 0c3a 00       		.sleb128 0
 11395 0c3b 00       		.byte	0
 11396 0c3c 0D       		.uleb128 0xd
 11397 0c3d 60060000 		.4byte	.LVL167
 11398 0c41 FD3B0000 		.4byte	0x3bfd
 11399 0c45 590C0000 		.4byte	0xc59
 11400 0c49 0E       		.uleb128 0xe
 11401 0c4a 01       		.uleb128 0x1
 11402 0c4b 51       		.byte	0x51
 11403 0c4c 02       		.uleb128 0x2
 11404 0c4d 74       		.byte	0x74
 11405 0c4e 00       		.sleb128 0
 11406 0c4f 0E       		.uleb128 0xe
 11407 0c50 01       		.uleb128 0x1
 11408 0c51 50       		.byte	0x50
 11409 0c52 05       		.uleb128 0x5
 11410 0c53 03       		.byte	0x3
 11411 0c54 00000000 		.4byte	resultado
 11412 0c58 00       		.byte	0
 11413 0c59 0D       		.uleb128 0xd
 11414 0c5a 72060000 		.4byte	.LVL168
 11415 0c5e 6D3B0000 		.4byte	0x3b6d
 11416 0c62 740C0000 		.4byte	0xc74
 11417 0c66 0E       		.uleb128 0xe
 11418 0c67 01       		.uleb128 0x1
 11419 0c68 51       		.byte	0x51
 11420 0c69 02       		.uleb128 0x2
 11421 0c6a 91       		.byte	0x91
 11422 0c6b 54       		.sleb128 -44
 11423 0c6c 0E       		.uleb128 0xe
 11424 0c6d 01       		.uleb128 0x1
 11425 0c6e 50       		.byte	0x50
 11426 0c6f 03       		.uleb128 0x3
 11427 0c70 0A       		.byte	0xa
 11428 0c71 0001     		.2byte	0x100
 11429 0c73 00       		.byte	0
 11430 0c74 0D       		.uleb128 0xd
 11431 0c75 7C060000 		.4byte	.LVL169
 11432 0c79 6D3B0000 		.4byte	0x3b6d
 11433 0c7d 920C0000 		.4byte	0xc92
 11434 0c81 0E       		.uleb128 0xe
 11435 0c82 01       		.uleb128 0x1
 11436 0c83 51       		.byte	0x51
 11437 0c84 05       		.uleb128 0x5
ARM GAS  C:\Users\IN-002~1\AppData\Local\Temp\ccxO8rjh.s 			page 242


 11438 0c85 03       		.byte	0x3
 11439 0c86 00000000 		.4byte	resultado
 11440 0c8a 0E       		.uleb128 0xe
 11441 0c8b 01       		.uleb128 0x1
 11442 0c8c 50       		.byte	0x50
 11443 0c8d 03       		.uleb128 0x3
 11444 0c8e 0A       		.byte	0xa
 11445 0c8f 0D02     		.2byte	0x20d
 11446 0c91 00       		.byte	0
 11447 0c92 0D       		.uleb128 0xd
 11448 0c93 88060000 		.4byte	.LVL170
 11449 0c97 6D3B0000 		.4byte	0x3b6d
 11450 0c9b AD0C0000 		.4byte	0xcad
 11451 0c9f 0E       		.uleb128 0xe
 11452 0ca0 01       		.uleb128 0x1
 11453 0ca1 51       		.byte	0x51
 11454 0ca2 02       		.uleb128 0x2
 11455 0ca3 91       		.byte	0x91
 11456 0ca4 54       		.sleb128 -44
 11457 0ca5 0E       		.uleb128 0xe
 11458 0ca6 01       		.uleb128 0x1
 11459 0ca7 50       		.byte	0x50
 11460 0ca8 03       		.uleb128 0x3
 11461 0ca9 0A       		.byte	0xa
 11462 0caa 5901     		.2byte	0x159
 11463 0cac 00       		.byte	0
 11464 0cad 0D       		.uleb128 0xd
 11465 0cae 92060000 		.4byte	.LVL171
 11466 0cb2 6D3B0000 		.4byte	0x3b6d
 11467 0cb6 CB0C0000 		.4byte	0xccb
 11468 0cba 0E       		.uleb128 0xe
 11469 0cbb 01       		.uleb128 0x1
 11470 0cbc 51       		.byte	0x51
 11471 0cbd 05       		.uleb128 0x5
 11472 0cbe 03       		.byte	0x3
 11473 0cbf 00000000 		.4byte	resultado
 11474 0cc3 0E       		.uleb128 0xe
 11475 0cc4 01       		.uleb128 0x1
 11476 0cc5 50       		.byte	0x50
 11477 0cc6 03       		.uleb128 0x3
 11478 0cc7 0A       		.byte	0xa
 11479 0cc8 4D02     		.2byte	0x24d
 11480 0cca 00       		.byte	0
 11481 0ccb 0D       		.uleb128 0xd
 11482 0ccc D6060000 		.4byte	.LVL172
 11483 0cd0 873B0000 		.4byte	0x3b87
 11484 0cd4 DF0C0000 		.4byte	0xcdf
 11485 0cd8 0E       		.uleb128 0xe
 11486 0cd9 01       		.uleb128 0x1
 11487 0cda 50       		.byte	0x50
 11488 0cdb 02       		.uleb128 0x2
 11489 0cdc 74       		.byte	0x74
 11490 0cdd 00       		.sleb128 0
 11491 0cde 00       		.byte	0
 11492 0cdf 0D       		.uleb128 0xd
 11493 0ce0 EE060000 		.4byte	.LVL173
 11494 0ce4 873B0000 		.4byte	0x3b87
ARM GAS  C:\Users\IN-002~1\AppData\Local\Temp\ccxO8rjh.s 			page 243


 11495 0ce8 F80C0000 		.4byte	0xcf8
 11496 0cec 0E       		.uleb128 0xe
 11497 0ced 01       		.uleb128 0x1
 11498 0cee 51       		.byte	0x51
 11499 0cef 01       		.uleb128 0x1
 11500 0cf0 3A       		.byte	0x3a
 11501 0cf1 0E       		.uleb128 0xe
 11502 0cf2 01       		.uleb128 0x1
 11503 0cf3 50       		.byte	0x50
 11504 0cf4 02       		.uleb128 0x2
 11505 0cf5 74       		.byte	0x74
 11506 0cf6 00       		.sleb128 0
 11507 0cf7 00       		.byte	0
 11508 0cf8 0D       		.uleb128 0xd
 11509 0cf9 00070000 		.4byte	.LVL174
 11510 0cfd 873B0000 		.4byte	0x3b87
 11511 0d01 0C0D0000 		.4byte	0xd0c
 11512 0d05 0E       		.uleb128 0xe
 11513 0d06 01       		.uleb128 0x1
 11514 0d07 50       		.byte	0x50
 11515 0d08 02       		.uleb128 0x2
 11516 0d09 74       		.byte	0x74
 11517 0d0a 00       		.sleb128 0
 11518 0d0b 00       		.byte	0
 11519 0d0c 0D       		.uleb128 0xd
 11520 0d0d 18070000 		.4byte	.LVL175
 11521 0d11 873B0000 		.4byte	0x3b87
 11522 0d15 250D0000 		.4byte	0xd25
 11523 0d19 0E       		.uleb128 0xe
 11524 0d1a 01       		.uleb128 0x1
 11525 0d1b 51       		.byte	0x51
 11526 0d1c 01       		.uleb128 0x1
 11527 0d1d 3A       		.byte	0x3a
 11528 0d1e 0E       		.uleb128 0xe
 11529 0d1f 01       		.uleb128 0x1
 11530 0d20 50       		.byte	0x50
 11531 0d21 02       		.uleb128 0x2
 11532 0d22 74       		.byte	0x74
 11533 0d23 00       		.sleb128 0
 11534 0d24 00       		.byte	0
 11535 0d25 0D       		.uleb128 0xd
 11536 0d26 2C070000 		.4byte	.LVL176
 11537 0d2a 873B0000 		.4byte	0x3b87
 11538 0d2e 390D0000 		.4byte	0xd39
 11539 0d32 0E       		.uleb128 0xe
 11540 0d33 01       		.uleb128 0x1
 11541 0d34 50       		.byte	0x50
 11542 0d35 02       		.uleb128 0x2
 11543 0d36 74       		.byte	0x74
 11544 0d37 00       		.sleb128 0
 11545 0d38 00       		.byte	0
 11546 0d39 0D       		.uleb128 0xd
 11547 0d3a 44070000 		.4byte	.LVL177
 11548 0d3e 873B0000 		.4byte	0x3b87
 11549 0d42 520D0000 		.4byte	0xd52
 11550 0d46 0E       		.uleb128 0xe
 11551 0d47 01       		.uleb128 0x1
ARM GAS  C:\Users\IN-002~1\AppData\Local\Temp\ccxO8rjh.s 			page 244


 11552 0d48 51       		.byte	0x51
 11553 0d49 01       		.uleb128 0x1
 11554 0d4a 3A       		.byte	0x3a
 11555 0d4b 0E       		.uleb128 0xe
 11556 0d4c 01       		.uleb128 0x1
 11557 0d4d 50       		.byte	0x50
 11558 0d4e 02       		.uleb128 0x2
 11559 0d4f 74       		.byte	0x74
 11560 0d50 00       		.sleb128 0
 11561 0d51 00       		.byte	0
 11562 0d52 0D       		.uleb128 0xd
 11563 0d53 4C070000 		.4byte	.LVL178
 11564 0d57 A13B0000 		.4byte	0x3ba1
 11565 0d5b 6B0D0000 		.4byte	0xd6b
 11566 0d5f 0E       		.uleb128 0xe
 11567 0d60 01       		.uleb128 0x1
 11568 0d61 51       		.byte	0x51
 11569 0d62 02       		.uleb128 0x2
 11570 0d63 74       		.byte	0x74
 11571 0d64 00       		.sleb128 0
 11572 0d65 0E       		.uleb128 0xe
 11573 0d66 01       		.uleb128 0x1
 11574 0d67 50       		.byte	0x50
 11575 0d68 01       		.uleb128 0x1
 11576 0d69 38       		.byte	0x38
 11577 0d6a 00       		.byte	0
 11578 0d6b 0D       		.uleb128 0xd
 11579 0d6c 60070000 		.4byte	.LVL179
 11580 0d70 873B0000 		.4byte	0x3b87
 11581 0d74 7F0D0000 		.4byte	0xd7f
 11582 0d78 0E       		.uleb128 0xe
 11583 0d79 01       		.uleb128 0x1
 11584 0d7a 50       		.byte	0x50
 11585 0d7b 02       		.uleb128 0x2
 11586 0d7c 74       		.byte	0x74
 11587 0d7d 00       		.sleb128 0
 11588 0d7e 00       		.byte	0
 11589 0d7f 0D       		.uleb128 0xd
 11590 0d80 78070000 		.4byte	.LVL180
 11591 0d84 873B0000 		.4byte	0x3b87
 11592 0d88 980D0000 		.4byte	0xd98
 11593 0d8c 0E       		.uleb128 0xe
 11594 0d8d 01       		.uleb128 0x1
 11595 0d8e 51       		.byte	0x51
 11596 0d8f 01       		.uleb128 0x1
 11597 0d90 3A       		.byte	0x3a
 11598 0d91 0E       		.uleb128 0xe
 11599 0d92 01       		.uleb128 0x1
 11600 0d93 50       		.byte	0x50
 11601 0d94 02       		.uleb128 0x2
 11602 0d95 74       		.byte	0x74
 11603 0d96 00       		.sleb128 0
 11604 0d97 00       		.byte	0
 11605 0d98 0D       		.uleb128 0xd
 11606 0d99 8A070000 		.4byte	.LVL181
 11607 0d9d B73B0000 		.4byte	0x3bb7
 11608 0da1 B20D0000 		.4byte	0xdb2
ARM GAS  C:\Users\IN-002~1\AppData\Local\Temp\ccxO8rjh.s 			page 245


 11609 0da5 0E       		.uleb128 0xe
 11610 0da6 01       		.uleb128 0x1
 11611 0da7 51       		.byte	0x51
 11612 0da8 01       		.uleb128 0x1
 11613 0da9 49       		.byte	0x49
 11614 0daa 0E       		.uleb128 0xe
 11615 0dab 01       		.uleb128 0x1
 11616 0dac 50       		.byte	0x50
 11617 0dad 03       		.uleb128 0x3
 11618 0dae 0A       		.byte	0xa
 11619 0daf 4804     		.2byte	0x448
 11620 0db1 00       		.byte	0
 11621 0db2 0D       		.uleb128 0xd
 11622 0db3 96070000 		.4byte	.LVL182
 11623 0db7 B73B0000 		.4byte	0x3bb7
 11624 0dbb CC0D0000 		.4byte	0xdcc
 11625 0dbf 0E       		.uleb128 0xe
 11626 0dc0 01       		.uleb128 0x1
 11627 0dc1 51       		.byte	0x51
 11628 0dc2 01       		.uleb128 0x1
 11629 0dc3 49       		.byte	0x49
 11630 0dc4 0E       		.uleb128 0xe
 11631 0dc5 01       		.uleb128 0x1
 11632 0dc6 50       		.byte	0x50
 11633 0dc7 03       		.uleb128 0x3
 11634 0dc8 0A       		.byte	0xa
 11635 0dc9 1E04     		.2byte	0x41e
 11636 0dcb 00       		.byte	0
 11637 0dcc 0D       		.uleb128 0xd
 11638 0dcd 9C070000 		.4byte	.LVL183
 11639 0dd1 D13B0000 		.4byte	0x3bd1
 11640 0dd5 E00D0000 		.4byte	0xde0
 11641 0dd9 0E       		.uleb128 0xe
 11642 0dda 01       		.uleb128 0x1
 11643 0ddb 50       		.byte	0x50
 11644 0ddc 02       		.uleb128 0x2
 11645 0ddd 74       		.byte	0x74
 11646 0dde 00       		.sleb128 0
 11647 0ddf 00       		.byte	0
 11648 0de0 0D       		.uleb128 0xd
 11649 0de1 DE070000 		.4byte	.LVL184
 11650 0de5 E23B0000 		.4byte	0x3be2
 11651 0de9 000E0000 		.4byte	0xe00
 11652 0ded 0E       		.uleb128 0xe
 11653 0dee 01       		.uleb128 0x1
 11654 0def 52       		.byte	0x52
 11655 0df0 03       		.uleb128 0x3
 11656 0df1 91       		.byte	0x91
 11657 0df2 B47F     		.sleb128 -76
 11658 0df4 0E       		.uleb128 0xe
 11659 0df5 01       		.uleb128 0x1
 11660 0df6 51       		.byte	0x51
 11661 0df7 02       		.uleb128 0x2
 11662 0df8 91       		.byte	0x91
 11663 0df9 44       		.sleb128 -60
 11664 0dfa 0E       		.uleb128 0xe
 11665 0dfb 01       		.uleb128 0x1
ARM GAS  C:\Users\IN-002~1\AppData\Local\Temp\ccxO8rjh.s 			page 246


 11666 0dfc 50       		.byte	0x50
 11667 0dfd 01       		.uleb128 0x1
 11668 0dfe 32       		.byte	0x32
 11669 0dff 00       		.byte	0
 11670 0e00 0D       		.uleb128 0xd
 11671 0e01 F4070000 		.4byte	.LVL185
 11672 0e05 873B0000 		.4byte	0x3b87
 11673 0e09 140E0000 		.4byte	0xe14
 11674 0e0d 0E       		.uleb128 0xe
 11675 0e0e 01       		.uleb128 0x1
 11676 0e0f 50       		.byte	0x50
 11677 0e10 02       		.uleb128 0x2
 11678 0e11 74       		.byte	0x74
 11679 0e12 00       		.sleb128 0
 11680 0e13 00       		.byte	0
 11681 0e14 0D       		.uleb128 0xd
 11682 0e15 0C080000 		.4byte	.LVL186
 11683 0e19 FD3B0000 		.4byte	0x3bfd
 11684 0e1d 310E0000 		.4byte	0xe31
 11685 0e21 0E       		.uleb128 0xe
 11686 0e22 01       		.uleb128 0x1
 11687 0e23 51       		.byte	0x51
 11688 0e24 02       		.uleb128 0x2
 11689 0e25 74       		.byte	0x74
 11690 0e26 00       		.sleb128 0
 11691 0e27 0E       		.uleb128 0xe
 11692 0e28 01       		.uleb128 0x1
 11693 0e29 50       		.byte	0x50
 11694 0e2a 05       		.uleb128 0x5
 11695 0e2b 03       		.byte	0x3
 11696 0e2c 00000000 		.4byte	resultado
 11697 0e30 00       		.byte	0
 11698 0e31 0D       		.uleb128 0xd
 11699 0e32 1E080000 		.4byte	.LVL187
 11700 0e36 6D3B0000 		.4byte	0x3b6d
 11701 0e3a 4C0E0000 		.4byte	0xe4c
 11702 0e3e 0E       		.uleb128 0xe
 11703 0e3f 01       		.uleb128 0x1
 11704 0e40 51       		.byte	0x51
 11705 0e41 02       		.uleb128 0x2
 11706 0e42 91       		.byte	0x91
 11707 0e43 54       		.sleb128 -44
 11708 0e44 0E       		.uleb128 0xe
 11709 0e45 01       		.uleb128 0x1
 11710 0e46 50       		.byte	0x50
 11711 0e47 03       		.uleb128 0x3
 11712 0e48 0A       		.byte	0xa
 11713 0e49 4804     		.2byte	0x448
 11714 0e4b 00       		.byte	0
 11715 0e4c 0D       		.uleb128 0xd
 11716 0e4d 28080000 		.4byte	.LVL188
 11717 0e51 6D3B0000 		.4byte	0x3b6d
 11718 0e55 6A0E0000 		.4byte	0xe6a
 11719 0e59 0E       		.uleb128 0xe
 11720 0e5a 01       		.uleb128 0x1
 11721 0e5b 51       		.byte	0x51
 11722 0e5c 05       		.uleb128 0x5
ARM GAS  C:\Users\IN-002~1\AppData\Local\Temp\ccxO8rjh.s 			page 247


 11723 0e5d 03       		.byte	0x3
 11724 0e5e 00000000 		.4byte	resultado
 11725 0e62 0E       		.uleb128 0xe
 11726 0e63 01       		.uleb128 0x1
 11727 0e64 50       		.byte	0x50
 11728 0e65 03       		.uleb128 0x3
 11729 0e66 0A       		.byte	0xa
 11730 0e67 0E04     		.2byte	0x40e
 11731 0e69 00       		.byte	0
 11732 0e6a 0D       		.uleb128 0xd
 11733 0e6b 34080000 		.4byte	.LVL189
 11734 0e6f 6D3B0000 		.4byte	0x3b6d
 11735 0e73 850E0000 		.4byte	0xe85
 11736 0e77 0E       		.uleb128 0xe
 11737 0e78 01       		.uleb128 0x1
 11738 0e79 51       		.byte	0x51
 11739 0e7a 02       		.uleb128 0x2
 11740 0e7b 91       		.byte	0x91
 11741 0e7c 54       		.sleb128 -44
 11742 0e7d 0E       		.uleb128 0xe
 11743 0e7e 01       		.uleb128 0x1
 11744 0e7f 50       		.byte	0x50
 11745 0e80 03       		.uleb128 0x3
 11746 0e81 0A       		.byte	0xa
 11747 0e82 1E04     		.2byte	0x41e
 11748 0e84 00       		.byte	0
 11749 0e85 0D       		.uleb128 0xd
 11750 0e86 3E080000 		.4byte	.LVL190
 11751 0e8a 6D3B0000 		.4byte	0x3b6d
 11752 0e8e A30E0000 		.4byte	0xea3
 11753 0e92 0E       		.uleb128 0xe
 11754 0e93 01       		.uleb128 0x1
 11755 0e94 51       		.byte	0x51
 11756 0e95 05       		.uleb128 0x5
 11757 0e96 03       		.byte	0x3
 11758 0e97 00000000 		.4byte	resultado
 11759 0e9b 0E       		.uleb128 0xe
 11760 0e9c 01       		.uleb128 0x1
 11761 0e9d 50       		.byte	0x50
 11762 0e9e 03       		.uleb128 0x3
 11763 0e9f 0A       		.byte	0xa
 11764 0ea0 3904     		.2byte	0x439
 11765 0ea2 00       		.byte	0
 11766 0ea3 0F       		.uleb128 0xf
 11767 0ea4 42080000 		.4byte	.LVL191
 11768 0ea8 5B3B0000 		.4byte	0x3b5b
 11769 0eac 0D       		.uleb128 0xd
 11770 0ead B0090000 		.4byte	.LVL192
 11771 0eb1 873B0000 		.4byte	0x3b87
 11772 0eb5 C00E0000 		.4byte	0xec0
 11773 0eb9 0E       		.uleb128 0xe
 11774 0eba 01       		.uleb128 0x1
 11775 0ebb 50       		.byte	0x50
 11776 0ebc 02       		.uleb128 0x2
 11777 0ebd 74       		.byte	0x74
 11778 0ebe 00       		.sleb128 0
 11779 0ebf 00       		.byte	0
ARM GAS  C:\Users\IN-002~1\AppData\Local\Temp\ccxO8rjh.s 			page 248


 11780 0ec0 0D       		.uleb128 0xd
 11781 0ec1 C8090000 		.4byte	.LVL193
 11782 0ec5 873B0000 		.4byte	0x3b87
 11783 0ec9 D90E0000 		.4byte	0xed9
 11784 0ecd 0E       		.uleb128 0xe
 11785 0ece 01       		.uleb128 0x1
 11786 0ecf 51       		.byte	0x51
 11787 0ed0 01       		.uleb128 0x1
 11788 0ed1 3A       		.byte	0x3a
 11789 0ed2 0E       		.uleb128 0xe
 11790 0ed3 01       		.uleb128 0x1
 11791 0ed4 50       		.byte	0x50
 11792 0ed5 02       		.uleb128 0x2
 11793 0ed6 74       		.byte	0x74
 11794 0ed7 00       		.sleb128 0
 11795 0ed8 00       		.byte	0
 11796 0ed9 0D       		.uleb128 0xd
 11797 0eda DA090000 		.4byte	.LVL194
 11798 0ede 873B0000 		.4byte	0x3b87
 11799 0ee2 ED0E0000 		.4byte	0xeed
 11800 0ee6 0E       		.uleb128 0xe
 11801 0ee7 01       		.uleb128 0x1
 11802 0ee8 50       		.byte	0x50
 11803 0ee9 02       		.uleb128 0x2
 11804 0eea 74       		.byte	0x74
 11805 0eeb 00       		.sleb128 0
 11806 0eec 00       		.byte	0
 11807 0eed 0D       		.uleb128 0xd
 11808 0eee F2090000 		.4byte	.LVL195
 11809 0ef2 873B0000 		.4byte	0x3b87
 11810 0ef6 060F0000 		.4byte	0xf06
 11811 0efa 0E       		.uleb128 0xe
 11812 0efb 01       		.uleb128 0x1
 11813 0efc 51       		.byte	0x51
 11814 0efd 01       		.uleb128 0x1
 11815 0efe 3A       		.byte	0x3a
 11816 0eff 0E       		.uleb128 0xe
 11817 0f00 01       		.uleb128 0x1
 11818 0f01 50       		.byte	0x50
 11819 0f02 02       		.uleb128 0x2
 11820 0f03 74       		.byte	0x74
 11821 0f04 00       		.sleb128 0
 11822 0f05 00       		.byte	0
 11823 0f06 0D       		.uleb128 0xd
 11824 0f07 060A0000 		.4byte	.LVL196
 11825 0f0b 873B0000 		.4byte	0x3b87
 11826 0f0f 1A0F0000 		.4byte	0xf1a
 11827 0f13 0E       		.uleb128 0xe
 11828 0f14 01       		.uleb128 0x1
 11829 0f15 50       		.byte	0x50
 11830 0f16 02       		.uleb128 0x2
 11831 0f17 74       		.byte	0x74
 11832 0f18 00       		.sleb128 0
 11833 0f19 00       		.byte	0
 11834 0f1a 0D       		.uleb128 0xd
 11835 0f1b 1E0A0000 		.4byte	.LVL197
 11836 0f1f 873B0000 		.4byte	0x3b87
ARM GAS  C:\Users\IN-002~1\AppData\Local\Temp\ccxO8rjh.s 			page 249


 11837 0f23 330F0000 		.4byte	0xf33
 11838 0f27 0E       		.uleb128 0xe
 11839 0f28 01       		.uleb128 0x1
 11840 0f29 51       		.byte	0x51
 11841 0f2a 01       		.uleb128 0x1
 11842 0f2b 3A       		.byte	0x3a
 11843 0f2c 0E       		.uleb128 0xe
 11844 0f2d 01       		.uleb128 0x1
 11845 0f2e 50       		.byte	0x50
 11846 0f2f 02       		.uleb128 0x2
 11847 0f30 74       		.byte	0x74
 11848 0f31 00       		.sleb128 0
 11849 0f32 00       		.byte	0
 11850 0f33 0D       		.uleb128 0xd
 11851 0f34 260A0000 		.4byte	.LVL198
 11852 0f38 A13B0000 		.4byte	0x3ba1
 11853 0f3c 4C0F0000 		.4byte	0xf4c
 11854 0f40 0E       		.uleb128 0xe
 11855 0f41 01       		.uleb128 0x1
 11856 0f42 51       		.byte	0x51
 11857 0f43 02       		.uleb128 0x2
 11858 0f44 74       		.byte	0x74
 11859 0f45 00       		.sleb128 0
 11860 0f46 0E       		.uleb128 0xe
 11861 0f47 01       		.uleb128 0x1
 11862 0f48 50       		.byte	0x50
 11863 0f49 01       		.uleb128 0x1
 11864 0f4a 38       		.byte	0x38
 11865 0f4b 00       		.byte	0
 11866 0f4c 0D       		.uleb128 0xd
 11867 0f4d 3A0A0000 		.4byte	.LVL199
 11868 0f51 873B0000 		.4byte	0x3b87
 11869 0f55 600F0000 		.4byte	0xf60
 11870 0f59 0E       		.uleb128 0xe
 11871 0f5a 01       		.uleb128 0x1
 11872 0f5b 50       		.byte	0x50
 11873 0f5c 02       		.uleb128 0x2
 11874 0f5d 74       		.byte	0x74
 11875 0f5e 00       		.sleb128 0
 11876 0f5f 00       		.byte	0
 11877 0f60 0D       		.uleb128 0xd
 11878 0f61 520A0000 		.4byte	.LVL200
 11879 0f65 873B0000 		.4byte	0x3b87
 11880 0f69 790F0000 		.4byte	0xf79
 11881 0f6d 0E       		.uleb128 0xe
 11882 0f6e 01       		.uleb128 0x1
 11883 0f6f 51       		.byte	0x51
 11884 0f70 01       		.uleb128 0x1
 11885 0f71 3A       		.byte	0x3a
 11886 0f72 0E       		.uleb128 0xe
 11887 0f73 01       		.uleb128 0x1
 11888 0f74 50       		.byte	0x50
 11889 0f75 02       		.uleb128 0x2
 11890 0f76 74       		.byte	0x74
 11891 0f77 00       		.sleb128 0
 11892 0f78 00       		.byte	0
 11893 0f79 0D       		.uleb128 0xd
ARM GAS  C:\Users\IN-002~1\AppData\Local\Temp\ccxO8rjh.s 			page 250


 11894 0f7a 620A0000 		.4byte	.LVL201
 11895 0f7e B73B0000 		.4byte	0x3bb7
 11896 0f82 920F0000 		.4byte	0xf92
 11897 0f86 0E       		.uleb128 0xe
 11898 0f87 01       		.uleb128 0x1
 11899 0f88 51       		.byte	0x51
 11900 0f89 01       		.uleb128 0x1
 11901 0f8a 49       		.byte	0x49
 11902 0f8b 0E       		.uleb128 0xe
 11903 0f8c 01       		.uleb128 0x1
 11904 0f8d 50       		.byte	0x50
 11905 0f8e 02       		.uleb128 0x2
 11906 0f8f 08       		.byte	0x8
 11907 0f90 C0       		.byte	0xc0
 11908 0f91 00       		.byte	0
 11909 0f92 0D       		.uleb128 0xd
 11910 0f93 6E0A0000 		.4byte	.LVL202
 11911 0f97 B73B0000 		.4byte	0x3bb7
 11912 0f9b AC0F0000 		.4byte	0xfac
 11913 0f9f 0E       		.uleb128 0xe
 11914 0fa0 01       		.uleb128 0x1
 11915 0fa1 51       		.byte	0x51
 11916 0fa2 01       		.uleb128 0x1
 11917 0fa3 49       		.byte	0x49
 11918 0fa4 0E       		.uleb128 0xe
 11919 0fa5 01       		.uleb128 0x1
 11920 0fa6 50       		.byte	0x50
 11921 0fa7 03       		.uleb128 0x3
 11922 0fa8 0A       		.byte	0xa
 11923 0fa9 1901     		.2byte	0x119
 11924 0fab 00       		.byte	0
 11925 0fac 0D       		.uleb128 0xd
 11926 0fad 740A0000 		.4byte	.LVL203
 11927 0fb1 D13B0000 		.4byte	0x3bd1
 11928 0fb5 C00F0000 		.4byte	0xfc0
 11929 0fb9 0E       		.uleb128 0xe
 11930 0fba 01       		.uleb128 0x1
 11931 0fbb 50       		.byte	0x50
 11932 0fbc 02       		.uleb128 0x2
 11933 0fbd 74       		.byte	0x74
 11934 0fbe 00       		.sleb128 0
 11935 0fbf 00       		.byte	0
 11936 0fc0 0D       		.uleb128 0xd
 11937 0fc1 B60A0000 		.4byte	.LVL204
 11938 0fc5 E23B0000 		.4byte	0x3be2
 11939 0fc9 E00F0000 		.4byte	0xfe0
 11940 0fcd 0E       		.uleb128 0xe
 11941 0fce 01       		.uleb128 0x1
 11942 0fcf 52       		.byte	0x52
 11943 0fd0 03       		.uleb128 0x3
 11944 0fd1 91       		.byte	0x91
 11945 0fd2 B47F     		.sleb128 -76
 11946 0fd4 0E       		.uleb128 0xe
 11947 0fd5 01       		.uleb128 0x1
 11948 0fd6 51       		.byte	0x51
 11949 0fd7 02       		.uleb128 0x2
 11950 0fd8 91       		.byte	0x91
ARM GAS  C:\Users\IN-002~1\AppData\Local\Temp\ccxO8rjh.s 			page 251


 11951 0fd9 44       		.sleb128 -60
 11952 0fda 0E       		.uleb128 0xe
 11953 0fdb 01       		.uleb128 0x1
 11954 0fdc 50       		.byte	0x50
 11955 0fdd 01       		.uleb128 0x1
 11956 0fde 32       		.byte	0x32
 11957 0fdf 00       		.byte	0
 11958 0fe0 0D       		.uleb128 0xd
 11959 0fe1 CC0A0000 		.4byte	.LVL205
 11960 0fe5 873B0000 		.4byte	0x3b87
 11961 0fe9 F40F0000 		.4byte	0xff4
 11962 0fed 0E       		.uleb128 0xe
 11963 0fee 01       		.uleb128 0x1
 11964 0fef 50       		.byte	0x50
 11965 0ff0 02       		.uleb128 0x2
 11966 0ff1 74       		.byte	0x74
 11967 0ff2 00       		.sleb128 0
 11968 0ff3 00       		.byte	0
 11969 0ff4 0D       		.uleb128 0xd
 11970 0ff5 E40A0000 		.4byte	.LVL206
 11971 0ff9 FD3B0000 		.4byte	0x3bfd
 11972 0ffd 11100000 		.4byte	0x1011
 11973 1001 0E       		.uleb128 0xe
 11974 1002 01       		.uleb128 0x1
 11975 1003 51       		.byte	0x51
 11976 1004 02       		.uleb128 0x2
 11977 1005 74       		.byte	0x74
 11978 1006 00       		.sleb128 0
 11979 1007 0E       		.uleb128 0xe
 11980 1008 01       		.uleb128 0x1
 11981 1009 50       		.byte	0x50
 11982 100a 05       		.uleb128 0x5
 11983 100b 03       		.byte	0x3
 11984 100c 00000000 		.4byte	resultado
 11985 1010 00       		.byte	0
 11986 1011 0D       		.uleb128 0xd
 11987 1012 F40A0000 		.4byte	.LVL207
 11988 1016 6D3B0000 		.4byte	0x3b6d
 11989 101a 2B100000 		.4byte	0x102b
 11990 101e 0E       		.uleb128 0xe
 11991 101f 01       		.uleb128 0x1
 11992 1020 51       		.byte	0x51
 11993 1021 02       		.uleb128 0x2
 11994 1022 91       		.byte	0x91
 11995 1023 54       		.sleb128 -44
 11996 1024 0E       		.uleb128 0xe
 11997 1025 01       		.uleb128 0x1
 11998 1026 50       		.byte	0x50
 11999 1027 02       		.uleb128 0x2
 12000 1028 08       		.byte	0x8
 12001 1029 C0       		.byte	0xc0
 12002 102a 00       		.byte	0
 12003 102b 0D       		.uleb128 0xd
 12004 102c FE0A0000 		.4byte	.LVL208
 12005 1030 6D3B0000 		.4byte	0x3b6d
 12006 1034 49100000 		.4byte	0x1049
 12007 1038 0E       		.uleb128 0xe
ARM GAS  C:\Users\IN-002~1\AppData\Local\Temp\ccxO8rjh.s 			page 252


 12008 1039 01       		.uleb128 0x1
 12009 103a 51       		.byte	0x51
 12010 103b 05       		.uleb128 0x5
 12011 103c 03       		.byte	0x3
 12012 103d 00000000 		.4byte	resultado
 12013 1041 0E       		.uleb128 0xe
 12014 1042 01       		.uleb128 0x1
 12015 1043 50       		.byte	0x50
 12016 1044 03       		.uleb128 0x3
 12017 1045 0A       		.byte	0xa
 12018 1046 0002     		.2byte	0x200
 12019 1048 00       		.byte	0
 12020 1049 0D       		.uleb128 0xd
 12021 104a 0A0B0000 		.4byte	.LVL209
 12022 104e 6D3B0000 		.4byte	0x3b6d
 12023 1052 64100000 		.4byte	0x1064
 12024 1056 0E       		.uleb128 0xe
 12025 1057 01       		.uleb128 0x1
 12026 1058 51       		.byte	0x51
 12027 1059 02       		.uleb128 0x2
 12028 105a 91       		.byte	0x91
 12029 105b 54       		.sleb128 -44
 12030 105c 0E       		.uleb128 0xe
 12031 105d 01       		.uleb128 0x1
 12032 105e 50       		.byte	0x50
 12033 105f 03       		.uleb128 0x3
 12034 1060 0A       		.byte	0xa
 12035 1061 1901     		.2byte	0x119
 12036 1063 00       		.byte	0
 12037 1064 0D       		.uleb128 0xd
 12038 1065 140B0000 		.4byte	.LVL210
 12039 1069 6D3B0000 		.4byte	0x3b6d
 12040 106d 82100000 		.4byte	0x1082
 12041 1071 0E       		.uleb128 0xe
 12042 1072 01       		.uleb128 0x1
 12043 1073 51       		.byte	0x51
 12044 1074 05       		.uleb128 0x5
 12045 1075 03       		.byte	0x3
 12046 1076 00000000 		.4byte	resultado
 12047 107a 0E       		.uleb128 0xe
 12048 107b 01       		.uleb128 0x1
 12049 107c 50       		.byte	0x50
 12050 107d 03       		.uleb128 0x3
 12051 107e 0A       		.byte	0xa
 12052 107f 2702     		.2byte	0x227
 12053 1081 00       		.byte	0
 12054 1082 0D       		.uleb128 0xd
 12055 1083 580B0000 		.4byte	.LVL211
 12056 1087 873B0000 		.4byte	0x3b87
 12057 108b 96100000 		.4byte	0x1096
 12058 108f 0E       		.uleb128 0xe
 12059 1090 01       		.uleb128 0x1
 12060 1091 50       		.byte	0x50
 12061 1092 02       		.uleb128 0x2
 12062 1093 74       		.byte	0x74
 12063 1094 00       		.sleb128 0
 12064 1095 00       		.byte	0
ARM GAS  C:\Users\IN-002~1\AppData\Local\Temp\ccxO8rjh.s 			page 253


 12065 1096 0D       		.uleb128 0xd
 12066 1097 700B0000 		.4byte	.LVL212
 12067 109b 873B0000 		.4byte	0x3b87
 12068 109f AF100000 		.4byte	0x10af
 12069 10a3 0E       		.uleb128 0xe
 12070 10a4 01       		.uleb128 0x1
 12071 10a5 51       		.byte	0x51
 12072 10a6 01       		.uleb128 0x1
 12073 10a7 3A       		.byte	0x3a
 12074 10a8 0E       		.uleb128 0xe
 12075 10a9 01       		.uleb128 0x1
 12076 10aa 50       		.byte	0x50
 12077 10ab 02       		.uleb128 0x2
 12078 10ac 74       		.byte	0x74
 12079 10ad 00       		.sleb128 0
 12080 10ae 00       		.byte	0
 12081 10af 0D       		.uleb128 0xd
 12082 10b0 BE0B0000 		.4byte	.LVL213
 12083 10b4 873B0000 		.4byte	0x3b87
 12084 10b8 C3100000 		.4byte	0x10c3
 12085 10bc 0E       		.uleb128 0xe
 12086 10bd 01       		.uleb128 0x1
 12087 10be 50       		.byte	0x50
 12088 10bf 02       		.uleb128 0x2
 12089 10c0 74       		.byte	0x74
 12090 10c1 00       		.sleb128 0
 12091 10c2 00       		.byte	0
 12092 10c3 0D       		.uleb128 0xd
 12093 10c4 D60B0000 		.4byte	.LVL214
 12094 10c8 873B0000 		.4byte	0x3b87
 12095 10cc DC100000 		.4byte	0x10dc
 12096 10d0 0E       		.uleb128 0xe
 12097 10d1 01       		.uleb128 0x1
 12098 10d2 51       		.byte	0x51
 12099 10d3 01       		.uleb128 0x1
 12100 10d4 3A       		.byte	0x3a
 12101 10d5 0E       		.uleb128 0xe
 12102 10d6 01       		.uleb128 0x1
 12103 10d7 50       		.byte	0x50
 12104 10d8 02       		.uleb128 0x2
 12105 10d9 74       		.byte	0x74
 12106 10da 00       		.sleb128 0
 12107 10db 00       		.byte	0
 12108 10dc 0D       		.uleb128 0xd
 12109 10dd EA0B0000 		.4byte	.LVL215
 12110 10e1 873B0000 		.4byte	0x3b87
 12111 10e5 F0100000 		.4byte	0x10f0
 12112 10e9 0E       		.uleb128 0xe
 12113 10ea 01       		.uleb128 0x1
 12114 10eb 50       		.byte	0x50
 12115 10ec 02       		.uleb128 0x2
 12116 10ed 74       		.byte	0x74
 12117 10ee 00       		.sleb128 0
 12118 10ef 00       		.byte	0
 12119 10f0 0D       		.uleb128 0xd
 12120 10f1 020C0000 		.4byte	.LVL216
 12121 10f5 873B0000 		.4byte	0x3b87
ARM GAS  C:\Users\IN-002~1\AppData\Local\Temp\ccxO8rjh.s 			page 254


 12122 10f9 09110000 		.4byte	0x1109
 12123 10fd 0E       		.uleb128 0xe
 12124 10fe 01       		.uleb128 0x1
 12125 10ff 51       		.byte	0x51
 12126 1100 01       		.uleb128 0x1
 12127 1101 3A       		.byte	0x3a
 12128 1102 0E       		.uleb128 0xe
 12129 1103 01       		.uleb128 0x1
 12130 1104 50       		.byte	0x50
 12131 1105 02       		.uleb128 0x2
 12132 1106 74       		.byte	0x74
 12133 1107 00       		.sleb128 0
 12134 1108 00       		.byte	0
 12135 1109 0D       		.uleb128 0xd
 12136 110a 0A0C0000 		.4byte	.LVL217
 12137 110e A13B0000 		.4byte	0x3ba1
 12138 1112 22110000 		.4byte	0x1122
 12139 1116 0E       		.uleb128 0xe
 12140 1117 01       		.uleb128 0x1
 12141 1118 51       		.byte	0x51
 12142 1119 02       		.uleb128 0x2
 12143 111a 74       		.byte	0x74
 12144 111b 00       		.sleb128 0
 12145 111c 0E       		.uleb128 0xe
 12146 111d 01       		.uleb128 0x1
 12147 111e 50       		.byte	0x50
 12148 111f 01       		.uleb128 0x1
 12149 1120 38       		.byte	0x38
 12150 1121 00       		.byte	0
 12151 1122 0D       		.uleb128 0xd
 12152 1123 1E0C0000 		.4byte	.LVL218
 12153 1127 873B0000 		.4byte	0x3b87
 12154 112b 36110000 		.4byte	0x1136
 12155 112f 0E       		.uleb128 0xe
 12156 1130 01       		.uleb128 0x1
 12157 1131 50       		.byte	0x50
 12158 1132 02       		.uleb128 0x2
 12159 1133 74       		.byte	0x74
 12160 1134 00       		.sleb128 0
 12161 1135 00       		.byte	0
 12162 1136 0D       		.uleb128 0xd
 12163 1137 360C0000 		.4byte	.LVL219
 12164 113b 873B0000 		.4byte	0x3b87
 12165 113f 4F110000 		.4byte	0x114f
 12166 1143 0E       		.uleb128 0xe
 12167 1144 01       		.uleb128 0x1
 12168 1145 51       		.byte	0x51
 12169 1146 01       		.uleb128 0x1
 12170 1147 3A       		.byte	0x3a
 12171 1148 0E       		.uleb128 0xe
 12172 1149 01       		.uleb128 0x1
 12173 114a 50       		.byte	0x50
 12174 114b 02       		.uleb128 0x2
 12175 114c 74       		.byte	0x74
 12176 114d 00       		.sleb128 0
 12177 114e 00       		.byte	0
 12178 114f 0D       		.uleb128 0xd
ARM GAS  C:\Users\IN-002~1\AppData\Local\Temp\ccxO8rjh.s 			page 255


 12179 1150 460C0000 		.4byte	.LVL220
 12180 1154 B73B0000 		.4byte	0x3bb7
 12181 1158 68110000 		.4byte	0x1168
 12182 115c 0E       		.uleb128 0xe
 12183 115d 01       		.uleb128 0x1
 12184 115e 51       		.byte	0x51
 12185 115f 01       		.uleb128 0x1
 12186 1160 49       		.byte	0x49
 12187 1161 0E       		.uleb128 0xe
 12188 1162 01       		.uleb128 0x1
 12189 1163 50       		.byte	0x50
 12190 1164 02       		.uleb128 0x2
 12191 1165 08       		.byte	0x8
 12192 1166 D9       		.byte	0xd9
 12193 1167 00       		.byte	0
 12194 1168 0D       		.uleb128 0xd
 12195 1169 520C0000 		.4byte	.LVL221
 12196 116d B73B0000 		.4byte	0x3bb7
 12197 1171 82110000 		.4byte	0x1182
 12198 1175 0E       		.uleb128 0xe
 12199 1176 01       		.uleb128 0x1
 12200 1177 51       		.byte	0x51
 12201 1178 01       		.uleb128 0x1
 12202 1179 49       		.byte	0x49
 12203 117a 0E       		.uleb128 0xe
 12204 117b 01       		.uleb128 0x1
 12205 117c 50       		.byte	0x50
 12206 117d 03       		.uleb128 0x3
 12207 117e 0A       		.byte	0xa
 12208 117f 4001     		.2byte	0x140
 12209 1181 00       		.byte	0
 12210 1182 0D       		.uleb128 0xd
 12211 1183 580C0000 		.4byte	.LVL222
 12212 1187 D13B0000 		.4byte	0x3bd1
 12213 118b 96110000 		.4byte	0x1196
 12214 118f 0E       		.uleb128 0xe
 12215 1190 01       		.uleb128 0x1
 12216 1191 50       		.byte	0x50
 12217 1192 02       		.uleb128 0x2
 12218 1193 74       		.byte	0x74
 12219 1194 00       		.sleb128 0
 12220 1195 00       		.byte	0
 12221 1196 0D       		.uleb128 0xd
 12222 1197 9A0C0000 		.4byte	.LVL223
 12223 119b E23B0000 		.4byte	0x3be2
 12224 119f B6110000 		.4byte	0x11b6
 12225 11a3 0E       		.uleb128 0xe
 12226 11a4 01       		.uleb128 0x1
 12227 11a5 52       		.byte	0x52
 12228 11a6 03       		.uleb128 0x3
 12229 11a7 91       		.byte	0x91
 12230 11a8 B47F     		.sleb128 -76
 12231 11aa 0E       		.uleb128 0xe
 12232 11ab 01       		.uleb128 0x1
 12233 11ac 51       		.byte	0x51
 12234 11ad 02       		.uleb128 0x2
 12235 11ae 91       		.byte	0x91
ARM GAS  C:\Users\IN-002~1\AppData\Local\Temp\ccxO8rjh.s 			page 256


 12236 11af 44       		.sleb128 -60
 12237 11b0 0E       		.uleb128 0xe
 12238 11b1 01       		.uleb128 0x1
 12239 11b2 50       		.byte	0x50
 12240 11b3 01       		.uleb128 0x1
 12241 11b4 32       		.byte	0x32
 12242 11b5 00       		.byte	0
 12243 11b6 0D       		.uleb128 0xd
 12244 11b7 B00C0000 		.4byte	.LVL224
 12245 11bb 873B0000 		.4byte	0x3b87
 12246 11bf CA110000 		.4byte	0x11ca
 12247 11c3 0E       		.uleb128 0xe
 12248 11c4 01       		.uleb128 0x1
 12249 11c5 50       		.byte	0x50
 12250 11c6 02       		.uleb128 0x2
 12251 11c7 74       		.byte	0x74
 12252 11c8 00       		.sleb128 0
 12253 11c9 00       		.byte	0
 12254 11ca 0D       		.uleb128 0xd
 12255 11cb C80C0000 		.4byte	.LVL225
 12256 11cf FD3B0000 		.4byte	0x3bfd
 12257 11d3 E7110000 		.4byte	0x11e7
 12258 11d7 0E       		.uleb128 0xe
 12259 11d8 01       		.uleb128 0x1
 12260 11d9 51       		.byte	0x51
 12261 11da 02       		.uleb128 0x2
 12262 11db 74       		.byte	0x74
 12263 11dc 00       		.sleb128 0
 12264 11dd 0E       		.uleb128 0xe
 12265 11de 01       		.uleb128 0x1
 12266 11df 50       		.byte	0x50
 12267 11e0 05       		.uleb128 0x5
 12268 11e1 03       		.byte	0x3
 12269 11e2 00000000 		.4byte	resultado
 12270 11e6 00       		.byte	0
 12271 11e7 0D       		.uleb128 0xd
 12272 11e8 D80C0000 		.4byte	.LVL226
 12273 11ec 6D3B0000 		.4byte	0x3b6d
 12274 11f0 01120000 		.4byte	0x1201
 12275 11f4 0E       		.uleb128 0xe
 12276 11f5 01       		.uleb128 0x1
 12277 11f6 51       		.byte	0x51
 12278 11f7 02       		.uleb128 0x2
 12279 11f8 91       		.byte	0x91
 12280 11f9 54       		.sleb128 -44
 12281 11fa 0E       		.uleb128 0xe
 12282 11fb 01       		.uleb128 0x1
 12283 11fc 50       		.byte	0x50
 12284 11fd 02       		.uleb128 0x2
 12285 11fe 08       		.byte	0x8
 12286 11ff D9       		.byte	0xd9
 12287 1200 00       		.byte	0
 12288 1201 0D       		.uleb128 0xd
 12289 1202 E20C0000 		.4byte	.LVL227
 12290 1206 6D3B0000 		.4byte	0x3b6d
 12291 120a 1F120000 		.4byte	0x121f
 12292 120e 0E       		.uleb128 0xe
ARM GAS  C:\Users\IN-002~1\AppData\Local\Temp\ccxO8rjh.s 			page 257


 12293 120f 01       		.uleb128 0x1
 12294 1210 51       		.byte	0x51
 12295 1211 05       		.uleb128 0x5
 12296 1212 03       		.byte	0x3
 12297 1213 00000000 		.4byte	resultado
 12298 1217 0E       		.uleb128 0xe
 12299 1218 01       		.uleb128 0x1
 12300 1219 50       		.byte	0x50
 12301 121a 03       		.uleb128 0x3
 12302 121b 0A       		.byte	0xa
 12303 121c 1A02     		.2byte	0x21a
 12304 121e 00       		.byte	0
 12305 121f 0D       		.uleb128 0xd
 12306 1220 EE0C0000 		.4byte	.LVL228
 12307 1224 6D3B0000 		.4byte	0x3b6d
 12308 1228 3A120000 		.4byte	0x123a
 12309 122c 0E       		.uleb128 0xe
 12310 122d 01       		.uleb128 0x1
 12311 122e 51       		.byte	0x51
 12312 122f 02       		.uleb128 0x2
 12313 1230 91       		.byte	0x91
 12314 1231 54       		.sleb128 -44
 12315 1232 0E       		.uleb128 0xe
 12316 1233 01       		.uleb128 0x1
 12317 1234 50       		.byte	0x50
 12318 1235 03       		.uleb128 0x3
 12319 1236 0A       		.byte	0xa
 12320 1237 4001     		.2byte	0x140
 12321 1239 00       		.byte	0
 12322 123a 0D       		.uleb128 0xd
 12323 123b F80C0000 		.4byte	.LVL229
 12324 123f 6D3B0000 		.4byte	0x3b6d
 12325 1243 58120000 		.4byte	0x1258
 12326 1247 0E       		.uleb128 0xe
 12327 1248 01       		.uleb128 0x1
 12328 1249 51       		.byte	0x51
 12329 124a 05       		.uleb128 0x5
 12330 124b 03       		.byte	0x3
 12331 124c 00000000 		.4byte	resultado
 12332 1250 0E       		.uleb128 0xe
 12333 1251 01       		.uleb128 0x1
 12334 1252 50       		.byte	0x50
 12335 1253 03       		.uleb128 0x3
 12336 1254 0A       		.byte	0xa
 12337 1255 4002     		.2byte	0x240
 12338 1257 00       		.byte	0
 12339 1258 0D       		.uleb128 0xd
 12340 1259 3C0D0000 		.4byte	.LVL230
 12341 125d 873B0000 		.4byte	0x3b87
 12342 1261 6C120000 		.4byte	0x126c
 12343 1265 0E       		.uleb128 0xe
 12344 1266 01       		.uleb128 0x1
 12345 1267 50       		.byte	0x50
 12346 1268 02       		.uleb128 0x2
 12347 1269 74       		.byte	0x74
 12348 126a 00       		.sleb128 0
 12349 126b 00       		.byte	0
ARM GAS  C:\Users\IN-002~1\AppData\Local\Temp\ccxO8rjh.s 			page 258


 12350 126c 0D       		.uleb128 0xd
 12351 126d 540D0000 		.4byte	.LVL231
 12352 1271 873B0000 		.4byte	0x3b87
 12353 1275 85120000 		.4byte	0x1285
 12354 1279 0E       		.uleb128 0xe
 12355 127a 01       		.uleb128 0x1
 12356 127b 51       		.byte	0x51
 12357 127c 01       		.uleb128 0x1
 12358 127d 3A       		.byte	0x3a
 12359 127e 0E       		.uleb128 0xe
 12360 127f 01       		.uleb128 0x1
 12361 1280 50       		.byte	0x50
 12362 1281 02       		.uleb128 0x2
 12363 1282 74       		.byte	0x74
 12364 1283 00       		.sleb128 0
 12365 1284 00       		.byte	0
 12366 1285 0D       		.uleb128 0xd
 12367 1286 660D0000 		.4byte	.LVL232
 12368 128a 873B0000 		.4byte	0x3b87
 12369 128e 99120000 		.4byte	0x1299
 12370 1292 0E       		.uleb128 0xe
 12371 1293 01       		.uleb128 0x1
 12372 1294 50       		.byte	0x50
 12373 1295 02       		.uleb128 0x2
 12374 1296 74       		.byte	0x74
 12375 1297 00       		.sleb128 0
 12376 1298 00       		.byte	0
 12377 1299 0D       		.uleb128 0xd
 12378 129a 7E0D0000 		.4byte	.LVL233
 12379 129e 873B0000 		.4byte	0x3b87
 12380 12a2 B2120000 		.4byte	0x12b2
 12381 12a6 0E       		.uleb128 0xe
 12382 12a7 01       		.uleb128 0x1
 12383 12a8 51       		.byte	0x51
 12384 12a9 01       		.uleb128 0x1
 12385 12aa 3A       		.byte	0x3a
 12386 12ab 0E       		.uleb128 0xe
 12387 12ac 01       		.uleb128 0x1
 12388 12ad 50       		.byte	0x50
 12389 12ae 02       		.uleb128 0x2
 12390 12af 74       		.byte	0x74
 12391 12b0 00       		.sleb128 0
 12392 12b1 00       		.byte	0
 12393 12b2 0D       		.uleb128 0xd
 12394 12b3 920D0000 		.4byte	.LVL234
 12395 12b7 873B0000 		.4byte	0x3b87
 12396 12bb C6120000 		.4byte	0x12c6
 12397 12bf 0E       		.uleb128 0xe
 12398 12c0 01       		.uleb128 0x1
 12399 12c1 50       		.byte	0x50
 12400 12c2 02       		.uleb128 0x2
 12401 12c3 74       		.byte	0x74
 12402 12c4 00       		.sleb128 0
 12403 12c5 00       		.byte	0
 12404 12c6 0D       		.uleb128 0xd
 12405 12c7 AA0D0000 		.4byte	.LVL235
 12406 12cb 873B0000 		.4byte	0x3b87
ARM GAS  C:\Users\IN-002~1\AppData\Local\Temp\ccxO8rjh.s 			page 259


 12407 12cf DF120000 		.4byte	0x12df
 12408 12d3 0E       		.uleb128 0xe
 12409 12d4 01       		.uleb128 0x1
 12410 12d5 51       		.byte	0x51
 12411 12d6 01       		.uleb128 0x1
 12412 12d7 3A       		.byte	0x3a
 12413 12d8 0E       		.uleb128 0xe
 12414 12d9 01       		.uleb128 0x1
 12415 12da 50       		.byte	0x50
 12416 12db 02       		.uleb128 0x2
 12417 12dc 74       		.byte	0x74
 12418 12dd 00       		.sleb128 0
 12419 12de 00       		.byte	0
 12420 12df 0D       		.uleb128 0xd
 12421 12e0 B20D0000 		.4byte	.LVL236
 12422 12e4 A13B0000 		.4byte	0x3ba1
 12423 12e8 F8120000 		.4byte	0x12f8
 12424 12ec 0E       		.uleb128 0xe
 12425 12ed 01       		.uleb128 0x1
 12426 12ee 51       		.byte	0x51
 12427 12ef 02       		.uleb128 0x2
 12428 12f0 74       		.byte	0x74
 12429 12f1 00       		.sleb128 0
 12430 12f2 0E       		.uleb128 0xe
 12431 12f3 01       		.uleb128 0x1
 12432 12f4 50       		.byte	0x50
 12433 12f5 01       		.uleb128 0x1
 12434 12f6 38       		.byte	0x38
 12435 12f7 00       		.byte	0
 12436 12f8 0D       		.uleb128 0xd
 12437 12f9 C60D0000 		.4byte	.LVL237
 12438 12fd 873B0000 		.4byte	0x3b87
 12439 1301 0C130000 		.4byte	0x130c
 12440 1305 0E       		.uleb128 0xe
 12441 1306 01       		.uleb128 0x1
 12442 1307 50       		.byte	0x50
 12443 1308 02       		.uleb128 0x2
 12444 1309 74       		.byte	0x74
 12445 130a 00       		.sleb128 0
 12446 130b 00       		.byte	0
 12447 130c 0D       		.uleb128 0xd
 12448 130d DE0D0000 		.4byte	.LVL238
 12449 1311 873B0000 		.4byte	0x3b87
 12450 1315 25130000 		.4byte	0x1325
 12451 1319 0E       		.uleb128 0xe
 12452 131a 01       		.uleb128 0x1
 12453 131b 51       		.byte	0x51
 12454 131c 01       		.uleb128 0x1
 12455 131d 3A       		.byte	0x3a
 12456 131e 0E       		.uleb128 0xe
 12457 131f 01       		.uleb128 0x1
 12458 1320 50       		.byte	0x50
 12459 1321 02       		.uleb128 0x2
 12460 1322 74       		.byte	0x74
 12461 1323 00       		.sleb128 0
 12462 1324 00       		.byte	0
 12463 1325 0D       		.uleb128 0xd
ARM GAS  C:\Users\IN-002~1\AppData\Local\Temp\ccxO8rjh.s 			page 260


 12464 1326 F00D0000 		.4byte	.LVL239
 12465 132a B73B0000 		.4byte	0x3bb7
 12466 132e 3F130000 		.4byte	0x133f
 12467 1332 0E       		.uleb128 0xe
 12468 1333 01       		.uleb128 0x1
 12469 1334 51       		.byte	0x51
 12470 1335 01       		.uleb128 0x1
 12471 1336 49       		.byte	0x49
 12472 1337 0E       		.uleb128 0xe
 12473 1338 01       		.uleb128 0x1
 12474 1339 50       		.byte	0x50
 12475 133a 03       		.uleb128 0x3
 12476 133b 0A       		.byte	0xa
 12477 133c 0001     		.2byte	0x100
 12478 133e 00       		.byte	0
 12479 133f 0D       		.uleb128 0xd
 12480 1340 FC0D0000 		.4byte	.LVL240
 12481 1344 B73B0000 		.4byte	0x3bb7
 12482 1348 59130000 		.4byte	0x1359
 12483 134c 0E       		.uleb128 0xe
 12484 134d 01       		.uleb128 0x1
 12485 134e 51       		.byte	0x51
 12486 134f 01       		.uleb128 0x1
 12487 1350 49       		.byte	0x49
 12488 1351 0E       		.uleb128 0xe
 12489 1352 01       		.uleb128 0x1
 12490 1353 50       		.byte	0x50
 12491 1354 03       		.uleb128 0x3
 12492 1355 0A       		.byte	0xa
 12493 1356 5901     		.2byte	0x159
 12494 1358 00       		.byte	0
 12495 1359 0D       		.uleb128 0xd
 12496 135a 020E0000 		.4byte	.LVL241
 12497 135e D13B0000 		.4byte	0x3bd1
 12498 1362 6D130000 		.4byte	0x136d
 12499 1366 0E       		.uleb128 0xe
 12500 1367 01       		.uleb128 0x1
 12501 1368 50       		.byte	0x50
 12502 1369 02       		.uleb128 0x2
 12503 136a 74       		.byte	0x74
 12504 136b 00       		.sleb128 0
 12505 136c 00       		.byte	0
 12506 136d 0D       		.uleb128 0xd
 12507 136e 440E0000 		.4byte	.LVL242
 12508 1372 E23B0000 		.4byte	0x3be2
 12509 1376 8D130000 		.4byte	0x138d
 12510 137a 0E       		.uleb128 0xe
 12511 137b 01       		.uleb128 0x1
 12512 137c 52       		.byte	0x52
 12513 137d 03       		.uleb128 0x3
 12514 137e 91       		.byte	0x91
 12515 137f B47F     		.sleb128 -76
 12516 1381 0E       		.uleb128 0xe
 12517 1382 01       		.uleb128 0x1
 12518 1383 51       		.byte	0x51
 12519 1384 02       		.uleb128 0x2
 12520 1385 91       		.byte	0x91
ARM GAS  C:\Users\IN-002~1\AppData\Local\Temp\ccxO8rjh.s 			page 261


 12521 1386 44       		.sleb128 -60
 12522 1387 0E       		.uleb128 0xe
 12523 1388 01       		.uleb128 0x1
 12524 1389 50       		.byte	0x50
 12525 138a 01       		.uleb128 0x1
 12526 138b 32       		.byte	0x32
 12527 138c 00       		.byte	0
 12528 138d 0D       		.uleb128 0xd
 12529 138e 8A0E0000 		.4byte	.LVL243
 12530 1392 873B0000 		.4byte	0x3b87
 12531 1396 A1130000 		.4byte	0x13a1
 12532 139a 0E       		.uleb128 0xe
 12533 139b 01       		.uleb128 0x1
 12534 139c 50       		.byte	0x50
 12535 139d 02       		.uleb128 0x2
 12536 139e 74       		.byte	0x74
 12537 139f 00       		.sleb128 0
 12538 13a0 00       		.byte	0
 12539 13a1 0D       		.uleb128 0xd
 12540 13a2 A20E0000 		.4byte	.LVL244
 12541 13a6 FD3B0000 		.4byte	0x3bfd
 12542 13aa BE130000 		.4byte	0x13be
 12543 13ae 0E       		.uleb128 0xe
 12544 13af 01       		.uleb128 0x1
 12545 13b0 51       		.byte	0x51
 12546 13b1 02       		.uleb128 0x2
 12547 13b2 74       		.byte	0x74
 12548 13b3 00       		.sleb128 0
 12549 13b4 0E       		.uleb128 0xe
 12550 13b5 01       		.uleb128 0x1
 12551 13b6 50       		.byte	0x50
 12552 13b7 05       		.uleb128 0x5
 12553 13b8 03       		.byte	0x3
 12554 13b9 00000000 		.4byte	resultado
 12555 13bd 00       		.byte	0
 12556 13be 0D       		.uleb128 0xd
 12557 13bf B40E0000 		.4byte	.LVL245
 12558 13c3 6D3B0000 		.4byte	0x3b6d
 12559 13c7 D9130000 		.4byte	0x13d9
 12560 13cb 0E       		.uleb128 0xe
 12561 13cc 01       		.uleb128 0x1
 12562 13cd 51       		.byte	0x51
 12563 13ce 02       		.uleb128 0x2
 12564 13cf 91       		.byte	0x91
 12565 13d0 54       		.sleb128 -44
 12566 13d1 0E       		.uleb128 0xe
 12567 13d2 01       		.uleb128 0x1
 12568 13d3 50       		.byte	0x50
 12569 13d4 03       		.uleb128 0x3
 12570 13d5 0A       		.byte	0xa
 12571 13d6 0001     		.2byte	0x100
 12572 13d8 00       		.byte	0
 12573 13d9 0D       		.uleb128 0xd
 12574 13da BE0E0000 		.4byte	.LVL246
 12575 13de 6D3B0000 		.4byte	0x3b6d
 12576 13e2 F7130000 		.4byte	0x13f7
 12577 13e6 0E       		.uleb128 0xe
ARM GAS  C:\Users\IN-002~1\AppData\Local\Temp\ccxO8rjh.s 			page 262


 12578 13e7 01       		.uleb128 0x1
 12579 13e8 51       		.byte	0x51
 12580 13e9 05       		.uleb128 0x5
 12581 13ea 03       		.byte	0x3
 12582 13eb 00000000 		.4byte	resultado
 12583 13ef 0E       		.uleb128 0xe
 12584 13f0 01       		.uleb128 0x1
 12585 13f1 50       		.byte	0x50
 12586 13f2 03       		.uleb128 0x3
 12587 13f3 0A       		.byte	0xa
 12588 13f4 0D02     		.2byte	0x20d
 12589 13f6 00       		.byte	0
 12590 13f7 0D       		.uleb128 0xd
 12591 13f8 CA0E0000 		.4byte	.LVL247
 12592 13fc 6D3B0000 		.4byte	0x3b6d
 12593 1400 12140000 		.4byte	0x1412
 12594 1404 0E       		.uleb128 0xe
 12595 1405 01       		.uleb128 0x1
 12596 1406 51       		.byte	0x51
 12597 1407 02       		.uleb128 0x2
 12598 1408 91       		.byte	0x91
 12599 1409 54       		.sleb128 -44
 12600 140a 0E       		.uleb128 0xe
 12601 140b 01       		.uleb128 0x1
 12602 140c 50       		.byte	0x50
 12603 140d 03       		.uleb128 0x3
 12604 140e 0A       		.byte	0xa
 12605 140f 5901     		.2byte	0x159
 12606 1411 00       		.byte	0
 12607 1412 0D       		.uleb128 0xd
 12608 1413 D40E0000 		.4byte	.LVL248
 12609 1417 6D3B0000 		.4byte	0x3b6d
 12610 141b 30140000 		.4byte	0x1430
 12611 141f 0E       		.uleb128 0xe
 12612 1420 01       		.uleb128 0x1
 12613 1421 51       		.byte	0x51
 12614 1422 05       		.uleb128 0x5
 12615 1423 03       		.byte	0x3
 12616 1424 00000000 		.4byte	resultado
 12617 1428 0E       		.uleb128 0xe
 12618 1429 01       		.uleb128 0x1
 12619 142a 50       		.byte	0x50
 12620 142b 03       		.uleb128 0x3
 12621 142c 0A       		.byte	0xa
 12622 142d 4D02     		.2byte	0x24d
 12623 142f 00       		.byte	0
 12624 1430 0D       		.uleb128 0xd
 12625 1431 180F0000 		.4byte	.LVL249
 12626 1435 873B0000 		.4byte	0x3b87
 12627 1439 44140000 		.4byte	0x1444
 12628 143d 0E       		.uleb128 0xe
 12629 143e 01       		.uleb128 0x1
 12630 143f 50       		.byte	0x50
 12631 1440 02       		.uleb128 0x2
 12632 1441 74       		.byte	0x74
 12633 1442 00       		.sleb128 0
 12634 1443 00       		.byte	0
ARM GAS  C:\Users\IN-002~1\AppData\Local\Temp\ccxO8rjh.s 			page 263


 12635 1444 0D       		.uleb128 0xd
 12636 1445 300F0000 		.4byte	.LVL250
 12637 1449 873B0000 		.4byte	0x3b87
 12638 144d 5D140000 		.4byte	0x145d
 12639 1451 0E       		.uleb128 0xe
 12640 1452 01       		.uleb128 0x1
 12641 1453 51       		.byte	0x51
 12642 1454 01       		.uleb128 0x1
 12643 1455 3A       		.byte	0x3a
 12644 1456 0E       		.uleb128 0xe
 12645 1457 01       		.uleb128 0x1
 12646 1458 50       		.byte	0x50
 12647 1459 02       		.uleb128 0x2
 12648 145a 74       		.byte	0x74
 12649 145b 00       		.sleb128 0
 12650 145c 00       		.byte	0
 12651 145d 0D       		.uleb128 0xd
 12652 145e 420F0000 		.4byte	.LVL251
 12653 1462 873B0000 		.4byte	0x3b87
 12654 1466 71140000 		.4byte	0x1471
 12655 146a 0E       		.uleb128 0xe
 12656 146b 01       		.uleb128 0x1
 12657 146c 50       		.byte	0x50
 12658 146d 02       		.uleb128 0x2
 12659 146e 74       		.byte	0x74
 12660 146f 00       		.sleb128 0
 12661 1470 00       		.byte	0
 12662 1471 0D       		.uleb128 0xd
 12663 1472 5A0F0000 		.4byte	.LVL252
 12664 1476 873B0000 		.4byte	0x3b87
 12665 147a 8A140000 		.4byte	0x148a
 12666 147e 0E       		.uleb128 0xe
 12667 147f 01       		.uleb128 0x1
 12668 1480 51       		.byte	0x51
 12669 1481 01       		.uleb128 0x1
 12670 1482 3A       		.byte	0x3a
 12671 1483 0E       		.uleb128 0xe
 12672 1484 01       		.uleb128 0x1
 12673 1485 50       		.byte	0x50
 12674 1486 02       		.uleb128 0x2
 12675 1487 74       		.byte	0x74
 12676 1488 00       		.sleb128 0
 12677 1489 00       		.byte	0
 12678 148a 0D       		.uleb128 0xd
 12679 148b 6E0F0000 		.4byte	.LVL253
 12680 148f 873B0000 		.4byte	0x3b87
 12681 1493 9E140000 		.4byte	0x149e
 12682 1497 0E       		.uleb128 0xe
 12683 1498 01       		.uleb128 0x1
 12684 1499 50       		.byte	0x50
 12685 149a 02       		.uleb128 0x2
 12686 149b 74       		.byte	0x74
 12687 149c 00       		.sleb128 0
 12688 149d 00       		.byte	0
 12689 149e 0D       		.uleb128 0xd
 12690 149f 860F0000 		.4byte	.LVL254
 12691 14a3 873B0000 		.4byte	0x3b87
ARM GAS  C:\Users\IN-002~1\AppData\Local\Temp\ccxO8rjh.s 			page 264


 12692 14a7 B7140000 		.4byte	0x14b7
 12693 14ab 0E       		.uleb128 0xe
 12694 14ac 01       		.uleb128 0x1
 12695 14ad 51       		.byte	0x51
 12696 14ae 01       		.uleb128 0x1
 12697 14af 3A       		.byte	0x3a
 12698 14b0 0E       		.uleb128 0xe
 12699 14b1 01       		.uleb128 0x1
 12700 14b2 50       		.byte	0x50
 12701 14b3 02       		.uleb128 0x2
 12702 14b4 74       		.byte	0x74
 12703 14b5 00       		.sleb128 0
 12704 14b6 00       		.byte	0
 12705 14b7 0D       		.uleb128 0xd
 12706 14b8 8E0F0000 		.4byte	.LVL255
 12707 14bc A13B0000 		.4byte	0x3ba1
 12708 14c0 D0140000 		.4byte	0x14d0
 12709 14c4 0E       		.uleb128 0xe
 12710 14c5 01       		.uleb128 0x1
 12711 14c6 51       		.byte	0x51
 12712 14c7 02       		.uleb128 0x2
 12713 14c8 74       		.byte	0x74
 12714 14c9 00       		.sleb128 0
 12715 14ca 0E       		.uleb128 0xe
 12716 14cb 01       		.uleb128 0x1
 12717 14cc 50       		.byte	0x50
 12718 14cd 01       		.uleb128 0x1
 12719 14ce 38       		.byte	0x38
 12720 14cf 00       		.byte	0
 12721 14d0 0D       		.uleb128 0xd
 12722 14d1 A20F0000 		.4byte	.LVL256
 12723 14d5 873B0000 		.4byte	0x3b87
 12724 14d9 E4140000 		.4byte	0x14e4
 12725 14dd 0E       		.uleb128 0xe
 12726 14de 01       		.uleb128 0x1
 12727 14df 50       		.byte	0x50
 12728 14e0 02       		.uleb128 0x2
 12729 14e1 74       		.byte	0x74
 12730 14e2 00       		.sleb128 0
 12731 14e3 00       		.byte	0
 12732 14e4 0D       		.uleb128 0xd
 12733 14e5 BA0F0000 		.4byte	.LVL257
 12734 14e9 873B0000 		.4byte	0x3b87
 12735 14ed FD140000 		.4byte	0x14fd
 12736 14f1 0E       		.uleb128 0xe
 12737 14f2 01       		.uleb128 0x1
 12738 14f3 51       		.byte	0x51
 12739 14f4 01       		.uleb128 0x1
 12740 14f5 3A       		.byte	0x3a
 12741 14f6 0E       		.uleb128 0xe
 12742 14f7 01       		.uleb128 0x1
 12743 14f8 50       		.byte	0x50
 12744 14f9 02       		.uleb128 0x2
 12745 14fa 74       		.byte	0x74
 12746 14fb 00       		.sleb128 0
 12747 14fc 00       		.byte	0
 12748 14fd 0D       		.uleb128 0xd
ARM GAS  C:\Users\IN-002~1\AppData\Local\Temp\ccxO8rjh.s 			page 265


 12749 14fe CC0F0000 		.4byte	.LVL258
 12750 1502 B73B0000 		.4byte	0x3bb7
 12751 1506 17150000 		.4byte	0x1517
 12752 150a 0E       		.uleb128 0xe
 12753 150b 01       		.uleb128 0x1
 12754 150c 51       		.byte	0x51
 12755 150d 01       		.uleb128 0x1
 12756 150e 49       		.byte	0x49
 12757 150f 0E       		.uleb128 0xe
 12758 1510 01       		.uleb128 0x1
 12759 1511 50       		.byte	0x50
 12760 1512 03       		.uleb128 0x3
 12761 1513 0A       		.byte	0xa
 12762 1514 4804     		.2byte	0x448
 12763 1516 00       		.byte	0
 12764 1517 0D       		.uleb128 0xd
 12765 1518 D80F0000 		.4byte	.LVL259
 12766 151c B73B0000 		.4byte	0x3bb7
 12767 1520 31150000 		.4byte	0x1531
 12768 1524 0E       		.uleb128 0xe
 12769 1525 01       		.uleb128 0x1
 12770 1526 51       		.byte	0x51
 12771 1527 01       		.uleb128 0x1
 12772 1528 49       		.byte	0x49
 12773 1529 0E       		.uleb128 0xe
 12774 152a 01       		.uleb128 0x1
 12775 152b 50       		.byte	0x50
 12776 152c 03       		.uleb128 0x3
 12777 152d 0A       		.byte	0xa
 12778 152e 1E04     		.2byte	0x41e
 12779 1530 00       		.byte	0
 12780 1531 0D       		.uleb128 0xd
 12781 1532 DE0F0000 		.4byte	.LVL260
 12782 1536 D13B0000 		.4byte	0x3bd1
 12783 153a 45150000 		.4byte	0x1545
 12784 153e 0E       		.uleb128 0xe
 12785 153f 01       		.uleb128 0x1
 12786 1540 50       		.byte	0x50
 12787 1541 02       		.uleb128 0x2
 12788 1542 74       		.byte	0x74
 12789 1543 00       		.sleb128 0
 12790 1544 00       		.byte	0
 12791 1545 0D       		.uleb128 0xd
 12792 1546 20100000 		.4byte	.LVL261
 12793 154a E23B0000 		.4byte	0x3be2
 12794 154e 65150000 		.4byte	0x1565
 12795 1552 0E       		.uleb128 0xe
 12796 1553 01       		.uleb128 0x1
 12797 1554 52       		.byte	0x52
 12798 1555 03       		.uleb128 0x3
 12799 1556 91       		.byte	0x91
 12800 1557 B47F     		.sleb128 -76
 12801 1559 0E       		.uleb128 0xe
 12802 155a 01       		.uleb128 0x1
 12803 155b 51       		.byte	0x51
 12804 155c 02       		.uleb128 0x2
 12805 155d 91       		.byte	0x91
ARM GAS  C:\Users\IN-002~1\AppData\Local\Temp\ccxO8rjh.s 			page 266


 12806 155e 44       		.sleb128 -60
 12807 155f 0E       		.uleb128 0xe
 12808 1560 01       		.uleb128 0x1
 12809 1561 50       		.byte	0x50
 12810 1562 01       		.uleb128 0x1
 12811 1563 32       		.byte	0x32
 12812 1564 00       		.byte	0
 12813 1565 0D       		.uleb128 0xd
 12814 1566 36100000 		.4byte	.LVL262
 12815 156a 873B0000 		.4byte	0x3b87
 12816 156e 79150000 		.4byte	0x1579
 12817 1572 0E       		.uleb128 0xe
 12818 1573 01       		.uleb128 0x1
 12819 1574 50       		.byte	0x50
 12820 1575 02       		.uleb128 0x2
 12821 1576 74       		.byte	0x74
 12822 1577 00       		.sleb128 0
 12823 1578 00       		.byte	0
 12824 1579 0D       		.uleb128 0xd
 12825 157a 4E100000 		.4byte	.LVL263
 12826 157e FD3B0000 		.4byte	0x3bfd
 12827 1582 96150000 		.4byte	0x1596
 12828 1586 0E       		.uleb128 0xe
 12829 1587 01       		.uleb128 0x1
 12830 1588 51       		.byte	0x51
 12831 1589 02       		.uleb128 0x2
 12832 158a 74       		.byte	0x74
 12833 158b 00       		.sleb128 0
 12834 158c 0E       		.uleb128 0xe
 12835 158d 01       		.uleb128 0x1
 12836 158e 50       		.byte	0x50
 12837 158f 05       		.uleb128 0x5
 12838 1590 03       		.byte	0x3
 12839 1591 00000000 		.4byte	resultado
 12840 1595 00       		.byte	0
 12841 1596 0D       		.uleb128 0xd
 12842 1597 60100000 		.4byte	.LVL264
 12843 159b 6D3B0000 		.4byte	0x3b6d
 12844 159f B1150000 		.4byte	0x15b1
 12845 15a3 0E       		.uleb128 0xe
 12846 15a4 01       		.uleb128 0x1
 12847 15a5 51       		.byte	0x51
 12848 15a6 02       		.uleb128 0x2
 12849 15a7 91       		.byte	0x91
 12850 15a8 54       		.sleb128 -44
 12851 15a9 0E       		.uleb128 0xe
 12852 15aa 01       		.uleb128 0x1
 12853 15ab 50       		.byte	0x50
 12854 15ac 03       		.uleb128 0x3
 12855 15ad 0A       		.byte	0xa
 12856 15ae 4804     		.2byte	0x448
 12857 15b0 00       		.byte	0
 12858 15b1 0D       		.uleb128 0xd
 12859 15b2 6A100000 		.4byte	.LVL265
 12860 15b6 6D3B0000 		.4byte	0x3b6d
 12861 15ba CF150000 		.4byte	0x15cf
 12862 15be 0E       		.uleb128 0xe
ARM GAS  C:\Users\IN-002~1\AppData\Local\Temp\ccxO8rjh.s 			page 267


 12863 15bf 01       		.uleb128 0x1
 12864 15c0 51       		.byte	0x51
 12865 15c1 05       		.uleb128 0x5
 12866 15c2 03       		.byte	0x3
 12867 15c3 00000000 		.4byte	resultado
 12868 15c7 0E       		.uleb128 0xe
 12869 15c8 01       		.uleb128 0x1
 12870 15c9 50       		.byte	0x50
 12871 15ca 03       		.uleb128 0x3
 12872 15cb 0A       		.byte	0xa
 12873 15cc 0E04     		.2byte	0x40e
 12874 15ce 00       		.byte	0
 12875 15cf 0D       		.uleb128 0xd
 12876 15d0 76100000 		.4byte	.LVL266
 12877 15d4 6D3B0000 		.4byte	0x3b6d
 12878 15d8 EA150000 		.4byte	0x15ea
 12879 15dc 0E       		.uleb128 0xe
 12880 15dd 01       		.uleb128 0x1
 12881 15de 51       		.byte	0x51
 12882 15df 02       		.uleb128 0x2
 12883 15e0 91       		.byte	0x91
 12884 15e1 54       		.sleb128 -44
 12885 15e2 0E       		.uleb128 0xe
 12886 15e3 01       		.uleb128 0x1
 12887 15e4 50       		.byte	0x50
 12888 15e5 03       		.uleb128 0x3
 12889 15e6 0A       		.byte	0xa
 12890 15e7 1E04     		.2byte	0x41e
 12891 15e9 00       		.byte	0
 12892 15ea 0D       		.uleb128 0xd
 12893 15eb 80100000 		.4byte	.LVL267
 12894 15ef 6D3B0000 		.4byte	0x3b6d
 12895 15f3 08160000 		.4byte	0x1608
 12896 15f7 0E       		.uleb128 0xe
 12897 15f8 01       		.uleb128 0x1
 12898 15f9 51       		.byte	0x51
 12899 15fa 05       		.uleb128 0x5
 12900 15fb 03       		.byte	0x3
 12901 15fc 00000000 		.4byte	resultado
 12902 1600 0E       		.uleb128 0xe
 12903 1601 01       		.uleb128 0x1
 12904 1602 50       		.byte	0x50
 12905 1603 03       		.uleb128 0x3
 12906 1604 0A       		.byte	0xa
 12907 1605 3904     		.2byte	0x439
 12908 1607 00       		.byte	0
 12909 1608 0F       		.uleb128 0xf
 12910 1609 96100000 		.4byte	.LVL268
 12911 160d 5B3B0000 		.4byte	0x3b5b
 12912 1611 0D       		.uleb128 0xd
 12913 1612 02120000 		.4byte	.LVL269
 12914 1616 873B0000 		.4byte	0x3b87
 12915 161a 25160000 		.4byte	0x1625
 12916 161e 0E       		.uleb128 0xe
 12917 161f 01       		.uleb128 0x1
 12918 1620 50       		.byte	0x50
 12919 1621 02       		.uleb128 0x2
ARM GAS  C:\Users\IN-002~1\AppData\Local\Temp\ccxO8rjh.s 			page 268


 12920 1622 74       		.byte	0x74
 12921 1623 00       		.sleb128 0
 12922 1624 00       		.byte	0
 12923 1625 0D       		.uleb128 0xd
 12924 1626 1A120000 		.4byte	.LVL270
 12925 162a 873B0000 		.4byte	0x3b87
 12926 162e 3E160000 		.4byte	0x163e
 12927 1632 0E       		.uleb128 0xe
 12928 1633 01       		.uleb128 0x1
 12929 1634 51       		.byte	0x51
 12930 1635 01       		.uleb128 0x1
 12931 1636 3A       		.byte	0x3a
 12932 1637 0E       		.uleb128 0xe
 12933 1638 01       		.uleb128 0x1
 12934 1639 50       		.byte	0x50
 12935 163a 02       		.uleb128 0x2
 12936 163b 74       		.byte	0x74
 12937 163c 00       		.sleb128 0
 12938 163d 00       		.byte	0
 12939 163e 0D       		.uleb128 0xd
 12940 163f 2C120000 		.4byte	.LVL271
 12941 1643 873B0000 		.4byte	0x3b87
 12942 1647 52160000 		.4byte	0x1652
 12943 164b 0E       		.uleb128 0xe
 12944 164c 01       		.uleb128 0x1
 12945 164d 50       		.byte	0x50
 12946 164e 02       		.uleb128 0x2
 12947 164f 74       		.byte	0x74
 12948 1650 00       		.sleb128 0
 12949 1651 00       		.byte	0
 12950 1652 0D       		.uleb128 0xd
 12951 1653 44120000 		.4byte	.LVL272
 12952 1657 873B0000 		.4byte	0x3b87
 12953 165b 6B160000 		.4byte	0x166b
 12954 165f 0E       		.uleb128 0xe
 12955 1660 01       		.uleb128 0x1
 12956 1661 51       		.byte	0x51
 12957 1662 01       		.uleb128 0x1
 12958 1663 3A       		.byte	0x3a
 12959 1664 0E       		.uleb128 0xe
 12960 1665 01       		.uleb128 0x1
 12961 1666 50       		.byte	0x50
 12962 1667 02       		.uleb128 0x2
 12963 1668 74       		.byte	0x74
 12964 1669 00       		.sleb128 0
 12965 166a 00       		.byte	0
 12966 166b 0D       		.uleb128 0xd
 12967 166c 58120000 		.4byte	.LVL273
 12968 1670 873B0000 		.4byte	0x3b87
 12969 1674 7F160000 		.4byte	0x167f
 12970 1678 0E       		.uleb128 0xe
 12971 1679 01       		.uleb128 0x1
 12972 167a 50       		.byte	0x50
 12973 167b 02       		.uleb128 0x2
 12974 167c 74       		.byte	0x74
 12975 167d 00       		.sleb128 0
 12976 167e 00       		.byte	0
ARM GAS  C:\Users\IN-002~1\AppData\Local\Temp\ccxO8rjh.s 			page 269


 12977 167f 0D       		.uleb128 0xd
 12978 1680 70120000 		.4byte	.LVL274
 12979 1684 873B0000 		.4byte	0x3b87
 12980 1688 98160000 		.4byte	0x1698
 12981 168c 0E       		.uleb128 0xe
 12982 168d 01       		.uleb128 0x1
 12983 168e 51       		.byte	0x51
 12984 168f 01       		.uleb128 0x1
 12985 1690 3A       		.byte	0x3a
 12986 1691 0E       		.uleb128 0xe
 12987 1692 01       		.uleb128 0x1
 12988 1693 50       		.byte	0x50
 12989 1694 02       		.uleb128 0x2
 12990 1695 74       		.byte	0x74
 12991 1696 00       		.sleb128 0
 12992 1697 00       		.byte	0
 12993 1698 0D       		.uleb128 0xd
 12994 1699 78120000 		.4byte	.LVL275
 12995 169d A13B0000 		.4byte	0x3ba1
 12996 16a1 B1160000 		.4byte	0x16b1
 12997 16a5 0E       		.uleb128 0xe
 12998 16a6 01       		.uleb128 0x1
 12999 16a7 51       		.byte	0x51
 13000 16a8 02       		.uleb128 0x2
 13001 16a9 74       		.byte	0x74
 13002 16aa 00       		.sleb128 0
 13003 16ab 0E       		.uleb128 0xe
 13004 16ac 01       		.uleb128 0x1
 13005 16ad 50       		.byte	0x50
 13006 16ae 01       		.uleb128 0x1
 13007 16af 38       		.byte	0x38
 13008 16b0 00       		.byte	0
 13009 16b1 0D       		.uleb128 0xd
 13010 16b2 8C120000 		.4byte	.LVL276
 13011 16b6 873B0000 		.4byte	0x3b87
 13012 16ba C5160000 		.4byte	0x16c5
 13013 16be 0E       		.uleb128 0xe
 13014 16bf 01       		.uleb128 0x1
 13015 16c0 50       		.byte	0x50
 13016 16c1 02       		.uleb128 0x2
 13017 16c2 74       		.byte	0x74
 13018 16c3 00       		.sleb128 0
 13019 16c4 00       		.byte	0
 13020 16c5 0D       		.uleb128 0xd
 13021 16c6 A4120000 		.4byte	.LVL277
 13022 16ca 873B0000 		.4byte	0x3b87
 13023 16ce DE160000 		.4byte	0x16de
 13024 16d2 0E       		.uleb128 0xe
 13025 16d3 01       		.uleb128 0x1
 13026 16d4 51       		.byte	0x51
 13027 16d5 01       		.uleb128 0x1
 13028 16d6 3A       		.byte	0x3a
 13029 16d7 0E       		.uleb128 0xe
 13030 16d8 01       		.uleb128 0x1
 13031 16d9 50       		.byte	0x50
 13032 16da 02       		.uleb128 0x2
 13033 16db 74       		.byte	0x74
ARM GAS  C:\Users\IN-002~1\AppData\Local\Temp\ccxO8rjh.s 			page 270


 13034 16dc 00       		.sleb128 0
 13035 16dd 00       		.byte	0
 13036 16de 0D       		.uleb128 0xd
 13037 16df B4120000 		.4byte	.LVL278
 13038 16e3 B73B0000 		.4byte	0x3bb7
 13039 16e7 F7160000 		.4byte	0x16f7
 13040 16eb 0E       		.uleb128 0xe
 13041 16ec 01       		.uleb128 0x1
 13042 16ed 51       		.byte	0x51
 13043 16ee 01       		.uleb128 0x1
 13044 16ef 49       		.byte	0x49
 13045 16f0 0E       		.uleb128 0xe
 13046 16f1 01       		.uleb128 0x1
 13047 16f2 50       		.byte	0x50
 13048 16f3 02       		.uleb128 0x2
 13049 16f4 08       		.byte	0x8
 13050 16f5 C0       		.byte	0xc0
 13051 16f6 00       		.byte	0
 13052 16f7 0D       		.uleb128 0xd
 13053 16f8 C0120000 		.4byte	.LVL279
 13054 16fc B73B0000 		.4byte	0x3bb7
 13055 1700 11170000 		.4byte	0x1711
 13056 1704 0E       		.uleb128 0xe
 13057 1705 01       		.uleb128 0x1
 13058 1706 51       		.byte	0x51
 13059 1707 01       		.uleb128 0x1
 13060 1708 49       		.byte	0x49
 13061 1709 0E       		.uleb128 0xe
 13062 170a 01       		.uleb128 0x1
 13063 170b 50       		.byte	0x50
 13064 170c 03       		.uleb128 0x3
 13065 170d 0A       		.byte	0xa
 13066 170e 1901     		.2byte	0x119
 13067 1710 00       		.byte	0
 13068 1711 0D       		.uleb128 0xd
 13069 1712 C6120000 		.4byte	.LVL280
 13070 1716 D13B0000 		.4byte	0x3bd1
 13071 171a 25170000 		.4byte	0x1725
 13072 171e 0E       		.uleb128 0xe
 13073 171f 01       		.uleb128 0x1
 13074 1720 50       		.byte	0x50
 13075 1721 02       		.uleb128 0x2
 13076 1722 74       		.byte	0x74
 13077 1723 00       		.sleb128 0
 13078 1724 00       		.byte	0
 13079 1725 0D       		.uleb128 0xd
 13080 1726 08130000 		.4byte	.LVL281
 13081 172a E23B0000 		.4byte	0x3be2
 13082 172e 45170000 		.4byte	0x1745
 13083 1732 0E       		.uleb128 0xe
 13084 1733 01       		.uleb128 0x1
 13085 1734 52       		.byte	0x52
 13086 1735 03       		.uleb128 0x3
 13087 1736 91       		.byte	0x91
 13088 1737 B47F     		.sleb128 -76
 13089 1739 0E       		.uleb128 0xe
 13090 173a 01       		.uleb128 0x1
ARM GAS  C:\Users\IN-002~1\AppData\Local\Temp\ccxO8rjh.s 			page 271


 13091 173b 51       		.byte	0x51
 13092 173c 02       		.uleb128 0x2
 13093 173d 91       		.byte	0x91
 13094 173e 44       		.sleb128 -60
 13095 173f 0E       		.uleb128 0xe
 13096 1740 01       		.uleb128 0x1
 13097 1741 50       		.byte	0x50
 13098 1742 01       		.uleb128 0x1
 13099 1743 32       		.byte	0x32
 13100 1744 00       		.byte	0
 13101 1745 0D       		.uleb128 0xd
 13102 1746 1E130000 		.4byte	.LVL282
 13103 174a 873B0000 		.4byte	0x3b87
 13104 174e 59170000 		.4byte	0x1759
 13105 1752 0E       		.uleb128 0xe
 13106 1753 01       		.uleb128 0x1
 13107 1754 50       		.byte	0x50
 13108 1755 02       		.uleb128 0x2
 13109 1756 74       		.byte	0x74
 13110 1757 00       		.sleb128 0
 13111 1758 00       		.byte	0
 13112 1759 0D       		.uleb128 0xd
 13113 175a 36130000 		.4byte	.LVL283
 13114 175e FD3B0000 		.4byte	0x3bfd
 13115 1762 76170000 		.4byte	0x1776
 13116 1766 0E       		.uleb128 0xe
 13117 1767 01       		.uleb128 0x1
 13118 1768 51       		.byte	0x51
 13119 1769 02       		.uleb128 0x2
 13120 176a 74       		.byte	0x74
 13121 176b 00       		.sleb128 0
 13122 176c 0E       		.uleb128 0xe
 13123 176d 01       		.uleb128 0x1
 13124 176e 50       		.byte	0x50
 13125 176f 05       		.uleb128 0x5
 13126 1770 03       		.byte	0x3
 13127 1771 00000000 		.4byte	resultado
 13128 1775 00       		.byte	0
 13129 1776 0D       		.uleb128 0xd
 13130 1777 46130000 		.4byte	.LVL284
 13131 177b 6D3B0000 		.4byte	0x3b6d
 13132 177f 90170000 		.4byte	0x1790
 13133 1783 0E       		.uleb128 0xe
 13134 1784 01       		.uleb128 0x1
 13135 1785 51       		.byte	0x51
 13136 1786 02       		.uleb128 0x2
 13137 1787 91       		.byte	0x91
 13138 1788 54       		.sleb128 -44
 13139 1789 0E       		.uleb128 0xe
 13140 178a 01       		.uleb128 0x1
 13141 178b 50       		.byte	0x50
 13142 178c 02       		.uleb128 0x2
 13143 178d 08       		.byte	0x8
 13144 178e C0       		.byte	0xc0
 13145 178f 00       		.byte	0
 13146 1790 0D       		.uleb128 0xd
 13147 1791 50130000 		.4byte	.LVL285
ARM GAS  C:\Users\IN-002~1\AppData\Local\Temp\ccxO8rjh.s 			page 272


 13148 1795 6D3B0000 		.4byte	0x3b6d
 13149 1799 AE170000 		.4byte	0x17ae
 13150 179d 0E       		.uleb128 0xe
 13151 179e 01       		.uleb128 0x1
 13152 179f 51       		.byte	0x51
 13153 17a0 05       		.uleb128 0x5
 13154 17a1 03       		.byte	0x3
 13155 17a2 00000000 		.4byte	resultado
 13156 17a6 0E       		.uleb128 0xe
 13157 17a7 01       		.uleb128 0x1
 13158 17a8 50       		.byte	0x50
 13159 17a9 03       		.uleb128 0x3
 13160 17aa 0A       		.byte	0xa
 13161 17ab 0002     		.2byte	0x200
 13162 17ad 00       		.byte	0
 13163 17ae 0D       		.uleb128 0xd
 13164 17af 5C130000 		.4byte	.LVL286
 13165 17b3 6D3B0000 		.4byte	0x3b6d
 13166 17b7 C9170000 		.4byte	0x17c9
 13167 17bb 0E       		.uleb128 0xe
 13168 17bc 01       		.uleb128 0x1
 13169 17bd 51       		.byte	0x51
 13170 17be 02       		.uleb128 0x2
 13171 17bf 91       		.byte	0x91
 13172 17c0 54       		.sleb128 -44
 13173 17c1 0E       		.uleb128 0xe
 13174 17c2 01       		.uleb128 0x1
 13175 17c3 50       		.byte	0x50
 13176 17c4 03       		.uleb128 0x3
 13177 17c5 0A       		.byte	0xa
 13178 17c6 1901     		.2byte	0x119
 13179 17c8 00       		.byte	0
 13180 17c9 0D       		.uleb128 0xd
 13181 17ca 66130000 		.4byte	.LVL287
 13182 17ce 6D3B0000 		.4byte	0x3b6d
 13183 17d2 E7170000 		.4byte	0x17e7
 13184 17d6 0E       		.uleb128 0xe
 13185 17d7 01       		.uleb128 0x1
 13186 17d8 51       		.byte	0x51
 13187 17d9 05       		.uleb128 0x5
 13188 17da 03       		.byte	0x3
 13189 17db 00000000 		.4byte	resultado
 13190 17df 0E       		.uleb128 0xe
 13191 17e0 01       		.uleb128 0x1
 13192 17e1 50       		.byte	0x50
 13193 17e2 03       		.uleb128 0x3
 13194 17e3 0A       		.byte	0xa
 13195 17e4 2702     		.2byte	0x227
 13196 17e6 00       		.byte	0
 13197 17e7 0D       		.uleb128 0xd
 13198 17e8 AA130000 		.4byte	.LVL288
 13199 17ec 873B0000 		.4byte	0x3b87
 13200 17f0 FB170000 		.4byte	0x17fb
 13201 17f4 0E       		.uleb128 0xe
 13202 17f5 01       		.uleb128 0x1
 13203 17f6 50       		.byte	0x50
 13204 17f7 02       		.uleb128 0x2
ARM GAS  C:\Users\IN-002~1\AppData\Local\Temp\ccxO8rjh.s 			page 273


 13205 17f8 74       		.byte	0x74
 13206 17f9 00       		.sleb128 0
 13207 17fa 00       		.byte	0
 13208 17fb 0D       		.uleb128 0xd
 13209 17fc C2130000 		.4byte	.LVL289
 13210 1800 873B0000 		.4byte	0x3b87
 13211 1804 14180000 		.4byte	0x1814
 13212 1808 0E       		.uleb128 0xe
 13213 1809 01       		.uleb128 0x1
 13214 180a 51       		.byte	0x51
 13215 180b 01       		.uleb128 0x1
 13216 180c 3A       		.byte	0x3a
 13217 180d 0E       		.uleb128 0xe
 13218 180e 01       		.uleb128 0x1
 13219 180f 50       		.byte	0x50
 13220 1810 02       		.uleb128 0x2
 13221 1811 74       		.byte	0x74
 13222 1812 00       		.sleb128 0
 13223 1813 00       		.byte	0
 13224 1814 0D       		.uleb128 0xd
 13225 1815 D4130000 		.4byte	.LVL290
 13226 1819 873B0000 		.4byte	0x3b87
 13227 181d 28180000 		.4byte	0x1828
 13228 1821 0E       		.uleb128 0xe
 13229 1822 01       		.uleb128 0x1
 13230 1823 50       		.byte	0x50
 13231 1824 02       		.uleb128 0x2
 13232 1825 74       		.byte	0x74
 13233 1826 00       		.sleb128 0
 13234 1827 00       		.byte	0
 13235 1828 0D       		.uleb128 0xd
 13236 1829 EC130000 		.4byte	.LVL291
 13237 182d 873B0000 		.4byte	0x3b87
 13238 1831 41180000 		.4byte	0x1841
 13239 1835 0E       		.uleb128 0xe
 13240 1836 01       		.uleb128 0x1
 13241 1837 51       		.byte	0x51
 13242 1838 01       		.uleb128 0x1
 13243 1839 3A       		.byte	0x3a
 13244 183a 0E       		.uleb128 0xe
 13245 183b 01       		.uleb128 0x1
 13246 183c 50       		.byte	0x50
 13247 183d 02       		.uleb128 0x2
 13248 183e 74       		.byte	0x74
 13249 183f 00       		.sleb128 0
 13250 1840 00       		.byte	0
 13251 1841 0D       		.uleb128 0xd
 13252 1842 40140000 		.4byte	.LVL292
 13253 1846 873B0000 		.4byte	0x3b87
 13254 184a 55180000 		.4byte	0x1855
 13255 184e 0E       		.uleb128 0xe
 13256 184f 01       		.uleb128 0x1
 13257 1850 50       		.byte	0x50
 13258 1851 02       		.uleb128 0x2
 13259 1852 74       		.byte	0x74
 13260 1853 00       		.sleb128 0
 13261 1854 00       		.byte	0
ARM GAS  C:\Users\IN-002~1\AppData\Local\Temp\ccxO8rjh.s 			page 274


 13262 1855 0D       		.uleb128 0xd
 13263 1856 58140000 		.4byte	.LVL293
 13264 185a 873B0000 		.4byte	0x3b87
 13265 185e 6E180000 		.4byte	0x186e
 13266 1862 0E       		.uleb128 0xe
 13267 1863 01       		.uleb128 0x1
 13268 1864 51       		.byte	0x51
 13269 1865 01       		.uleb128 0x1
 13270 1866 3A       		.byte	0x3a
 13271 1867 0E       		.uleb128 0xe
 13272 1868 01       		.uleb128 0x1
 13273 1869 50       		.byte	0x50
 13274 186a 02       		.uleb128 0x2
 13275 186b 74       		.byte	0x74
 13276 186c 00       		.sleb128 0
 13277 186d 00       		.byte	0
 13278 186e 0D       		.uleb128 0xd
 13279 186f 60140000 		.4byte	.LVL294
 13280 1873 A13B0000 		.4byte	0x3ba1
 13281 1877 87180000 		.4byte	0x1887
 13282 187b 0E       		.uleb128 0xe
 13283 187c 01       		.uleb128 0x1
 13284 187d 51       		.byte	0x51
 13285 187e 02       		.uleb128 0x2
 13286 187f 74       		.byte	0x74
 13287 1880 00       		.sleb128 0
 13288 1881 0E       		.uleb128 0xe
 13289 1882 01       		.uleb128 0x1
 13290 1883 50       		.byte	0x50
 13291 1884 01       		.uleb128 0x1
 13292 1885 38       		.byte	0x38
 13293 1886 00       		.byte	0
 13294 1887 0D       		.uleb128 0xd
 13295 1888 74140000 		.4byte	.LVL295
 13296 188c 873B0000 		.4byte	0x3b87
 13297 1890 9B180000 		.4byte	0x189b
 13298 1894 0E       		.uleb128 0xe
 13299 1895 01       		.uleb128 0x1
 13300 1896 50       		.byte	0x50
 13301 1897 02       		.uleb128 0x2
 13302 1898 74       		.byte	0x74
 13303 1899 00       		.sleb128 0
 13304 189a 00       		.byte	0
 13305 189b 0D       		.uleb128 0xd
 13306 189c 8C140000 		.4byte	.LVL296
 13307 18a0 873B0000 		.4byte	0x3b87
 13308 18a4 B4180000 		.4byte	0x18b4
 13309 18a8 0E       		.uleb128 0xe
 13310 18a9 01       		.uleb128 0x1
 13311 18aa 51       		.byte	0x51
 13312 18ab 01       		.uleb128 0x1
 13313 18ac 3A       		.byte	0x3a
 13314 18ad 0E       		.uleb128 0xe
 13315 18ae 01       		.uleb128 0x1
 13316 18af 50       		.byte	0x50
 13317 18b0 02       		.uleb128 0x2
 13318 18b1 74       		.byte	0x74
ARM GAS  C:\Users\IN-002~1\AppData\Local\Temp\ccxO8rjh.s 			page 275


 13319 18b2 00       		.sleb128 0
 13320 18b3 00       		.byte	0
 13321 18b4 0D       		.uleb128 0xd
 13322 18b5 9C140000 		.4byte	.LVL297
 13323 18b9 B73B0000 		.4byte	0x3bb7
 13324 18bd CD180000 		.4byte	0x18cd
 13325 18c1 0E       		.uleb128 0xe
 13326 18c2 01       		.uleb128 0x1
 13327 18c3 51       		.byte	0x51
 13328 18c4 01       		.uleb128 0x1
 13329 18c5 49       		.byte	0x49
 13330 18c6 0E       		.uleb128 0xe
 13331 18c7 01       		.uleb128 0x1
 13332 18c8 50       		.byte	0x50
 13333 18c9 02       		.uleb128 0x2
 13334 18ca 08       		.byte	0x8
 13335 18cb D9       		.byte	0xd9
 13336 18cc 00       		.byte	0
 13337 18cd 0D       		.uleb128 0xd
 13338 18ce A8140000 		.4byte	.LVL298
 13339 18d2 B73B0000 		.4byte	0x3bb7
 13340 18d6 E7180000 		.4byte	0x18e7
 13341 18da 0E       		.uleb128 0xe
 13342 18db 01       		.uleb128 0x1
 13343 18dc 51       		.byte	0x51
 13344 18dd 01       		.uleb128 0x1
 13345 18de 49       		.byte	0x49
 13346 18df 0E       		.uleb128 0xe
 13347 18e0 01       		.uleb128 0x1
 13348 18e1 50       		.byte	0x50
 13349 18e2 03       		.uleb128 0x3
 13350 18e3 0A       		.byte	0xa
 13351 18e4 4001     		.2byte	0x140
 13352 18e6 00       		.byte	0
 13353 18e7 0D       		.uleb128 0xd
 13354 18e8 AE140000 		.4byte	.LVL299
 13355 18ec D13B0000 		.4byte	0x3bd1
 13356 18f0 FB180000 		.4byte	0x18fb
 13357 18f4 0E       		.uleb128 0xe
 13358 18f5 01       		.uleb128 0x1
 13359 18f6 50       		.byte	0x50
 13360 18f7 02       		.uleb128 0x2
 13361 18f8 74       		.byte	0x74
 13362 18f9 00       		.sleb128 0
 13363 18fa 00       		.byte	0
 13364 18fb 0D       		.uleb128 0xd
 13365 18fc F0140000 		.4byte	.LVL300
 13366 1900 E23B0000 		.4byte	0x3be2
 13367 1904 1B190000 		.4byte	0x191b
 13368 1908 0E       		.uleb128 0xe
 13369 1909 01       		.uleb128 0x1
 13370 190a 52       		.byte	0x52
 13371 190b 03       		.uleb128 0x3
 13372 190c 91       		.byte	0x91
 13373 190d B47F     		.sleb128 -76
 13374 190f 0E       		.uleb128 0xe
 13375 1910 01       		.uleb128 0x1
ARM GAS  C:\Users\IN-002~1\AppData\Local\Temp\ccxO8rjh.s 			page 276


 13376 1911 51       		.byte	0x51
 13377 1912 02       		.uleb128 0x2
 13378 1913 91       		.byte	0x91
 13379 1914 44       		.sleb128 -60
 13380 1915 0E       		.uleb128 0xe
 13381 1916 01       		.uleb128 0x1
 13382 1917 50       		.byte	0x50
 13383 1918 01       		.uleb128 0x1
 13384 1919 32       		.byte	0x32
 13385 191a 00       		.byte	0
 13386 191b 0D       		.uleb128 0xd
 13387 191c 06150000 		.4byte	.LVL301
 13388 1920 873B0000 		.4byte	0x3b87
 13389 1924 2F190000 		.4byte	0x192f
 13390 1928 0E       		.uleb128 0xe
 13391 1929 01       		.uleb128 0x1
 13392 192a 50       		.byte	0x50
 13393 192b 02       		.uleb128 0x2
 13394 192c 74       		.byte	0x74
 13395 192d 00       		.sleb128 0
 13396 192e 00       		.byte	0
 13397 192f 0D       		.uleb128 0xd
 13398 1930 1E150000 		.4byte	.LVL302
 13399 1934 FD3B0000 		.4byte	0x3bfd
 13400 1938 4C190000 		.4byte	0x194c
 13401 193c 0E       		.uleb128 0xe
 13402 193d 01       		.uleb128 0x1
 13403 193e 51       		.byte	0x51
 13404 193f 02       		.uleb128 0x2
 13405 1940 74       		.byte	0x74
 13406 1941 00       		.sleb128 0
 13407 1942 0E       		.uleb128 0xe
 13408 1943 01       		.uleb128 0x1
 13409 1944 50       		.byte	0x50
 13410 1945 05       		.uleb128 0x5
 13411 1946 03       		.byte	0x3
 13412 1947 00000000 		.4byte	resultado
 13413 194b 00       		.byte	0
 13414 194c 0D       		.uleb128 0xd
 13415 194d 2E150000 		.4byte	.LVL303
 13416 1951 6D3B0000 		.4byte	0x3b6d
 13417 1955 66190000 		.4byte	0x1966
 13418 1959 0E       		.uleb128 0xe
 13419 195a 01       		.uleb128 0x1
 13420 195b 51       		.byte	0x51
 13421 195c 02       		.uleb128 0x2
 13422 195d 91       		.byte	0x91
 13423 195e 54       		.sleb128 -44
 13424 195f 0E       		.uleb128 0xe
 13425 1960 01       		.uleb128 0x1
 13426 1961 50       		.byte	0x50
 13427 1962 02       		.uleb128 0x2
 13428 1963 08       		.byte	0x8
 13429 1964 D9       		.byte	0xd9
 13430 1965 00       		.byte	0
 13431 1966 0D       		.uleb128 0xd
 13432 1967 38150000 		.4byte	.LVL304
ARM GAS  C:\Users\IN-002~1\AppData\Local\Temp\ccxO8rjh.s 			page 277


 13433 196b 6D3B0000 		.4byte	0x3b6d
 13434 196f 84190000 		.4byte	0x1984
 13435 1973 0E       		.uleb128 0xe
 13436 1974 01       		.uleb128 0x1
 13437 1975 51       		.byte	0x51
 13438 1976 05       		.uleb128 0x5
 13439 1977 03       		.byte	0x3
 13440 1978 00000000 		.4byte	resultado
 13441 197c 0E       		.uleb128 0xe
 13442 197d 01       		.uleb128 0x1
 13443 197e 50       		.byte	0x50
 13444 197f 03       		.uleb128 0x3
 13445 1980 0A       		.byte	0xa
 13446 1981 1A02     		.2byte	0x21a
 13447 1983 00       		.byte	0
 13448 1984 0D       		.uleb128 0xd
 13449 1985 44150000 		.4byte	.LVL305
 13450 1989 6D3B0000 		.4byte	0x3b6d
 13451 198d 9F190000 		.4byte	0x199f
 13452 1991 0E       		.uleb128 0xe
 13453 1992 01       		.uleb128 0x1
 13454 1993 51       		.byte	0x51
 13455 1994 02       		.uleb128 0x2
 13456 1995 91       		.byte	0x91
 13457 1996 54       		.sleb128 -44
 13458 1997 0E       		.uleb128 0xe
 13459 1998 01       		.uleb128 0x1
 13460 1999 50       		.byte	0x50
 13461 199a 03       		.uleb128 0x3
 13462 199b 0A       		.byte	0xa
 13463 199c 4001     		.2byte	0x140
 13464 199e 00       		.byte	0
 13465 199f 0D       		.uleb128 0xd
 13466 19a0 4E150000 		.4byte	.LVL306
 13467 19a4 6D3B0000 		.4byte	0x3b6d
 13468 19a8 BD190000 		.4byte	0x19bd
 13469 19ac 0E       		.uleb128 0xe
 13470 19ad 01       		.uleb128 0x1
 13471 19ae 51       		.byte	0x51
 13472 19af 05       		.uleb128 0x5
 13473 19b0 03       		.byte	0x3
 13474 19b1 00000000 		.4byte	resultado
 13475 19b5 0E       		.uleb128 0xe
 13476 19b6 01       		.uleb128 0x1
 13477 19b7 50       		.byte	0x50
 13478 19b8 03       		.uleb128 0x3
 13479 19b9 0A       		.byte	0xa
 13480 19ba 4002     		.2byte	0x240
 13481 19bc 00       		.byte	0
 13482 19bd 0D       		.uleb128 0xd
 13483 19be 92150000 		.4byte	.LVL307
 13484 19c2 873B0000 		.4byte	0x3b87
 13485 19c6 D1190000 		.4byte	0x19d1
 13486 19ca 0E       		.uleb128 0xe
 13487 19cb 01       		.uleb128 0x1
 13488 19cc 50       		.byte	0x50
 13489 19cd 02       		.uleb128 0x2
ARM GAS  C:\Users\IN-002~1\AppData\Local\Temp\ccxO8rjh.s 			page 278


 13490 19ce 74       		.byte	0x74
 13491 19cf 00       		.sleb128 0
 13492 19d0 00       		.byte	0
 13493 19d1 0D       		.uleb128 0xd
 13494 19d2 AA150000 		.4byte	.LVL308
 13495 19d6 873B0000 		.4byte	0x3b87
 13496 19da EA190000 		.4byte	0x19ea
 13497 19de 0E       		.uleb128 0xe
 13498 19df 01       		.uleb128 0x1
 13499 19e0 51       		.byte	0x51
 13500 19e1 01       		.uleb128 0x1
 13501 19e2 3A       		.byte	0x3a
 13502 19e3 0E       		.uleb128 0xe
 13503 19e4 01       		.uleb128 0x1
 13504 19e5 50       		.byte	0x50
 13505 19e6 02       		.uleb128 0x2
 13506 19e7 74       		.byte	0x74
 13507 19e8 00       		.sleb128 0
 13508 19e9 00       		.byte	0
 13509 19ea 0D       		.uleb128 0xd
 13510 19eb BC150000 		.4byte	.LVL309
 13511 19ef 873B0000 		.4byte	0x3b87
 13512 19f3 FE190000 		.4byte	0x19fe
 13513 19f7 0E       		.uleb128 0xe
 13514 19f8 01       		.uleb128 0x1
 13515 19f9 50       		.byte	0x50
 13516 19fa 02       		.uleb128 0x2
 13517 19fb 74       		.byte	0x74
 13518 19fc 00       		.sleb128 0
 13519 19fd 00       		.byte	0
 13520 19fe 0D       		.uleb128 0xd
 13521 19ff D4150000 		.4byte	.LVL310
 13522 1a03 873B0000 		.4byte	0x3b87
 13523 1a07 171A0000 		.4byte	0x1a17
 13524 1a0b 0E       		.uleb128 0xe
 13525 1a0c 01       		.uleb128 0x1
 13526 1a0d 51       		.byte	0x51
 13527 1a0e 01       		.uleb128 0x1
 13528 1a0f 3A       		.byte	0x3a
 13529 1a10 0E       		.uleb128 0xe
 13530 1a11 01       		.uleb128 0x1
 13531 1a12 50       		.byte	0x50
 13532 1a13 02       		.uleb128 0x2
 13533 1a14 74       		.byte	0x74
 13534 1a15 00       		.sleb128 0
 13535 1a16 00       		.byte	0
 13536 1a17 0D       		.uleb128 0xd
 13537 1a18 E8150000 		.4byte	.LVL311
 13538 1a1c 873B0000 		.4byte	0x3b87
 13539 1a20 2B1A0000 		.4byte	0x1a2b
 13540 1a24 0E       		.uleb128 0xe
 13541 1a25 01       		.uleb128 0x1
 13542 1a26 50       		.byte	0x50
 13543 1a27 02       		.uleb128 0x2
 13544 1a28 74       		.byte	0x74
 13545 1a29 00       		.sleb128 0
 13546 1a2a 00       		.byte	0
ARM GAS  C:\Users\IN-002~1\AppData\Local\Temp\ccxO8rjh.s 			page 279


 13547 1a2b 0D       		.uleb128 0xd
 13548 1a2c 00160000 		.4byte	.LVL312
 13549 1a30 873B0000 		.4byte	0x3b87
 13550 1a34 441A0000 		.4byte	0x1a44
 13551 1a38 0E       		.uleb128 0xe
 13552 1a39 01       		.uleb128 0x1
 13553 1a3a 51       		.byte	0x51
 13554 1a3b 01       		.uleb128 0x1
 13555 1a3c 3A       		.byte	0x3a
 13556 1a3d 0E       		.uleb128 0xe
 13557 1a3e 01       		.uleb128 0x1
 13558 1a3f 50       		.byte	0x50
 13559 1a40 02       		.uleb128 0x2
 13560 1a41 74       		.byte	0x74
 13561 1a42 00       		.sleb128 0
 13562 1a43 00       		.byte	0
 13563 1a44 0D       		.uleb128 0xd
 13564 1a45 08160000 		.4byte	.LVL313
 13565 1a49 A13B0000 		.4byte	0x3ba1
 13566 1a4d 5D1A0000 		.4byte	0x1a5d
 13567 1a51 0E       		.uleb128 0xe
 13568 1a52 01       		.uleb128 0x1
 13569 1a53 51       		.byte	0x51
 13570 1a54 02       		.uleb128 0x2
 13571 1a55 74       		.byte	0x74
 13572 1a56 00       		.sleb128 0
 13573 1a57 0E       		.uleb128 0xe
 13574 1a58 01       		.uleb128 0x1
 13575 1a59 50       		.byte	0x50
 13576 1a5a 01       		.uleb128 0x1
 13577 1a5b 38       		.byte	0x38
 13578 1a5c 00       		.byte	0
 13579 1a5d 0D       		.uleb128 0xd
 13580 1a5e 1C160000 		.4byte	.LVL314
 13581 1a62 873B0000 		.4byte	0x3b87
 13582 1a66 711A0000 		.4byte	0x1a71
 13583 1a6a 0E       		.uleb128 0xe
 13584 1a6b 01       		.uleb128 0x1
 13585 1a6c 50       		.byte	0x50
 13586 1a6d 02       		.uleb128 0x2
 13587 1a6e 74       		.byte	0x74
 13588 1a6f 00       		.sleb128 0
 13589 1a70 00       		.byte	0
 13590 1a71 0D       		.uleb128 0xd
 13591 1a72 34160000 		.4byte	.LVL315
 13592 1a76 873B0000 		.4byte	0x3b87
 13593 1a7a 8A1A0000 		.4byte	0x1a8a
 13594 1a7e 0E       		.uleb128 0xe
 13595 1a7f 01       		.uleb128 0x1
 13596 1a80 51       		.byte	0x51
 13597 1a81 01       		.uleb128 0x1
 13598 1a82 3A       		.byte	0x3a
 13599 1a83 0E       		.uleb128 0xe
 13600 1a84 01       		.uleb128 0x1
 13601 1a85 50       		.byte	0x50
 13602 1a86 02       		.uleb128 0x2
 13603 1a87 74       		.byte	0x74
ARM GAS  C:\Users\IN-002~1\AppData\Local\Temp\ccxO8rjh.s 			page 280


 13604 1a88 00       		.sleb128 0
 13605 1a89 00       		.byte	0
 13606 1a8a 0D       		.uleb128 0xd
 13607 1a8b 46160000 		.4byte	.LVL316
 13608 1a8f B73B0000 		.4byte	0x3bb7
 13609 1a93 A41A0000 		.4byte	0x1aa4
 13610 1a97 0E       		.uleb128 0xe
 13611 1a98 01       		.uleb128 0x1
 13612 1a99 51       		.byte	0x51
 13613 1a9a 01       		.uleb128 0x1
 13614 1a9b 49       		.byte	0x49
 13615 1a9c 0E       		.uleb128 0xe
 13616 1a9d 01       		.uleb128 0x1
 13617 1a9e 50       		.byte	0x50
 13618 1a9f 03       		.uleb128 0x3
 13619 1aa0 0A       		.byte	0xa
 13620 1aa1 0001     		.2byte	0x100
 13621 1aa3 00       		.byte	0
 13622 1aa4 0D       		.uleb128 0xd
 13623 1aa5 52160000 		.4byte	.LVL317
 13624 1aa9 B73B0000 		.4byte	0x3bb7
 13625 1aad BE1A0000 		.4byte	0x1abe
 13626 1ab1 0E       		.uleb128 0xe
 13627 1ab2 01       		.uleb128 0x1
 13628 1ab3 51       		.byte	0x51
 13629 1ab4 01       		.uleb128 0x1
 13630 1ab5 49       		.byte	0x49
 13631 1ab6 0E       		.uleb128 0xe
 13632 1ab7 01       		.uleb128 0x1
 13633 1ab8 50       		.byte	0x50
 13634 1ab9 03       		.uleb128 0x3
 13635 1aba 0A       		.byte	0xa
 13636 1abb 5901     		.2byte	0x159
 13637 1abd 00       		.byte	0
 13638 1abe 0D       		.uleb128 0xd
 13639 1abf 58160000 		.4byte	.LVL318
 13640 1ac3 D13B0000 		.4byte	0x3bd1
 13641 1ac7 D21A0000 		.4byte	0x1ad2
 13642 1acb 0E       		.uleb128 0xe
 13643 1acc 01       		.uleb128 0x1
 13644 1acd 50       		.byte	0x50
 13645 1ace 02       		.uleb128 0x2
 13646 1acf 74       		.byte	0x74
 13647 1ad0 00       		.sleb128 0
 13648 1ad1 00       		.byte	0
 13649 1ad2 0D       		.uleb128 0xd
 13650 1ad3 9A160000 		.4byte	.LVL319
 13651 1ad7 E23B0000 		.4byte	0x3be2
 13652 1adb F21A0000 		.4byte	0x1af2
 13653 1adf 0E       		.uleb128 0xe
 13654 1ae0 01       		.uleb128 0x1
 13655 1ae1 52       		.byte	0x52
 13656 1ae2 03       		.uleb128 0x3
 13657 1ae3 91       		.byte	0x91
 13658 1ae4 B47F     		.sleb128 -76
 13659 1ae6 0E       		.uleb128 0xe
 13660 1ae7 01       		.uleb128 0x1
ARM GAS  C:\Users\IN-002~1\AppData\Local\Temp\ccxO8rjh.s 			page 281


 13661 1ae8 51       		.byte	0x51
 13662 1ae9 02       		.uleb128 0x2
 13663 1aea 91       		.byte	0x91
 13664 1aeb 44       		.sleb128 -60
 13665 1aec 0E       		.uleb128 0xe
 13666 1aed 01       		.uleb128 0x1
 13667 1aee 50       		.byte	0x50
 13668 1aef 01       		.uleb128 0x1
 13669 1af0 32       		.byte	0x32
 13670 1af1 00       		.byte	0
 13671 1af2 0D       		.uleb128 0xd
 13672 1af3 B0160000 		.4byte	.LVL320
 13673 1af7 873B0000 		.4byte	0x3b87
 13674 1afb 061B0000 		.4byte	0x1b06
 13675 1aff 0E       		.uleb128 0xe
 13676 1b00 01       		.uleb128 0x1
 13677 1b01 50       		.byte	0x50
 13678 1b02 02       		.uleb128 0x2
 13679 1b03 74       		.byte	0x74
 13680 1b04 00       		.sleb128 0
 13681 1b05 00       		.byte	0
 13682 1b06 0D       		.uleb128 0xd
 13683 1b07 C8160000 		.4byte	.LVL321
 13684 1b0b FD3B0000 		.4byte	0x3bfd
 13685 1b0f 231B0000 		.4byte	0x1b23
 13686 1b13 0E       		.uleb128 0xe
 13687 1b14 01       		.uleb128 0x1
 13688 1b15 51       		.byte	0x51
 13689 1b16 02       		.uleb128 0x2
 13690 1b17 74       		.byte	0x74
 13691 1b18 00       		.sleb128 0
 13692 1b19 0E       		.uleb128 0xe
 13693 1b1a 01       		.uleb128 0x1
 13694 1b1b 50       		.byte	0x50
 13695 1b1c 05       		.uleb128 0x5
 13696 1b1d 03       		.byte	0x3
 13697 1b1e 00000000 		.4byte	resultado
 13698 1b22 00       		.byte	0
 13699 1b23 0D       		.uleb128 0xd
 13700 1b24 DA160000 		.4byte	.LVL322
 13701 1b28 6D3B0000 		.4byte	0x3b6d
 13702 1b2c 3E1B0000 		.4byte	0x1b3e
 13703 1b30 0E       		.uleb128 0xe
 13704 1b31 01       		.uleb128 0x1
 13705 1b32 51       		.byte	0x51
 13706 1b33 02       		.uleb128 0x2
 13707 1b34 91       		.byte	0x91
 13708 1b35 54       		.sleb128 -44
 13709 1b36 0E       		.uleb128 0xe
 13710 1b37 01       		.uleb128 0x1
 13711 1b38 50       		.byte	0x50
 13712 1b39 03       		.uleb128 0x3
 13713 1b3a 0A       		.byte	0xa
 13714 1b3b 0001     		.2byte	0x100
 13715 1b3d 00       		.byte	0
 13716 1b3e 0D       		.uleb128 0xd
 13717 1b3f E4160000 		.4byte	.LVL323
ARM GAS  C:\Users\IN-002~1\AppData\Local\Temp\ccxO8rjh.s 			page 282


 13718 1b43 6D3B0000 		.4byte	0x3b6d
 13719 1b47 5C1B0000 		.4byte	0x1b5c
 13720 1b4b 0E       		.uleb128 0xe
 13721 1b4c 01       		.uleb128 0x1
 13722 1b4d 51       		.byte	0x51
 13723 1b4e 05       		.uleb128 0x5
 13724 1b4f 03       		.byte	0x3
 13725 1b50 00000000 		.4byte	resultado
 13726 1b54 0E       		.uleb128 0xe
 13727 1b55 01       		.uleb128 0x1
 13728 1b56 50       		.byte	0x50
 13729 1b57 03       		.uleb128 0x3
 13730 1b58 0A       		.byte	0xa
 13731 1b59 0D02     		.2byte	0x20d
 13732 1b5b 00       		.byte	0
 13733 1b5c 0D       		.uleb128 0xd
 13734 1b5d 1E170000 		.4byte	.LVL324
 13735 1b61 6D3B0000 		.4byte	0x3b6d
 13736 1b65 771B0000 		.4byte	0x1b77
 13737 1b69 0E       		.uleb128 0xe
 13738 1b6a 01       		.uleb128 0x1
 13739 1b6b 51       		.byte	0x51
 13740 1b6c 02       		.uleb128 0x2
 13741 1b6d 91       		.byte	0x91
 13742 1b6e 54       		.sleb128 -44
 13743 1b6f 0E       		.uleb128 0xe
 13744 1b70 01       		.uleb128 0x1
 13745 1b71 50       		.byte	0x50
 13746 1b72 03       		.uleb128 0x3
 13747 1b73 0A       		.byte	0xa
 13748 1b74 5901     		.2byte	0x159
 13749 1b76 00       		.byte	0
 13750 1b77 0D       		.uleb128 0xd
 13751 1b78 28170000 		.4byte	.LVL325
 13752 1b7c 6D3B0000 		.4byte	0x3b6d
 13753 1b80 951B0000 		.4byte	0x1b95
 13754 1b84 0E       		.uleb128 0xe
 13755 1b85 01       		.uleb128 0x1
 13756 1b86 51       		.byte	0x51
 13757 1b87 05       		.uleb128 0x5
 13758 1b88 03       		.byte	0x3
 13759 1b89 00000000 		.4byte	resultado
 13760 1b8d 0E       		.uleb128 0xe
 13761 1b8e 01       		.uleb128 0x1
 13762 1b8f 50       		.byte	0x50
 13763 1b90 03       		.uleb128 0x3
 13764 1b91 0A       		.byte	0xa
 13765 1b92 4D02     		.2byte	0x24d
 13766 1b94 00       		.byte	0
 13767 1b95 0D       		.uleb128 0xd
 13768 1b96 6C170000 		.4byte	.LVL326
 13769 1b9a 873B0000 		.4byte	0x3b87
 13770 1b9e A91B0000 		.4byte	0x1ba9
 13771 1ba2 0E       		.uleb128 0xe
 13772 1ba3 01       		.uleb128 0x1
 13773 1ba4 50       		.byte	0x50
 13774 1ba5 02       		.uleb128 0x2
ARM GAS  C:\Users\IN-002~1\AppData\Local\Temp\ccxO8rjh.s 			page 283


 13775 1ba6 74       		.byte	0x74
 13776 1ba7 00       		.sleb128 0
 13777 1ba8 00       		.byte	0
 13778 1ba9 0D       		.uleb128 0xd
 13779 1baa 84170000 		.4byte	.LVL327
 13780 1bae 873B0000 		.4byte	0x3b87
 13781 1bb2 C21B0000 		.4byte	0x1bc2
 13782 1bb6 0E       		.uleb128 0xe
 13783 1bb7 01       		.uleb128 0x1
 13784 1bb8 51       		.byte	0x51
 13785 1bb9 01       		.uleb128 0x1
 13786 1bba 3A       		.byte	0x3a
 13787 1bbb 0E       		.uleb128 0xe
 13788 1bbc 01       		.uleb128 0x1
 13789 1bbd 50       		.byte	0x50
 13790 1bbe 02       		.uleb128 0x2
 13791 1bbf 74       		.byte	0x74
 13792 1bc0 00       		.sleb128 0
 13793 1bc1 00       		.byte	0
 13794 1bc2 0D       		.uleb128 0xd
 13795 1bc3 96170000 		.4byte	.LVL328
 13796 1bc7 873B0000 		.4byte	0x3b87
 13797 1bcb D61B0000 		.4byte	0x1bd6
 13798 1bcf 0E       		.uleb128 0xe
 13799 1bd0 01       		.uleb128 0x1
 13800 1bd1 50       		.byte	0x50
 13801 1bd2 02       		.uleb128 0x2
 13802 1bd3 74       		.byte	0x74
 13803 1bd4 00       		.sleb128 0
 13804 1bd5 00       		.byte	0
 13805 1bd6 0D       		.uleb128 0xd
 13806 1bd7 AE170000 		.4byte	.LVL329
 13807 1bdb 873B0000 		.4byte	0x3b87
 13808 1bdf EF1B0000 		.4byte	0x1bef
 13809 1be3 0E       		.uleb128 0xe
 13810 1be4 01       		.uleb128 0x1
 13811 1be5 51       		.byte	0x51
 13812 1be6 01       		.uleb128 0x1
 13813 1be7 3A       		.byte	0x3a
 13814 1be8 0E       		.uleb128 0xe
 13815 1be9 01       		.uleb128 0x1
 13816 1bea 50       		.byte	0x50
 13817 1beb 02       		.uleb128 0x2
 13818 1bec 74       		.byte	0x74
 13819 1bed 00       		.sleb128 0
 13820 1bee 00       		.byte	0
 13821 1bef 0D       		.uleb128 0xd
 13822 1bf0 C2170000 		.4byte	.LVL330
 13823 1bf4 873B0000 		.4byte	0x3b87
 13824 1bf8 031C0000 		.4byte	0x1c03
 13825 1bfc 0E       		.uleb128 0xe
 13826 1bfd 01       		.uleb128 0x1
 13827 1bfe 50       		.byte	0x50
 13828 1bff 02       		.uleb128 0x2
 13829 1c00 74       		.byte	0x74
 13830 1c01 00       		.sleb128 0
 13831 1c02 00       		.byte	0
ARM GAS  C:\Users\IN-002~1\AppData\Local\Temp\ccxO8rjh.s 			page 284


 13832 1c03 0D       		.uleb128 0xd
 13833 1c04 DA170000 		.4byte	.LVL331
 13834 1c08 873B0000 		.4byte	0x3b87
 13835 1c0c 1C1C0000 		.4byte	0x1c1c
 13836 1c10 0E       		.uleb128 0xe
 13837 1c11 01       		.uleb128 0x1
 13838 1c12 51       		.byte	0x51
 13839 1c13 01       		.uleb128 0x1
 13840 1c14 3A       		.byte	0x3a
 13841 1c15 0E       		.uleb128 0xe
 13842 1c16 01       		.uleb128 0x1
 13843 1c17 50       		.byte	0x50
 13844 1c18 02       		.uleb128 0x2
 13845 1c19 74       		.byte	0x74
 13846 1c1a 00       		.sleb128 0
 13847 1c1b 00       		.byte	0
 13848 1c1c 0D       		.uleb128 0xd
 13849 1c1d E2170000 		.4byte	.LVL332
 13850 1c21 A13B0000 		.4byte	0x3ba1
 13851 1c25 351C0000 		.4byte	0x1c35
 13852 1c29 0E       		.uleb128 0xe
 13853 1c2a 01       		.uleb128 0x1
 13854 1c2b 51       		.byte	0x51
 13855 1c2c 02       		.uleb128 0x2
 13856 1c2d 74       		.byte	0x74
 13857 1c2e 00       		.sleb128 0
 13858 1c2f 0E       		.uleb128 0xe
 13859 1c30 01       		.uleb128 0x1
 13860 1c31 50       		.byte	0x50
 13861 1c32 01       		.uleb128 0x1
 13862 1c33 38       		.byte	0x38
 13863 1c34 00       		.byte	0
 13864 1c35 0D       		.uleb128 0xd
 13865 1c36 F6170000 		.4byte	.LVL333
 13866 1c3a 873B0000 		.4byte	0x3b87
 13867 1c3e 491C0000 		.4byte	0x1c49
 13868 1c42 0E       		.uleb128 0xe
 13869 1c43 01       		.uleb128 0x1
 13870 1c44 50       		.byte	0x50
 13871 1c45 02       		.uleb128 0x2
 13872 1c46 74       		.byte	0x74
 13873 1c47 00       		.sleb128 0
 13874 1c48 00       		.byte	0
 13875 1c49 0D       		.uleb128 0xd
 13876 1c4a 0E180000 		.4byte	.LVL334
 13877 1c4e 873B0000 		.4byte	0x3b87
 13878 1c52 621C0000 		.4byte	0x1c62
 13879 1c56 0E       		.uleb128 0xe
 13880 1c57 01       		.uleb128 0x1
 13881 1c58 51       		.byte	0x51
 13882 1c59 01       		.uleb128 0x1
 13883 1c5a 3A       		.byte	0x3a
 13884 1c5b 0E       		.uleb128 0xe
 13885 1c5c 01       		.uleb128 0x1
 13886 1c5d 50       		.byte	0x50
 13887 1c5e 02       		.uleb128 0x2
 13888 1c5f 74       		.byte	0x74
ARM GAS  C:\Users\IN-002~1\AppData\Local\Temp\ccxO8rjh.s 			page 285


 13889 1c60 00       		.sleb128 0
 13890 1c61 00       		.byte	0
 13891 1c62 0D       		.uleb128 0xd
 13892 1c63 20180000 		.4byte	.LVL335
 13893 1c67 B73B0000 		.4byte	0x3bb7
 13894 1c6b 7C1C0000 		.4byte	0x1c7c
 13895 1c6f 0E       		.uleb128 0xe
 13896 1c70 01       		.uleb128 0x1
 13897 1c71 51       		.byte	0x51
 13898 1c72 01       		.uleb128 0x1
 13899 1c73 49       		.byte	0x49
 13900 1c74 0E       		.uleb128 0xe
 13901 1c75 01       		.uleb128 0x1
 13902 1c76 50       		.byte	0x50
 13903 1c77 03       		.uleb128 0x3
 13904 1c78 0A       		.byte	0xa
 13905 1c79 4804     		.2byte	0x448
 13906 1c7b 00       		.byte	0
 13907 1c7c 0D       		.uleb128 0xd
 13908 1c7d 2C180000 		.4byte	.LVL336
 13909 1c81 B73B0000 		.4byte	0x3bb7
 13910 1c85 961C0000 		.4byte	0x1c96
 13911 1c89 0E       		.uleb128 0xe
 13912 1c8a 01       		.uleb128 0x1
 13913 1c8b 51       		.byte	0x51
 13914 1c8c 01       		.uleb128 0x1
 13915 1c8d 49       		.byte	0x49
 13916 1c8e 0E       		.uleb128 0xe
 13917 1c8f 01       		.uleb128 0x1
 13918 1c90 50       		.byte	0x50
 13919 1c91 03       		.uleb128 0x3
 13920 1c92 0A       		.byte	0xa
 13921 1c93 1E04     		.2byte	0x41e
 13922 1c95 00       		.byte	0
 13923 1c96 0D       		.uleb128 0xd
 13924 1c97 32180000 		.4byte	.LVL337
 13925 1c9b D13B0000 		.4byte	0x3bd1
 13926 1c9f AA1C0000 		.4byte	0x1caa
 13927 1ca3 0E       		.uleb128 0xe
 13928 1ca4 01       		.uleb128 0x1
 13929 1ca5 50       		.byte	0x50
 13930 1ca6 02       		.uleb128 0x2
 13931 1ca7 74       		.byte	0x74
 13932 1ca8 00       		.sleb128 0
 13933 1ca9 00       		.byte	0
 13934 1caa 0D       		.uleb128 0xd
 13935 1cab 74180000 		.4byte	.LVL338
 13936 1caf E23B0000 		.4byte	0x3be2
 13937 1cb3 CA1C0000 		.4byte	0x1cca
 13938 1cb7 0E       		.uleb128 0xe
 13939 1cb8 01       		.uleb128 0x1
 13940 1cb9 52       		.byte	0x52
 13941 1cba 03       		.uleb128 0x3
 13942 1cbb 91       		.byte	0x91
 13943 1cbc B47F     		.sleb128 -76
 13944 1cbe 0E       		.uleb128 0xe
 13945 1cbf 01       		.uleb128 0x1
ARM GAS  C:\Users\IN-002~1\AppData\Local\Temp\ccxO8rjh.s 			page 286


 13946 1cc0 51       		.byte	0x51
 13947 1cc1 02       		.uleb128 0x2
 13948 1cc2 91       		.byte	0x91
 13949 1cc3 44       		.sleb128 -60
 13950 1cc4 0E       		.uleb128 0xe
 13951 1cc5 01       		.uleb128 0x1
 13952 1cc6 50       		.byte	0x50
 13953 1cc7 01       		.uleb128 0x1
 13954 1cc8 32       		.byte	0x32
 13955 1cc9 00       		.byte	0
 13956 1cca 0D       		.uleb128 0xd
 13957 1ccb 8A180000 		.4byte	.LVL339
 13958 1ccf 873B0000 		.4byte	0x3b87
 13959 1cd3 DE1C0000 		.4byte	0x1cde
 13960 1cd7 0E       		.uleb128 0xe
 13961 1cd8 01       		.uleb128 0x1
 13962 1cd9 50       		.byte	0x50
 13963 1cda 02       		.uleb128 0x2
 13964 1cdb 74       		.byte	0x74
 13965 1cdc 00       		.sleb128 0
 13966 1cdd 00       		.byte	0
 13967 1cde 0D       		.uleb128 0xd
 13968 1cdf A2180000 		.4byte	.LVL340
 13969 1ce3 FD3B0000 		.4byte	0x3bfd
 13970 1ce7 FB1C0000 		.4byte	0x1cfb
 13971 1ceb 0E       		.uleb128 0xe
 13972 1cec 01       		.uleb128 0x1
 13973 1ced 51       		.byte	0x51
 13974 1cee 02       		.uleb128 0x2
 13975 1cef 74       		.byte	0x74
 13976 1cf0 00       		.sleb128 0
 13977 1cf1 0E       		.uleb128 0xe
 13978 1cf2 01       		.uleb128 0x1
 13979 1cf3 50       		.byte	0x50
 13980 1cf4 05       		.uleb128 0x5
 13981 1cf5 03       		.byte	0x3
 13982 1cf6 00000000 		.4byte	resultado
 13983 1cfa 00       		.byte	0
 13984 1cfb 0D       		.uleb128 0xd
 13985 1cfc B4180000 		.4byte	.LVL341
 13986 1d00 6D3B0000 		.4byte	0x3b6d
 13987 1d04 161D0000 		.4byte	0x1d16
 13988 1d08 0E       		.uleb128 0xe
 13989 1d09 01       		.uleb128 0x1
 13990 1d0a 51       		.byte	0x51
 13991 1d0b 02       		.uleb128 0x2
 13992 1d0c 91       		.byte	0x91
 13993 1d0d 54       		.sleb128 -44
 13994 1d0e 0E       		.uleb128 0xe
 13995 1d0f 01       		.uleb128 0x1
 13996 1d10 50       		.byte	0x50
 13997 1d11 03       		.uleb128 0x3
 13998 1d12 0A       		.byte	0xa
 13999 1d13 4804     		.2byte	0x448
 14000 1d15 00       		.byte	0
 14001 1d16 0D       		.uleb128 0xd
 14002 1d17 BE180000 		.4byte	.LVL342
ARM GAS  C:\Users\IN-002~1\AppData\Local\Temp\ccxO8rjh.s 			page 287


 14003 1d1b 6D3B0000 		.4byte	0x3b6d
 14004 1d1f 341D0000 		.4byte	0x1d34
 14005 1d23 0E       		.uleb128 0xe
 14006 1d24 01       		.uleb128 0x1
 14007 1d25 51       		.byte	0x51
 14008 1d26 05       		.uleb128 0x5
 14009 1d27 03       		.byte	0x3
 14010 1d28 00000000 		.4byte	resultado
 14011 1d2c 0E       		.uleb128 0xe
 14012 1d2d 01       		.uleb128 0x1
 14013 1d2e 50       		.byte	0x50
 14014 1d2f 03       		.uleb128 0x3
 14015 1d30 0A       		.byte	0xa
 14016 1d31 0E04     		.2byte	0x40e
 14017 1d33 00       		.byte	0
 14018 1d34 0D       		.uleb128 0xd
 14019 1d35 CA180000 		.4byte	.LVL343
 14020 1d39 6D3B0000 		.4byte	0x3b6d
 14021 1d3d 4F1D0000 		.4byte	0x1d4f
 14022 1d41 0E       		.uleb128 0xe
 14023 1d42 01       		.uleb128 0x1
 14024 1d43 51       		.byte	0x51
 14025 1d44 02       		.uleb128 0x2
 14026 1d45 91       		.byte	0x91
 14027 1d46 54       		.sleb128 -44
 14028 1d47 0E       		.uleb128 0xe
 14029 1d48 01       		.uleb128 0x1
 14030 1d49 50       		.byte	0x50
 14031 1d4a 03       		.uleb128 0x3
 14032 1d4b 0A       		.byte	0xa
 14033 1d4c 1E04     		.2byte	0x41e
 14034 1d4e 00       		.byte	0
 14035 1d4f 0D       		.uleb128 0xd
 14036 1d50 D4180000 		.4byte	.LVL344
 14037 1d54 6D3B0000 		.4byte	0x3b6d
 14038 1d58 6D1D0000 		.4byte	0x1d6d
 14039 1d5c 0E       		.uleb128 0xe
 14040 1d5d 01       		.uleb128 0x1
 14041 1d5e 51       		.byte	0x51
 14042 1d5f 05       		.uleb128 0x5
 14043 1d60 03       		.byte	0x3
 14044 1d61 00000000 		.4byte	resultado
 14045 1d65 0E       		.uleb128 0xe
 14046 1d66 01       		.uleb128 0x1
 14047 1d67 50       		.byte	0x50
 14048 1d68 03       		.uleb128 0x3
 14049 1d69 0A       		.byte	0xa
 14050 1d6a 3904     		.2byte	0x439
 14051 1d6c 00       		.byte	0
 14052 1d6d 0F       		.uleb128 0xf
 14053 1d6e EA180000 		.4byte	.LVL345
 14054 1d72 5B3B0000 		.4byte	0x3b5b
 14055 1d76 0D       		.uleb128 0xd
 14056 1d77 4A1A0000 		.4byte	.LVL346
 14057 1d7b 873B0000 		.4byte	0x3b87
 14058 1d7f 8A1D0000 		.4byte	0x1d8a
 14059 1d83 0E       		.uleb128 0xe
ARM GAS  C:\Users\IN-002~1\AppData\Local\Temp\ccxO8rjh.s 			page 288


 14060 1d84 01       		.uleb128 0x1
 14061 1d85 50       		.byte	0x50
 14062 1d86 02       		.uleb128 0x2
 14063 1d87 74       		.byte	0x74
 14064 1d88 00       		.sleb128 0
 14065 1d89 00       		.byte	0
 14066 1d8a 0D       		.uleb128 0xd
 14067 1d8b 621A0000 		.4byte	.LVL347
 14068 1d8f 873B0000 		.4byte	0x3b87
 14069 1d93 A31D0000 		.4byte	0x1da3
 14070 1d97 0E       		.uleb128 0xe
 14071 1d98 01       		.uleb128 0x1
 14072 1d99 51       		.byte	0x51
 14073 1d9a 01       		.uleb128 0x1
 14074 1d9b 3A       		.byte	0x3a
 14075 1d9c 0E       		.uleb128 0xe
 14076 1d9d 01       		.uleb128 0x1
 14077 1d9e 50       		.byte	0x50
 14078 1d9f 02       		.uleb128 0x2
 14079 1da0 74       		.byte	0x74
 14080 1da1 00       		.sleb128 0
 14081 1da2 00       		.byte	0
 14082 1da3 0D       		.uleb128 0xd
 14083 1da4 741A0000 		.4byte	.LVL348
 14084 1da8 873B0000 		.4byte	0x3b87
 14085 1dac B71D0000 		.4byte	0x1db7
 14086 1db0 0E       		.uleb128 0xe
 14087 1db1 01       		.uleb128 0x1
 14088 1db2 50       		.byte	0x50
 14089 1db3 02       		.uleb128 0x2
 14090 1db4 74       		.byte	0x74
 14091 1db5 00       		.sleb128 0
 14092 1db6 00       		.byte	0
 14093 1db7 0D       		.uleb128 0xd
 14094 1db8 8C1A0000 		.4byte	.LVL349
 14095 1dbc 873B0000 		.4byte	0x3b87
 14096 1dc0 D01D0000 		.4byte	0x1dd0
 14097 1dc4 0E       		.uleb128 0xe
 14098 1dc5 01       		.uleb128 0x1
 14099 1dc6 51       		.byte	0x51
 14100 1dc7 01       		.uleb128 0x1
 14101 1dc8 3A       		.byte	0x3a
 14102 1dc9 0E       		.uleb128 0xe
 14103 1dca 01       		.uleb128 0x1
 14104 1dcb 50       		.byte	0x50
 14105 1dcc 02       		.uleb128 0x2
 14106 1dcd 74       		.byte	0x74
 14107 1dce 00       		.sleb128 0
 14108 1dcf 00       		.byte	0
 14109 1dd0 0D       		.uleb128 0xd
 14110 1dd1 A01A0000 		.4byte	.LVL350
 14111 1dd5 873B0000 		.4byte	0x3b87
 14112 1dd9 E41D0000 		.4byte	0x1de4
 14113 1ddd 0E       		.uleb128 0xe
 14114 1dde 01       		.uleb128 0x1
 14115 1ddf 50       		.byte	0x50
 14116 1de0 02       		.uleb128 0x2
ARM GAS  C:\Users\IN-002~1\AppData\Local\Temp\ccxO8rjh.s 			page 289


 14117 1de1 74       		.byte	0x74
 14118 1de2 00       		.sleb128 0
 14119 1de3 00       		.byte	0
 14120 1de4 0D       		.uleb128 0xd
 14121 1de5 B81A0000 		.4byte	.LVL351
 14122 1de9 873B0000 		.4byte	0x3b87
 14123 1ded FD1D0000 		.4byte	0x1dfd
 14124 1df1 0E       		.uleb128 0xe
 14125 1df2 01       		.uleb128 0x1
 14126 1df3 51       		.byte	0x51
 14127 1df4 01       		.uleb128 0x1
 14128 1df5 3A       		.byte	0x3a
 14129 1df6 0E       		.uleb128 0xe
 14130 1df7 01       		.uleb128 0x1
 14131 1df8 50       		.byte	0x50
 14132 1df9 02       		.uleb128 0x2
 14133 1dfa 74       		.byte	0x74
 14134 1dfb 00       		.sleb128 0
 14135 1dfc 00       		.byte	0
 14136 1dfd 0D       		.uleb128 0xd
 14137 1dfe C01A0000 		.4byte	.LVL352
 14138 1e02 A13B0000 		.4byte	0x3ba1
 14139 1e06 161E0000 		.4byte	0x1e16
 14140 1e0a 0E       		.uleb128 0xe
 14141 1e0b 01       		.uleb128 0x1
 14142 1e0c 51       		.byte	0x51
 14143 1e0d 02       		.uleb128 0x2
 14144 1e0e 74       		.byte	0x74
 14145 1e0f 00       		.sleb128 0
 14146 1e10 0E       		.uleb128 0xe
 14147 1e11 01       		.uleb128 0x1
 14148 1e12 50       		.byte	0x50
 14149 1e13 01       		.uleb128 0x1
 14150 1e14 3C       		.byte	0x3c
 14151 1e15 00       		.byte	0
 14152 1e16 0D       		.uleb128 0xd
 14153 1e17 D41A0000 		.4byte	.LVL353
 14154 1e1b 873B0000 		.4byte	0x3b87
 14155 1e1f 2A1E0000 		.4byte	0x1e2a
 14156 1e23 0E       		.uleb128 0xe
 14157 1e24 01       		.uleb128 0x1
 14158 1e25 50       		.byte	0x50
 14159 1e26 02       		.uleb128 0x2
 14160 1e27 74       		.byte	0x74
 14161 1e28 00       		.sleb128 0
 14162 1e29 00       		.byte	0
 14163 1e2a 0D       		.uleb128 0xd
 14164 1e2b EC1A0000 		.4byte	.LVL354
 14165 1e2f 873B0000 		.4byte	0x3b87
 14166 1e33 431E0000 		.4byte	0x1e43
 14167 1e37 0E       		.uleb128 0xe
 14168 1e38 01       		.uleb128 0x1
 14169 1e39 51       		.byte	0x51
 14170 1e3a 01       		.uleb128 0x1
 14171 1e3b 3A       		.byte	0x3a
 14172 1e3c 0E       		.uleb128 0xe
 14173 1e3d 01       		.uleb128 0x1
ARM GAS  C:\Users\IN-002~1\AppData\Local\Temp\ccxO8rjh.s 			page 290


 14174 1e3e 50       		.byte	0x50
 14175 1e3f 02       		.uleb128 0x2
 14176 1e40 74       		.byte	0x74
 14177 1e41 00       		.sleb128 0
 14178 1e42 00       		.byte	0
 14179 1e43 0D       		.uleb128 0xd
 14180 1e44 FC1A0000 		.4byte	.LVL355
 14181 1e48 B73B0000 		.4byte	0x3bb7
 14182 1e4c 5C1E0000 		.4byte	0x1e5c
 14183 1e50 0E       		.uleb128 0xe
 14184 1e51 01       		.uleb128 0x1
 14185 1e52 51       		.byte	0x51
 14186 1e53 01       		.uleb128 0x1
 14187 1e54 49       		.byte	0x49
 14188 1e55 0E       		.uleb128 0xe
 14189 1e56 01       		.uleb128 0x1
 14190 1e57 50       		.byte	0x50
 14191 1e58 02       		.uleb128 0x2
 14192 1e59 08       		.byte	0x8
 14193 1e5a C0       		.byte	0xc0
 14194 1e5b 00       		.byte	0
 14195 1e5c 0D       		.uleb128 0xd
 14196 1e5d 081B0000 		.4byte	.LVL356
 14197 1e61 B73B0000 		.4byte	0x3bb7
 14198 1e65 761E0000 		.4byte	0x1e76
 14199 1e69 0E       		.uleb128 0xe
 14200 1e6a 01       		.uleb128 0x1
 14201 1e6b 51       		.byte	0x51
 14202 1e6c 01       		.uleb128 0x1
 14203 1e6d 49       		.byte	0x49
 14204 1e6e 0E       		.uleb128 0xe
 14205 1e6f 01       		.uleb128 0x1
 14206 1e70 50       		.byte	0x50
 14207 1e71 03       		.uleb128 0x3
 14208 1e72 0A       		.byte	0xa
 14209 1e73 1901     		.2byte	0x119
 14210 1e75 00       		.byte	0
 14211 1e76 0D       		.uleb128 0xd
 14212 1e77 0E1B0000 		.4byte	.LVL357
 14213 1e7b D13B0000 		.4byte	0x3bd1
 14214 1e7f 8A1E0000 		.4byte	0x1e8a
 14215 1e83 0E       		.uleb128 0xe
 14216 1e84 01       		.uleb128 0x1
 14217 1e85 50       		.byte	0x50
 14218 1e86 02       		.uleb128 0x2
 14219 1e87 74       		.byte	0x74
 14220 1e88 00       		.sleb128 0
 14221 1e89 00       		.byte	0
 14222 1e8a 0D       		.uleb128 0xd
 14223 1e8b 501B0000 		.4byte	.LVL358
 14224 1e8f E23B0000 		.4byte	0x3be2
 14225 1e93 AA1E0000 		.4byte	0x1eaa
 14226 1e97 0E       		.uleb128 0xe
 14227 1e98 01       		.uleb128 0x1
 14228 1e99 52       		.byte	0x52
 14229 1e9a 03       		.uleb128 0x3
 14230 1e9b 91       		.byte	0x91
ARM GAS  C:\Users\IN-002~1\AppData\Local\Temp\ccxO8rjh.s 			page 291


 14231 1e9c B47F     		.sleb128 -76
 14232 1e9e 0E       		.uleb128 0xe
 14233 1e9f 01       		.uleb128 0x1
 14234 1ea0 51       		.byte	0x51
 14235 1ea1 02       		.uleb128 0x2
 14236 1ea2 91       		.byte	0x91
 14237 1ea3 44       		.sleb128 -60
 14238 1ea4 0E       		.uleb128 0xe
 14239 1ea5 01       		.uleb128 0x1
 14240 1ea6 50       		.byte	0x50
 14241 1ea7 01       		.uleb128 0x1
 14242 1ea8 32       		.byte	0x32
 14243 1ea9 00       		.byte	0
 14244 1eaa 0D       		.uleb128 0xd
 14245 1eab 661B0000 		.4byte	.LVL359
 14246 1eaf 873B0000 		.4byte	0x3b87
 14247 1eb3 BE1E0000 		.4byte	0x1ebe
 14248 1eb7 0E       		.uleb128 0xe
 14249 1eb8 01       		.uleb128 0x1
 14250 1eb9 50       		.byte	0x50
 14251 1eba 02       		.uleb128 0x2
 14252 1ebb 74       		.byte	0x74
 14253 1ebc 00       		.sleb128 0
 14254 1ebd 00       		.byte	0
 14255 1ebe 0D       		.uleb128 0xd
 14256 1ebf 7E1B0000 		.4byte	.LVL360
 14257 1ec3 FD3B0000 		.4byte	0x3bfd
 14258 1ec7 DB1E0000 		.4byte	0x1edb
 14259 1ecb 0E       		.uleb128 0xe
 14260 1ecc 01       		.uleb128 0x1
 14261 1ecd 51       		.byte	0x51
 14262 1ece 02       		.uleb128 0x2
 14263 1ecf 74       		.byte	0x74
 14264 1ed0 00       		.sleb128 0
 14265 1ed1 0E       		.uleb128 0xe
 14266 1ed2 01       		.uleb128 0x1
 14267 1ed3 50       		.byte	0x50
 14268 1ed4 05       		.uleb128 0x5
 14269 1ed5 03       		.byte	0x3
 14270 1ed6 00000000 		.4byte	resultado
 14271 1eda 00       		.byte	0
 14272 1edb 0D       		.uleb128 0xd
 14273 1edc 8E1B0000 		.4byte	.LVL361
 14274 1ee0 6D3B0000 		.4byte	0x3b6d
 14275 1ee4 F51E0000 		.4byte	0x1ef5
 14276 1ee8 0E       		.uleb128 0xe
 14277 1ee9 01       		.uleb128 0x1
 14278 1eea 51       		.byte	0x51
 14279 1eeb 02       		.uleb128 0x2
 14280 1eec 91       		.byte	0x91
 14281 1eed 54       		.sleb128 -44
 14282 1eee 0E       		.uleb128 0xe
 14283 1eef 01       		.uleb128 0x1
 14284 1ef0 50       		.byte	0x50
 14285 1ef1 02       		.uleb128 0x2
 14286 1ef2 08       		.byte	0x8
 14287 1ef3 C0       		.byte	0xc0
ARM GAS  C:\Users\IN-002~1\AppData\Local\Temp\ccxO8rjh.s 			page 292


 14288 1ef4 00       		.byte	0
 14289 1ef5 0D       		.uleb128 0xd
 14290 1ef6 981B0000 		.4byte	.LVL362
 14291 1efa 6D3B0000 		.4byte	0x3b6d
 14292 1efe 131F0000 		.4byte	0x1f13
 14293 1f02 0E       		.uleb128 0xe
 14294 1f03 01       		.uleb128 0x1
 14295 1f04 51       		.byte	0x51
 14296 1f05 05       		.uleb128 0x5
 14297 1f06 03       		.byte	0x3
 14298 1f07 00000000 		.4byte	resultado
 14299 1f0b 0E       		.uleb128 0xe
 14300 1f0c 01       		.uleb128 0x1
 14301 1f0d 50       		.byte	0x50
 14302 1f0e 03       		.uleb128 0x3
 14303 1f0f 0A       		.byte	0xa
 14304 1f10 0002     		.2byte	0x200
 14305 1f12 00       		.byte	0
 14306 1f13 0D       		.uleb128 0xd
 14307 1f14 A41B0000 		.4byte	.LVL363
 14308 1f18 6D3B0000 		.4byte	0x3b6d
 14309 1f1c 2E1F0000 		.4byte	0x1f2e
 14310 1f20 0E       		.uleb128 0xe
 14311 1f21 01       		.uleb128 0x1
 14312 1f22 51       		.byte	0x51
 14313 1f23 02       		.uleb128 0x2
 14314 1f24 91       		.byte	0x91
 14315 1f25 54       		.sleb128 -44
 14316 1f26 0E       		.uleb128 0xe
 14317 1f27 01       		.uleb128 0x1
 14318 1f28 50       		.byte	0x50
 14319 1f29 03       		.uleb128 0x3
 14320 1f2a 0A       		.byte	0xa
 14321 1f2b 1901     		.2byte	0x119
 14322 1f2d 00       		.byte	0
 14323 1f2e 0D       		.uleb128 0xd
 14324 1f2f AE1B0000 		.4byte	.LVL364
 14325 1f33 6D3B0000 		.4byte	0x3b6d
 14326 1f37 4C1F0000 		.4byte	0x1f4c
 14327 1f3b 0E       		.uleb128 0xe
 14328 1f3c 01       		.uleb128 0x1
 14329 1f3d 51       		.byte	0x51
 14330 1f3e 05       		.uleb128 0x5
 14331 1f3f 03       		.byte	0x3
 14332 1f40 00000000 		.4byte	resultado
 14333 1f44 0E       		.uleb128 0xe
 14334 1f45 01       		.uleb128 0x1
 14335 1f46 50       		.byte	0x50
 14336 1f47 03       		.uleb128 0x3
 14337 1f48 0A       		.byte	0xa
 14338 1f49 2702     		.2byte	0x227
 14339 1f4b 00       		.byte	0
 14340 1f4c 0D       		.uleb128 0xd
 14341 1f4d F21B0000 		.4byte	.LVL365
 14342 1f51 873B0000 		.4byte	0x3b87
 14343 1f55 601F0000 		.4byte	0x1f60
 14344 1f59 0E       		.uleb128 0xe
ARM GAS  C:\Users\IN-002~1\AppData\Local\Temp\ccxO8rjh.s 			page 293


 14345 1f5a 01       		.uleb128 0x1
 14346 1f5b 50       		.byte	0x50
 14347 1f5c 02       		.uleb128 0x2
 14348 1f5d 74       		.byte	0x74
 14349 1f5e 00       		.sleb128 0
 14350 1f5f 00       		.byte	0
 14351 1f60 0D       		.uleb128 0xd
 14352 1f61 0A1C0000 		.4byte	.LVL366
 14353 1f65 873B0000 		.4byte	0x3b87
 14354 1f69 791F0000 		.4byte	0x1f79
 14355 1f6d 0E       		.uleb128 0xe
 14356 1f6e 01       		.uleb128 0x1
 14357 1f6f 51       		.byte	0x51
 14358 1f70 01       		.uleb128 0x1
 14359 1f71 3A       		.byte	0x3a
 14360 1f72 0E       		.uleb128 0xe
 14361 1f73 01       		.uleb128 0x1
 14362 1f74 50       		.byte	0x50
 14363 1f75 02       		.uleb128 0x2
 14364 1f76 74       		.byte	0x74
 14365 1f77 00       		.sleb128 0
 14366 1f78 00       		.byte	0
 14367 1f79 0D       		.uleb128 0xd
 14368 1f7a 1C1C0000 		.4byte	.LVL367
 14369 1f7e 873B0000 		.4byte	0x3b87
 14370 1f82 8D1F0000 		.4byte	0x1f8d
 14371 1f86 0E       		.uleb128 0xe
 14372 1f87 01       		.uleb128 0x1
 14373 1f88 50       		.byte	0x50
 14374 1f89 02       		.uleb128 0x2
 14375 1f8a 74       		.byte	0x74
 14376 1f8b 00       		.sleb128 0
 14377 1f8c 00       		.byte	0
 14378 1f8d 0D       		.uleb128 0xd
 14379 1f8e 341C0000 		.4byte	.LVL368
 14380 1f92 873B0000 		.4byte	0x3b87
 14381 1f96 A61F0000 		.4byte	0x1fa6
 14382 1f9a 0E       		.uleb128 0xe
 14383 1f9b 01       		.uleb128 0x1
 14384 1f9c 51       		.byte	0x51
 14385 1f9d 01       		.uleb128 0x1
 14386 1f9e 3A       		.byte	0x3a
 14387 1f9f 0E       		.uleb128 0xe
 14388 1fa0 01       		.uleb128 0x1
 14389 1fa1 50       		.byte	0x50
 14390 1fa2 02       		.uleb128 0x2
 14391 1fa3 74       		.byte	0x74
 14392 1fa4 00       		.sleb128 0
 14393 1fa5 00       		.byte	0
 14394 1fa6 0D       		.uleb128 0xd
 14395 1fa7 481C0000 		.4byte	.LVL369
 14396 1fab 873B0000 		.4byte	0x3b87
 14397 1faf BA1F0000 		.4byte	0x1fba
 14398 1fb3 0E       		.uleb128 0xe
 14399 1fb4 01       		.uleb128 0x1
 14400 1fb5 50       		.byte	0x50
 14401 1fb6 02       		.uleb128 0x2
ARM GAS  C:\Users\IN-002~1\AppData\Local\Temp\ccxO8rjh.s 			page 294


 14402 1fb7 74       		.byte	0x74
 14403 1fb8 00       		.sleb128 0
 14404 1fb9 00       		.byte	0
 14405 1fba 0D       		.uleb128 0xd
 14406 1fbb 601C0000 		.4byte	.LVL370
 14407 1fbf 873B0000 		.4byte	0x3b87
 14408 1fc3 D31F0000 		.4byte	0x1fd3
 14409 1fc7 0E       		.uleb128 0xe
 14410 1fc8 01       		.uleb128 0x1
 14411 1fc9 51       		.byte	0x51
 14412 1fca 01       		.uleb128 0x1
 14413 1fcb 3A       		.byte	0x3a
 14414 1fcc 0E       		.uleb128 0xe
 14415 1fcd 01       		.uleb128 0x1
 14416 1fce 50       		.byte	0x50
 14417 1fcf 02       		.uleb128 0x2
 14418 1fd0 74       		.byte	0x74
 14419 1fd1 00       		.sleb128 0
 14420 1fd2 00       		.byte	0
 14421 1fd3 0D       		.uleb128 0xd
 14422 1fd4 681C0000 		.4byte	.LVL371
 14423 1fd8 A13B0000 		.4byte	0x3ba1
 14424 1fdc EC1F0000 		.4byte	0x1fec
 14425 1fe0 0E       		.uleb128 0xe
 14426 1fe1 01       		.uleb128 0x1
 14427 1fe2 51       		.byte	0x51
 14428 1fe3 02       		.uleb128 0x2
 14429 1fe4 74       		.byte	0x74
 14430 1fe5 00       		.sleb128 0
 14431 1fe6 0E       		.uleb128 0xe
 14432 1fe7 01       		.uleb128 0x1
 14433 1fe8 50       		.byte	0x50
 14434 1fe9 01       		.uleb128 0x1
 14435 1fea 3C       		.byte	0x3c
 14436 1feb 00       		.byte	0
 14437 1fec 0D       		.uleb128 0xd
 14438 1fed 7C1C0000 		.4byte	.LVL372
 14439 1ff1 873B0000 		.4byte	0x3b87
 14440 1ff5 00200000 		.4byte	0x2000
 14441 1ff9 0E       		.uleb128 0xe
 14442 1ffa 01       		.uleb128 0x1
 14443 1ffb 50       		.byte	0x50
 14444 1ffc 02       		.uleb128 0x2
 14445 1ffd 74       		.byte	0x74
 14446 1ffe 00       		.sleb128 0
 14447 1fff 00       		.byte	0
 14448 2000 0D       		.uleb128 0xd
 14449 2001 941C0000 		.4byte	.LVL373
 14450 2005 873B0000 		.4byte	0x3b87
 14451 2009 19200000 		.4byte	0x2019
 14452 200d 0E       		.uleb128 0xe
 14453 200e 01       		.uleb128 0x1
 14454 200f 51       		.byte	0x51
 14455 2010 01       		.uleb128 0x1
 14456 2011 3A       		.byte	0x3a
 14457 2012 0E       		.uleb128 0xe
 14458 2013 01       		.uleb128 0x1
ARM GAS  C:\Users\IN-002~1\AppData\Local\Temp\ccxO8rjh.s 			page 295


 14459 2014 50       		.byte	0x50
 14460 2015 02       		.uleb128 0x2
 14461 2016 74       		.byte	0x74
 14462 2017 00       		.sleb128 0
 14463 2018 00       		.byte	0
 14464 2019 0D       		.uleb128 0xd
 14465 201a A41C0000 		.4byte	.LVL374
 14466 201e B73B0000 		.4byte	0x3bb7
 14467 2022 32200000 		.4byte	0x2032
 14468 2026 0E       		.uleb128 0xe
 14469 2027 01       		.uleb128 0x1
 14470 2028 51       		.byte	0x51
 14471 2029 01       		.uleb128 0x1
 14472 202a 49       		.byte	0x49
 14473 202b 0E       		.uleb128 0xe
 14474 202c 01       		.uleb128 0x1
 14475 202d 50       		.byte	0x50
 14476 202e 02       		.uleb128 0x2
 14477 202f 08       		.byte	0x8
 14478 2030 D9       		.byte	0xd9
 14479 2031 00       		.byte	0
 14480 2032 0D       		.uleb128 0xd
 14481 2033 EE1C0000 		.4byte	.LVL375
 14482 2037 B73B0000 		.4byte	0x3bb7
 14483 203b 4C200000 		.4byte	0x204c
 14484 203f 0E       		.uleb128 0xe
 14485 2040 01       		.uleb128 0x1
 14486 2041 51       		.byte	0x51
 14487 2042 01       		.uleb128 0x1
 14488 2043 49       		.byte	0x49
 14489 2044 0E       		.uleb128 0xe
 14490 2045 01       		.uleb128 0x1
 14491 2046 50       		.byte	0x50
 14492 2047 03       		.uleb128 0x3
 14493 2048 0A       		.byte	0xa
 14494 2049 4001     		.2byte	0x140
 14495 204b 00       		.byte	0
 14496 204c 0D       		.uleb128 0xd
 14497 204d F41C0000 		.4byte	.LVL376
 14498 2051 D13B0000 		.4byte	0x3bd1
 14499 2055 60200000 		.4byte	0x2060
 14500 2059 0E       		.uleb128 0xe
 14501 205a 01       		.uleb128 0x1
 14502 205b 50       		.byte	0x50
 14503 205c 02       		.uleb128 0x2
 14504 205d 74       		.byte	0x74
 14505 205e 00       		.sleb128 0
 14506 205f 00       		.byte	0
 14507 2060 0D       		.uleb128 0xd
 14508 2061 361D0000 		.4byte	.LVL377
 14509 2065 E23B0000 		.4byte	0x3be2
 14510 2069 80200000 		.4byte	0x2080
 14511 206d 0E       		.uleb128 0xe
 14512 206e 01       		.uleb128 0x1
 14513 206f 52       		.byte	0x52
 14514 2070 03       		.uleb128 0x3
 14515 2071 91       		.byte	0x91
ARM GAS  C:\Users\IN-002~1\AppData\Local\Temp\ccxO8rjh.s 			page 296


 14516 2072 B47F     		.sleb128 -76
 14517 2074 0E       		.uleb128 0xe
 14518 2075 01       		.uleb128 0x1
 14519 2076 51       		.byte	0x51
 14520 2077 02       		.uleb128 0x2
 14521 2078 91       		.byte	0x91
 14522 2079 44       		.sleb128 -60
 14523 207a 0E       		.uleb128 0xe
 14524 207b 01       		.uleb128 0x1
 14525 207c 50       		.byte	0x50
 14526 207d 01       		.uleb128 0x1
 14527 207e 32       		.byte	0x32
 14528 207f 00       		.byte	0
 14529 2080 0D       		.uleb128 0xd
 14530 2081 4C1D0000 		.4byte	.LVL378
 14531 2085 873B0000 		.4byte	0x3b87
 14532 2089 94200000 		.4byte	0x2094
 14533 208d 0E       		.uleb128 0xe
 14534 208e 01       		.uleb128 0x1
 14535 208f 50       		.byte	0x50
 14536 2090 02       		.uleb128 0x2
 14537 2091 74       		.byte	0x74
 14538 2092 00       		.sleb128 0
 14539 2093 00       		.byte	0
 14540 2094 0D       		.uleb128 0xd
 14541 2095 641D0000 		.4byte	.LVL379
 14542 2099 FD3B0000 		.4byte	0x3bfd
 14543 209d B1200000 		.4byte	0x20b1
 14544 20a1 0E       		.uleb128 0xe
 14545 20a2 01       		.uleb128 0x1
 14546 20a3 51       		.byte	0x51
 14547 20a4 02       		.uleb128 0x2
 14548 20a5 74       		.byte	0x74
 14549 20a6 00       		.sleb128 0
 14550 20a7 0E       		.uleb128 0xe
 14551 20a8 01       		.uleb128 0x1
 14552 20a9 50       		.byte	0x50
 14553 20aa 05       		.uleb128 0x5
 14554 20ab 03       		.byte	0x3
 14555 20ac 00000000 		.4byte	resultado
 14556 20b0 00       		.byte	0
 14557 20b1 0D       		.uleb128 0xd
 14558 20b2 741D0000 		.4byte	.LVL380
 14559 20b6 6D3B0000 		.4byte	0x3b6d
 14560 20ba CB200000 		.4byte	0x20cb
 14561 20be 0E       		.uleb128 0xe
 14562 20bf 01       		.uleb128 0x1
 14563 20c0 51       		.byte	0x51
 14564 20c1 02       		.uleb128 0x2
 14565 20c2 91       		.byte	0x91
 14566 20c3 54       		.sleb128 -44
 14567 20c4 0E       		.uleb128 0xe
 14568 20c5 01       		.uleb128 0x1
 14569 20c6 50       		.byte	0x50
 14570 20c7 02       		.uleb128 0x2
 14571 20c8 08       		.byte	0x8
 14572 20c9 D9       		.byte	0xd9
ARM GAS  C:\Users\IN-002~1\AppData\Local\Temp\ccxO8rjh.s 			page 297


 14573 20ca 00       		.byte	0
 14574 20cb 0D       		.uleb128 0xd
 14575 20cc 7E1D0000 		.4byte	.LVL381
 14576 20d0 6D3B0000 		.4byte	0x3b6d
 14577 20d4 E9200000 		.4byte	0x20e9
 14578 20d8 0E       		.uleb128 0xe
 14579 20d9 01       		.uleb128 0x1
 14580 20da 51       		.byte	0x51
 14581 20db 05       		.uleb128 0x5
 14582 20dc 03       		.byte	0x3
 14583 20dd 00000000 		.4byte	resultado
 14584 20e1 0E       		.uleb128 0xe
 14585 20e2 01       		.uleb128 0x1
 14586 20e3 50       		.byte	0x50
 14587 20e4 03       		.uleb128 0x3
 14588 20e5 0A       		.byte	0xa
 14589 20e6 1A02     		.2byte	0x21a
 14590 20e8 00       		.byte	0
 14591 20e9 0D       		.uleb128 0xd
 14592 20ea 8A1D0000 		.4byte	.LVL382
 14593 20ee 6D3B0000 		.4byte	0x3b6d
 14594 20f2 04210000 		.4byte	0x2104
 14595 20f6 0E       		.uleb128 0xe
 14596 20f7 01       		.uleb128 0x1
 14597 20f8 51       		.byte	0x51
 14598 20f9 02       		.uleb128 0x2
 14599 20fa 91       		.byte	0x91
 14600 20fb 54       		.sleb128 -44
 14601 20fc 0E       		.uleb128 0xe
 14602 20fd 01       		.uleb128 0x1
 14603 20fe 50       		.byte	0x50
 14604 20ff 03       		.uleb128 0x3
 14605 2100 0A       		.byte	0xa
 14606 2101 4001     		.2byte	0x140
 14607 2103 00       		.byte	0
 14608 2104 0D       		.uleb128 0xd
 14609 2105 941D0000 		.4byte	.LVL383
 14610 2109 6D3B0000 		.4byte	0x3b6d
 14611 210d 22210000 		.4byte	0x2122
 14612 2111 0E       		.uleb128 0xe
 14613 2112 01       		.uleb128 0x1
 14614 2113 51       		.byte	0x51
 14615 2114 05       		.uleb128 0x5
 14616 2115 03       		.byte	0x3
 14617 2116 00000000 		.4byte	resultado
 14618 211a 0E       		.uleb128 0xe
 14619 211b 01       		.uleb128 0x1
 14620 211c 50       		.byte	0x50
 14621 211d 03       		.uleb128 0x3
 14622 211e 0A       		.byte	0xa
 14623 211f 4002     		.2byte	0x240
 14624 2121 00       		.byte	0
 14625 2122 0D       		.uleb128 0xd
 14626 2123 D81D0000 		.4byte	.LVL384
 14627 2127 873B0000 		.4byte	0x3b87
 14628 212b 36210000 		.4byte	0x2136
 14629 212f 0E       		.uleb128 0xe
ARM GAS  C:\Users\IN-002~1\AppData\Local\Temp\ccxO8rjh.s 			page 298


 14630 2130 01       		.uleb128 0x1
 14631 2131 50       		.byte	0x50
 14632 2132 02       		.uleb128 0x2
 14633 2133 74       		.byte	0x74
 14634 2134 00       		.sleb128 0
 14635 2135 00       		.byte	0
 14636 2136 0D       		.uleb128 0xd
 14637 2137 F01D0000 		.4byte	.LVL385
 14638 213b 873B0000 		.4byte	0x3b87
 14639 213f 4F210000 		.4byte	0x214f
 14640 2143 0E       		.uleb128 0xe
 14641 2144 01       		.uleb128 0x1
 14642 2145 51       		.byte	0x51
 14643 2146 01       		.uleb128 0x1
 14644 2147 3A       		.byte	0x3a
 14645 2148 0E       		.uleb128 0xe
 14646 2149 01       		.uleb128 0x1
 14647 214a 50       		.byte	0x50
 14648 214b 02       		.uleb128 0x2
 14649 214c 74       		.byte	0x74
 14650 214d 00       		.sleb128 0
 14651 214e 00       		.byte	0
 14652 214f 0D       		.uleb128 0xd
 14653 2150 021E0000 		.4byte	.LVL386
 14654 2154 873B0000 		.4byte	0x3b87
 14655 2158 63210000 		.4byte	0x2163
 14656 215c 0E       		.uleb128 0xe
 14657 215d 01       		.uleb128 0x1
 14658 215e 50       		.byte	0x50
 14659 215f 02       		.uleb128 0x2
 14660 2160 74       		.byte	0x74
 14661 2161 00       		.sleb128 0
 14662 2162 00       		.byte	0
 14663 2163 0D       		.uleb128 0xd
 14664 2164 1A1E0000 		.4byte	.LVL387
 14665 2168 873B0000 		.4byte	0x3b87
 14666 216c 7C210000 		.4byte	0x217c
 14667 2170 0E       		.uleb128 0xe
 14668 2171 01       		.uleb128 0x1
 14669 2172 51       		.byte	0x51
 14670 2173 01       		.uleb128 0x1
 14671 2174 3A       		.byte	0x3a
 14672 2175 0E       		.uleb128 0xe
 14673 2176 01       		.uleb128 0x1
 14674 2177 50       		.byte	0x50
 14675 2178 02       		.uleb128 0x2
 14676 2179 74       		.byte	0x74
 14677 217a 00       		.sleb128 0
 14678 217b 00       		.byte	0
 14679 217c 0D       		.uleb128 0xd
 14680 217d 2E1E0000 		.4byte	.LVL388
 14681 2181 873B0000 		.4byte	0x3b87
 14682 2185 90210000 		.4byte	0x2190
 14683 2189 0E       		.uleb128 0xe
 14684 218a 01       		.uleb128 0x1
 14685 218b 50       		.byte	0x50
 14686 218c 02       		.uleb128 0x2
ARM GAS  C:\Users\IN-002~1\AppData\Local\Temp\ccxO8rjh.s 			page 299


 14687 218d 74       		.byte	0x74
 14688 218e 00       		.sleb128 0
 14689 218f 00       		.byte	0
 14690 2190 0D       		.uleb128 0xd
 14691 2191 461E0000 		.4byte	.LVL389
 14692 2195 873B0000 		.4byte	0x3b87
 14693 2199 A9210000 		.4byte	0x21a9
 14694 219d 0E       		.uleb128 0xe
 14695 219e 01       		.uleb128 0x1
 14696 219f 51       		.byte	0x51
 14697 21a0 01       		.uleb128 0x1
 14698 21a1 3A       		.byte	0x3a
 14699 21a2 0E       		.uleb128 0xe
 14700 21a3 01       		.uleb128 0x1
 14701 21a4 50       		.byte	0x50
 14702 21a5 02       		.uleb128 0x2
 14703 21a6 74       		.byte	0x74
 14704 21a7 00       		.sleb128 0
 14705 21a8 00       		.byte	0
 14706 21a9 0D       		.uleb128 0xd
 14707 21aa 4E1E0000 		.4byte	.LVL390
 14708 21ae A13B0000 		.4byte	0x3ba1
 14709 21b2 C2210000 		.4byte	0x21c2
 14710 21b6 0E       		.uleb128 0xe
 14711 21b7 01       		.uleb128 0x1
 14712 21b8 51       		.byte	0x51
 14713 21b9 02       		.uleb128 0x2
 14714 21ba 74       		.byte	0x74
 14715 21bb 00       		.sleb128 0
 14716 21bc 0E       		.uleb128 0xe
 14717 21bd 01       		.uleb128 0x1
 14718 21be 50       		.byte	0x50
 14719 21bf 01       		.uleb128 0x1
 14720 21c0 3C       		.byte	0x3c
 14721 21c1 00       		.byte	0
 14722 21c2 0D       		.uleb128 0xd
 14723 21c3 621E0000 		.4byte	.LVL391
 14724 21c7 873B0000 		.4byte	0x3b87
 14725 21cb D6210000 		.4byte	0x21d6
 14726 21cf 0E       		.uleb128 0xe
 14727 21d0 01       		.uleb128 0x1
 14728 21d1 50       		.byte	0x50
 14729 21d2 02       		.uleb128 0x2
 14730 21d3 74       		.byte	0x74
 14731 21d4 00       		.sleb128 0
 14732 21d5 00       		.byte	0
 14733 21d6 0D       		.uleb128 0xd
 14734 21d7 7A1E0000 		.4byte	.LVL392
 14735 21db 873B0000 		.4byte	0x3b87
 14736 21df EF210000 		.4byte	0x21ef
 14737 21e3 0E       		.uleb128 0xe
 14738 21e4 01       		.uleb128 0x1
 14739 21e5 51       		.byte	0x51
 14740 21e6 01       		.uleb128 0x1
 14741 21e7 3A       		.byte	0x3a
 14742 21e8 0E       		.uleb128 0xe
 14743 21e9 01       		.uleb128 0x1
ARM GAS  C:\Users\IN-002~1\AppData\Local\Temp\ccxO8rjh.s 			page 300


 14744 21ea 50       		.byte	0x50
 14745 21eb 02       		.uleb128 0x2
 14746 21ec 74       		.byte	0x74
 14747 21ed 00       		.sleb128 0
 14748 21ee 00       		.byte	0
 14749 21ef 0D       		.uleb128 0xd
 14750 21f0 8C1E0000 		.4byte	.LVL393
 14751 21f4 B73B0000 		.4byte	0x3bb7
 14752 21f8 09220000 		.4byte	0x2209
 14753 21fc 0E       		.uleb128 0xe
 14754 21fd 01       		.uleb128 0x1
 14755 21fe 51       		.byte	0x51
 14756 21ff 01       		.uleb128 0x1
 14757 2200 49       		.byte	0x49
 14758 2201 0E       		.uleb128 0xe
 14759 2202 01       		.uleb128 0x1
 14760 2203 50       		.byte	0x50
 14761 2204 03       		.uleb128 0x3
 14762 2205 0A       		.byte	0xa
 14763 2206 0001     		.2byte	0x100
 14764 2208 00       		.byte	0
 14765 2209 0D       		.uleb128 0xd
 14766 220a 981E0000 		.4byte	.LVL394
 14767 220e B73B0000 		.4byte	0x3bb7
 14768 2212 23220000 		.4byte	0x2223
 14769 2216 0E       		.uleb128 0xe
 14770 2217 01       		.uleb128 0x1
 14771 2218 51       		.byte	0x51
 14772 2219 01       		.uleb128 0x1
 14773 221a 49       		.byte	0x49
 14774 221b 0E       		.uleb128 0xe
 14775 221c 01       		.uleb128 0x1
 14776 221d 50       		.byte	0x50
 14777 221e 03       		.uleb128 0x3
 14778 221f 0A       		.byte	0xa
 14779 2220 5901     		.2byte	0x159
 14780 2222 00       		.byte	0
 14781 2223 0D       		.uleb128 0xd
 14782 2224 9E1E0000 		.4byte	.LVL395
 14783 2228 D13B0000 		.4byte	0x3bd1
 14784 222c 37220000 		.4byte	0x2237
 14785 2230 0E       		.uleb128 0xe
 14786 2231 01       		.uleb128 0x1
 14787 2232 50       		.byte	0x50
 14788 2233 02       		.uleb128 0x2
 14789 2234 74       		.byte	0x74
 14790 2235 00       		.sleb128 0
 14791 2236 00       		.byte	0
 14792 2237 0D       		.uleb128 0xd
 14793 2238 E01E0000 		.4byte	.LVL396
 14794 223c E23B0000 		.4byte	0x3be2
 14795 2240 57220000 		.4byte	0x2257
 14796 2244 0E       		.uleb128 0xe
 14797 2245 01       		.uleb128 0x1
 14798 2246 52       		.byte	0x52
 14799 2247 03       		.uleb128 0x3
 14800 2248 91       		.byte	0x91
ARM GAS  C:\Users\IN-002~1\AppData\Local\Temp\ccxO8rjh.s 			page 301


 14801 2249 B47F     		.sleb128 -76
 14802 224b 0E       		.uleb128 0xe
 14803 224c 01       		.uleb128 0x1
 14804 224d 51       		.byte	0x51
 14805 224e 02       		.uleb128 0x2
 14806 224f 91       		.byte	0x91
 14807 2250 44       		.sleb128 -60
 14808 2251 0E       		.uleb128 0xe
 14809 2252 01       		.uleb128 0x1
 14810 2253 50       		.byte	0x50
 14811 2254 01       		.uleb128 0x1
 14812 2255 32       		.byte	0x32
 14813 2256 00       		.byte	0
 14814 2257 0D       		.uleb128 0xd
 14815 2258 F61E0000 		.4byte	.LVL397
 14816 225c 873B0000 		.4byte	0x3b87
 14817 2260 6B220000 		.4byte	0x226b
 14818 2264 0E       		.uleb128 0xe
 14819 2265 01       		.uleb128 0x1
 14820 2266 50       		.byte	0x50
 14821 2267 02       		.uleb128 0x2
 14822 2268 74       		.byte	0x74
 14823 2269 00       		.sleb128 0
 14824 226a 00       		.byte	0
 14825 226b 0D       		.uleb128 0xd
 14826 226c 0E1F0000 		.4byte	.LVL398
 14827 2270 FD3B0000 		.4byte	0x3bfd
 14828 2274 88220000 		.4byte	0x2288
 14829 2278 0E       		.uleb128 0xe
 14830 2279 01       		.uleb128 0x1
 14831 227a 51       		.byte	0x51
 14832 227b 02       		.uleb128 0x2
 14833 227c 74       		.byte	0x74
 14834 227d 00       		.sleb128 0
 14835 227e 0E       		.uleb128 0xe
 14836 227f 01       		.uleb128 0x1
 14837 2280 50       		.byte	0x50
 14838 2281 05       		.uleb128 0x5
 14839 2282 03       		.byte	0x3
 14840 2283 00000000 		.4byte	resultado
 14841 2287 00       		.byte	0
 14842 2288 0D       		.uleb128 0xd
 14843 2289 201F0000 		.4byte	.LVL399
 14844 228d 6D3B0000 		.4byte	0x3b6d
 14845 2291 A3220000 		.4byte	0x22a3
 14846 2295 0E       		.uleb128 0xe
 14847 2296 01       		.uleb128 0x1
 14848 2297 51       		.byte	0x51
 14849 2298 02       		.uleb128 0x2
 14850 2299 91       		.byte	0x91
 14851 229a 54       		.sleb128 -44
 14852 229b 0E       		.uleb128 0xe
 14853 229c 01       		.uleb128 0x1
 14854 229d 50       		.byte	0x50
 14855 229e 03       		.uleb128 0x3
 14856 229f 0A       		.byte	0xa
 14857 22a0 0001     		.2byte	0x100
ARM GAS  C:\Users\IN-002~1\AppData\Local\Temp\ccxO8rjh.s 			page 302


 14858 22a2 00       		.byte	0
 14859 22a3 0D       		.uleb128 0xd
 14860 22a4 2A1F0000 		.4byte	.LVL400
 14861 22a8 6D3B0000 		.4byte	0x3b6d
 14862 22ac C1220000 		.4byte	0x22c1
 14863 22b0 0E       		.uleb128 0xe
 14864 22b1 01       		.uleb128 0x1
 14865 22b2 51       		.byte	0x51
 14866 22b3 05       		.uleb128 0x5
 14867 22b4 03       		.byte	0x3
 14868 22b5 00000000 		.4byte	resultado
 14869 22b9 0E       		.uleb128 0xe
 14870 22ba 01       		.uleb128 0x1
 14871 22bb 50       		.byte	0x50
 14872 22bc 03       		.uleb128 0x3
 14873 22bd 0A       		.byte	0xa
 14874 22be 0D02     		.2byte	0x20d
 14875 22c0 00       		.byte	0
 14876 22c1 0D       		.uleb128 0xd
 14877 22c2 361F0000 		.4byte	.LVL401
 14878 22c6 6D3B0000 		.4byte	0x3b6d
 14879 22ca DC220000 		.4byte	0x22dc
 14880 22ce 0E       		.uleb128 0xe
 14881 22cf 01       		.uleb128 0x1
 14882 22d0 51       		.byte	0x51
 14883 22d1 02       		.uleb128 0x2
 14884 22d2 91       		.byte	0x91
 14885 22d3 54       		.sleb128 -44
 14886 22d4 0E       		.uleb128 0xe
 14887 22d5 01       		.uleb128 0x1
 14888 22d6 50       		.byte	0x50
 14889 22d7 03       		.uleb128 0x3
 14890 22d8 0A       		.byte	0xa
 14891 22d9 5901     		.2byte	0x159
 14892 22db 00       		.byte	0
 14893 22dc 0D       		.uleb128 0xd
 14894 22dd 401F0000 		.4byte	.LVL402
 14895 22e1 6D3B0000 		.4byte	0x3b6d
 14896 22e5 FA220000 		.4byte	0x22fa
 14897 22e9 0E       		.uleb128 0xe
 14898 22ea 01       		.uleb128 0x1
 14899 22eb 51       		.byte	0x51
 14900 22ec 05       		.uleb128 0x5
 14901 22ed 03       		.byte	0x3
 14902 22ee 00000000 		.4byte	resultado
 14903 22f2 0E       		.uleb128 0xe
 14904 22f3 01       		.uleb128 0x1
 14905 22f4 50       		.byte	0x50
 14906 22f5 03       		.uleb128 0x3
 14907 22f6 0A       		.byte	0xa
 14908 22f7 4D02     		.2byte	0x24d
 14909 22f9 00       		.byte	0
 14910 22fa 0D       		.uleb128 0xd
 14911 22fb 841F0000 		.4byte	.LVL403
 14912 22ff 873B0000 		.4byte	0x3b87
 14913 2303 0E230000 		.4byte	0x230e
 14914 2307 0E       		.uleb128 0xe
ARM GAS  C:\Users\IN-002~1\AppData\Local\Temp\ccxO8rjh.s 			page 303


 14915 2308 01       		.uleb128 0x1
 14916 2309 50       		.byte	0x50
 14917 230a 02       		.uleb128 0x2
 14918 230b 74       		.byte	0x74
 14919 230c 00       		.sleb128 0
 14920 230d 00       		.byte	0
 14921 230e 0D       		.uleb128 0xd
 14922 230f 9C1F0000 		.4byte	.LVL404
 14923 2313 873B0000 		.4byte	0x3b87
 14924 2317 27230000 		.4byte	0x2327
 14925 231b 0E       		.uleb128 0xe
 14926 231c 01       		.uleb128 0x1
 14927 231d 51       		.byte	0x51
 14928 231e 01       		.uleb128 0x1
 14929 231f 3A       		.byte	0x3a
 14930 2320 0E       		.uleb128 0xe
 14931 2321 01       		.uleb128 0x1
 14932 2322 50       		.byte	0x50
 14933 2323 02       		.uleb128 0x2
 14934 2324 74       		.byte	0x74
 14935 2325 00       		.sleb128 0
 14936 2326 00       		.byte	0
 14937 2327 0D       		.uleb128 0xd
 14938 2328 E21F0000 		.4byte	.LVL405
 14939 232c 873B0000 		.4byte	0x3b87
 14940 2330 3B230000 		.4byte	0x233b
 14941 2334 0E       		.uleb128 0xe
 14942 2335 01       		.uleb128 0x1
 14943 2336 50       		.byte	0x50
 14944 2337 02       		.uleb128 0x2
 14945 2338 74       		.byte	0x74
 14946 2339 00       		.sleb128 0
 14947 233a 00       		.byte	0
 14948 233b 0D       		.uleb128 0xd
 14949 233c FA1F0000 		.4byte	.LVL406
 14950 2340 873B0000 		.4byte	0x3b87
 14951 2344 54230000 		.4byte	0x2354
 14952 2348 0E       		.uleb128 0xe
 14953 2349 01       		.uleb128 0x1
 14954 234a 51       		.byte	0x51
 14955 234b 01       		.uleb128 0x1
 14956 234c 3A       		.byte	0x3a
 14957 234d 0E       		.uleb128 0xe
 14958 234e 01       		.uleb128 0x1
 14959 234f 50       		.byte	0x50
 14960 2350 02       		.uleb128 0x2
 14961 2351 74       		.byte	0x74
 14962 2352 00       		.sleb128 0
 14963 2353 00       		.byte	0
 14964 2354 0D       		.uleb128 0xd
 14965 2355 0E200000 		.4byte	.LVL407
 14966 2359 873B0000 		.4byte	0x3b87
 14967 235d 68230000 		.4byte	0x2368
 14968 2361 0E       		.uleb128 0xe
 14969 2362 01       		.uleb128 0x1
 14970 2363 50       		.byte	0x50
 14971 2364 02       		.uleb128 0x2
ARM GAS  C:\Users\IN-002~1\AppData\Local\Temp\ccxO8rjh.s 			page 304


 14972 2365 74       		.byte	0x74
 14973 2366 00       		.sleb128 0
 14974 2367 00       		.byte	0
 14975 2368 0D       		.uleb128 0xd
 14976 2369 26200000 		.4byte	.LVL408
 14977 236d 873B0000 		.4byte	0x3b87
 14978 2371 81230000 		.4byte	0x2381
 14979 2375 0E       		.uleb128 0xe
 14980 2376 01       		.uleb128 0x1
 14981 2377 51       		.byte	0x51
 14982 2378 01       		.uleb128 0x1
 14983 2379 3A       		.byte	0x3a
 14984 237a 0E       		.uleb128 0xe
 14985 237b 01       		.uleb128 0x1
 14986 237c 50       		.byte	0x50
 14987 237d 02       		.uleb128 0x2
 14988 237e 74       		.byte	0x74
 14989 237f 00       		.sleb128 0
 14990 2380 00       		.byte	0
 14991 2381 0D       		.uleb128 0xd
 14992 2382 2E200000 		.4byte	.LVL409
 14993 2386 A13B0000 		.4byte	0x3ba1
 14994 238a 9A230000 		.4byte	0x239a
 14995 238e 0E       		.uleb128 0xe
 14996 238f 01       		.uleb128 0x1
 14997 2390 51       		.byte	0x51
 14998 2391 02       		.uleb128 0x2
 14999 2392 74       		.byte	0x74
 15000 2393 00       		.sleb128 0
 15001 2394 0E       		.uleb128 0xe
 15002 2395 01       		.uleb128 0x1
 15003 2396 50       		.byte	0x50
 15004 2397 01       		.uleb128 0x1
 15005 2398 3C       		.byte	0x3c
 15006 2399 00       		.byte	0
 15007 239a 0D       		.uleb128 0xd
 15008 239b 42200000 		.4byte	.LVL410
 15009 239f 873B0000 		.4byte	0x3b87
 15010 23a3 AE230000 		.4byte	0x23ae
 15011 23a7 0E       		.uleb128 0xe
 15012 23a8 01       		.uleb128 0x1
 15013 23a9 50       		.byte	0x50
 15014 23aa 02       		.uleb128 0x2
 15015 23ab 74       		.byte	0x74
 15016 23ac 00       		.sleb128 0
 15017 23ad 00       		.byte	0
 15018 23ae 0D       		.uleb128 0xd
 15019 23af 5A200000 		.4byte	.LVL411
 15020 23b3 873B0000 		.4byte	0x3b87
 15021 23b7 C7230000 		.4byte	0x23c7
 15022 23bb 0E       		.uleb128 0xe
 15023 23bc 01       		.uleb128 0x1
 15024 23bd 51       		.byte	0x51
 15025 23be 01       		.uleb128 0x1
 15026 23bf 3A       		.byte	0x3a
 15027 23c0 0E       		.uleb128 0xe
 15028 23c1 01       		.uleb128 0x1
ARM GAS  C:\Users\IN-002~1\AppData\Local\Temp\ccxO8rjh.s 			page 305


 15029 23c2 50       		.byte	0x50
 15030 23c3 02       		.uleb128 0x2
 15031 23c4 74       		.byte	0x74
 15032 23c5 00       		.sleb128 0
 15033 23c6 00       		.byte	0
 15034 23c7 0D       		.uleb128 0xd
 15035 23c8 6C200000 		.4byte	.LVL412
 15036 23cc B73B0000 		.4byte	0x3bb7
 15037 23d0 E1230000 		.4byte	0x23e1
 15038 23d4 0E       		.uleb128 0xe
 15039 23d5 01       		.uleb128 0x1
 15040 23d6 51       		.byte	0x51
 15041 23d7 01       		.uleb128 0x1
 15042 23d8 49       		.byte	0x49
 15043 23d9 0E       		.uleb128 0xe
 15044 23da 01       		.uleb128 0x1
 15045 23db 50       		.byte	0x50
 15046 23dc 03       		.uleb128 0x3
 15047 23dd 0A       		.byte	0xa
 15048 23de 4804     		.2byte	0x448
 15049 23e0 00       		.byte	0
 15050 23e1 0D       		.uleb128 0xd
 15051 23e2 78200000 		.4byte	.LVL413
 15052 23e6 B73B0000 		.4byte	0x3bb7
 15053 23ea FB230000 		.4byte	0x23fb
 15054 23ee 0E       		.uleb128 0xe
 15055 23ef 01       		.uleb128 0x1
 15056 23f0 51       		.byte	0x51
 15057 23f1 01       		.uleb128 0x1
 15058 23f2 49       		.byte	0x49
 15059 23f3 0E       		.uleb128 0xe
 15060 23f4 01       		.uleb128 0x1
 15061 23f5 50       		.byte	0x50
 15062 23f6 03       		.uleb128 0x3
 15063 23f7 0A       		.byte	0xa
 15064 23f8 1E04     		.2byte	0x41e
 15065 23fa 00       		.byte	0
 15066 23fb 0D       		.uleb128 0xd
 15067 23fc 7E200000 		.4byte	.LVL414
 15068 2400 D13B0000 		.4byte	0x3bd1
 15069 2404 0F240000 		.4byte	0x240f
 15070 2408 0E       		.uleb128 0xe
 15071 2409 01       		.uleb128 0x1
 15072 240a 50       		.byte	0x50
 15073 240b 02       		.uleb128 0x2
 15074 240c 74       		.byte	0x74
 15075 240d 00       		.sleb128 0
 15076 240e 00       		.byte	0
 15077 240f 0D       		.uleb128 0xd
 15078 2410 C0200000 		.4byte	.LVL415
 15079 2414 E23B0000 		.4byte	0x3be2
 15080 2418 2F240000 		.4byte	0x242f
 15081 241c 0E       		.uleb128 0xe
 15082 241d 01       		.uleb128 0x1
 15083 241e 52       		.byte	0x52
 15084 241f 03       		.uleb128 0x3
 15085 2420 91       		.byte	0x91
ARM GAS  C:\Users\IN-002~1\AppData\Local\Temp\ccxO8rjh.s 			page 306


 15086 2421 B47F     		.sleb128 -76
 15087 2423 0E       		.uleb128 0xe
 15088 2424 01       		.uleb128 0x1
 15089 2425 51       		.byte	0x51
 15090 2426 02       		.uleb128 0x2
 15091 2427 91       		.byte	0x91
 15092 2428 44       		.sleb128 -60
 15093 2429 0E       		.uleb128 0xe
 15094 242a 01       		.uleb128 0x1
 15095 242b 50       		.byte	0x50
 15096 242c 01       		.uleb128 0x1
 15097 242d 32       		.byte	0x32
 15098 242e 00       		.byte	0
 15099 242f 0D       		.uleb128 0xd
 15100 2430 D6200000 		.4byte	.LVL416
 15101 2434 873B0000 		.4byte	0x3b87
 15102 2438 43240000 		.4byte	0x2443
 15103 243c 0E       		.uleb128 0xe
 15104 243d 01       		.uleb128 0x1
 15105 243e 50       		.byte	0x50
 15106 243f 02       		.uleb128 0x2
 15107 2440 74       		.byte	0x74
 15108 2441 00       		.sleb128 0
 15109 2442 00       		.byte	0
 15110 2443 0D       		.uleb128 0xd
 15111 2444 EE200000 		.4byte	.LVL417
 15112 2448 FD3B0000 		.4byte	0x3bfd
 15113 244c 60240000 		.4byte	0x2460
 15114 2450 0E       		.uleb128 0xe
 15115 2451 01       		.uleb128 0x1
 15116 2452 51       		.byte	0x51
 15117 2453 02       		.uleb128 0x2
 15118 2454 74       		.byte	0x74
 15119 2455 00       		.sleb128 0
 15120 2456 0E       		.uleb128 0xe
 15121 2457 01       		.uleb128 0x1
 15122 2458 50       		.byte	0x50
 15123 2459 05       		.uleb128 0x5
 15124 245a 03       		.byte	0x3
 15125 245b 00000000 		.4byte	resultado
 15126 245f 00       		.byte	0
 15127 2460 0D       		.uleb128 0xd
 15128 2461 00210000 		.4byte	.LVL418
 15129 2465 6D3B0000 		.4byte	0x3b6d
 15130 2469 7B240000 		.4byte	0x247b
 15131 246d 0E       		.uleb128 0xe
 15132 246e 01       		.uleb128 0x1
 15133 246f 51       		.byte	0x51
 15134 2470 02       		.uleb128 0x2
 15135 2471 91       		.byte	0x91
 15136 2472 54       		.sleb128 -44
 15137 2473 0E       		.uleb128 0xe
 15138 2474 01       		.uleb128 0x1
 15139 2475 50       		.byte	0x50
 15140 2476 03       		.uleb128 0x3
 15141 2477 0A       		.byte	0xa
 15142 2478 4804     		.2byte	0x448
ARM GAS  C:\Users\IN-002~1\AppData\Local\Temp\ccxO8rjh.s 			page 307


 15143 247a 00       		.byte	0
 15144 247b 0D       		.uleb128 0xd
 15145 247c 0A210000 		.4byte	.LVL419
 15146 2480 6D3B0000 		.4byte	0x3b6d
 15147 2484 99240000 		.4byte	0x2499
 15148 2488 0E       		.uleb128 0xe
 15149 2489 01       		.uleb128 0x1
 15150 248a 51       		.byte	0x51
 15151 248b 05       		.uleb128 0x5
 15152 248c 03       		.byte	0x3
 15153 248d 00000000 		.4byte	resultado
 15154 2491 0E       		.uleb128 0xe
 15155 2492 01       		.uleb128 0x1
 15156 2493 50       		.byte	0x50
 15157 2494 03       		.uleb128 0x3
 15158 2495 0A       		.byte	0xa
 15159 2496 0E04     		.2byte	0x40e
 15160 2498 00       		.byte	0
 15161 2499 0D       		.uleb128 0xd
 15162 249a 16210000 		.4byte	.LVL420
 15163 249e 6D3B0000 		.4byte	0x3b6d
 15164 24a2 B4240000 		.4byte	0x24b4
 15165 24a6 0E       		.uleb128 0xe
 15166 24a7 01       		.uleb128 0x1
 15167 24a8 51       		.byte	0x51
 15168 24a9 02       		.uleb128 0x2
 15169 24aa 91       		.byte	0x91
 15170 24ab 54       		.sleb128 -44
 15171 24ac 0E       		.uleb128 0xe
 15172 24ad 01       		.uleb128 0x1
 15173 24ae 50       		.byte	0x50
 15174 24af 03       		.uleb128 0x3
 15175 24b0 0A       		.byte	0xa
 15176 24b1 1E04     		.2byte	0x41e
 15177 24b3 00       		.byte	0
 15178 24b4 0D       		.uleb128 0xd
 15179 24b5 20210000 		.4byte	.LVL421
 15180 24b9 6D3B0000 		.4byte	0x3b6d
 15181 24bd D2240000 		.4byte	0x24d2
 15182 24c1 0E       		.uleb128 0xe
 15183 24c2 01       		.uleb128 0x1
 15184 24c3 51       		.byte	0x51
 15185 24c4 05       		.uleb128 0x5
 15186 24c5 03       		.byte	0x3
 15187 24c6 00000000 		.4byte	resultado
 15188 24ca 0E       		.uleb128 0xe
 15189 24cb 01       		.uleb128 0x1
 15190 24cc 50       		.byte	0x50
 15191 24cd 03       		.uleb128 0x3
 15192 24ce 0A       		.byte	0xa
 15193 24cf 3904     		.2byte	0x439
 15194 24d1 00       		.byte	0
 15195 24d2 0F       		.uleb128 0xf
 15196 24d3 24210000 		.4byte	.LVL422
 15197 24d7 5B3B0000 		.4byte	0x3b5b
 15198 24db 0D       		.uleb128 0xd
 15199 24dc 5A220000 		.4byte	.LVL423
ARM GAS  C:\Users\IN-002~1\AppData\Local\Temp\ccxO8rjh.s 			page 308


 15200 24e0 873B0000 		.4byte	0x3b87
 15201 24e4 EF240000 		.4byte	0x24ef
 15202 24e8 0E       		.uleb128 0xe
 15203 24e9 01       		.uleb128 0x1
 15204 24ea 50       		.byte	0x50
 15205 24eb 02       		.uleb128 0x2
 15206 24ec 74       		.byte	0x74
 15207 24ed 00       		.sleb128 0
 15208 24ee 00       		.byte	0
 15209 24ef 0D       		.uleb128 0xd
 15210 24f0 B6220000 		.4byte	.LVL424
 15211 24f4 873B0000 		.4byte	0x3b87
 15212 24f8 03250000 		.4byte	0x2503
 15213 24fc 0E       		.uleb128 0xe
 15214 24fd 01       		.uleb128 0x1
 15215 24fe 50       		.byte	0x50
 15216 24ff 02       		.uleb128 0x2
 15217 2500 74       		.byte	0x74
 15218 2501 00       		.sleb128 0
 15219 2502 00       		.byte	0
 15220 2503 0D       		.uleb128 0xd
 15221 2504 CE220000 		.4byte	.LVL425
 15222 2508 873B0000 		.4byte	0x3b87
 15223 250c 1C250000 		.4byte	0x251c
 15224 2510 0E       		.uleb128 0xe
 15225 2511 01       		.uleb128 0x1
 15226 2512 51       		.byte	0x51
 15227 2513 01       		.uleb128 0x1
 15228 2514 3A       		.byte	0x3a
 15229 2515 0E       		.uleb128 0xe
 15230 2516 01       		.uleb128 0x1
 15231 2517 50       		.byte	0x50
 15232 2518 02       		.uleb128 0x2
 15233 2519 74       		.byte	0x74
 15234 251a 00       		.sleb128 0
 15235 251b 00       		.byte	0
 15236 251c 0D       		.uleb128 0xd
 15237 251d E2220000 		.4byte	.LVL426
 15238 2521 873B0000 		.4byte	0x3b87
 15239 2525 30250000 		.4byte	0x2530
 15240 2529 0E       		.uleb128 0xe
 15241 252a 01       		.uleb128 0x1
 15242 252b 50       		.byte	0x50
 15243 252c 02       		.uleb128 0x2
 15244 252d 74       		.byte	0x74
 15245 252e 00       		.sleb128 0
 15246 252f 00       		.byte	0
 15247 2530 0D       		.uleb128 0xd
 15248 2531 FA220000 		.4byte	.LVL427
 15249 2535 873B0000 		.4byte	0x3b87
 15250 2539 49250000 		.4byte	0x2549
 15251 253d 0E       		.uleb128 0xe
 15252 253e 01       		.uleb128 0x1
 15253 253f 51       		.byte	0x51
 15254 2540 01       		.uleb128 0x1
 15255 2541 3A       		.byte	0x3a
 15256 2542 0E       		.uleb128 0xe
ARM GAS  C:\Users\IN-002~1\AppData\Local\Temp\ccxO8rjh.s 			page 309


 15257 2543 01       		.uleb128 0x1
 15258 2544 50       		.byte	0x50
 15259 2545 02       		.uleb128 0x2
 15260 2546 74       		.byte	0x74
 15261 2547 00       		.sleb128 0
 15262 2548 00       		.byte	0
 15263 2549 0D       		.uleb128 0xd
 15264 254a 02230000 		.4byte	.LVL428
 15265 254e A13B0000 		.4byte	0x3ba1
 15266 2552 62250000 		.4byte	0x2562
 15267 2556 0E       		.uleb128 0xe
 15268 2557 01       		.uleb128 0x1
 15269 2558 51       		.byte	0x51
 15270 2559 02       		.uleb128 0x2
 15271 255a 74       		.byte	0x74
 15272 255b 00       		.sleb128 0
 15273 255c 0E       		.uleb128 0xe
 15274 255d 01       		.uleb128 0x1
 15275 255e 50       		.byte	0x50
 15276 255f 01       		.uleb128 0x1
 15277 2560 3C       		.byte	0x3c
 15278 2561 00       		.byte	0
 15279 2562 0D       		.uleb128 0xd
 15280 2563 16230000 		.4byte	.LVL429
 15281 2567 873B0000 		.4byte	0x3b87
 15282 256b 76250000 		.4byte	0x2576
 15283 256f 0E       		.uleb128 0xe
 15284 2570 01       		.uleb128 0x1
 15285 2571 50       		.byte	0x50
 15286 2572 02       		.uleb128 0x2
 15287 2573 74       		.byte	0x74
 15288 2574 00       		.sleb128 0
 15289 2575 00       		.byte	0
 15290 2576 0D       		.uleb128 0xd
 15291 2577 2E230000 		.4byte	.LVL430
 15292 257b 873B0000 		.4byte	0x3b87
 15293 257f 8F250000 		.4byte	0x258f
 15294 2583 0E       		.uleb128 0xe
 15295 2584 01       		.uleb128 0x1
 15296 2585 51       		.byte	0x51
 15297 2586 01       		.uleb128 0x1
 15298 2587 3A       		.byte	0x3a
 15299 2588 0E       		.uleb128 0xe
 15300 2589 01       		.uleb128 0x1
 15301 258a 50       		.byte	0x50
 15302 258b 02       		.uleb128 0x2
 15303 258c 74       		.byte	0x74
 15304 258d 00       		.sleb128 0
 15305 258e 00       		.byte	0
 15306 258f 0D       		.uleb128 0xd
 15307 2590 3E230000 		.4byte	.LVL431
 15308 2594 B73B0000 		.4byte	0x3bb7
 15309 2598 A8250000 		.4byte	0x25a8
 15310 259c 0E       		.uleb128 0xe
 15311 259d 01       		.uleb128 0x1
 15312 259e 51       		.byte	0x51
 15313 259f 01       		.uleb128 0x1
ARM GAS  C:\Users\IN-002~1\AppData\Local\Temp\ccxO8rjh.s 			page 310


 15314 25a0 49       		.byte	0x49
 15315 25a1 0E       		.uleb128 0xe
 15316 25a2 01       		.uleb128 0x1
 15317 25a3 50       		.byte	0x50
 15318 25a4 02       		.uleb128 0x2
 15319 25a5 08       		.byte	0x8
 15320 25a6 C0       		.byte	0xc0
 15321 25a7 00       		.byte	0
 15322 25a8 0D       		.uleb128 0xd
 15323 25a9 4A230000 		.4byte	.LVL432
 15324 25ad B73B0000 		.4byte	0x3bb7
 15325 25b1 C2250000 		.4byte	0x25c2
 15326 25b5 0E       		.uleb128 0xe
 15327 25b6 01       		.uleb128 0x1
 15328 25b7 51       		.byte	0x51
 15329 25b8 01       		.uleb128 0x1
 15330 25b9 49       		.byte	0x49
 15331 25ba 0E       		.uleb128 0xe
 15332 25bb 01       		.uleb128 0x1
 15333 25bc 50       		.byte	0x50
 15334 25bd 03       		.uleb128 0x3
 15335 25be 0A       		.byte	0xa
 15336 25bf 1901     		.2byte	0x119
 15337 25c1 00       		.byte	0
 15338 25c2 0D       		.uleb128 0xd
 15339 25c3 50230000 		.4byte	.LVL433
 15340 25c7 D13B0000 		.4byte	0x3bd1
 15341 25cb D6250000 		.4byte	0x25d6
 15342 25cf 0E       		.uleb128 0xe
 15343 25d0 01       		.uleb128 0x1
 15344 25d1 50       		.byte	0x50
 15345 25d2 02       		.uleb128 0x2
 15346 25d3 74       		.byte	0x74
 15347 25d4 00       		.sleb128 0
 15348 25d5 00       		.byte	0
 15349 25d6 0D       		.uleb128 0xd
 15350 25d7 92230000 		.4byte	.LVL434
 15351 25db E23B0000 		.4byte	0x3be2
 15352 25df F6250000 		.4byte	0x25f6
 15353 25e3 0E       		.uleb128 0xe
 15354 25e4 01       		.uleb128 0x1
 15355 25e5 52       		.byte	0x52
 15356 25e6 03       		.uleb128 0x3
 15357 25e7 91       		.byte	0x91
 15358 25e8 B47F     		.sleb128 -76
 15359 25ea 0E       		.uleb128 0xe
 15360 25eb 01       		.uleb128 0x1
 15361 25ec 51       		.byte	0x51
 15362 25ed 02       		.uleb128 0x2
 15363 25ee 91       		.byte	0x91
 15364 25ef 44       		.sleb128 -60
 15365 25f0 0E       		.uleb128 0xe
 15366 25f1 01       		.uleb128 0x1
 15367 25f2 50       		.byte	0x50
 15368 25f3 01       		.uleb128 0x1
 15369 25f4 32       		.byte	0x32
 15370 25f5 00       		.byte	0
ARM GAS  C:\Users\IN-002~1\AppData\Local\Temp\ccxO8rjh.s 			page 311


 15371 25f6 0D       		.uleb128 0xd
 15372 25f7 A8230000 		.4byte	.LVL435
 15373 25fb 873B0000 		.4byte	0x3b87
 15374 25ff 0A260000 		.4byte	0x260a
 15375 2603 0E       		.uleb128 0xe
 15376 2604 01       		.uleb128 0x1
 15377 2605 50       		.byte	0x50
 15378 2606 02       		.uleb128 0x2
 15379 2607 74       		.byte	0x74
 15380 2608 00       		.sleb128 0
 15381 2609 00       		.byte	0
 15382 260a 0D       		.uleb128 0xd
 15383 260b C0230000 		.4byte	.LVL436
 15384 260f FD3B0000 		.4byte	0x3bfd
 15385 2613 27260000 		.4byte	0x2627
 15386 2617 0E       		.uleb128 0xe
 15387 2618 01       		.uleb128 0x1
 15388 2619 51       		.byte	0x51
 15389 261a 02       		.uleb128 0x2
 15390 261b 74       		.byte	0x74
 15391 261c 00       		.sleb128 0
 15392 261d 0E       		.uleb128 0xe
 15393 261e 01       		.uleb128 0x1
 15394 261f 50       		.byte	0x50
 15395 2620 05       		.uleb128 0x5
 15396 2621 03       		.byte	0x3
 15397 2622 00000000 		.4byte	resultado
 15398 2626 00       		.byte	0
 15399 2627 0D       		.uleb128 0xd
 15400 2628 D0230000 		.4byte	.LVL437
 15401 262c 6D3B0000 		.4byte	0x3b6d
 15402 2630 41260000 		.4byte	0x2641
 15403 2634 0E       		.uleb128 0xe
 15404 2635 01       		.uleb128 0x1
 15405 2636 51       		.byte	0x51
 15406 2637 02       		.uleb128 0x2
 15407 2638 91       		.byte	0x91
 15408 2639 54       		.sleb128 -44
 15409 263a 0E       		.uleb128 0xe
 15410 263b 01       		.uleb128 0x1
 15411 263c 50       		.byte	0x50
 15412 263d 02       		.uleb128 0x2
 15413 263e 08       		.byte	0x8
 15414 263f C0       		.byte	0xc0
 15415 2640 00       		.byte	0
 15416 2641 0D       		.uleb128 0xd
 15417 2642 DA230000 		.4byte	.LVL438
 15418 2646 6D3B0000 		.4byte	0x3b6d
 15419 264a 5F260000 		.4byte	0x265f
 15420 264e 0E       		.uleb128 0xe
 15421 264f 01       		.uleb128 0x1
 15422 2650 51       		.byte	0x51
 15423 2651 05       		.uleb128 0x5
 15424 2652 03       		.byte	0x3
 15425 2653 00000000 		.4byte	resultado
 15426 2657 0E       		.uleb128 0xe
 15427 2658 01       		.uleb128 0x1
ARM GAS  C:\Users\IN-002~1\AppData\Local\Temp\ccxO8rjh.s 			page 312


 15428 2659 50       		.byte	0x50
 15429 265a 03       		.uleb128 0x3
 15430 265b 0A       		.byte	0xa
 15431 265c 0002     		.2byte	0x200
 15432 265e 00       		.byte	0
 15433 265f 0D       		.uleb128 0xd
 15434 2660 E6230000 		.4byte	.LVL439
 15435 2664 6D3B0000 		.4byte	0x3b6d
 15436 2668 7A260000 		.4byte	0x267a
 15437 266c 0E       		.uleb128 0xe
 15438 266d 01       		.uleb128 0x1
 15439 266e 51       		.byte	0x51
 15440 266f 02       		.uleb128 0x2
 15441 2670 91       		.byte	0x91
 15442 2671 54       		.sleb128 -44
 15443 2672 0E       		.uleb128 0xe
 15444 2673 01       		.uleb128 0x1
 15445 2674 50       		.byte	0x50
 15446 2675 03       		.uleb128 0x3
 15447 2676 0A       		.byte	0xa
 15448 2677 1901     		.2byte	0x119
 15449 2679 00       		.byte	0
 15450 267a 0D       		.uleb128 0xd
 15451 267b F0230000 		.4byte	.LVL440
 15452 267f 6D3B0000 		.4byte	0x3b6d
 15453 2683 98260000 		.4byte	0x2698
 15454 2687 0E       		.uleb128 0xe
 15455 2688 01       		.uleb128 0x1
 15456 2689 51       		.byte	0x51
 15457 268a 05       		.uleb128 0x5
 15458 268b 03       		.byte	0x3
 15459 268c 00000000 		.4byte	resultado
 15460 2690 0E       		.uleb128 0xe
 15461 2691 01       		.uleb128 0x1
 15462 2692 50       		.byte	0x50
 15463 2693 03       		.uleb128 0x3
 15464 2694 0A       		.byte	0xa
 15465 2695 2702     		.2byte	0x227
 15466 2697 00       		.byte	0
 15467 2698 0D       		.uleb128 0xd
 15468 2699 34240000 		.4byte	.LVL441
 15469 269d 873B0000 		.4byte	0x3b87
 15470 26a1 AC260000 		.4byte	0x26ac
 15471 26a5 0E       		.uleb128 0xe
 15472 26a6 01       		.uleb128 0x1
 15473 26a7 50       		.byte	0x50
 15474 26a8 02       		.uleb128 0x2
 15475 26a9 74       		.byte	0x74
 15476 26aa 00       		.sleb128 0
 15477 26ab 00       		.byte	0
 15478 26ac 0D       		.uleb128 0xd
 15479 26ad 4C240000 		.4byte	.LVL442
 15480 26b1 873B0000 		.4byte	0x3b87
 15481 26b5 C5260000 		.4byte	0x26c5
 15482 26b9 0E       		.uleb128 0xe
 15483 26ba 01       		.uleb128 0x1
 15484 26bb 51       		.byte	0x51
ARM GAS  C:\Users\IN-002~1\AppData\Local\Temp\ccxO8rjh.s 			page 313


 15485 26bc 01       		.uleb128 0x1
 15486 26bd 3A       		.byte	0x3a
 15487 26be 0E       		.uleb128 0xe
 15488 26bf 01       		.uleb128 0x1
 15489 26c0 50       		.byte	0x50
 15490 26c1 02       		.uleb128 0x2
 15491 26c2 74       		.byte	0x74
 15492 26c3 00       		.sleb128 0
 15493 26c4 00       		.byte	0
 15494 26c5 0D       		.uleb128 0xd
 15495 26c6 5E240000 		.4byte	.LVL443
 15496 26ca 873B0000 		.4byte	0x3b87
 15497 26ce D9260000 		.4byte	0x26d9
 15498 26d2 0E       		.uleb128 0xe
 15499 26d3 01       		.uleb128 0x1
 15500 26d4 50       		.byte	0x50
 15501 26d5 02       		.uleb128 0x2
 15502 26d6 74       		.byte	0x74
 15503 26d7 00       		.sleb128 0
 15504 26d8 00       		.byte	0
 15505 26d9 0D       		.uleb128 0xd
 15506 26da 76240000 		.4byte	.LVL444
 15507 26de 873B0000 		.4byte	0x3b87
 15508 26e2 F2260000 		.4byte	0x26f2
 15509 26e6 0E       		.uleb128 0xe
 15510 26e7 01       		.uleb128 0x1
 15511 26e8 51       		.byte	0x51
 15512 26e9 01       		.uleb128 0x1
 15513 26ea 3A       		.byte	0x3a
 15514 26eb 0E       		.uleb128 0xe
 15515 26ec 01       		.uleb128 0x1
 15516 26ed 50       		.byte	0x50
 15517 26ee 02       		.uleb128 0x2
 15518 26ef 74       		.byte	0x74
 15519 26f0 00       		.sleb128 0
 15520 26f1 00       		.byte	0
 15521 26f2 0D       		.uleb128 0xd
 15522 26f3 8A240000 		.4byte	.LVL445
 15523 26f7 873B0000 		.4byte	0x3b87
 15524 26fb 06270000 		.4byte	0x2706
 15525 26ff 0E       		.uleb128 0xe
 15526 2700 01       		.uleb128 0x1
 15527 2701 50       		.byte	0x50
 15528 2702 02       		.uleb128 0x2
 15529 2703 74       		.byte	0x74
 15530 2704 00       		.sleb128 0
 15531 2705 00       		.byte	0
 15532 2706 0D       		.uleb128 0xd
 15533 2707 A2240000 		.4byte	.LVL446
 15534 270b 873B0000 		.4byte	0x3b87
 15535 270f 1F270000 		.4byte	0x271f
 15536 2713 0E       		.uleb128 0xe
 15537 2714 01       		.uleb128 0x1
 15538 2715 51       		.byte	0x51
 15539 2716 01       		.uleb128 0x1
 15540 2717 3A       		.byte	0x3a
 15541 2718 0E       		.uleb128 0xe
ARM GAS  C:\Users\IN-002~1\AppData\Local\Temp\ccxO8rjh.s 			page 314


 15542 2719 01       		.uleb128 0x1
 15543 271a 50       		.byte	0x50
 15544 271b 02       		.uleb128 0x2
 15545 271c 74       		.byte	0x74
 15546 271d 00       		.sleb128 0
 15547 271e 00       		.byte	0
 15548 271f 0D       		.uleb128 0xd
 15549 2720 AA240000 		.4byte	.LVL447
 15550 2724 A13B0000 		.4byte	0x3ba1
 15551 2728 38270000 		.4byte	0x2738
 15552 272c 0E       		.uleb128 0xe
 15553 272d 01       		.uleb128 0x1
 15554 272e 51       		.byte	0x51
 15555 272f 02       		.uleb128 0x2
 15556 2730 74       		.byte	0x74
 15557 2731 00       		.sleb128 0
 15558 2732 0E       		.uleb128 0xe
 15559 2733 01       		.uleb128 0x1
 15560 2734 50       		.byte	0x50
 15561 2735 01       		.uleb128 0x1
 15562 2736 3C       		.byte	0x3c
 15563 2737 00       		.byte	0
 15564 2738 0D       		.uleb128 0xd
 15565 2739 BE240000 		.4byte	.LVL448
 15566 273d 873B0000 		.4byte	0x3b87
 15567 2741 4C270000 		.4byte	0x274c
 15568 2745 0E       		.uleb128 0xe
 15569 2746 01       		.uleb128 0x1
 15570 2747 50       		.byte	0x50
 15571 2748 02       		.uleb128 0x2
 15572 2749 74       		.byte	0x74
 15573 274a 00       		.sleb128 0
 15574 274b 00       		.byte	0
 15575 274c 0D       		.uleb128 0xd
 15576 274d D6240000 		.4byte	.LVL449
 15577 2751 873B0000 		.4byte	0x3b87
 15578 2755 65270000 		.4byte	0x2765
 15579 2759 0E       		.uleb128 0xe
 15580 275a 01       		.uleb128 0x1
 15581 275b 51       		.byte	0x51
 15582 275c 01       		.uleb128 0x1
 15583 275d 3A       		.byte	0x3a
 15584 275e 0E       		.uleb128 0xe
 15585 275f 01       		.uleb128 0x1
 15586 2760 50       		.byte	0x50
 15587 2761 02       		.uleb128 0x2
 15588 2762 74       		.byte	0x74
 15589 2763 00       		.sleb128 0
 15590 2764 00       		.byte	0
 15591 2765 0D       		.uleb128 0xd
 15592 2766 E6240000 		.4byte	.LVL450
 15593 276a B73B0000 		.4byte	0x3bb7
 15594 276e 7E270000 		.4byte	0x277e
 15595 2772 0E       		.uleb128 0xe
 15596 2773 01       		.uleb128 0x1
 15597 2774 51       		.byte	0x51
 15598 2775 01       		.uleb128 0x1
ARM GAS  C:\Users\IN-002~1\AppData\Local\Temp\ccxO8rjh.s 			page 315


 15599 2776 49       		.byte	0x49
 15600 2777 0E       		.uleb128 0xe
 15601 2778 01       		.uleb128 0x1
 15602 2779 50       		.byte	0x50
 15603 277a 02       		.uleb128 0x2
 15604 277b 08       		.byte	0x8
 15605 277c D9       		.byte	0xd9
 15606 277d 00       		.byte	0
 15607 277e 0D       		.uleb128 0xd
 15608 277f F2240000 		.4byte	.LVL451
 15609 2783 B73B0000 		.4byte	0x3bb7
 15610 2787 98270000 		.4byte	0x2798
 15611 278b 0E       		.uleb128 0xe
 15612 278c 01       		.uleb128 0x1
 15613 278d 51       		.byte	0x51
 15614 278e 01       		.uleb128 0x1
 15615 278f 49       		.byte	0x49
 15616 2790 0E       		.uleb128 0xe
 15617 2791 01       		.uleb128 0x1
 15618 2792 50       		.byte	0x50
 15619 2793 03       		.uleb128 0x3
 15620 2794 0A       		.byte	0xa
 15621 2795 4001     		.2byte	0x140
 15622 2797 00       		.byte	0
 15623 2798 0D       		.uleb128 0xd
 15624 2799 F8240000 		.4byte	.LVL452
 15625 279d D13B0000 		.4byte	0x3bd1
 15626 27a1 AC270000 		.4byte	0x27ac
 15627 27a5 0E       		.uleb128 0xe
 15628 27a6 01       		.uleb128 0x1
 15629 27a7 50       		.byte	0x50
 15630 27a8 02       		.uleb128 0x2
 15631 27a9 74       		.byte	0x74
 15632 27aa 00       		.sleb128 0
 15633 27ab 00       		.byte	0
 15634 27ac 0D       		.uleb128 0xd
 15635 27ad 3A250000 		.4byte	.LVL453
 15636 27b1 E23B0000 		.4byte	0x3be2
 15637 27b5 CC270000 		.4byte	0x27cc
 15638 27b9 0E       		.uleb128 0xe
 15639 27ba 01       		.uleb128 0x1
 15640 27bb 52       		.byte	0x52
 15641 27bc 03       		.uleb128 0x3
 15642 27bd 91       		.byte	0x91
 15643 27be B47F     		.sleb128 -76
 15644 27c0 0E       		.uleb128 0xe
 15645 27c1 01       		.uleb128 0x1
 15646 27c2 51       		.byte	0x51
 15647 27c3 02       		.uleb128 0x2
 15648 27c4 91       		.byte	0x91
 15649 27c5 44       		.sleb128 -60
 15650 27c6 0E       		.uleb128 0xe
 15651 27c7 01       		.uleb128 0x1
 15652 27c8 50       		.byte	0x50
 15653 27c9 01       		.uleb128 0x1
 15654 27ca 32       		.byte	0x32
 15655 27cb 00       		.byte	0
ARM GAS  C:\Users\IN-002~1\AppData\Local\Temp\ccxO8rjh.s 			page 316


 15656 27cc 0D       		.uleb128 0xd
 15657 27cd 82250000 		.4byte	.LVL454
 15658 27d1 873B0000 		.4byte	0x3b87
 15659 27d5 E0270000 		.4byte	0x27e0
 15660 27d9 0E       		.uleb128 0xe
 15661 27da 01       		.uleb128 0x1
 15662 27db 50       		.byte	0x50
 15663 27dc 02       		.uleb128 0x2
 15664 27dd 74       		.byte	0x74
 15665 27de 00       		.sleb128 0
 15666 27df 00       		.byte	0
 15667 27e0 0D       		.uleb128 0xd
 15668 27e1 9A250000 		.4byte	.LVL455
 15669 27e5 FD3B0000 		.4byte	0x3bfd
 15670 27e9 FD270000 		.4byte	0x27fd
 15671 27ed 0E       		.uleb128 0xe
 15672 27ee 01       		.uleb128 0x1
 15673 27ef 51       		.byte	0x51
 15674 27f0 02       		.uleb128 0x2
 15675 27f1 74       		.byte	0x74
 15676 27f2 00       		.sleb128 0
 15677 27f3 0E       		.uleb128 0xe
 15678 27f4 01       		.uleb128 0x1
 15679 27f5 50       		.byte	0x50
 15680 27f6 05       		.uleb128 0x5
 15681 27f7 03       		.byte	0x3
 15682 27f8 00000000 		.4byte	resultado
 15683 27fc 00       		.byte	0
 15684 27fd 0D       		.uleb128 0xd
 15685 27fe AA250000 		.4byte	.LVL456
 15686 2802 6D3B0000 		.4byte	0x3b6d
 15687 2806 17280000 		.4byte	0x2817
 15688 280a 0E       		.uleb128 0xe
 15689 280b 01       		.uleb128 0x1
 15690 280c 51       		.byte	0x51
 15691 280d 02       		.uleb128 0x2
 15692 280e 91       		.byte	0x91
 15693 280f 54       		.sleb128 -44
 15694 2810 0E       		.uleb128 0xe
 15695 2811 01       		.uleb128 0x1
 15696 2812 50       		.byte	0x50
 15697 2813 02       		.uleb128 0x2
 15698 2814 08       		.byte	0x8
 15699 2815 D9       		.byte	0xd9
 15700 2816 00       		.byte	0
 15701 2817 0D       		.uleb128 0xd
 15702 2818 B4250000 		.4byte	.LVL457
 15703 281c 6D3B0000 		.4byte	0x3b6d
 15704 2820 35280000 		.4byte	0x2835
 15705 2824 0E       		.uleb128 0xe
 15706 2825 01       		.uleb128 0x1
 15707 2826 51       		.byte	0x51
 15708 2827 05       		.uleb128 0x5
 15709 2828 03       		.byte	0x3
 15710 2829 00000000 		.4byte	resultado
 15711 282d 0E       		.uleb128 0xe
 15712 282e 01       		.uleb128 0x1
ARM GAS  C:\Users\IN-002~1\AppData\Local\Temp\ccxO8rjh.s 			page 317


 15713 282f 50       		.byte	0x50
 15714 2830 03       		.uleb128 0x3
 15715 2831 0A       		.byte	0xa
 15716 2832 1A02     		.2byte	0x21a
 15717 2834 00       		.byte	0
 15718 2835 0D       		.uleb128 0xd
 15719 2836 C0250000 		.4byte	.LVL458
 15720 283a 6D3B0000 		.4byte	0x3b6d
 15721 283e 50280000 		.4byte	0x2850
 15722 2842 0E       		.uleb128 0xe
 15723 2843 01       		.uleb128 0x1
 15724 2844 51       		.byte	0x51
 15725 2845 02       		.uleb128 0x2
 15726 2846 91       		.byte	0x91
 15727 2847 54       		.sleb128 -44
 15728 2848 0E       		.uleb128 0xe
 15729 2849 01       		.uleb128 0x1
 15730 284a 50       		.byte	0x50
 15731 284b 03       		.uleb128 0x3
 15732 284c 0A       		.byte	0xa
 15733 284d 4001     		.2byte	0x140
 15734 284f 00       		.byte	0
 15735 2850 0D       		.uleb128 0xd
 15736 2851 CA250000 		.4byte	.LVL459
 15737 2855 6D3B0000 		.4byte	0x3b6d
 15738 2859 6E280000 		.4byte	0x286e
 15739 285d 0E       		.uleb128 0xe
 15740 285e 01       		.uleb128 0x1
 15741 285f 51       		.byte	0x51
 15742 2860 05       		.uleb128 0x5
 15743 2861 03       		.byte	0x3
 15744 2862 00000000 		.4byte	resultado
 15745 2866 0E       		.uleb128 0xe
 15746 2867 01       		.uleb128 0x1
 15747 2868 50       		.byte	0x50
 15748 2869 03       		.uleb128 0x3
 15749 286a 0A       		.byte	0xa
 15750 286b 4002     		.2byte	0x240
 15751 286d 00       		.byte	0
 15752 286e 0D       		.uleb128 0xd
 15753 286f 0E260000 		.4byte	.LVL460
 15754 2873 873B0000 		.4byte	0x3b87
 15755 2877 82280000 		.4byte	0x2882
 15756 287b 0E       		.uleb128 0xe
 15757 287c 01       		.uleb128 0x1
 15758 287d 50       		.byte	0x50
 15759 287e 02       		.uleb128 0x2
 15760 287f 74       		.byte	0x74
 15761 2880 00       		.sleb128 0
 15762 2881 00       		.byte	0
 15763 2882 0D       		.uleb128 0xd
 15764 2883 26260000 		.4byte	.LVL461
 15765 2887 873B0000 		.4byte	0x3b87
 15766 288b 9B280000 		.4byte	0x289b
 15767 288f 0E       		.uleb128 0xe
 15768 2890 01       		.uleb128 0x1
 15769 2891 51       		.byte	0x51
ARM GAS  C:\Users\IN-002~1\AppData\Local\Temp\ccxO8rjh.s 			page 318


 15770 2892 01       		.uleb128 0x1
 15771 2893 3A       		.byte	0x3a
 15772 2894 0E       		.uleb128 0xe
 15773 2895 01       		.uleb128 0x1
 15774 2896 50       		.byte	0x50
 15775 2897 02       		.uleb128 0x2
 15776 2898 74       		.byte	0x74
 15777 2899 00       		.sleb128 0
 15778 289a 00       		.byte	0
 15779 289b 0D       		.uleb128 0xd
 15780 289c 38260000 		.4byte	.LVL462
 15781 28a0 873B0000 		.4byte	0x3b87
 15782 28a4 AF280000 		.4byte	0x28af
 15783 28a8 0E       		.uleb128 0xe
 15784 28a9 01       		.uleb128 0x1
 15785 28aa 50       		.byte	0x50
 15786 28ab 02       		.uleb128 0x2
 15787 28ac 74       		.byte	0x74
 15788 28ad 00       		.sleb128 0
 15789 28ae 00       		.byte	0
 15790 28af 0D       		.uleb128 0xd
 15791 28b0 50260000 		.4byte	.LVL463
 15792 28b4 873B0000 		.4byte	0x3b87
 15793 28b8 C8280000 		.4byte	0x28c8
 15794 28bc 0E       		.uleb128 0xe
 15795 28bd 01       		.uleb128 0x1
 15796 28be 51       		.byte	0x51
 15797 28bf 01       		.uleb128 0x1
 15798 28c0 3A       		.byte	0x3a
 15799 28c1 0E       		.uleb128 0xe
 15800 28c2 01       		.uleb128 0x1
 15801 28c3 50       		.byte	0x50
 15802 28c4 02       		.uleb128 0x2
 15803 28c5 74       		.byte	0x74
 15804 28c6 00       		.sleb128 0
 15805 28c7 00       		.byte	0
 15806 28c8 0D       		.uleb128 0xd
 15807 28c9 64260000 		.4byte	.LVL464
 15808 28cd 873B0000 		.4byte	0x3b87
 15809 28d1 DC280000 		.4byte	0x28dc
 15810 28d5 0E       		.uleb128 0xe
 15811 28d6 01       		.uleb128 0x1
 15812 28d7 50       		.byte	0x50
 15813 28d8 02       		.uleb128 0x2
 15814 28d9 74       		.byte	0x74
 15815 28da 00       		.sleb128 0
 15816 28db 00       		.byte	0
 15817 28dc 0D       		.uleb128 0xd
 15818 28dd 7C260000 		.4byte	.LVL465
 15819 28e1 873B0000 		.4byte	0x3b87
 15820 28e5 F5280000 		.4byte	0x28f5
 15821 28e9 0E       		.uleb128 0xe
 15822 28ea 01       		.uleb128 0x1
 15823 28eb 51       		.byte	0x51
 15824 28ec 01       		.uleb128 0x1
 15825 28ed 3A       		.byte	0x3a
 15826 28ee 0E       		.uleb128 0xe
ARM GAS  C:\Users\IN-002~1\AppData\Local\Temp\ccxO8rjh.s 			page 319


 15827 28ef 01       		.uleb128 0x1
 15828 28f0 50       		.byte	0x50
 15829 28f1 02       		.uleb128 0x2
 15830 28f2 74       		.byte	0x74
 15831 28f3 00       		.sleb128 0
 15832 28f4 00       		.byte	0
 15833 28f5 0D       		.uleb128 0xd
 15834 28f6 84260000 		.4byte	.LVL466
 15835 28fa A13B0000 		.4byte	0x3ba1
 15836 28fe 0E290000 		.4byte	0x290e
 15837 2902 0E       		.uleb128 0xe
 15838 2903 01       		.uleb128 0x1
 15839 2904 51       		.byte	0x51
 15840 2905 02       		.uleb128 0x2
 15841 2906 74       		.byte	0x74
 15842 2907 00       		.sleb128 0
 15843 2908 0E       		.uleb128 0xe
 15844 2909 01       		.uleb128 0x1
 15845 290a 50       		.byte	0x50
 15846 290b 01       		.uleb128 0x1
 15847 290c 3C       		.byte	0x3c
 15848 290d 00       		.byte	0
 15849 290e 0D       		.uleb128 0xd
 15850 290f 98260000 		.4byte	.LVL467
 15851 2913 873B0000 		.4byte	0x3b87
 15852 2917 22290000 		.4byte	0x2922
 15853 291b 0E       		.uleb128 0xe
 15854 291c 01       		.uleb128 0x1
 15855 291d 50       		.byte	0x50
 15856 291e 02       		.uleb128 0x2
 15857 291f 74       		.byte	0x74
 15858 2920 00       		.sleb128 0
 15859 2921 00       		.byte	0
 15860 2922 0D       		.uleb128 0xd
 15861 2923 B0260000 		.4byte	.LVL468
 15862 2927 873B0000 		.4byte	0x3b87
 15863 292b 3B290000 		.4byte	0x293b
 15864 292f 0E       		.uleb128 0xe
 15865 2930 01       		.uleb128 0x1
 15866 2931 51       		.byte	0x51
 15867 2932 01       		.uleb128 0x1
 15868 2933 3A       		.byte	0x3a
 15869 2934 0E       		.uleb128 0xe
 15870 2935 01       		.uleb128 0x1
 15871 2936 50       		.byte	0x50
 15872 2937 02       		.uleb128 0x2
 15873 2938 74       		.byte	0x74
 15874 2939 00       		.sleb128 0
 15875 293a 00       		.byte	0
 15876 293b 0D       		.uleb128 0xd
 15877 293c C2260000 		.4byte	.LVL469
 15878 2940 B73B0000 		.4byte	0x3bb7
 15879 2944 55290000 		.4byte	0x2955
 15880 2948 0E       		.uleb128 0xe
 15881 2949 01       		.uleb128 0x1
 15882 294a 51       		.byte	0x51
 15883 294b 01       		.uleb128 0x1
ARM GAS  C:\Users\IN-002~1\AppData\Local\Temp\ccxO8rjh.s 			page 320


 15884 294c 49       		.byte	0x49
 15885 294d 0E       		.uleb128 0xe
 15886 294e 01       		.uleb128 0x1
 15887 294f 50       		.byte	0x50
 15888 2950 03       		.uleb128 0x3
 15889 2951 0A       		.byte	0xa
 15890 2952 0001     		.2byte	0x100
 15891 2954 00       		.byte	0
 15892 2955 0D       		.uleb128 0xd
 15893 2956 CE260000 		.4byte	.LVL470
 15894 295a B73B0000 		.4byte	0x3bb7
 15895 295e 6F290000 		.4byte	0x296f
 15896 2962 0E       		.uleb128 0xe
 15897 2963 01       		.uleb128 0x1
 15898 2964 51       		.byte	0x51
 15899 2965 01       		.uleb128 0x1
 15900 2966 49       		.byte	0x49
 15901 2967 0E       		.uleb128 0xe
 15902 2968 01       		.uleb128 0x1
 15903 2969 50       		.byte	0x50
 15904 296a 03       		.uleb128 0x3
 15905 296b 0A       		.byte	0xa
 15906 296c 5901     		.2byte	0x159
 15907 296e 00       		.byte	0
 15908 296f 0D       		.uleb128 0xd
 15909 2970 D4260000 		.4byte	.LVL471
 15910 2974 D13B0000 		.4byte	0x3bd1
 15911 2978 83290000 		.4byte	0x2983
 15912 297c 0E       		.uleb128 0xe
 15913 297d 01       		.uleb128 0x1
 15914 297e 50       		.byte	0x50
 15915 297f 02       		.uleb128 0x2
 15916 2980 74       		.byte	0x74
 15917 2981 00       		.sleb128 0
 15918 2982 00       		.byte	0
 15919 2983 0D       		.uleb128 0xd
 15920 2984 16270000 		.4byte	.LVL472
 15921 2988 E23B0000 		.4byte	0x3be2
 15922 298c A3290000 		.4byte	0x29a3
 15923 2990 0E       		.uleb128 0xe
 15924 2991 01       		.uleb128 0x1
 15925 2992 52       		.byte	0x52
 15926 2993 03       		.uleb128 0x3
 15927 2994 91       		.byte	0x91
 15928 2995 B47F     		.sleb128 -76
 15929 2997 0E       		.uleb128 0xe
 15930 2998 01       		.uleb128 0x1
 15931 2999 51       		.byte	0x51
 15932 299a 02       		.uleb128 0x2
 15933 299b 91       		.byte	0x91
 15934 299c 44       		.sleb128 -60
 15935 299d 0E       		.uleb128 0xe
 15936 299e 01       		.uleb128 0x1
 15937 299f 50       		.byte	0x50
 15938 29a0 01       		.uleb128 0x1
 15939 29a1 32       		.byte	0x32
 15940 29a2 00       		.byte	0
ARM GAS  C:\Users\IN-002~1\AppData\Local\Temp\ccxO8rjh.s 			page 321


 15941 29a3 0D       		.uleb128 0xd
 15942 29a4 2C270000 		.4byte	.LVL473
 15943 29a8 873B0000 		.4byte	0x3b87
 15944 29ac B7290000 		.4byte	0x29b7
 15945 29b0 0E       		.uleb128 0xe
 15946 29b1 01       		.uleb128 0x1
 15947 29b2 50       		.byte	0x50
 15948 29b3 02       		.uleb128 0x2
 15949 29b4 74       		.byte	0x74
 15950 29b5 00       		.sleb128 0
 15951 29b6 00       		.byte	0
 15952 29b7 0D       		.uleb128 0xd
 15953 29b8 44270000 		.4byte	.LVL474
 15954 29bc FD3B0000 		.4byte	0x3bfd
 15955 29c0 D4290000 		.4byte	0x29d4
 15956 29c4 0E       		.uleb128 0xe
 15957 29c5 01       		.uleb128 0x1
 15958 29c6 51       		.byte	0x51
 15959 29c7 02       		.uleb128 0x2
 15960 29c8 74       		.byte	0x74
 15961 29c9 00       		.sleb128 0
 15962 29ca 0E       		.uleb128 0xe
 15963 29cb 01       		.uleb128 0x1
 15964 29cc 50       		.byte	0x50
 15965 29cd 05       		.uleb128 0x5
 15966 29ce 03       		.byte	0x3
 15967 29cf 00000000 		.4byte	resultado
 15968 29d3 00       		.byte	0
 15969 29d4 0D       		.uleb128 0xd
 15970 29d5 56270000 		.4byte	.LVL475
 15971 29d9 6D3B0000 		.4byte	0x3b6d
 15972 29dd EF290000 		.4byte	0x29ef
 15973 29e1 0E       		.uleb128 0xe
 15974 29e2 01       		.uleb128 0x1
 15975 29e3 51       		.byte	0x51
 15976 29e4 02       		.uleb128 0x2
 15977 29e5 91       		.byte	0x91
 15978 29e6 54       		.sleb128 -44
 15979 29e7 0E       		.uleb128 0xe
 15980 29e8 01       		.uleb128 0x1
 15981 29e9 50       		.byte	0x50
 15982 29ea 03       		.uleb128 0x3
 15983 29eb 0A       		.byte	0xa
 15984 29ec 0001     		.2byte	0x100
 15985 29ee 00       		.byte	0
 15986 29ef 0D       		.uleb128 0xd
 15987 29f0 60270000 		.4byte	.LVL476
 15988 29f4 6D3B0000 		.4byte	0x3b6d
 15989 29f8 0D2A0000 		.4byte	0x2a0d
 15990 29fc 0E       		.uleb128 0xe
 15991 29fd 01       		.uleb128 0x1
 15992 29fe 51       		.byte	0x51
 15993 29ff 05       		.uleb128 0x5
 15994 2a00 03       		.byte	0x3
 15995 2a01 00000000 		.4byte	resultado
 15996 2a05 0E       		.uleb128 0xe
 15997 2a06 01       		.uleb128 0x1
ARM GAS  C:\Users\IN-002~1\AppData\Local\Temp\ccxO8rjh.s 			page 322


 15998 2a07 50       		.byte	0x50
 15999 2a08 03       		.uleb128 0x3
 16000 2a09 0A       		.byte	0xa
 16001 2a0a 0D02     		.2byte	0x20d
 16002 2a0c 00       		.byte	0
 16003 2a0d 0D       		.uleb128 0xd
 16004 2a0e 6C270000 		.4byte	.LVL477
 16005 2a12 6D3B0000 		.4byte	0x3b6d
 16006 2a16 282A0000 		.4byte	0x2a28
 16007 2a1a 0E       		.uleb128 0xe
 16008 2a1b 01       		.uleb128 0x1
 16009 2a1c 51       		.byte	0x51
 16010 2a1d 02       		.uleb128 0x2
 16011 2a1e 91       		.byte	0x91
 16012 2a1f 54       		.sleb128 -44
 16013 2a20 0E       		.uleb128 0xe
 16014 2a21 01       		.uleb128 0x1
 16015 2a22 50       		.byte	0x50
 16016 2a23 03       		.uleb128 0x3
 16017 2a24 0A       		.byte	0xa
 16018 2a25 5901     		.2byte	0x159
 16019 2a27 00       		.byte	0
 16020 2a28 0D       		.uleb128 0xd
 16021 2a29 76270000 		.4byte	.LVL478
 16022 2a2d 6D3B0000 		.4byte	0x3b6d
 16023 2a31 462A0000 		.4byte	0x2a46
 16024 2a35 0E       		.uleb128 0xe
 16025 2a36 01       		.uleb128 0x1
 16026 2a37 51       		.byte	0x51
 16027 2a38 05       		.uleb128 0x5
 16028 2a39 03       		.byte	0x3
 16029 2a3a 00000000 		.4byte	resultado
 16030 2a3e 0E       		.uleb128 0xe
 16031 2a3f 01       		.uleb128 0x1
 16032 2a40 50       		.byte	0x50
 16033 2a41 03       		.uleb128 0x3
 16034 2a42 0A       		.byte	0xa
 16035 2a43 4D02     		.2byte	0x24d
 16036 2a45 00       		.byte	0
 16037 2a46 0D       		.uleb128 0xd
 16038 2a47 BA270000 		.4byte	.LVL479
 16039 2a4b 873B0000 		.4byte	0x3b87
 16040 2a4f 5A2A0000 		.4byte	0x2a5a
 16041 2a53 0E       		.uleb128 0xe
 16042 2a54 01       		.uleb128 0x1
 16043 2a55 50       		.byte	0x50
 16044 2a56 02       		.uleb128 0x2
 16045 2a57 74       		.byte	0x74
 16046 2a58 00       		.sleb128 0
 16047 2a59 00       		.byte	0
 16048 2a5a 0D       		.uleb128 0xd
 16049 2a5b D2270000 		.4byte	.LVL480
 16050 2a5f 873B0000 		.4byte	0x3b87
 16051 2a63 732A0000 		.4byte	0x2a73
 16052 2a67 0E       		.uleb128 0xe
 16053 2a68 01       		.uleb128 0x1
 16054 2a69 51       		.byte	0x51
ARM GAS  C:\Users\IN-002~1\AppData\Local\Temp\ccxO8rjh.s 			page 323


 16055 2a6a 01       		.uleb128 0x1
 16056 2a6b 3A       		.byte	0x3a
 16057 2a6c 0E       		.uleb128 0xe
 16058 2a6d 01       		.uleb128 0x1
 16059 2a6e 50       		.byte	0x50
 16060 2a6f 02       		.uleb128 0x2
 16061 2a70 74       		.byte	0x74
 16062 2a71 00       		.sleb128 0
 16063 2a72 00       		.byte	0
 16064 2a73 0D       		.uleb128 0xd
 16065 2a74 E4270000 		.4byte	.LVL481
 16066 2a78 873B0000 		.4byte	0x3b87
 16067 2a7c 872A0000 		.4byte	0x2a87
 16068 2a80 0E       		.uleb128 0xe
 16069 2a81 01       		.uleb128 0x1
 16070 2a82 50       		.byte	0x50
 16071 2a83 02       		.uleb128 0x2
 16072 2a84 74       		.byte	0x74
 16073 2a85 00       		.sleb128 0
 16074 2a86 00       		.byte	0
 16075 2a87 0D       		.uleb128 0xd
 16076 2a88 FC270000 		.4byte	.LVL482
 16077 2a8c 873B0000 		.4byte	0x3b87
 16078 2a90 A02A0000 		.4byte	0x2aa0
 16079 2a94 0E       		.uleb128 0xe
 16080 2a95 01       		.uleb128 0x1
 16081 2a96 51       		.byte	0x51
 16082 2a97 01       		.uleb128 0x1
 16083 2a98 3A       		.byte	0x3a
 16084 2a99 0E       		.uleb128 0xe
 16085 2a9a 01       		.uleb128 0x1
 16086 2a9b 50       		.byte	0x50
 16087 2a9c 02       		.uleb128 0x2
 16088 2a9d 74       		.byte	0x74
 16089 2a9e 00       		.sleb128 0
 16090 2a9f 00       		.byte	0
 16091 2aa0 0D       		.uleb128 0xd
 16092 2aa1 48280000 		.4byte	.LVL483
 16093 2aa5 873B0000 		.4byte	0x3b87
 16094 2aa9 B42A0000 		.4byte	0x2ab4
 16095 2aad 0E       		.uleb128 0xe
 16096 2aae 01       		.uleb128 0x1
 16097 2aaf 50       		.byte	0x50
 16098 2ab0 02       		.uleb128 0x2
 16099 2ab1 74       		.byte	0x74
 16100 2ab2 00       		.sleb128 0
 16101 2ab3 00       		.byte	0
 16102 2ab4 0D       		.uleb128 0xd
 16103 2ab5 60280000 		.4byte	.LVL484
 16104 2ab9 873B0000 		.4byte	0x3b87
 16105 2abd CD2A0000 		.4byte	0x2acd
 16106 2ac1 0E       		.uleb128 0xe
 16107 2ac2 01       		.uleb128 0x1
 16108 2ac3 51       		.byte	0x51
 16109 2ac4 01       		.uleb128 0x1
 16110 2ac5 3A       		.byte	0x3a
 16111 2ac6 0E       		.uleb128 0xe
ARM GAS  C:\Users\IN-002~1\AppData\Local\Temp\ccxO8rjh.s 			page 324


 16112 2ac7 01       		.uleb128 0x1
 16113 2ac8 50       		.byte	0x50
 16114 2ac9 02       		.uleb128 0x2
 16115 2aca 74       		.byte	0x74
 16116 2acb 00       		.sleb128 0
 16117 2acc 00       		.byte	0
 16118 2acd 0D       		.uleb128 0xd
 16119 2ace 68280000 		.4byte	.LVL485
 16120 2ad2 A13B0000 		.4byte	0x3ba1
 16121 2ad6 E62A0000 		.4byte	0x2ae6
 16122 2ada 0E       		.uleb128 0xe
 16123 2adb 01       		.uleb128 0x1
 16124 2adc 51       		.byte	0x51
 16125 2add 02       		.uleb128 0x2
 16126 2ade 74       		.byte	0x74
 16127 2adf 00       		.sleb128 0
 16128 2ae0 0E       		.uleb128 0xe
 16129 2ae1 01       		.uleb128 0x1
 16130 2ae2 50       		.byte	0x50
 16131 2ae3 01       		.uleb128 0x1
 16132 2ae4 3C       		.byte	0x3c
 16133 2ae5 00       		.byte	0
 16134 2ae6 0D       		.uleb128 0xd
 16135 2ae7 7C280000 		.4byte	.LVL486
 16136 2aeb 873B0000 		.4byte	0x3b87
 16137 2aef FA2A0000 		.4byte	0x2afa
 16138 2af3 0E       		.uleb128 0xe
 16139 2af4 01       		.uleb128 0x1
 16140 2af5 50       		.byte	0x50
 16141 2af6 02       		.uleb128 0x2
 16142 2af7 74       		.byte	0x74
 16143 2af8 00       		.sleb128 0
 16144 2af9 00       		.byte	0
 16145 2afa 0D       		.uleb128 0xd
 16146 2afb 94280000 		.4byte	.LVL487
 16147 2aff 873B0000 		.4byte	0x3b87
 16148 2b03 132B0000 		.4byte	0x2b13
 16149 2b07 0E       		.uleb128 0xe
 16150 2b08 01       		.uleb128 0x1
 16151 2b09 51       		.byte	0x51
 16152 2b0a 01       		.uleb128 0x1
 16153 2b0b 3A       		.byte	0x3a
 16154 2b0c 0E       		.uleb128 0xe
 16155 2b0d 01       		.uleb128 0x1
 16156 2b0e 50       		.byte	0x50
 16157 2b0f 02       		.uleb128 0x2
 16158 2b10 74       		.byte	0x74
 16159 2b11 00       		.sleb128 0
 16160 2b12 00       		.byte	0
 16161 2b13 0D       		.uleb128 0xd
 16162 2b14 A6280000 		.4byte	.LVL488
 16163 2b18 B73B0000 		.4byte	0x3bb7
 16164 2b1c 2D2B0000 		.4byte	0x2b2d
 16165 2b20 0E       		.uleb128 0xe
 16166 2b21 01       		.uleb128 0x1
 16167 2b22 51       		.byte	0x51
 16168 2b23 01       		.uleb128 0x1
ARM GAS  C:\Users\IN-002~1\AppData\Local\Temp\ccxO8rjh.s 			page 325


 16169 2b24 49       		.byte	0x49
 16170 2b25 0E       		.uleb128 0xe
 16171 2b26 01       		.uleb128 0x1
 16172 2b27 50       		.byte	0x50
 16173 2b28 03       		.uleb128 0x3
 16174 2b29 0A       		.byte	0xa
 16175 2b2a 4804     		.2byte	0x448
 16176 2b2c 00       		.byte	0
 16177 2b2d 0D       		.uleb128 0xd
 16178 2b2e B2280000 		.4byte	.LVL489
 16179 2b32 B73B0000 		.4byte	0x3bb7
 16180 2b36 472B0000 		.4byte	0x2b47
 16181 2b3a 0E       		.uleb128 0xe
 16182 2b3b 01       		.uleb128 0x1
 16183 2b3c 51       		.byte	0x51
 16184 2b3d 01       		.uleb128 0x1
 16185 2b3e 49       		.byte	0x49
 16186 2b3f 0E       		.uleb128 0xe
 16187 2b40 01       		.uleb128 0x1
 16188 2b41 50       		.byte	0x50
 16189 2b42 03       		.uleb128 0x3
 16190 2b43 0A       		.byte	0xa
 16191 2b44 1E04     		.2byte	0x41e
 16192 2b46 00       		.byte	0
 16193 2b47 0D       		.uleb128 0xd
 16194 2b48 B8280000 		.4byte	.LVL490
 16195 2b4c D13B0000 		.4byte	0x3bd1
 16196 2b50 5B2B0000 		.4byte	0x2b5b
 16197 2b54 0E       		.uleb128 0xe
 16198 2b55 01       		.uleb128 0x1
 16199 2b56 50       		.byte	0x50
 16200 2b57 02       		.uleb128 0x2
 16201 2b58 74       		.byte	0x74
 16202 2b59 00       		.sleb128 0
 16203 2b5a 00       		.byte	0
 16204 2b5b 0D       		.uleb128 0xd
 16205 2b5c FA280000 		.4byte	.LVL491
 16206 2b60 E23B0000 		.4byte	0x3be2
 16207 2b64 7B2B0000 		.4byte	0x2b7b
 16208 2b68 0E       		.uleb128 0xe
 16209 2b69 01       		.uleb128 0x1
 16210 2b6a 52       		.byte	0x52
 16211 2b6b 03       		.uleb128 0x3
 16212 2b6c 91       		.byte	0x91
 16213 2b6d B47F     		.sleb128 -76
 16214 2b6f 0E       		.uleb128 0xe
 16215 2b70 01       		.uleb128 0x1
 16216 2b71 51       		.byte	0x51
 16217 2b72 02       		.uleb128 0x2
 16218 2b73 91       		.byte	0x91
 16219 2b74 44       		.sleb128 -60
 16220 2b75 0E       		.uleb128 0xe
 16221 2b76 01       		.uleb128 0x1
 16222 2b77 50       		.byte	0x50
 16223 2b78 01       		.uleb128 0x1
 16224 2b79 32       		.byte	0x32
 16225 2b7a 00       		.byte	0
ARM GAS  C:\Users\IN-002~1\AppData\Local\Temp\ccxO8rjh.s 			page 326


 16226 2b7b 0D       		.uleb128 0xd
 16227 2b7c 10290000 		.4byte	.LVL492
 16228 2b80 873B0000 		.4byte	0x3b87
 16229 2b84 8F2B0000 		.4byte	0x2b8f
 16230 2b88 0E       		.uleb128 0xe
 16231 2b89 01       		.uleb128 0x1
 16232 2b8a 50       		.byte	0x50
 16233 2b8b 02       		.uleb128 0x2
 16234 2b8c 74       		.byte	0x74
 16235 2b8d 00       		.sleb128 0
 16236 2b8e 00       		.byte	0
 16237 2b8f 0D       		.uleb128 0xd
 16238 2b90 28290000 		.4byte	.LVL493
 16239 2b94 FD3B0000 		.4byte	0x3bfd
 16240 2b98 AC2B0000 		.4byte	0x2bac
 16241 2b9c 0E       		.uleb128 0xe
 16242 2b9d 01       		.uleb128 0x1
 16243 2b9e 51       		.byte	0x51
 16244 2b9f 02       		.uleb128 0x2
 16245 2ba0 74       		.byte	0x74
 16246 2ba1 00       		.sleb128 0
 16247 2ba2 0E       		.uleb128 0xe
 16248 2ba3 01       		.uleb128 0x1
 16249 2ba4 50       		.byte	0x50
 16250 2ba5 05       		.uleb128 0x5
 16251 2ba6 03       		.byte	0x3
 16252 2ba7 00000000 		.4byte	resultado
 16253 2bab 00       		.byte	0
 16254 2bac 0D       		.uleb128 0xd
 16255 2bad 3A290000 		.4byte	.LVL494
 16256 2bb1 6D3B0000 		.4byte	0x3b6d
 16257 2bb5 C72B0000 		.4byte	0x2bc7
 16258 2bb9 0E       		.uleb128 0xe
 16259 2bba 01       		.uleb128 0x1
 16260 2bbb 51       		.byte	0x51
 16261 2bbc 02       		.uleb128 0x2
 16262 2bbd 91       		.byte	0x91
 16263 2bbe 54       		.sleb128 -44
 16264 2bbf 0E       		.uleb128 0xe
 16265 2bc0 01       		.uleb128 0x1
 16266 2bc1 50       		.byte	0x50
 16267 2bc2 03       		.uleb128 0x3
 16268 2bc3 0A       		.byte	0xa
 16269 2bc4 4804     		.2byte	0x448
 16270 2bc6 00       		.byte	0
 16271 2bc7 0D       		.uleb128 0xd
 16272 2bc8 44290000 		.4byte	.LVL495
 16273 2bcc 6D3B0000 		.4byte	0x3b6d
 16274 2bd0 E52B0000 		.4byte	0x2be5
 16275 2bd4 0E       		.uleb128 0xe
 16276 2bd5 01       		.uleb128 0x1
 16277 2bd6 51       		.byte	0x51
 16278 2bd7 05       		.uleb128 0x5
 16279 2bd8 03       		.byte	0x3
 16280 2bd9 00000000 		.4byte	resultado
 16281 2bdd 0E       		.uleb128 0xe
 16282 2bde 01       		.uleb128 0x1
ARM GAS  C:\Users\IN-002~1\AppData\Local\Temp\ccxO8rjh.s 			page 327


 16283 2bdf 50       		.byte	0x50
 16284 2be0 03       		.uleb128 0x3
 16285 2be1 0A       		.byte	0xa
 16286 2be2 0E04     		.2byte	0x40e
 16287 2be4 00       		.byte	0
 16288 2be5 0D       		.uleb128 0xd
 16289 2be6 50290000 		.4byte	.LVL496
 16290 2bea 6D3B0000 		.4byte	0x3b6d
 16291 2bee 002C0000 		.4byte	0x2c00
 16292 2bf2 0E       		.uleb128 0xe
 16293 2bf3 01       		.uleb128 0x1
 16294 2bf4 51       		.byte	0x51
 16295 2bf5 02       		.uleb128 0x2
 16296 2bf6 91       		.byte	0x91
 16297 2bf7 54       		.sleb128 -44
 16298 2bf8 0E       		.uleb128 0xe
 16299 2bf9 01       		.uleb128 0x1
 16300 2bfa 50       		.byte	0x50
 16301 2bfb 03       		.uleb128 0x3
 16302 2bfc 0A       		.byte	0xa
 16303 2bfd 1E04     		.2byte	0x41e
 16304 2bff 00       		.byte	0
 16305 2c00 0D       		.uleb128 0xd
 16306 2c01 5A290000 		.4byte	.LVL497
 16307 2c05 6D3B0000 		.4byte	0x3b6d
 16308 2c09 1E2C0000 		.4byte	0x2c1e
 16309 2c0d 0E       		.uleb128 0xe
 16310 2c0e 01       		.uleb128 0x1
 16311 2c0f 51       		.byte	0x51
 16312 2c10 05       		.uleb128 0x5
 16313 2c11 03       		.byte	0x3
 16314 2c12 00000000 		.4byte	resultado
 16315 2c16 0E       		.uleb128 0xe
 16316 2c17 01       		.uleb128 0x1
 16317 2c18 50       		.byte	0x50
 16318 2c19 03       		.uleb128 0x3
 16319 2c1a 0A       		.byte	0xa
 16320 2c1b 3904     		.2byte	0x439
 16321 2c1d 00       		.byte	0
 16322 2c1e 0F       		.uleb128 0xf
 16323 2c1f 70290000 		.4byte	.LVL498
 16324 2c23 5B3B0000 		.4byte	0x3b5b
 16325 2c27 0D       		.uleb128 0xd
 16326 2c28 A82A0000 		.4byte	.LVL499
 16327 2c2c 873B0000 		.4byte	0x3b87
 16328 2c30 3B2C0000 		.4byte	0x2c3b
 16329 2c34 0E       		.uleb128 0xe
 16330 2c35 01       		.uleb128 0x1
 16331 2c36 50       		.byte	0x50
 16332 2c37 02       		.uleb128 0x2
 16333 2c38 74       		.byte	0x74
 16334 2c39 00       		.sleb128 0
 16335 2c3a 00       		.byte	0
 16336 2c3b 0D       		.uleb128 0xd
 16337 2c3c C02A0000 		.4byte	.LVL500
 16338 2c40 873B0000 		.4byte	0x3b87
 16339 2c44 542C0000 		.4byte	0x2c54
ARM GAS  C:\Users\IN-002~1\AppData\Local\Temp\ccxO8rjh.s 			page 328


 16340 2c48 0E       		.uleb128 0xe
 16341 2c49 01       		.uleb128 0x1
 16342 2c4a 51       		.byte	0x51
 16343 2c4b 01       		.uleb128 0x1
 16344 2c4c 3A       		.byte	0x3a
 16345 2c4d 0E       		.uleb128 0xe
 16346 2c4e 01       		.uleb128 0x1
 16347 2c4f 50       		.byte	0x50
 16348 2c50 02       		.uleb128 0x2
 16349 2c51 74       		.byte	0x74
 16350 2c52 00       		.sleb128 0
 16351 2c53 00       		.byte	0
 16352 2c54 0D       		.uleb128 0xd
 16353 2c55 D22A0000 		.4byte	.LVL501
 16354 2c59 873B0000 		.4byte	0x3b87
 16355 2c5d 682C0000 		.4byte	0x2c68
 16356 2c61 0E       		.uleb128 0xe
 16357 2c62 01       		.uleb128 0x1
 16358 2c63 50       		.byte	0x50
 16359 2c64 02       		.uleb128 0x2
 16360 2c65 74       		.byte	0x74
 16361 2c66 00       		.sleb128 0
 16362 2c67 00       		.byte	0
 16363 2c68 0D       		.uleb128 0xd
 16364 2c69 EA2A0000 		.4byte	.LVL502
 16365 2c6d 873B0000 		.4byte	0x3b87
 16366 2c71 812C0000 		.4byte	0x2c81
 16367 2c75 0E       		.uleb128 0xe
 16368 2c76 01       		.uleb128 0x1
 16369 2c77 51       		.byte	0x51
 16370 2c78 01       		.uleb128 0x1
 16371 2c79 3A       		.byte	0x3a
 16372 2c7a 0E       		.uleb128 0xe
 16373 2c7b 01       		.uleb128 0x1
 16374 2c7c 50       		.byte	0x50
 16375 2c7d 02       		.uleb128 0x2
 16376 2c7e 74       		.byte	0x74
 16377 2c7f 00       		.sleb128 0
 16378 2c80 00       		.byte	0
 16379 2c81 0D       		.uleb128 0xd
 16380 2c82 382B0000 		.4byte	.LVL503
 16381 2c86 873B0000 		.4byte	0x3b87
 16382 2c8a 952C0000 		.4byte	0x2c95
 16383 2c8e 0E       		.uleb128 0xe
 16384 2c8f 01       		.uleb128 0x1
 16385 2c90 50       		.byte	0x50
 16386 2c91 02       		.uleb128 0x2
 16387 2c92 74       		.byte	0x74
 16388 2c93 00       		.sleb128 0
 16389 2c94 00       		.byte	0
 16390 2c95 0D       		.uleb128 0xd
 16391 2c96 502B0000 		.4byte	.LVL504
 16392 2c9a 873B0000 		.4byte	0x3b87
 16393 2c9e AE2C0000 		.4byte	0x2cae
 16394 2ca2 0E       		.uleb128 0xe
 16395 2ca3 01       		.uleb128 0x1
 16396 2ca4 51       		.byte	0x51
ARM GAS  C:\Users\IN-002~1\AppData\Local\Temp\ccxO8rjh.s 			page 329


 16397 2ca5 01       		.uleb128 0x1
 16398 2ca6 3A       		.byte	0x3a
 16399 2ca7 0E       		.uleb128 0xe
 16400 2ca8 01       		.uleb128 0x1
 16401 2ca9 50       		.byte	0x50
 16402 2caa 02       		.uleb128 0x2
 16403 2cab 74       		.byte	0x74
 16404 2cac 00       		.sleb128 0
 16405 2cad 00       		.byte	0
 16406 2cae 0D       		.uleb128 0xd
 16407 2caf 582B0000 		.4byte	.LVL505
 16408 2cb3 A13B0000 		.4byte	0x3ba1
 16409 2cb7 C72C0000 		.4byte	0x2cc7
 16410 2cbb 0E       		.uleb128 0xe
 16411 2cbc 01       		.uleb128 0x1
 16412 2cbd 51       		.byte	0x51
 16413 2cbe 02       		.uleb128 0x2
 16414 2cbf 74       		.byte	0x74
 16415 2cc0 00       		.sleb128 0
 16416 2cc1 0E       		.uleb128 0xe
 16417 2cc2 01       		.uleb128 0x1
 16418 2cc3 50       		.byte	0x50
 16419 2cc4 01       		.uleb128 0x1
 16420 2cc5 3C       		.byte	0x3c
 16421 2cc6 00       		.byte	0
 16422 2cc7 0D       		.uleb128 0xd
 16423 2cc8 6C2B0000 		.4byte	.LVL506
 16424 2ccc 873B0000 		.4byte	0x3b87
 16425 2cd0 DB2C0000 		.4byte	0x2cdb
 16426 2cd4 0E       		.uleb128 0xe
 16427 2cd5 01       		.uleb128 0x1
 16428 2cd6 50       		.byte	0x50
 16429 2cd7 02       		.uleb128 0x2
 16430 2cd8 74       		.byte	0x74
 16431 2cd9 00       		.sleb128 0
 16432 2cda 00       		.byte	0
 16433 2cdb 0D       		.uleb128 0xd
 16434 2cdc 842B0000 		.4byte	.LVL507
 16435 2ce0 873B0000 		.4byte	0x3b87
 16436 2ce4 F42C0000 		.4byte	0x2cf4
 16437 2ce8 0E       		.uleb128 0xe
 16438 2ce9 01       		.uleb128 0x1
 16439 2cea 51       		.byte	0x51
 16440 2ceb 01       		.uleb128 0x1
 16441 2cec 3A       		.byte	0x3a
 16442 2ced 0E       		.uleb128 0xe
 16443 2cee 01       		.uleb128 0x1
 16444 2cef 50       		.byte	0x50
 16445 2cf0 02       		.uleb128 0x2
 16446 2cf1 74       		.byte	0x74
 16447 2cf2 00       		.sleb128 0
 16448 2cf3 00       		.byte	0
 16449 2cf4 0D       		.uleb128 0xd
 16450 2cf5 942B0000 		.4byte	.LVL508
 16451 2cf9 B73B0000 		.4byte	0x3bb7
 16452 2cfd 0D2D0000 		.4byte	0x2d0d
 16453 2d01 0E       		.uleb128 0xe
ARM GAS  C:\Users\IN-002~1\AppData\Local\Temp\ccxO8rjh.s 			page 330


 16454 2d02 01       		.uleb128 0x1
 16455 2d03 51       		.byte	0x51
 16456 2d04 01       		.uleb128 0x1
 16457 2d05 49       		.byte	0x49
 16458 2d06 0E       		.uleb128 0xe
 16459 2d07 01       		.uleb128 0x1
 16460 2d08 50       		.byte	0x50
 16461 2d09 02       		.uleb128 0x2
 16462 2d0a 08       		.byte	0x8
 16463 2d0b C0       		.byte	0xc0
 16464 2d0c 00       		.byte	0
 16465 2d0d 0D       		.uleb128 0xd
 16466 2d0e A02B0000 		.4byte	.LVL509
 16467 2d12 B73B0000 		.4byte	0x3bb7
 16468 2d16 272D0000 		.4byte	0x2d27
 16469 2d1a 0E       		.uleb128 0xe
 16470 2d1b 01       		.uleb128 0x1
 16471 2d1c 51       		.byte	0x51
 16472 2d1d 01       		.uleb128 0x1
 16473 2d1e 49       		.byte	0x49
 16474 2d1f 0E       		.uleb128 0xe
 16475 2d20 01       		.uleb128 0x1
 16476 2d21 50       		.byte	0x50
 16477 2d22 03       		.uleb128 0x3
 16478 2d23 0A       		.byte	0xa
 16479 2d24 1901     		.2byte	0x119
 16480 2d26 00       		.byte	0
 16481 2d27 0D       		.uleb128 0xd
 16482 2d28 A62B0000 		.4byte	.LVL510
 16483 2d2c D13B0000 		.4byte	0x3bd1
 16484 2d30 3B2D0000 		.4byte	0x2d3b
 16485 2d34 0E       		.uleb128 0xe
 16486 2d35 01       		.uleb128 0x1
 16487 2d36 50       		.byte	0x50
 16488 2d37 02       		.uleb128 0x2
 16489 2d38 74       		.byte	0x74
 16490 2d39 00       		.sleb128 0
 16491 2d3a 00       		.byte	0
 16492 2d3b 0D       		.uleb128 0xd
 16493 2d3c E82B0000 		.4byte	.LVL511
 16494 2d40 E23B0000 		.4byte	0x3be2
 16495 2d44 5B2D0000 		.4byte	0x2d5b
 16496 2d48 0E       		.uleb128 0xe
 16497 2d49 01       		.uleb128 0x1
 16498 2d4a 52       		.byte	0x52
 16499 2d4b 03       		.uleb128 0x3
 16500 2d4c 91       		.byte	0x91
 16501 2d4d B47F     		.sleb128 -76
 16502 2d4f 0E       		.uleb128 0xe
 16503 2d50 01       		.uleb128 0x1
 16504 2d51 51       		.byte	0x51
 16505 2d52 02       		.uleb128 0x2
 16506 2d53 91       		.byte	0x91
 16507 2d54 44       		.sleb128 -60
 16508 2d55 0E       		.uleb128 0xe
 16509 2d56 01       		.uleb128 0x1
 16510 2d57 50       		.byte	0x50
ARM GAS  C:\Users\IN-002~1\AppData\Local\Temp\ccxO8rjh.s 			page 331


 16511 2d58 01       		.uleb128 0x1
 16512 2d59 32       		.byte	0x32
 16513 2d5a 00       		.byte	0
 16514 2d5b 0D       		.uleb128 0xd
 16515 2d5c FE2B0000 		.4byte	.LVL512
 16516 2d60 873B0000 		.4byte	0x3b87
 16517 2d64 6F2D0000 		.4byte	0x2d6f
 16518 2d68 0E       		.uleb128 0xe
 16519 2d69 01       		.uleb128 0x1
 16520 2d6a 50       		.byte	0x50
 16521 2d6b 02       		.uleb128 0x2
 16522 2d6c 74       		.byte	0x74
 16523 2d6d 00       		.sleb128 0
 16524 2d6e 00       		.byte	0
 16525 2d6f 0D       		.uleb128 0xd
 16526 2d70 162C0000 		.4byte	.LVL513
 16527 2d74 FD3B0000 		.4byte	0x3bfd
 16528 2d78 8C2D0000 		.4byte	0x2d8c
 16529 2d7c 0E       		.uleb128 0xe
 16530 2d7d 01       		.uleb128 0x1
 16531 2d7e 51       		.byte	0x51
 16532 2d7f 02       		.uleb128 0x2
 16533 2d80 74       		.byte	0x74
 16534 2d81 00       		.sleb128 0
 16535 2d82 0E       		.uleb128 0xe
 16536 2d83 01       		.uleb128 0x1
 16537 2d84 50       		.byte	0x50
 16538 2d85 05       		.uleb128 0x5
 16539 2d86 03       		.byte	0x3
 16540 2d87 00000000 		.4byte	resultado
 16541 2d8b 00       		.byte	0
 16542 2d8c 0D       		.uleb128 0xd
 16543 2d8d 262C0000 		.4byte	.LVL514
 16544 2d91 6D3B0000 		.4byte	0x3b6d
 16545 2d95 A62D0000 		.4byte	0x2da6
 16546 2d99 0E       		.uleb128 0xe
 16547 2d9a 01       		.uleb128 0x1
 16548 2d9b 51       		.byte	0x51
 16549 2d9c 02       		.uleb128 0x2
 16550 2d9d 91       		.byte	0x91
 16551 2d9e 54       		.sleb128 -44
 16552 2d9f 0E       		.uleb128 0xe
 16553 2da0 01       		.uleb128 0x1
 16554 2da1 50       		.byte	0x50
 16555 2da2 02       		.uleb128 0x2
 16556 2da3 08       		.byte	0x8
 16557 2da4 C0       		.byte	0xc0
 16558 2da5 00       		.byte	0
 16559 2da6 0D       		.uleb128 0xd
 16560 2da7 302C0000 		.4byte	.LVL515
 16561 2dab 6D3B0000 		.4byte	0x3b6d
 16562 2daf C42D0000 		.4byte	0x2dc4
 16563 2db3 0E       		.uleb128 0xe
 16564 2db4 01       		.uleb128 0x1
 16565 2db5 51       		.byte	0x51
 16566 2db6 05       		.uleb128 0x5
 16567 2db7 03       		.byte	0x3
ARM GAS  C:\Users\IN-002~1\AppData\Local\Temp\ccxO8rjh.s 			page 332


 16568 2db8 00000000 		.4byte	resultado
 16569 2dbc 0E       		.uleb128 0xe
 16570 2dbd 01       		.uleb128 0x1
 16571 2dbe 50       		.byte	0x50
 16572 2dbf 03       		.uleb128 0x3
 16573 2dc0 0A       		.byte	0xa
 16574 2dc1 0002     		.2byte	0x200
 16575 2dc3 00       		.byte	0
 16576 2dc4 0D       		.uleb128 0xd
 16577 2dc5 3C2C0000 		.4byte	.LVL516
 16578 2dc9 6D3B0000 		.4byte	0x3b6d
 16579 2dcd DF2D0000 		.4byte	0x2ddf
 16580 2dd1 0E       		.uleb128 0xe
 16581 2dd2 01       		.uleb128 0x1
 16582 2dd3 51       		.byte	0x51
 16583 2dd4 02       		.uleb128 0x2
 16584 2dd5 91       		.byte	0x91
 16585 2dd6 54       		.sleb128 -44
 16586 2dd7 0E       		.uleb128 0xe
 16587 2dd8 01       		.uleb128 0x1
 16588 2dd9 50       		.byte	0x50
 16589 2dda 03       		.uleb128 0x3
 16590 2ddb 0A       		.byte	0xa
 16591 2ddc 1901     		.2byte	0x119
 16592 2dde 00       		.byte	0
 16593 2ddf 0D       		.uleb128 0xd
 16594 2de0 462C0000 		.4byte	.LVL517
 16595 2de4 6D3B0000 		.4byte	0x3b6d
 16596 2de8 FD2D0000 		.4byte	0x2dfd
 16597 2dec 0E       		.uleb128 0xe
 16598 2ded 01       		.uleb128 0x1
 16599 2dee 51       		.byte	0x51
 16600 2def 05       		.uleb128 0x5
 16601 2df0 03       		.byte	0x3
 16602 2df1 00000000 		.4byte	resultado
 16603 2df5 0E       		.uleb128 0xe
 16604 2df6 01       		.uleb128 0x1
 16605 2df7 50       		.byte	0x50
 16606 2df8 03       		.uleb128 0x3
 16607 2df9 0A       		.byte	0xa
 16608 2dfa 2702     		.2byte	0x227
 16609 2dfc 00       		.byte	0
 16610 2dfd 0D       		.uleb128 0xd
 16611 2dfe 8A2C0000 		.4byte	.LVL518
 16612 2e02 873B0000 		.4byte	0x3b87
 16613 2e06 112E0000 		.4byte	0x2e11
 16614 2e0a 0E       		.uleb128 0xe
 16615 2e0b 01       		.uleb128 0x1
 16616 2e0c 50       		.byte	0x50
 16617 2e0d 02       		.uleb128 0x2
 16618 2e0e 74       		.byte	0x74
 16619 2e0f 00       		.sleb128 0
 16620 2e10 00       		.byte	0
 16621 2e11 0D       		.uleb128 0xd
 16622 2e12 A22C0000 		.4byte	.LVL519
 16623 2e16 873B0000 		.4byte	0x3b87
 16624 2e1a 2A2E0000 		.4byte	0x2e2a
ARM GAS  C:\Users\IN-002~1\AppData\Local\Temp\ccxO8rjh.s 			page 333


 16625 2e1e 0E       		.uleb128 0xe
 16626 2e1f 01       		.uleb128 0x1
 16627 2e20 51       		.byte	0x51
 16628 2e21 01       		.uleb128 0x1
 16629 2e22 3A       		.byte	0x3a
 16630 2e23 0E       		.uleb128 0xe
 16631 2e24 01       		.uleb128 0x1
 16632 2e25 50       		.byte	0x50
 16633 2e26 02       		.uleb128 0x2
 16634 2e27 74       		.byte	0x74
 16635 2e28 00       		.sleb128 0
 16636 2e29 00       		.byte	0
 16637 2e2a 0D       		.uleb128 0xd
 16638 2e2b B42C0000 		.4byte	.LVL520
 16639 2e2f 873B0000 		.4byte	0x3b87
 16640 2e33 3E2E0000 		.4byte	0x2e3e
 16641 2e37 0E       		.uleb128 0xe
 16642 2e38 01       		.uleb128 0x1
 16643 2e39 50       		.byte	0x50
 16644 2e3a 02       		.uleb128 0x2
 16645 2e3b 74       		.byte	0x74
 16646 2e3c 00       		.sleb128 0
 16647 2e3d 00       		.byte	0
 16648 2e3e 0D       		.uleb128 0xd
 16649 2e3f CC2C0000 		.4byte	.LVL521
 16650 2e43 873B0000 		.4byte	0x3b87
 16651 2e47 572E0000 		.4byte	0x2e57
 16652 2e4b 0E       		.uleb128 0xe
 16653 2e4c 01       		.uleb128 0x1
 16654 2e4d 51       		.byte	0x51
 16655 2e4e 01       		.uleb128 0x1
 16656 2e4f 3A       		.byte	0x3a
 16657 2e50 0E       		.uleb128 0xe
 16658 2e51 01       		.uleb128 0x1
 16659 2e52 50       		.byte	0x50
 16660 2e53 02       		.uleb128 0x2
 16661 2e54 74       		.byte	0x74
 16662 2e55 00       		.sleb128 0
 16663 2e56 00       		.byte	0
 16664 2e57 0D       		.uleb128 0xd
 16665 2e58 E02C0000 		.4byte	.LVL522
 16666 2e5c 873B0000 		.4byte	0x3b87
 16667 2e60 6B2E0000 		.4byte	0x2e6b
 16668 2e64 0E       		.uleb128 0xe
 16669 2e65 01       		.uleb128 0x1
 16670 2e66 50       		.byte	0x50
 16671 2e67 02       		.uleb128 0x2
 16672 2e68 74       		.byte	0x74
 16673 2e69 00       		.sleb128 0
 16674 2e6a 00       		.byte	0
 16675 2e6b 0D       		.uleb128 0xd
 16676 2e6c F82C0000 		.4byte	.LVL523
 16677 2e70 873B0000 		.4byte	0x3b87
 16678 2e74 842E0000 		.4byte	0x2e84
 16679 2e78 0E       		.uleb128 0xe
 16680 2e79 01       		.uleb128 0x1
 16681 2e7a 51       		.byte	0x51
ARM GAS  C:\Users\IN-002~1\AppData\Local\Temp\ccxO8rjh.s 			page 334


 16682 2e7b 01       		.uleb128 0x1
 16683 2e7c 3A       		.byte	0x3a
 16684 2e7d 0E       		.uleb128 0xe
 16685 2e7e 01       		.uleb128 0x1
 16686 2e7f 50       		.byte	0x50
 16687 2e80 02       		.uleb128 0x2
 16688 2e81 74       		.byte	0x74
 16689 2e82 00       		.sleb128 0
 16690 2e83 00       		.byte	0
 16691 2e84 0D       		.uleb128 0xd
 16692 2e85 002D0000 		.4byte	.LVL524
 16693 2e89 A13B0000 		.4byte	0x3ba1
 16694 2e8d 9D2E0000 		.4byte	0x2e9d
 16695 2e91 0E       		.uleb128 0xe
 16696 2e92 01       		.uleb128 0x1
 16697 2e93 51       		.byte	0x51
 16698 2e94 02       		.uleb128 0x2
 16699 2e95 74       		.byte	0x74
 16700 2e96 00       		.sleb128 0
 16701 2e97 0E       		.uleb128 0xe
 16702 2e98 01       		.uleb128 0x1
 16703 2e99 50       		.byte	0x50
 16704 2e9a 01       		.uleb128 0x1
 16705 2e9b 3C       		.byte	0x3c
 16706 2e9c 00       		.byte	0
 16707 2e9d 0D       		.uleb128 0xd
 16708 2e9e 142D0000 		.4byte	.LVL525
 16709 2ea2 873B0000 		.4byte	0x3b87
 16710 2ea6 B12E0000 		.4byte	0x2eb1
 16711 2eaa 0E       		.uleb128 0xe
 16712 2eab 01       		.uleb128 0x1
 16713 2eac 50       		.byte	0x50
 16714 2ead 02       		.uleb128 0x2
 16715 2eae 74       		.byte	0x74
 16716 2eaf 00       		.sleb128 0
 16717 2eb0 00       		.byte	0
 16718 2eb1 0D       		.uleb128 0xd
 16719 2eb2 2C2D0000 		.4byte	.LVL526
 16720 2eb6 873B0000 		.4byte	0x3b87
 16721 2eba CA2E0000 		.4byte	0x2eca
 16722 2ebe 0E       		.uleb128 0xe
 16723 2ebf 01       		.uleb128 0x1
 16724 2ec0 51       		.byte	0x51
 16725 2ec1 01       		.uleb128 0x1
 16726 2ec2 3A       		.byte	0x3a
 16727 2ec3 0E       		.uleb128 0xe
 16728 2ec4 01       		.uleb128 0x1
 16729 2ec5 50       		.byte	0x50
 16730 2ec6 02       		.uleb128 0x2
 16731 2ec7 74       		.byte	0x74
 16732 2ec8 00       		.sleb128 0
 16733 2ec9 00       		.byte	0
 16734 2eca 0D       		.uleb128 0xd
 16735 2ecb 3C2D0000 		.4byte	.LVL527
 16736 2ecf B73B0000 		.4byte	0x3bb7
 16737 2ed3 E32E0000 		.4byte	0x2ee3
 16738 2ed7 0E       		.uleb128 0xe
ARM GAS  C:\Users\IN-002~1\AppData\Local\Temp\ccxO8rjh.s 			page 335


 16739 2ed8 01       		.uleb128 0x1
 16740 2ed9 51       		.byte	0x51
 16741 2eda 01       		.uleb128 0x1
 16742 2edb 49       		.byte	0x49
 16743 2edc 0E       		.uleb128 0xe
 16744 2edd 01       		.uleb128 0x1
 16745 2ede 50       		.byte	0x50
 16746 2edf 02       		.uleb128 0x2
 16747 2ee0 08       		.byte	0x8
 16748 2ee1 D9       		.byte	0xd9
 16749 2ee2 00       		.byte	0
 16750 2ee3 0D       		.uleb128 0xd
 16751 2ee4 482D0000 		.4byte	.LVL528
 16752 2ee8 B73B0000 		.4byte	0x3bb7
 16753 2eec FD2E0000 		.4byte	0x2efd
 16754 2ef0 0E       		.uleb128 0xe
 16755 2ef1 01       		.uleb128 0x1
 16756 2ef2 51       		.byte	0x51
 16757 2ef3 01       		.uleb128 0x1
 16758 2ef4 49       		.byte	0x49
 16759 2ef5 0E       		.uleb128 0xe
 16760 2ef6 01       		.uleb128 0x1
 16761 2ef7 50       		.byte	0x50
 16762 2ef8 03       		.uleb128 0x3
 16763 2ef9 0A       		.byte	0xa
 16764 2efa 4001     		.2byte	0x140
 16765 2efc 00       		.byte	0
 16766 2efd 0D       		.uleb128 0xd
 16767 2efe 4E2D0000 		.4byte	.LVL529
 16768 2f02 D13B0000 		.4byte	0x3bd1
 16769 2f06 112F0000 		.4byte	0x2f11
 16770 2f0a 0E       		.uleb128 0xe
 16771 2f0b 01       		.uleb128 0x1
 16772 2f0c 50       		.byte	0x50
 16773 2f0d 02       		.uleb128 0x2
 16774 2f0e 74       		.byte	0x74
 16775 2f0f 00       		.sleb128 0
 16776 2f10 00       		.byte	0
 16777 2f11 0D       		.uleb128 0xd
 16778 2f12 902D0000 		.4byte	.LVL530
 16779 2f16 E23B0000 		.4byte	0x3be2
 16780 2f1a 312F0000 		.4byte	0x2f31
 16781 2f1e 0E       		.uleb128 0xe
 16782 2f1f 01       		.uleb128 0x1
 16783 2f20 52       		.byte	0x52
 16784 2f21 03       		.uleb128 0x3
 16785 2f22 91       		.byte	0x91
 16786 2f23 B47F     		.sleb128 -76
 16787 2f25 0E       		.uleb128 0xe
 16788 2f26 01       		.uleb128 0x1
 16789 2f27 51       		.byte	0x51
 16790 2f28 02       		.uleb128 0x2
 16791 2f29 91       		.byte	0x91
 16792 2f2a 44       		.sleb128 -60
 16793 2f2b 0E       		.uleb128 0xe
 16794 2f2c 01       		.uleb128 0x1
 16795 2f2d 50       		.byte	0x50
ARM GAS  C:\Users\IN-002~1\AppData\Local\Temp\ccxO8rjh.s 			page 336


 16796 2f2e 01       		.uleb128 0x1
 16797 2f2f 32       		.byte	0x32
 16798 2f30 00       		.byte	0
 16799 2f31 0D       		.uleb128 0xd
 16800 2f32 A62D0000 		.4byte	.LVL531
 16801 2f36 873B0000 		.4byte	0x3b87
 16802 2f3a 452F0000 		.4byte	0x2f45
 16803 2f3e 0E       		.uleb128 0xe
 16804 2f3f 01       		.uleb128 0x1
 16805 2f40 50       		.byte	0x50
 16806 2f41 02       		.uleb128 0x2
 16807 2f42 74       		.byte	0x74
 16808 2f43 00       		.sleb128 0
 16809 2f44 00       		.byte	0
 16810 2f45 0D       		.uleb128 0xd
 16811 2f46 BE2D0000 		.4byte	.LVL532
 16812 2f4a FD3B0000 		.4byte	0x3bfd
 16813 2f4e 622F0000 		.4byte	0x2f62
 16814 2f52 0E       		.uleb128 0xe
 16815 2f53 01       		.uleb128 0x1
 16816 2f54 51       		.byte	0x51
 16817 2f55 02       		.uleb128 0x2
 16818 2f56 74       		.byte	0x74
 16819 2f57 00       		.sleb128 0
 16820 2f58 0E       		.uleb128 0xe
 16821 2f59 01       		.uleb128 0x1
 16822 2f5a 50       		.byte	0x50
 16823 2f5b 05       		.uleb128 0x5
 16824 2f5c 03       		.byte	0x3
 16825 2f5d 00000000 		.4byte	resultado
 16826 2f61 00       		.byte	0
 16827 2f62 0D       		.uleb128 0xd
 16828 2f63 CE2D0000 		.4byte	.LVL533
 16829 2f67 6D3B0000 		.4byte	0x3b6d
 16830 2f6b 7C2F0000 		.4byte	0x2f7c
 16831 2f6f 0E       		.uleb128 0xe
 16832 2f70 01       		.uleb128 0x1
 16833 2f71 51       		.byte	0x51
 16834 2f72 02       		.uleb128 0x2
 16835 2f73 91       		.byte	0x91
 16836 2f74 54       		.sleb128 -44
 16837 2f75 0E       		.uleb128 0xe
 16838 2f76 01       		.uleb128 0x1
 16839 2f77 50       		.byte	0x50
 16840 2f78 02       		.uleb128 0x2
 16841 2f79 08       		.byte	0x8
 16842 2f7a D9       		.byte	0xd9
 16843 2f7b 00       		.byte	0
 16844 2f7c 0D       		.uleb128 0xd
 16845 2f7d D82D0000 		.4byte	.LVL534
 16846 2f81 6D3B0000 		.4byte	0x3b6d
 16847 2f85 9A2F0000 		.4byte	0x2f9a
 16848 2f89 0E       		.uleb128 0xe
 16849 2f8a 01       		.uleb128 0x1
 16850 2f8b 51       		.byte	0x51
 16851 2f8c 05       		.uleb128 0x5
 16852 2f8d 03       		.byte	0x3
ARM GAS  C:\Users\IN-002~1\AppData\Local\Temp\ccxO8rjh.s 			page 337


 16853 2f8e 00000000 		.4byte	resultado
 16854 2f92 0E       		.uleb128 0xe
 16855 2f93 01       		.uleb128 0x1
 16856 2f94 50       		.byte	0x50
 16857 2f95 03       		.uleb128 0x3
 16858 2f96 0A       		.byte	0xa
 16859 2f97 1A02     		.2byte	0x21a
 16860 2f99 00       		.byte	0
 16861 2f9a 0D       		.uleb128 0xd
 16862 2f9b 122E0000 		.4byte	.LVL535
 16863 2f9f 6D3B0000 		.4byte	0x3b6d
 16864 2fa3 B52F0000 		.4byte	0x2fb5
 16865 2fa7 0E       		.uleb128 0xe
 16866 2fa8 01       		.uleb128 0x1
 16867 2fa9 51       		.byte	0x51
 16868 2faa 02       		.uleb128 0x2
 16869 2fab 91       		.byte	0x91
 16870 2fac 54       		.sleb128 -44
 16871 2fad 0E       		.uleb128 0xe
 16872 2fae 01       		.uleb128 0x1
 16873 2faf 50       		.byte	0x50
 16874 2fb0 03       		.uleb128 0x3
 16875 2fb1 0A       		.byte	0xa
 16876 2fb2 4001     		.2byte	0x140
 16877 2fb4 00       		.byte	0
 16878 2fb5 0D       		.uleb128 0xd
 16879 2fb6 1C2E0000 		.4byte	.LVL536
 16880 2fba 6D3B0000 		.4byte	0x3b6d
 16881 2fbe D32F0000 		.4byte	0x2fd3
 16882 2fc2 0E       		.uleb128 0xe
 16883 2fc3 01       		.uleb128 0x1
 16884 2fc4 51       		.byte	0x51
 16885 2fc5 05       		.uleb128 0x5
 16886 2fc6 03       		.byte	0x3
 16887 2fc7 00000000 		.4byte	resultado
 16888 2fcb 0E       		.uleb128 0xe
 16889 2fcc 01       		.uleb128 0x1
 16890 2fcd 50       		.byte	0x50
 16891 2fce 03       		.uleb128 0x3
 16892 2fcf 0A       		.byte	0xa
 16893 2fd0 4002     		.2byte	0x240
 16894 2fd2 00       		.byte	0
 16895 2fd3 0D       		.uleb128 0xd
 16896 2fd4 602E0000 		.4byte	.LVL537
 16897 2fd8 873B0000 		.4byte	0x3b87
 16898 2fdc E72F0000 		.4byte	0x2fe7
 16899 2fe0 0E       		.uleb128 0xe
 16900 2fe1 01       		.uleb128 0x1
 16901 2fe2 50       		.byte	0x50
 16902 2fe3 02       		.uleb128 0x2
 16903 2fe4 74       		.byte	0x74
 16904 2fe5 00       		.sleb128 0
 16905 2fe6 00       		.byte	0
 16906 2fe7 0D       		.uleb128 0xd
 16907 2fe8 782E0000 		.4byte	.LVL538
 16908 2fec 873B0000 		.4byte	0x3b87
 16909 2ff0 00300000 		.4byte	0x3000
ARM GAS  C:\Users\IN-002~1\AppData\Local\Temp\ccxO8rjh.s 			page 338


 16910 2ff4 0E       		.uleb128 0xe
 16911 2ff5 01       		.uleb128 0x1
 16912 2ff6 51       		.byte	0x51
 16913 2ff7 01       		.uleb128 0x1
 16914 2ff8 3A       		.byte	0x3a
 16915 2ff9 0E       		.uleb128 0xe
 16916 2ffa 01       		.uleb128 0x1
 16917 2ffb 50       		.byte	0x50
 16918 2ffc 02       		.uleb128 0x2
 16919 2ffd 74       		.byte	0x74
 16920 2ffe 00       		.sleb128 0
 16921 2fff 00       		.byte	0
 16922 3000 0D       		.uleb128 0xd
 16923 3001 8A2E0000 		.4byte	.LVL539
 16924 3005 873B0000 		.4byte	0x3b87
 16925 3009 14300000 		.4byte	0x3014
 16926 300d 0E       		.uleb128 0xe
 16927 300e 01       		.uleb128 0x1
 16928 300f 50       		.byte	0x50
 16929 3010 02       		.uleb128 0x2
 16930 3011 74       		.byte	0x74
 16931 3012 00       		.sleb128 0
 16932 3013 00       		.byte	0
 16933 3014 0D       		.uleb128 0xd
 16934 3015 A22E0000 		.4byte	.LVL540
 16935 3019 873B0000 		.4byte	0x3b87
 16936 301d 2D300000 		.4byte	0x302d
 16937 3021 0E       		.uleb128 0xe
 16938 3022 01       		.uleb128 0x1
 16939 3023 51       		.byte	0x51
 16940 3024 01       		.uleb128 0x1
 16941 3025 3A       		.byte	0x3a
 16942 3026 0E       		.uleb128 0xe
 16943 3027 01       		.uleb128 0x1
 16944 3028 50       		.byte	0x50
 16945 3029 02       		.uleb128 0x2
 16946 302a 74       		.byte	0x74
 16947 302b 00       		.sleb128 0
 16948 302c 00       		.byte	0
 16949 302d 0D       		.uleb128 0xd
 16950 302e B62E0000 		.4byte	.LVL541
 16951 3032 873B0000 		.4byte	0x3b87
 16952 3036 41300000 		.4byte	0x3041
 16953 303a 0E       		.uleb128 0xe
 16954 303b 01       		.uleb128 0x1
 16955 303c 50       		.byte	0x50
 16956 303d 02       		.uleb128 0x2
 16957 303e 74       		.byte	0x74
 16958 303f 00       		.sleb128 0
 16959 3040 00       		.byte	0
 16960 3041 0D       		.uleb128 0xd
 16961 3042 CE2E0000 		.4byte	.LVL542
 16962 3046 873B0000 		.4byte	0x3b87
 16963 304a 5A300000 		.4byte	0x305a
 16964 304e 0E       		.uleb128 0xe
 16965 304f 01       		.uleb128 0x1
 16966 3050 51       		.byte	0x51
ARM GAS  C:\Users\IN-002~1\AppData\Local\Temp\ccxO8rjh.s 			page 339


 16967 3051 01       		.uleb128 0x1
 16968 3052 3A       		.byte	0x3a
 16969 3053 0E       		.uleb128 0xe
 16970 3054 01       		.uleb128 0x1
 16971 3055 50       		.byte	0x50
 16972 3056 02       		.uleb128 0x2
 16973 3057 74       		.byte	0x74
 16974 3058 00       		.sleb128 0
 16975 3059 00       		.byte	0
 16976 305a 0D       		.uleb128 0xd
 16977 305b D62E0000 		.4byte	.LVL543
 16978 305f A13B0000 		.4byte	0x3ba1
 16979 3063 73300000 		.4byte	0x3073
 16980 3067 0E       		.uleb128 0xe
 16981 3068 01       		.uleb128 0x1
 16982 3069 51       		.byte	0x51
 16983 306a 02       		.uleb128 0x2
 16984 306b 74       		.byte	0x74
 16985 306c 00       		.sleb128 0
 16986 306d 0E       		.uleb128 0xe
 16987 306e 01       		.uleb128 0x1
 16988 306f 50       		.byte	0x50
 16989 3070 01       		.uleb128 0x1
 16990 3071 3C       		.byte	0x3c
 16991 3072 00       		.byte	0
 16992 3073 0D       		.uleb128 0xd
 16993 3074 EA2E0000 		.4byte	.LVL544
 16994 3078 873B0000 		.4byte	0x3b87
 16995 307c 87300000 		.4byte	0x3087
 16996 3080 0E       		.uleb128 0xe
 16997 3081 01       		.uleb128 0x1
 16998 3082 50       		.byte	0x50
 16999 3083 02       		.uleb128 0x2
 17000 3084 74       		.byte	0x74
 17001 3085 00       		.sleb128 0
 17002 3086 00       		.byte	0
 17003 3087 0D       		.uleb128 0xd
 17004 3088 022F0000 		.4byte	.LVL545
 17005 308c 873B0000 		.4byte	0x3b87
 17006 3090 A0300000 		.4byte	0x30a0
 17007 3094 0E       		.uleb128 0xe
 17008 3095 01       		.uleb128 0x1
 17009 3096 51       		.byte	0x51
 17010 3097 01       		.uleb128 0x1
 17011 3098 3A       		.byte	0x3a
 17012 3099 0E       		.uleb128 0xe
 17013 309a 01       		.uleb128 0x1
 17014 309b 50       		.byte	0x50
 17015 309c 02       		.uleb128 0x2
 17016 309d 74       		.byte	0x74
 17017 309e 00       		.sleb128 0
 17018 309f 00       		.byte	0
 17019 30a0 0D       		.uleb128 0xd
 17020 30a1 142F0000 		.4byte	.LVL546
 17021 30a5 B73B0000 		.4byte	0x3bb7
 17022 30a9 BA300000 		.4byte	0x30ba
 17023 30ad 0E       		.uleb128 0xe
ARM GAS  C:\Users\IN-002~1\AppData\Local\Temp\ccxO8rjh.s 			page 340


 17024 30ae 01       		.uleb128 0x1
 17025 30af 51       		.byte	0x51
 17026 30b0 01       		.uleb128 0x1
 17027 30b1 49       		.byte	0x49
 17028 30b2 0E       		.uleb128 0xe
 17029 30b3 01       		.uleb128 0x1
 17030 30b4 50       		.byte	0x50
 17031 30b5 03       		.uleb128 0x3
 17032 30b6 0A       		.byte	0xa
 17033 30b7 0001     		.2byte	0x100
 17034 30b9 00       		.byte	0
 17035 30ba 0D       		.uleb128 0xd
 17036 30bb 202F0000 		.4byte	.LVL547
 17037 30bf B73B0000 		.4byte	0x3bb7
 17038 30c3 D4300000 		.4byte	0x30d4
 17039 30c7 0E       		.uleb128 0xe
 17040 30c8 01       		.uleb128 0x1
 17041 30c9 51       		.byte	0x51
 17042 30ca 01       		.uleb128 0x1
 17043 30cb 49       		.byte	0x49
 17044 30cc 0E       		.uleb128 0xe
 17045 30cd 01       		.uleb128 0x1
 17046 30ce 50       		.byte	0x50
 17047 30cf 03       		.uleb128 0x3
 17048 30d0 0A       		.byte	0xa
 17049 30d1 5901     		.2byte	0x159
 17050 30d3 00       		.byte	0
 17051 30d4 0D       		.uleb128 0xd
 17052 30d5 262F0000 		.4byte	.LVL548
 17053 30d9 D13B0000 		.4byte	0x3bd1
 17054 30dd E8300000 		.4byte	0x30e8
 17055 30e1 0E       		.uleb128 0xe
 17056 30e2 01       		.uleb128 0x1
 17057 30e3 50       		.byte	0x50
 17058 30e4 02       		.uleb128 0x2
 17059 30e5 74       		.byte	0x74
 17060 30e6 00       		.sleb128 0
 17061 30e7 00       		.byte	0
 17062 30e8 0D       		.uleb128 0xd
 17063 30e9 682F0000 		.4byte	.LVL549
 17064 30ed E23B0000 		.4byte	0x3be2
 17065 30f1 08310000 		.4byte	0x3108
 17066 30f5 0E       		.uleb128 0xe
 17067 30f6 01       		.uleb128 0x1
 17068 30f7 52       		.byte	0x52
 17069 30f8 03       		.uleb128 0x3
 17070 30f9 91       		.byte	0x91
 17071 30fa B47F     		.sleb128 -76
 17072 30fc 0E       		.uleb128 0xe
 17073 30fd 01       		.uleb128 0x1
 17074 30fe 51       		.byte	0x51
 17075 30ff 02       		.uleb128 0x2
 17076 3100 91       		.byte	0x91
 17077 3101 44       		.sleb128 -60
 17078 3102 0E       		.uleb128 0xe
 17079 3103 01       		.uleb128 0x1
 17080 3104 50       		.byte	0x50
ARM GAS  C:\Users\IN-002~1\AppData\Local\Temp\ccxO8rjh.s 			page 341


 17081 3105 01       		.uleb128 0x1
 17082 3106 32       		.byte	0x32
 17083 3107 00       		.byte	0
 17084 3108 0D       		.uleb128 0xd
 17085 3109 7E2F0000 		.4byte	.LVL550
 17086 310d 873B0000 		.4byte	0x3b87
 17087 3111 1C310000 		.4byte	0x311c
 17088 3115 0E       		.uleb128 0xe
 17089 3116 01       		.uleb128 0x1
 17090 3117 50       		.byte	0x50
 17091 3118 02       		.uleb128 0x2
 17092 3119 74       		.byte	0x74
 17093 311a 00       		.sleb128 0
 17094 311b 00       		.byte	0
 17095 311c 0D       		.uleb128 0xd
 17096 311d 962F0000 		.4byte	.LVL551
 17097 3121 FD3B0000 		.4byte	0x3bfd
 17098 3125 39310000 		.4byte	0x3139
 17099 3129 0E       		.uleb128 0xe
 17100 312a 01       		.uleb128 0x1
 17101 312b 51       		.byte	0x51
 17102 312c 02       		.uleb128 0x2
 17103 312d 74       		.byte	0x74
 17104 312e 00       		.sleb128 0
 17105 312f 0E       		.uleb128 0xe
 17106 3130 01       		.uleb128 0x1
 17107 3131 50       		.byte	0x50
 17108 3132 05       		.uleb128 0x5
 17109 3133 03       		.byte	0x3
 17110 3134 00000000 		.4byte	resultado
 17111 3138 00       		.byte	0
 17112 3139 0D       		.uleb128 0xd
 17113 313a A82F0000 		.4byte	.LVL552
 17114 313e 6D3B0000 		.4byte	0x3b6d
 17115 3142 54310000 		.4byte	0x3154
 17116 3146 0E       		.uleb128 0xe
 17117 3147 01       		.uleb128 0x1
 17118 3148 51       		.byte	0x51
 17119 3149 02       		.uleb128 0x2
 17120 314a 91       		.byte	0x91
 17121 314b 54       		.sleb128 -44
 17122 314c 0E       		.uleb128 0xe
 17123 314d 01       		.uleb128 0x1
 17124 314e 50       		.byte	0x50
 17125 314f 03       		.uleb128 0x3
 17126 3150 0A       		.byte	0xa
 17127 3151 0001     		.2byte	0x100
 17128 3153 00       		.byte	0
 17129 3154 0D       		.uleb128 0xd
 17130 3155 B22F0000 		.4byte	.LVL553
 17131 3159 6D3B0000 		.4byte	0x3b6d
 17132 315d 72310000 		.4byte	0x3172
 17133 3161 0E       		.uleb128 0xe
 17134 3162 01       		.uleb128 0x1
 17135 3163 51       		.byte	0x51
 17136 3164 05       		.uleb128 0x5
 17137 3165 03       		.byte	0x3
ARM GAS  C:\Users\IN-002~1\AppData\Local\Temp\ccxO8rjh.s 			page 342


 17138 3166 00000000 		.4byte	resultado
 17139 316a 0E       		.uleb128 0xe
 17140 316b 01       		.uleb128 0x1
 17141 316c 50       		.byte	0x50
 17142 316d 03       		.uleb128 0x3
 17143 316e 0A       		.byte	0xa
 17144 316f 0D02     		.2byte	0x20d
 17145 3171 00       		.byte	0
 17146 3172 0D       		.uleb128 0xd
 17147 3173 BE2F0000 		.4byte	.LVL554
 17148 3177 6D3B0000 		.4byte	0x3b6d
 17149 317b 8D310000 		.4byte	0x318d
 17150 317f 0E       		.uleb128 0xe
 17151 3180 01       		.uleb128 0x1
 17152 3181 51       		.byte	0x51
 17153 3182 02       		.uleb128 0x2
 17154 3183 91       		.byte	0x91
 17155 3184 54       		.sleb128 -44
 17156 3185 0E       		.uleb128 0xe
 17157 3186 01       		.uleb128 0x1
 17158 3187 50       		.byte	0x50
 17159 3188 03       		.uleb128 0x3
 17160 3189 0A       		.byte	0xa
 17161 318a 5901     		.2byte	0x159
 17162 318c 00       		.byte	0
 17163 318d 0D       		.uleb128 0xd
 17164 318e C82F0000 		.4byte	.LVL555
 17165 3192 6D3B0000 		.4byte	0x3b6d
 17166 3196 AB310000 		.4byte	0x31ab
 17167 319a 0E       		.uleb128 0xe
 17168 319b 01       		.uleb128 0x1
 17169 319c 51       		.byte	0x51
 17170 319d 05       		.uleb128 0x5
 17171 319e 03       		.byte	0x3
 17172 319f 00000000 		.4byte	resultado
 17173 31a3 0E       		.uleb128 0xe
 17174 31a4 01       		.uleb128 0x1
 17175 31a5 50       		.byte	0x50
 17176 31a6 03       		.uleb128 0x3
 17177 31a7 0A       		.byte	0xa
 17178 31a8 4D02     		.2byte	0x24d
 17179 31aa 00       		.byte	0
 17180 31ab 0D       		.uleb128 0xd
 17181 31ac 0C300000 		.4byte	.LVL556
 17182 31b0 873B0000 		.4byte	0x3b87
 17183 31b4 BF310000 		.4byte	0x31bf
 17184 31b8 0E       		.uleb128 0xe
 17185 31b9 01       		.uleb128 0x1
 17186 31ba 50       		.byte	0x50
 17187 31bb 02       		.uleb128 0x2
 17188 31bc 74       		.byte	0x74
 17189 31bd 00       		.sleb128 0
 17190 31be 00       		.byte	0
 17191 31bf 0D       		.uleb128 0xd
 17192 31c0 24300000 		.4byte	.LVL557
 17193 31c4 873B0000 		.4byte	0x3b87
 17194 31c8 D8310000 		.4byte	0x31d8
ARM GAS  C:\Users\IN-002~1\AppData\Local\Temp\ccxO8rjh.s 			page 343


 17195 31cc 0E       		.uleb128 0xe
 17196 31cd 01       		.uleb128 0x1
 17197 31ce 51       		.byte	0x51
 17198 31cf 01       		.uleb128 0x1
 17199 31d0 3A       		.byte	0x3a
 17200 31d1 0E       		.uleb128 0xe
 17201 31d2 01       		.uleb128 0x1
 17202 31d3 50       		.byte	0x50
 17203 31d4 02       		.uleb128 0x2
 17204 31d5 74       		.byte	0x74
 17205 31d6 00       		.sleb128 0
 17206 31d7 00       		.byte	0
 17207 31d8 0D       		.uleb128 0xd
 17208 31d9 36300000 		.4byte	.LVL558
 17209 31dd 873B0000 		.4byte	0x3b87
 17210 31e1 EC310000 		.4byte	0x31ec
 17211 31e5 0E       		.uleb128 0xe
 17212 31e6 01       		.uleb128 0x1
 17213 31e7 50       		.byte	0x50
 17214 31e8 02       		.uleb128 0x2
 17215 31e9 74       		.byte	0x74
 17216 31ea 00       		.sleb128 0
 17217 31eb 00       		.byte	0
 17218 31ec 0D       		.uleb128 0xd
 17219 31ed 4E300000 		.4byte	.LVL559
 17220 31f1 873B0000 		.4byte	0x3b87
 17221 31f5 05320000 		.4byte	0x3205
 17222 31f9 0E       		.uleb128 0xe
 17223 31fa 01       		.uleb128 0x1
 17224 31fb 51       		.byte	0x51
 17225 31fc 01       		.uleb128 0x1
 17226 31fd 3A       		.byte	0x3a
 17227 31fe 0E       		.uleb128 0xe
 17228 31ff 01       		.uleb128 0x1
 17229 3200 50       		.byte	0x50
 17230 3201 02       		.uleb128 0x2
 17231 3202 74       		.byte	0x74
 17232 3203 00       		.sleb128 0
 17233 3204 00       		.byte	0
 17234 3205 0D       		.uleb128 0xd
 17235 3206 62300000 		.4byte	.LVL560
 17236 320a 873B0000 		.4byte	0x3b87
 17237 320e 19320000 		.4byte	0x3219
 17238 3212 0E       		.uleb128 0xe
 17239 3213 01       		.uleb128 0x1
 17240 3214 50       		.byte	0x50
 17241 3215 02       		.uleb128 0x2
 17242 3216 74       		.byte	0x74
 17243 3217 00       		.sleb128 0
 17244 3218 00       		.byte	0
 17245 3219 0D       		.uleb128 0xd
 17246 321a 7A300000 		.4byte	.LVL561
 17247 321e 873B0000 		.4byte	0x3b87
 17248 3222 32320000 		.4byte	0x3232
 17249 3226 0E       		.uleb128 0xe
 17250 3227 01       		.uleb128 0x1
 17251 3228 51       		.byte	0x51
ARM GAS  C:\Users\IN-002~1\AppData\Local\Temp\ccxO8rjh.s 			page 344


 17252 3229 01       		.uleb128 0x1
 17253 322a 3A       		.byte	0x3a
 17254 322b 0E       		.uleb128 0xe
 17255 322c 01       		.uleb128 0x1
 17256 322d 50       		.byte	0x50
 17257 322e 02       		.uleb128 0x2
 17258 322f 74       		.byte	0x74
 17259 3230 00       		.sleb128 0
 17260 3231 00       		.byte	0
 17261 3232 0D       		.uleb128 0xd
 17262 3233 82300000 		.4byte	.LVL562
 17263 3237 A13B0000 		.4byte	0x3ba1
 17264 323b 4B320000 		.4byte	0x324b
 17265 323f 0E       		.uleb128 0xe
 17266 3240 01       		.uleb128 0x1
 17267 3241 51       		.byte	0x51
 17268 3242 02       		.uleb128 0x2
 17269 3243 74       		.byte	0x74
 17270 3244 00       		.sleb128 0
 17271 3245 0E       		.uleb128 0xe
 17272 3246 01       		.uleb128 0x1
 17273 3247 50       		.byte	0x50
 17274 3248 01       		.uleb128 0x1
 17275 3249 3C       		.byte	0x3c
 17276 324a 00       		.byte	0
 17277 324b 0D       		.uleb128 0xd
 17278 324c 96300000 		.4byte	.LVL563
 17279 3250 873B0000 		.4byte	0x3b87
 17280 3254 5F320000 		.4byte	0x325f
 17281 3258 0E       		.uleb128 0xe
 17282 3259 01       		.uleb128 0x1
 17283 325a 50       		.byte	0x50
 17284 325b 02       		.uleb128 0x2
 17285 325c 74       		.byte	0x74
 17286 325d 00       		.sleb128 0
 17287 325e 00       		.byte	0
 17288 325f 0D       		.uleb128 0xd
 17289 3260 AE300000 		.4byte	.LVL564
 17290 3264 873B0000 		.4byte	0x3b87
 17291 3268 78320000 		.4byte	0x3278
 17292 326c 0E       		.uleb128 0xe
 17293 326d 01       		.uleb128 0x1
 17294 326e 51       		.byte	0x51
 17295 326f 01       		.uleb128 0x1
 17296 3270 3A       		.byte	0x3a
 17297 3271 0E       		.uleb128 0xe
 17298 3272 01       		.uleb128 0x1
 17299 3273 50       		.byte	0x50
 17300 3274 02       		.uleb128 0x2
 17301 3275 74       		.byte	0x74
 17302 3276 00       		.sleb128 0
 17303 3277 00       		.byte	0
 17304 3278 0D       		.uleb128 0xd
 17305 3279 C0300000 		.4byte	.LVL565
 17306 327d B73B0000 		.4byte	0x3bb7
 17307 3281 92320000 		.4byte	0x3292
 17308 3285 0E       		.uleb128 0xe
ARM GAS  C:\Users\IN-002~1\AppData\Local\Temp\ccxO8rjh.s 			page 345


 17309 3286 01       		.uleb128 0x1
 17310 3287 51       		.byte	0x51
 17311 3288 01       		.uleb128 0x1
 17312 3289 49       		.byte	0x49
 17313 328a 0E       		.uleb128 0xe
 17314 328b 01       		.uleb128 0x1
 17315 328c 50       		.byte	0x50
 17316 328d 03       		.uleb128 0x3
 17317 328e 0A       		.byte	0xa
 17318 328f 4804     		.2byte	0x448
 17319 3291 00       		.byte	0
 17320 3292 0D       		.uleb128 0xd
 17321 3293 06310000 		.4byte	.LVL566
 17322 3297 B73B0000 		.4byte	0x3bb7
 17323 329b AC320000 		.4byte	0x32ac
 17324 329f 0E       		.uleb128 0xe
 17325 32a0 01       		.uleb128 0x1
 17326 32a1 51       		.byte	0x51
 17327 32a2 01       		.uleb128 0x1
 17328 32a3 49       		.byte	0x49
 17329 32a4 0E       		.uleb128 0xe
 17330 32a5 01       		.uleb128 0x1
 17331 32a6 50       		.byte	0x50
 17332 32a7 03       		.uleb128 0x3
 17333 32a8 0A       		.byte	0xa
 17334 32a9 1E04     		.2byte	0x41e
 17335 32ab 00       		.byte	0
 17336 32ac 0D       		.uleb128 0xd
 17337 32ad 0C310000 		.4byte	.LVL567
 17338 32b1 D13B0000 		.4byte	0x3bd1
 17339 32b5 C0320000 		.4byte	0x32c0
 17340 32b9 0E       		.uleb128 0xe
 17341 32ba 01       		.uleb128 0x1
 17342 32bb 50       		.byte	0x50
 17343 32bc 02       		.uleb128 0x2
 17344 32bd 74       		.byte	0x74
 17345 32be 00       		.sleb128 0
 17346 32bf 00       		.byte	0
 17347 32c0 0D       		.uleb128 0xd
 17348 32c1 4E310000 		.4byte	.LVL568
 17349 32c5 E23B0000 		.4byte	0x3be2
 17350 32c9 E0320000 		.4byte	0x32e0
 17351 32cd 0E       		.uleb128 0xe
 17352 32ce 01       		.uleb128 0x1
 17353 32cf 52       		.byte	0x52
 17354 32d0 03       		.uleb128 0x3
 17355 32d1 91       		.byte	0x91
 17356 32d2 B47F     		.sleb128 -76
 17357 32d4 0E       		.uleb128 0xe
 17358 32d5 01       		.uleb128 0x1
 17359 32d6 51       		.byte	0x51
 17360 32d7 02       		.uleb128 0x2
 17361 32d8 91       		.byte	0x91
 17362 32d9 44       		.sleb128 -60
 17363 32da 0E       		.uleb128 0xe
 17364 32db 01       		.uleb128 0x1
 17365 32dc 50       		.byte	0x50
ARM GAS  C:\Users\IN-002~1\AppData\Local\Temp\ccxO8rjh.s 			page 346


 17366 32dd 01       		.uleb128 0x1
 17367 32de 32       		.byte	0x32
 17368 32df 00       		.byte	0
 17369 32e0 0D       		.uleb128 0xd
 17370 32e1 64310000 		.4byte	.LVL569
 17371 32e5 873B0000 		.4byte	0x3b87
 17372 32e9 F4320000 		.4byte	0x32f4
 17373 32ed 0E       		.uleb128 0xe
 17374 32ee 01       		.uleb128 0x1
 17375 32ef 50       		.byte	0x50
 17376 32f0 02       		.uleb128 0x2
 17377 32f1 74       		.byte	0x74
 17378 32f2 00       		.sleb128 0
 17379 32f3 00       		.byte	0
 17380 32f4 0D       		.uleb128 0xd
 17381 32f5 7C310000 		.4byte	.LVL570
 17382 32f9 FD3B0000 		.4byte	0x3bfd
 17383 32fd 11330000 		.4byte	0x3311
 17384 3301 0E       		.uleb128 0xe
 17385 3302 01       		.uleb128 0x1
 17386 3303 51       		.byte	0x51
 17387 3304 02       		.uleb128 0x2
 17388 3305 74       		.byte	0x74
 17389 3306 00       		.sleb128 0
 17390 3307 0E       		.uleb128 0xe
 17391 3308 01       		.uleb128 0x1
 17392 3309 50       		.byte	0x50
 17393 330a 05       		.uleb128 0x5
 17394 330b 03       		.byte	0x3
 17395 330c 00000000 		.4byte	resultado
 17396 3310 00       		.byte	0
 17397 3311 0D       		.uleb128 0xd
 17398 3312 8E310000 		.4byte	.LVL571
 17399 3316 6D3B0000 		.4byte	0x3b6d
 17400 331a 2C330000 		.4byte	0x332c
 17401 331e 0E       		.uleb128 0xe
 17402 331f 01       		.uleb128 0x1
 17403 3320 51       		.byte	0x51
 17404 3321 02       		.uleb128 0x2
 17405 3322 91       		.byte	0x91
 17406 3323 54       		.sleb128 -44
 17407 3324 0E       		.uleb128 0xe
 17408 3325 01       		.uleb128 0x1
 17409 3326 50       		.byte	0x50
 17410 3327 03       		.uleb128 0x3
 17411 3328 0A       		.byte	0xa
 17412 3329 4804     		.2byte	0x448
 17413 332b 00       		.byte	0
 17414 332c 0D       		.uleb128 0xd
 17415 332d 98310000 		.4byte	.LVL572
 17416 3331 6D3B0000 		.4byte	0x3b6d
 17417 3335 4A330000 		.4byte	0x334a
 17418 3339 0E       		.uleb128 0xe
 17419 333a 01       		.uleb128 0x1
 17420 333b 51       		.byte	0x51
 17421 333c 05       		.uleb128 0x5
 17422 333d 03       		.byte	0x3
ARM GAS  C:\Users\IN-002~1\AppData\Local\Temp\ccxO8rjh.s 			page 347


 17423 333e 00000000 		.4byte	resultado
 17424 3342 0E       		.uleb128 0xe
 17425 3343 01       		.uleb128 0x1
 17426 3344 50       		.byte	0x50
 17427 3345 03       		.uleb128 0x3
 17428 3346 0A       		.byte	0xa
 17429 3347 0E04     		.2byte	0x40e
 17430 3349 00       		.byte	0
 17431 334a 0D       		.uleb128 0xd
 17432 334b A4310000 		.4byte	.LVL573
 17433 334f 6D3B0000 		.4byte	0x3b6d
 17434 3353 65330000 		.4byte	0x3365
 17435 3357 0E       		.uleb128 0xe
 17436 3358 01       		.uleb128 0x1
 17437 3359 51       		.byte	0x51
 17438 335a 02       		.uleb128 0x2
 17439 335b 91       		.byte	0x91
 17440 335c 54       		.sleb128 -44
 17441 335d 0E       		.uleb128 0xe
 17442 335e 01       		.uleb128 0x1
 17443 335f 50       		.byte	0x50
 17444 3360 03       		.uleb128 0x3
 17445 3361 0A       		.byte	0xa
 17446 3362 1E04     		.2byte	0x41e
 17447 3364 00       		.byte	0
 17448 3365 0D       		.uleb128 0xd
 17449 3366 AE310000 		.4byte	.LVL574
 17450 336a 6D3B0000 		.4byte	0x3b6d
 17451 336e 83330000 		.4byte	0x3383
 17452 3372 0E       		.uleb128 0xe
 17453 3373 01       		.uleb128 0x1
 17454 3374 51       		.byte	0x51
 17455 3375 05       		.uleb128 0x5
 17456 3376 03       		.byte	0x3
 17457 3377 00000000 		.4byte	resultado
 17458 337b 0E       		.uleb128 0xe
 17459 337c 01       		.uleb128 0x1
 17460 337d 50       		.byte	0x50
 17461 337e 03       		.uleb128 0x3
 17462 337f 0A       		.byte	0xa
 17463 3380 3904     		.2byte	0x439
 17464 3382 00       		.byte	0
 17465 3383 0F       		.uleb128 0xf
 17466 3384 C4310000 		.4byte	.LVL575
 17467 3388 5B3B0000 		.4byte	0x3b5b
 17468 338c 14       		.uleb128 0x14
 17469 338d DE310000 		.4byte	.LVL576
 17470 3391 873B0000 		.4byte	0x3b87
 17471 3395 0E       		.uleb128 0xe
 17472 3396 01       		.uleb128 0x1
 17473 3397 50       		.byte	0x50
 17474 3398 02       		.uleb128 0x2
 17475 3399 74       		.byte	0x74
 17476 339a 00       		.sleb128 0
 17477 339b 00       		.byte	0
 17478 339c 00       		.byte	0
 17479 339d 08       		.uleb128 0x8
ARM GAS  C:\Users\IN-002~1\AppData\Local\Temp\ccxO8rjh.s 			page 348


 17480 339e 81000000 		.4byte	0x81
 17481 33a2 AD330000 		.4byte	0x33ad
 17482 33a6 09       		.uleb128 0x9
 17483 33a7 B7000000 		.4byte	0xb7
 17484 33ab 18       		.byte	0x18
 17485 33ac 00       		.byte	0
 17486 33ad 08       		.uleb128 0x8
 17487 33ae 81000000 		.4byte	0x81
 17488 33b2 BD330000 		.4byte	0x33bd
 17489 33b6 09       		.uleb128 0x9
 17490 33b7 B7000000 		.4byte	0xb7
 17491 33bb 0D       		.byte	0xd
 17492 33bc 00       		.byte	0
 17493 33bd 15       		.uleb128 0x15
 17494 33be AC040000 		.4byte	.LASF59
 17495 33c2 01       		.byte	0x1
 17496 33c3 F605     		.2byte	0x5f6
 17497 33c5 81000000 		.4byte	0x81
 17498 33c9 00000000 		.4byte	.LFB69
 17499 33cd 88040000 		.4byte	.LFE69-.LFB69
 17500 33d1 01       		.uleb128 0x1
 17501 33d2 9C       		.byte	0x9c
 17502 33d3 F9340000 		.4byte	0x34f9
 17503 33d7 16       		.uleb128 0x16
 17504 33d8 64697200 		.ascii	"dir\000"
 17505 33dc 01       		.byte	0x1
 17506 33dd F605     		.2byte	0x5f6
 17507 33df 81000000 		.4byte	0x81
 17508 33e3 CC020000 		.4byte	.LLST12
 17509 33e7 18       		.uleb128 0x18
 17510 33e8 57060000 		.4byte	.LASF60
 17511 33ec 01       		.byte	0x1
 17512 33ed F605     		.2byte	0x5f6
 17513 33ef 81000000 		.4byte	0x81
 17514 33f3 06030000 		.4byte	.LLST13
 17515 33f7 18       		.uleb128 0x18
 17516 33f8 C6050000 		.4byte	.LASF21
 17517 33fc 01       		.byte	0x1
 17518 33fd F605     		.2byte	0x5f6
 17519 33ff F9340000 		.4byte	0x34f9
 17520 3403 59030000 		.4byte	.LLST14
 17521 3407 18       		.uleb128 0x18
 17522 3408 38010000 		.4byte	.LASF20
 17523 340c 01       		.byte	0x1
 17524 340d F605     		.2byte	0x5f6
 17525 340f 81000000 		.4byte	0x81
 17526 3413 AC030000 		.4byte	.LLST15
 17527 3417 17       		.uleb128 0x17
 17528 3418 4A000000 		.4byte	.LASF28
 17529 341c 01       		.byte	0x1
 17530 341d F705     		.2byte	0x5f7
 17531 341f FF340000 		.4byte	0x34ff
 17532 3423 02       		.uleb128 0x2
 17533 3424 91       		.byte	0x91
 17534 3425 54       		.sleb128 -44
 17535 3426 19       		.uleb128 0x19
 17536 3427 AB030000 		.4byte	.LASF18
ARM GAS  C:\Users\IN-002~1\AppData\Local\Temp\ccxO8rjh.s 			page 349


 17537 342b 01       		.byte	0x1
 17538 342c F705     		.2byte	0x5f7
 17539 342e 81000000 		.4byte	0x81
 17540 3432 FF030000 		.4byte	.LLST16
 17541 3436 19       		.uleb128 0x19
 17542 3437 74040000 		.4byte	.LASF61
 17543 343b 01       		.byte	0x1
 17544 343c F705     		.2byte	0x5f7
 17545 343e 81000000 		.4byte	0x81
 17546 3442 AB040000 		.4byte	.LLST17
 17547 3446 1A       		.uleb128 0x1a
 17548 3447 6900     		.ascii	"i\000"
 17549 3449 01       		.byte	0x1
 17550 344a F705     		.2byte	0x5f7
 17551 344c 81000000 		.4byte	0x81
 17552 3450 D5040000 		.4byte	.LLST18
 17553 3454 1A       		.uleb128 0x1a
 17554 3455 6A00     		.ascii	"j\000"
 17555 3457 01       		.byte	0x1
 17556 3458 F705     		.2byte	0x5f7
 17557 345a 81000000 		.4byte	0x81
 17558 345e C1060000 		.4byte	.LLST19
 17559 3462 19       		.uleb128 0x19
 17560 3463 B5000000 		.4byte	.LASF62
 17561 3467 01       		.byte	0x1
 17562 3468 F705     		.2byte	0x5f7
 17563 346a 81000000 		.4byte	0x81
 17564 346e 21070000 		.4byte	.LLST20
 17565 3472 0D       		.uleb128 0xd
 17566 3473 26040000 		.4byte	.LVL681
 17567 3477 2E3B0000 		.4byte	0x3b2e
 17568 347b 89340000 		.4byte	0x3489
 17569 347f 0E       		.uleb128 0xe
 17570 3480 01       		.uleb128 0x1
 17571 3481 50       		.byte	0x50
 17572 3482 05       		.uleb128 0x5
 17573 3483 75       		.byte	0x75
 17574 3484 00       		.sleb128 0
 17575 3485 08       		.byte	0x8
 17576 3486 20       		.byte	0x20
 17577 3487 21       		.byte	0x21
 17578 3488 00       		.byte	0
 17579 3489 0D       		.uleb128 0xd
 17580 348a 2C040000 		.4byte	.LVL682
 17581 348e 3F3B0000 		.4byte	0x3b3f
 17582 3492 9D340000 		.4byte	0x349d
 17583 3496 0E       		.uleb128 0xe
 17584 3497 01       		.uleb128 0x1
 17585 3498 50       		.byte	0x50
 17586 3499 02       		.uleb128 0x2
 17587 349a 08       		.byte	0x8
 17588 349b 32       		.byte	0x32
 17589 349c 00       		.byte	0
 17590 349d 0F       		.uleb128 0xf
 17591 349e 30040000 		.4byte	.LVL683
 17592 34a2 503B0000 		.4byte	0x3b50
 17593 34a6 0F       		.uleb128 0xf
ARM GAS  C:\Users\IN-002~1\AppData\Local\Temp\ccxO8rjh.s 			page 350


 17594 34a7 36040000 		.4byte	.LVL684
 17595 34ab 623B0000 		.4byte	0x3b62
 17596 34af 0F       		.uleb128 0xf
 17597 34b0 42040000 		.4byte	.LVL685
 17598 34b4 5B3B0000 		.4byte	0x3b5b
 17599 34b8 0D       		.uleb128 0xd
 17600 34b9 52040000 		.4byte	.LVL687
 17601 34bd 2E3B0000 		.4byte	0x3b2e
 17602 34c1 D4340000 		.4byte	0x34d4
 17603 34c5 0E       		.uleb128 0xe
 17604 34c6 01       		.uleb128 0x1
 17605 34c7 50       		.byte	0x50
 17606 34c8 0A       		.uleb128 0xa
 17607 34c9 91       		.byte	0x91
 17608 34ca 00       		.sleb128 0
 17609 34cb 76       		.byte	0x76
 17610 34cc 00       		.sleb128 0
 17611 34cd 22       		.byte	0x22
 17612 34ce 08       		.byte	0x8
 17613 34cf 2C       		.byte	0x2c
 17614 34d0 1C       		.byte	0x1c
 17615 34d1 94       		.byte	0x94
 17616 34d2 01       		.byte	0x1
 17617 34d3 00       		.byte	0
 17618 34d4 0D       		.uleb128 0xd
 17619 34d5 60040000 		.4byte	.LVL690
 17620 34d9 3F3B0000 		.4byte	0x3b3f
 17621 34dd E8340000 		.4byte	0x34e8
 17622 34e1 0E       		.uleb128 0xe
 17623 34e2 01       		.uleb128 0x1
 17624 34e3 50       		.byte	0x50
 17625 34e4 02       		.uleb128 0x2
 17626 34e5 08       		.byte	0x8
 17627 34e6 32       		.byte	0x32
 17628 34e7 00       		.byte	0
 17629 34e8 14       		.uleb128 0x14
 17630 34e9 66040000 		.4byte	.LVL691
 17631 34ed AB030000 		.4byte	0x3ab
 17632 34f1 0E       		.uleb128 0xe
 17633 34f2 01       		.uleb128 0x1
 17634 34f3 50       		.byte	0x50
 17635 34f4 02       		.uleb128 0x2
 17636 34f5 75       		.byte	0x75
 17637 34f6 00       		.sleb128 0
 17638 34f7 00       		.byte	0
 17639 34f8 00       		.byte	0
 17640 34f9 1B       		.uleb128 0x1b
 17641 34fa 04       		.byte	0x4
 17642 34fb 81000000 		.4byte	0x81
 17643 34ff 08       		.uleb128 0x8
 17644 3500 81000000 		.4byte	0x81
 17645 3504 0F350000 		.4byte	0x350f
 17646 3508 09       		.uleb128 0x9
 17647 3509 B7000000 		.4byte	0xb7
 17648 350d 11       		.byte	0x11
 17649 350e 00       		.byte	0
 17650 350f 15       		.uleb128 0x15
ARM GAS  C:\Users\IN-002~1\AppData\Local\Temp\ccxO8rjh.s 			page 351


 17651 3510 72030000 		.4byte	.LASF63
 17652 3514 01       		.byte	0x1
 17653 3515 A906     		.2byte	0x6a9
 17654 3517 81000000 		.4byte	0x81
 17655 351b 00000000 		.4byte	.LFB70
 17656 351f C4020000 		.4byte	.LFE70-.LFB70
 17657 3523 01       		.uleb128 0x1
 17658 3524 9C       		.byte	0x9c
 17659 3525 CC350000 		.4byte	0x35cc
 17660 3529 16       		.uleb128 0x16
 17661 352a 64697200 		.ascii	"dir\000"
 17662 352e 01       		.byte	0x1
 17663 352f A906     		.2byte	0x6a9
 17664 3531 81000000 		.4byte	0x81
 17665 3535 77070000 		.4byte	.LLST21
 17666 3539 17       		.uleb128 0x17
 17667 353a 4A000000 		.4byte	.LASF28
 17668 353e 01       		.byte	0x1
 17669 353f AA06     		.2byte	0x6aa
 17670 3541 E8020000 		.4byte	0x2e8
 17671 3545 02       		.uleb128 0x2
 17672 3546 91       		.byte	0x91
 17673 3547 60       		.sleb128 -32
 17674 3548 19       		.uleb128 0x19
 17675 3549 AB030000 		.4byte	.LASF18
 17676 354d 01       		.byte	0x1
 17677 354e AA06     		.2byte	0x6aa
 17678 3550 81000000 		.4byte	0x81
 17679 3554 98070000 		.4byte	.LLST22
 17680 3558 0D       		.uleb128 0xd
 17681 3559 46020000 		.4byte	.LVL703
 17682 355d 2E3B0000 		.4byte	0x3b2e
 17683 3561 6F350000 		.4byte	0x356f
 17684 3565 0E       		.uleb128 0xe
 17685 3566 01       		.uleb128 0x1
 17686 3567 50       		.byte	0x50
 17687 3568 05       		.uleb128 0x5
 17688 3569 74       		.byte	0x74
 17689 356a 00       		.sleb128 0
 17690 356b 08       		.byte	0x8
 17691 356c 20       		.byte	0x20
 17692 356d 21       		.byte	0x21
 17693 356e 00       		.byte	0
 17694 356f 0D       		.uleb128 0xd
 17695 3570 4C020000 		.4byte	.LVL704
 17696 3574 3F3B0000 		.4byte	0x3b3f
 17697 3578 83350000 		.4byte	0x3583
 17698 357c 0E       		.uleb128 0xe
 17699 357d 01       		.uleb128 0x1
 17700 357e 50       		.byte	0x50
 17701 357f 02       		.uleb128 0x2
 17702 3580 08       		.byte	0x8
 17703 3581 64       		.byte	0x64
 17704 3582 00       		.byte	0
 17705 3583 0F       		.uleb128 0xf
 17706 3584 50020000 		.4byte	.LVL705
 17707 3588 503B0000 		.4byte	0x3b50
ARM GAS  C:\Users\IN-002~1\AppData\Local\Temp\ccxO8rjh.s 			page 352


 17708 358c 0F       		.uleb128 0xf
 17709 358d 56020000 		.4byte	.LVL706
 17710 3591 623B0000 		.4byte	0x3b62
 17711 3595 0F       		.uleb128 0xf
 17712 3596 62020000 		.4byte	.LVL707
 17713 359a 5B3B0000 		.4byte	0x3b5b
 17714 359e 0F       		.uleb128 0xf
 17715 359f 76020000 		.4byte	.LVL708
 17716 35a3 2E3B0000 		.4byte	0x3b2e
 17717 35a7 0D       		.uleb128 0xd
 17718 35a8 8C020000 		.4byte	.LVL709
 17719 35ac 3F3B0000 		.4byte	0x3b3f
 17720 35b0 BB350000 		.4byte	0x35bb
 17721 35b4 0E       		.uleb128 0xe
 17722 35b5 01       		.uleb128 0x1
 17723 35b6 50       		.byte	0x50
 17724 35b7 02       		.uleb128 0x2
 17725 35b8 08       		.byte	0x8
 17726 35b9 32       		.byte	0x32
 17727 35ba 00       		.byte	0
 17728 35bb 14       		.uleb128 0x14
 17729 35bc 92020000 		.4byte	.LVL710
 17730 35c0 AB030000 		.4byte	0x3ab
 17731 35c4 0E       		.uleb128 0xe
 17732 35c5 01       		.uleb128 0x1
 17733 35c6 50       		.byte	0x50
 17734 35c7 02       		.uleb128 0x2
 17735 35c8 74       		.byte	0x74
 17736 35c9 00       		.sleb128 0
 17737 35ca 00       		.byte	0
 17738 35cb 00       		.byte	0
 17739 35cc 08       		.uleb128 0x8
 17740 35cd 81000000 		.4byte	0x81
 17741 35d1 DC350000 		.4byte	0x35dc
 17742 35d5 09       		.uleb128 0x9
 17743 35d6 B7000000 		.4byte	0xb7
 17744 35da FF       		.byte	0xff
 17745 35db 00       		.byte	0
 17746 35dc 1C       		.uleb128 0x1c
 17747 35dd 34020000 		.4byte	.LASF64
 17748 35e1 06       		.byte	0x6
 17749 35e2 5201     		.2byte	0x152
 17750 35e4 E8350000 		.4byte	0x35e8
 17751 35e8 1D       		.uleb128 0x1d
 17752 35e9 CC350000 		.4byte	0x35cc
 17753 35ed 1C       		.uleb128 0x1c
 17754 35ee 44040000 		.4byte	.LASF65
 17755 35f2 07       		.byte	0x7
 17756 35f3 2A06     		.2byte	0x62a
 17757 35f5 F9350000 		.4byte	0x35f9
 17758 35f9 1D       		.uleb128 0x1d
 17759 35fa 76000000 		.4byte	0x76
 17760 35fe 1E       		.uleb128 0x1e
 17761 35ff 05040000 		.4byte	.LASF66
 17762 3603 05       		.byte	0x5
 17763 3604 2F       		.byte	0x2f
 17764 3605 81000000 		.4byte	0x81
ARM GAS  C:\Users\IN-002~1\AppData\Local\Temp\ccxO8rjh.s 			page 353


 17765 3609 05       		.uleb128 0x5
 17766 360a 03       		.byte	0x3
 17767 360b 00000000 		.4byte	flujo_LCD
 17768 360f 1E       		.uleb128 0x1e
 17769 3610 09000000 		.4byte	.LASF67
 17770 3614 05       		.byte	0x5
 17771 3615 2F       		.byte	0x2f
 17772 3616 81000000 		.4byte	0x81
 17773 361a 05       		.uleb128 0x5
 17774 361b 03       		.byte	0x3
 17775 361c 00000000 		.4byte	flujo_LCD2
 17776 3620 1E       		.uleb128 0x1e
 17777 3621 CC050000 		.4byte	.LASF68
 17778 3625 05       		.byte	0x5
 17779 3626 5D       		.byte	0x5d
 17780 3627 81000000 		.4byte	0x81
 17781 362b 05       		.uleb128 0x5
 17782 362c 03       		.byte	0x3
 17783 362d 00000000 		.4byte	count_protector
 17784 3631 1E       		.uleb128 0x1e
 17785 3632 1C000000 		.4byte	.LASF69
 17786 3636 05       		.byte	0x5
 17787 3637 5D       		.byte	0x5d
 17788 3638 81000000 		.4byte	0x81
 17789 363c 05       		.uleb128 0x5
 17790 363d 03       		.byte	0x3
 17791 363e 00000000 		.4byte	count_protector2
 17792 3642 1E       		.uleb128 0x1e
 17793 3643 32000000 		.4byte	.LASF70
 17794 3647 05       		.byte	0x5
 17795 3648 5E       		.byte	0x5e
 17796 3649 81000000 		.4byte	0x81
 17797 364d 05       		.uleb128 0x5
 17798 364e 03       		.byte	0x3
 17799 364f 00000000 		.4byte	ok_LCD1
 17800 3653 1E       		.uleb128 0x1e
 17801 3654 3A000000 		.4byte	.LASF71
 17802 3658 05       		.byte	0x5
 17803 3659 5E       		.byte	0x5e
 17804 365a 81000000 		.4byte	0x81
 17805 365e 05       		.uleb128 0x5
 17806 365f 03       		.byte	0x3
 17807 3660 00000000 		.4byte	ok_LCD2
 17808 3664 1E       		.uleb128 0x1e
 17809 3665 A6040000 		.4byte	.LASF72
 17810 3669 05       		.byte	0x5
 17811 366a 5F       		.byte	0x5f
 17812 366b 81000000 		.4byte	0x81
 17813 366f 05       		.uleb128 0x5
 17814 3670 03       		.byte	0x3
 17815 3671 00000000 		.4byte	cont1
 17816 3675 1E       		.uleb128 0x1e
 17817 3676 D7000000 		.4byte	.LASF73
 17818 367a 05       		.byte	0x5
 17819 367b 5F       		.byte	0x5f
 17820 367c 81000000 		.4byte	0x81
 17821 3680 05       		.uleb128 0x5
ARM GAS  C:\Users\IN-002~1\AppData\Local\Temp\ccxO8rjh.s 			page 354


 17822 3681 03       		.byte	0x3
 17823 3682 00000000 		.4byte	teclas1
 17824 3686 1E       		.uleb128 0x1e
 17825 3687 DF000000 		.4byte	.LASF74
 17826 368b 05       		.byte	0x5
 17827 368c 5F       		.byte	0x5f
 17828 368d 81000000 		.4byte	0x81
 17829 3691 05       		.uleb128 0x5
 17830 3692 03       		.byte	0x3
 17831 3693 00000000 		.4byte	teclas2
 17832 3697 1E       		.uleb128 0x1e
 17833 3698 66040000 		.4byte	.LASF75
 17834 369c 05       		.byte	0x5
 17835 369d 5F       		.byte	0x5f
 17836 369e 81000000 		.4byte	0x81
 17837 36a2 05       		.uleb128 0x5
 17838 36a3 03       		.byte	0x3
 17839 36a4 00000000 		.4byte	comas1
 17840 36a8 1E       		.uleb128 0x1e
 17841 36a9 6D040000 		.4byte	.LASF76
 17842 36ad 05       		.byte	0x5
 17843 36ae 5F       		.byte	0x5f
 17844 36af 81000000 		.4byte	0x81
 17845 36b3 05       		.uleb128 0x5
 17846 36b4 03       		.byte	0x3
 17847 36b5 00000000 		.4byte	comas2
 17848 36b9 1E       		.uleb128 0x1e
 17849 36ba 6C000000 		.4byte	.LASF77
 17850 36be 05       		.byte	0x5
 17851 36bf 60       		.byte	0x60
 17852 36c0 81000000 		.4byte	0x81
 17853 36c4 05       		.uleb128 0x5
 17854 36c5 03       		.byte	0x3
 17855 36c6 00000000 		.4byte	version
 17856 36ca 1E       		.uleb128 0x1e
 17857 36cb 42000000 		.4byte	.LASF78
 17858 36cf 05       		.byte	0x5
 17859 36d0 61       		.byte	0x61
 17860 36d1 81000000 		.4byte	0x81
 17861 36d5 05       		.uleb128 0x5
 17862 36d6 03       		.byte	0x3
 17863 36d7 00000000 		.4byte	versurt
 17864 36db 1E       		.uleb128 0x1e
 17865 36dc 96040000 		.4byte	.LASF79
 17866 36e0 05       		.byte	0x5
 17867 36e1 62       		.byte	0x62
 17868 36e2 81000000 		.4byte	0x81
 17869 36e6 05       		.uleb128 0x5
 17870 36e7 03       		.byte	0x3
 17871 36e8 00000000 		.4byte	extra
 17872 36ec 1E       		.uleb128 0x1e
 17873 36ed 9B000000 		.4byte	.LASF80
 17874 36f1 05       		.byte	0x5
 17875 36f2 62       		.byte	0x62
 17876 36f3 81000000 		.4byte	0x81
 17877 36f7 05       		.uleb128 0x5
 17878 36f8 03       		.byte	0x3
ARM GAS  C:\Users\IN-002~1\AppData\Local\Temp\ccxO8rjh.s 			page 355


 17879 36f9 00000000 		.4byte	diesel
 17880 36fd 1E       		.uleb128 0x1e
 17881 36fe 57020000 		.4byte	.LASF81
 17882 3702 05       		.byte	0x5
 17883 3703 62       		.byte	0x62
 17884 3704 81000000 		.4byte	0x81
 17885 3708 05       		.uleb128 0x5
 17886 3709 03       		.byte	0x3
 17887 370a 00000000 		.4byte	corriente
 17888 370e 1E       		.uleb128 0x1e
 17889 370f 39060000 		.4byte	.LASF82
 17890 3713 05       		.byte	0x5
 17891 3714 62       		.byte	0x62
 17892 3715 81000000 		.4byte	0x81
 17893 3719 05       		.uleb128 0x5
 17894 371a 03       		.byte	0x3
 17895 371b 00000000 		.4byte	kero
 17896 371f 1E       		.uleb128 0x1e
 17897 3720 92020000 		.4byte	.LASF83
 17898 3724 05       		.byte	0x5
 17899 3725 62       		.byte	0x62
 17900 3726 81000000 		.4byte	0x81
 17901 372a 05       		.uleb128 0x5
 17902 372b 03       		.byte	0x3
 17903 372c 00000000 		.4byte	extra2
 17904 3730 1E       		.uleb128 0x1e
 17905 3731 74000000 		.4byte	.LASF84
 17906 3735 05       		.byte	0x5
 17907 3736 62       		.byte	0x62
 17908 3737 81000000 		.4byte	0x81
 17909 373b 05       		.uleb128 0x5
 17910 373c 03       		.byte	0x3
 17911 373d 00000000 		.4byte	corriente2
 17912 3741 1E       		.uleb128 0x1e
 17913 3742 CA000000 		.4byte	.LASF85
 17914 3746 05       		.byte	0x5
 17915 3747 62       		.byte	0x62
 17916 3748 81000000 		.4byte	0x81
 17917 374c 05       		.uleb128 0x5
 17918 374d 03       		.byte	0x3
 17919 374e 00000000 		.4byte	diesel2
 17920 3752 1E       		.uleb128 0x1e
 17921 3753 3F030000 		.4byte	.LASF86
 17922 3757 05       		.byte	0x5
 17923 3758 62       		.byte	0x62
 17924 3759 81000000 		.4byte	0x81
 17925 375d 05       		.uleb128 0x5
 17926 375e 03       		.byte	0x3
 17927 375f 00000000 		.4byte	kero2
 17928 3763 08       		.uleb128 0x8
 17929 3764 81000000 		.4byte	0x81
 17930 3768 73370000 		.4byte	0x3773
 17931 376c 09       		.uleb128 0x9
 17932 376d B7000000 		.4byte	0xb7
 17933 3771 3F       		.byte	0x3f
 17934 3772 00       		.byte	0
 17935 3773 1E       		.uleb128 0x1e
ARM GAS  C:\Users\IN-002~1\AppData\Local\Temp\ccxO8rjh.s 			page 356


 17936 3774 70010000 		.4byte	.LASF87
 17937 3778 05       		.byte	0x5
 17938 3779 63       		.byte	0x63
 17939 377a 63370000 		.4byte	0x3763
 17940 377e 05       		.uleb128 0x5
 17941 377f 03       		.byte	0x3
 17942 3780 00000000 		.4byte	buffer_i2c
 17943 3784 1E       		.uleb128 0x1e
 17944 3785 3F010000 		.4byte	.LASF88
 17945 3789 05       		.byte	0x5
 17946 378a 64       		.byte	0x64
 17947 378b AD330000 		.4byte	0x33ad
 17948 378f 05       		.uleb128 0x5
 17949 3790 03       		.byte	0x3
 17950 3791 00000000 		.4byte	resultado
 17951 3795 1E       		.uleb128 0x1e
 17952 3796 E4010000 		.4byte	.LASF89
 17953 379a 05       		.byte	0x5
 17954 379b 65       		.byte	0x65
 17955 379c 81000000 		.4byte	0x81
 17956 37a0 05       		.uleb128 0x5
 17957 37a1 03       		.byte	0x3
 17958 37a2 00000000 		.4byte	teclado
 17959 37a6 1E       		.uleb128 0x1e
 17960 37a7 92000000 		.4byte	.LASF90
 17961 37ab 05       		.byte	0x5
 17962 37ac 65       		.byte	0x65
 17963 37ad 81000000 		.4byte	0x81
 17964 37b1 05       		.uleb128 0x5
 17965 37b2 03       		.byte	0x3
 17966 37b3 00000000 		.4byte	teclado2
 17967 37b7 1E       		.uleb128 0x1e
 17968 37b8 ED030000 		.4byte	.LASF91
 17969 37bc 05       		.byte	0x5
 17970 37bd 66       		.byte	0x66
 17971 37be 81000000 		.4byte	0x81
 17972 37c2 05       		.uleb128 0x5
 17973 37c3 03       		.byte	0x3
 17974 37c4 00000000 		.4byte	ppux10
 17975 37c8 1E       		.uleb128 0x1e
 17976 37c9 DA040000 		.4byte	.LASF92
 17977 37cd 05       		.byte	0x5
 17978 37ce 67       		.byte	0x67
 17979 37cf F8020000 		.4byte	0x2f8
 17980 37d3 05       		.uleb128 0x5
 17981 37d4 03       		.byte	0x3
 17982 37d5 00000000 		.4byte	bandera
 17983 37d9 1E       		.uleb128 0x1e
 17984 37da 3E060000 		.4byte	.LASF93
 17985 37de 05       		.byte	0x5
 17986 37df 68       		.byte	0x68
 17987 37e0 F8020000 		.4byte	0x2f8
 17988 37e4 05       		.uleb128 0x5
 17989 37e5 03       		.byte	0x3
 17990 37e6 00000000 		.4byte	tipo_imp
 17991 37ea 1E       		.uleb128 0x1e
 17992 37eb 09060000 		.4byte	.LASF94
ARM GAS  C:\Users\IN-002~1\AppData\Local\Temp\ccxO8rjh.s 			page 357


 17993 37ef 05       		.byte	0x5
 17994 37f0 69       		.byte	0x69
 17995 37f1 81000000 		.4byte	0x81
 17996 37f5 05       		.uleb128 0x5
 17997 37f6 03       		.byte	0x3
 17998 37f7 00000000 		.4byte	decimalV
 17999 37fb 1E       		.uleb128 0x1e
 18000 37fc 19010000 		.4byte	.LASF95
 18001 3800 05       		.byte	0x5
 18002 3801 6A       		.byte	0x6a
 18003 3802 81000000 		.4byte	0x81
 18004 3806 05       		.uleb128 0x5
 18005 3807 03       		.byte	0x3
 18006 3808 00000000 		.4byte	decimalD
 18007 380c 08       		.uleb128 0x8
 18008 380d 81000000 		.4byte	0x81
 18009 3811 1C380000 		.4byte	0x381c
 18010 3815 09       		.uleb128 0x9
 18011 3816 B7000000 		.4byte	0xb7
 18012 381a 05       		.byte	0x5
 18013 381b 00       		.byte	0
 18014 381c 1E       		.uleb128 0x1e
 18015 381d E7020000 		.4byte	.LASF96
 18016 3821 05       		.byte	0x5
 18017 3822 6B       		.byte	0x6b
 18018 3823 0C380000 		.4byte	0x380c
 18019 3827 05       		.uleb128 0x5
 18020 3828 03       		.byte	0x3
 18021 3829 00000000 		.4byte	fecha_corte
 18022 382d 1E       		.uleb128 0x1e
 18023 382e 18040000 		.4byte	.LASF97
 18024 3832 05       		.byte	0x5
 18025 3833 6C       		.byte	0x6c
 18026 3834 81000000 		.4byte	0x81
 18027 3838 05       		.uleb128 0x5
 18028 3839 03       		.byte	0x3
 18029 383a 00000000 		.4byte	pos_ibutton
 18030 383e 1E       		.uleb128 0x1e
 18031 383f FB030000 		.4byte	.LASF98
 18032 3843 05       		.byte	0x5
 18033 3844 6D       		.byte	0x6d
 18034 3845 81000000 		.4byte	0x81
 18035 3849 05       		.uleb128 0x5
 18036 384a 03       		.byte	0x3
 18037 384b 00000000 		.4byte	crc_total
 18038 384f 1E       		.uleb128 0x1e
 18039 3850 14030000 		.4byte	.LASF99
 18040 3854 05       		.byte	0x5
 18041 3855 6E       		.byte	0x6e
 18042 3856 F8020000 		.4byte	0x2f8
 18043 385a 05       		.uleb128 0x5
 18044 385b 03       		.byte	0x3
 18045 385c 00000000 		.4byte	print1
 18046 3860 1E       		.uleb128 0x1e
 18047 3861 1B030000 		.4byte	.LASF100
 18048 3865 05       		.byte	0x5
 18049 3866 6E       		.byte	0x6e
ARM GAS  C:\Users\IN-002~1\AppData\Local\Temp\ccxO8rjh.s 			page 358


 18050 3867 F8020000 		.4byte	0x2f8
 18051 386b 05       		.uleb128 0x5
 18052 386c 03       		.byte	0x3
 18053 386d 00000000 		.4byte	print2
 18054 3871 1E       		.uleb128 0x1e
 18055 3872 37040000 		.4byte	.LASF101
 18056 3876 05       		.byte	0x5
 18057 3877 6F       		.byte	0x6f
 18058 3878 F8020000 		.4byte	0x2f8
 18059 387c 05       		.uleb128 0x5
 18060 387d 03       		.byte	0x3
 18061 387e 00000000 		.4byte	copia_recibo
 18062 3882 1E       		.uleb128 0x1e
 18063 3883 99020000 		.4byte	.LASF102
 18064 3887 05       		.byte	0x5
 18065 3888 70       		.byte	0x70
 18066 3889 F8020000 		.4byte	0x2f8
 18067 388d 05       		.uleb128 0x5
 18068 388e 03       		.byte	0x3
 18069 388f 00000000 		.4byte	copia_recibo2
 18070 3893 1E       		.uleb128 0x1e
 18071 3894 B7030000 		.4byte	.LASF103
 18072 3898 05       		.byte	0x5
 18073 3899 71       		.byte	0x71
 18074 389a 8C000000 		.4byte	0x8c
 18075 389e 05       		.uleb128 0x5
 18076 389f 03       		.byte	0x3
 18077 38a0 00000000 		.4byte	id_corte
 18078 38a4 08       		.uleb128 0x8
 18079 38a5 81000000 		.4byte	0x81
 18080 38a9 BA380000 		.4byte	0x38ba
 18081 38ad 09       		.uleb128 0x9
 18082 38ae B7000000 		.4byte	0xb7
 18083 38b2 02       		.byte	0x2
 18084 38b3 09       		.uleb128 0x9
 18085 38b4 B7000000 		.4byte	0xb7
 18086 38b8 05       		.byte	0x5
 18087 38b9 00       		.byte	0
 18088 38ba 1E       		.uleb128 0x1e
 18089 38bb A7020000 		.4byte	.LASF104
 18090 38bf 05       		.byte	0x5
 18091 38c0 72       		.byte	0x72
 18092 38c1 A4380000 		.4byte	0x38a4
 18093 38c5 05       		.uleb128 0x5
 18094 38c6 03       		.byte	0x3
 18095 38c7 00000000 		.4byte	id_venta
 18096 38cb 1E       		.uleb128 0x1e
 18097 38cc 9C030000 		.4byte	.LASF105
 18098 38d0 05       		.byte	0x5
 18099 38d1 73       		.byte	0x73
 18100 38d2 81000000 		.4byte	0x81
 18101 38d6 05       		.uleb128 0x5
 18102 38d7 03       		.byte	0x3
 18103 38d8 00000000 		.4byte	nombreproducto
 18104 38dc 08       		.uleb128 0x8
 18105 38dd 81000000 		.4byte	0x81
 18106 38e1 EC380000 		.4byte	0x38ec
ARM GAS  C:\Users\IN-002~1\AppData\Local\Temp\ccxO8rjh.s 			page 359


 18107 38e5 09       		.uleb128 0x9
 18108 38e6 B7000000 		.4byte	0xb7
 18109 38ea 0A       		.byte	0xa
 18110 38eb 00       		.byte	0
 18111 38ec 1E       		.uleb128 0x1e
 18112 38ed A2000000 		.4byte	.LASF106
 18113 38f1 05       		.byte	0x5
 18114 38f2 74       		.byte	0x74
 18115 38f3 DC380000 		.4byte	0x38dc
 18116 38f7 05       		.uleb128 0x5
 18117 38f8 03       		.byte	0x3
 18118 38f9 00000000 		.4byte	producto1n
 18119 38fd 1E       		.uleb128 0x1e
 18120 38fe 49010000 		.4byte	.LASF107
 18121 3902 05       		.byte	0x5
 18122 3903 75       		.byte	0x75
 18123 3904 DC380000 		.4byte	0x38dc
 18124 3908 05       		.uleb128 0x5
 18125 3909 03       		.byte	0x3
 18126 390a 00000000 		.4byte	producto2n
 18127 390e 1E       		.uleb128 0x1e
 18128 390f 22020000 		.4byte	.LASF108
 18129 3913 05       		.byte	0x5
 18130 3914 76       		.byte	0x76
 18131 3915 DC380000 		.4byte	0x38dc
 18132 3919 05       		.uleb128 0x5
 18133 391a 03       		.byte	0x3
 18134 391b 00000000 		.4byte	producto3n
 18135 391f 1E       		.uleb128 0x1e
 18136 3920 54010000 		.4byte	.LASF109
 18137 3924 05       		.byte	0x5
 18138 3925 77       		.byte	0x77
 18139 3926 DC380000 		.4byte	0x38dc
 18140 392a 05       		.uleb128 0x5
 18141 392b 03       		.byte	0x3
 18142 392c 00000000 		.4byte	producto4n
 18143 3930 1E       		.uleb128 0x1e
 18144 3931 0F040000 		.4byte	.LASF110
 18145 3935 05       		.byte	0x5
 18146 3936 78       		.byte	0x78
 18147 3937 81000000 		.4byte	0x81
 18148 393b 05       		.uleb128 0x5
 18149 393c 03       		.byte	0x3
 18150 393d 00000000 		.4byte	a_copias
 18151 3941 08       		.uleb128 0x8
 18152 3942 81000000 		.4byte	0x81
 18153 3946 51390000 		.4byte	0x3951
 18154 394a 09       		.uleb128 0x9
 18155 394b B7000000 		.4byte	0xb7
 18156 394f 00       		.byte	0
 18157 3950 00       		.byte	0
 18158 3951 1E       		.uleb128 0x1e
 18159 3952 61020000 		.4byte	.LASF111
 18160 3956 05       		.byte	0x5
 18161 3957 79       		.byte	0x79
 18162 3958 41390000 		.4byte	0x3941
 18163 395c 05       		.uleb128 0x5
ARM GAS  C:\Users\IN-002~1\AppData\Local\Temp\ccxO8rjh.s 			page 360


 18164 395d 03       		.byte	0x3
 18165 395e 00000000 		.4byte	n_copias
 18166 3962 1E       		.uleb128 0x1e
 18167 3963 02050000 		.4byte	.LASF112
 18168 3967 05       		.byte	0x5
 18169 3968 7A       		.byte	0x7a
 18170 3969 81000000 		.4byte	0x81
 18171 396d 05       		.uleb128 0x5
 18172 396e 03       		.byte	0x3
 18173 396f 00000000 		.4byte	no_imprime
 18174 3973 1E       		.uleb128 0x1e
 18175 3974 F6040000 		.4byte	.LASF113
 18176 3978 05       		.byte	0x5
 18177 3979 7B       		.byte	0x7b
 18178 397a 81000000 		.4byte	0x81
 18179 397e 05       		.uleb128 0x5
 18180 397f 03       		.byte	0x3
 18181 3980 00000000 		.4byte	no_imprime2
 18182 3984 1E       		.uleb128 0x1e
 18183 3985 6A020000 		.4byte	.LASF114
 18184 3989 05       		.byte	0x5
 18185 398a 7D       		.byte	0x7d
 18186 398b 95390000 		.4byte	0x3995
 18187 398f 05       		.uleb128 0x5
 18188 3990 03       		.byte	0x3
 18189 3991 00000000 		.4byte	no_venta
 18190 3995 1D       		.uleb128 0x1d
 18191 3996 68000000 		.4byte	0x68
 18192 399a 1E       		.uleb128 0x1e
 18193 399b CE030000 		.4byte	.LASF115
 18194 399f 05       		.byte	0x5
 18195 39a0 99       		.byte	0x99
 18196 39a1 BE000000 		.4byte	0xbe
 18197 39a5 05       		.uleb128 0x5
 18198 39a6 03       		.byte	0x3
 18199 39a7 00000000 		.4byte	Buffer_LCD1
 18200 39ab 1E       		.uleb128 0x1e
 18201 39ac 45030000 		.4byte	.LASF116
 18202 39b0 05       		.byte	0x5
 18203 39b1 9A       		.byte	0x9a
 18204 39b2 BE000000 		.4byte	0xbe
 18205 39b6 05       		.uleb128 0x5
 18206 39b7 03       		.byte	0x3
 18207 39b8 00000000 		.4byte	Buffer_LCD2
 18208 39bc 1E       		.uleb128 0x1e
 18209 39bd 8D040000 		.4byte	.LASF117
 18210 39c1 05       		.byte	0x5
 18211 39c2 9D       		.byte	0x9d
 18212 39c3 81000000 		.4byte	0x81
 18213 39c7 05       		.uleb128 0x5
 18214 39c8 03       		.byte	0x3
 18215 39c9 00000000 		.4byte	estado_0
 18216 39cd 1F       		.uleb128 0x1f
 18217 39ce 7800     		.ascii	"x\000"
 18218 39d0 05       		.byte	0x5
 18219 39d1 C0       		.byte	0xc0
 18220 39d2 97000000 		.4byte	0x97
ARM GAS  C:\Users\IN-002~1\AppData\Local\Temp\ccxO8rjh.s 			page 361


 18221 39d6 05       		.uleb128 0x5
 18222 39d7 03       		.byte	0x3
 18223 39d8 00000000 		.4byte	x
 18224 39dc 1F       		.uleb128 0x1f
 18225 39dd 7900     		.ascii	"y\000"
 18226 39df 05       		.byte	0x5
 18227 39e0 C0       		.byte	0xc0
 18228 39e1 97000000 		.4byte	0x97
 18229 39e5 05       		.uleb128 0x5
 18230 39e6 03       		.byte	0x3
 18231 39e7 00000000 		.4byte	y
 18232 39eb 1F       		.uleb128 0x1f
 18233 39ec 7A00     		.ascii	"z\000"
 18234 39ee 05       		.byte	0x5
 18235 39ef C0       		.byte	0xc0
 18236 39f0 97000000 		.4byte	0x97
 18237 39f4 05       		.uleb128 0x5
 18238 39f5 03       		.byte	0x3
 18239 39f6 00000000 		.4byte	z
 18240 39fa 1F       		.uleb128 0x1f
 18241 39fb 7700     		.ascii	"w\000"
 18242 39fd 05       		.byte	0x5
 18243 39fe C0       		.byte	0xc0
 18244 39ff 97000000 		.4byte	0x97
 18245 3a03 05       		.uleb128 0x5
 18246 3a04 03       		.byte	0x3
 18247 3a05 00000000 		.4byte	w
 18248 3a09 08       		.uleb128 0x8
 18249 3a0a 81000000 		.4byte	0x81
 18250 3a0e 1F3A0000 		.4byte	0x3a1f
 18251 3a12 09       		.uleb128 0x9
 18252 3a13 B7000000 		.4byte	0xb7
 18253 3a17 01       		.byte	0x1
 18254 3a18 09       		.uleb128 0x9
 18255 3a19 B7000000 		.4byte	0xb7
 18256 3a1d C7       		.byte	0xc7
 18257 3a1e 00       		.byte	0
 18258 3a1f 1E       		.uleb128 0x1e
 18259 3a20 0D030000 		.4byte	.LASF118
 18260 3a24 05       		.byte	0x5
 18261 3a25 C1       		.byte	0xc1
 18262 3a26 093A0000 		.4byte	0x3a09
 18263 3a2a 05       		.uleb128 0x5
 18264 3a2b 03       		.byte	0x3
 18265 3a2c 00000000 		.4byte	modulo
 18266 3a30 1E       		.uleb128 0x1e
 18267 3a31 79040000 		.4byte	.LASF119
 18268 3a35 05       		.byte	0x5
 18269 3a36 C2       		.byte	0xc2
 18270 3a37 81000000 		.4byte	0x81
 18271 3a3b 05       		.uleb128 0x5
 18272 3a3c 03       		.byte	0x3
 18273 3a3d 00000000 		.4byte	producto1
 18274 3a41 1E       		.uleb128 0x1e
 18275 3a42 83040000 		.4byte	.LASF120
 18276 3a46 05       		.byte	0x5
 18277 3a47 C2       		.byte	0xc2
ARM GAS  C:\Users\IN-002~1\AppData\Local\Temp\ccxO8rjh.s 			page 362


 18278 3a48 81000000 		.4byte	0x81
 18279 3a4c 05       		.uleb128 0x5
 18280 3a4d 03       		.byte	0x3
 18281 3a4e 00000000 		.4byte	producto2
 18282 3a52 1E       		.uleb128 0x1e
 18283 3a53 5F030000 		.4byte	.LASF43
 18284 3a57 05       		.byte	0x5
 18285 3a58 C2       		.byte	0xc2
 18286 3a59 81000000 		.4byte	0x81
 18287 3a5d 05       		.uleb128 0x5
 18288 3a5e 03       		.byte	0x3
 18289 3a5f 00000000 		.4byte	producto
 18290 3a63 1E       		.uleb128 0x1e
 18291 3a64 2D000000 		.4byte	.LASF121
 18292 3a68 05       		.byte	0x5
 18293 3a69 C3       		.byte	0xc3
 18294 3a6a E2010000 		.4byte	0x1e2
 18295 3a6e 05       		.uleb128 0x5
 18296 3a6f 03       		.byte	0x3
 18297 3a70 00000000 		.4byte	lado
 18298 3a74 1E       		.uleb128 0x1e
 18299 3a75 50060000 		.4byte	.LASF122
 18300 3a79 05       		.byte	0x5
 18301 3a7a C4       		.byte	0xc4
 18302 3a7b 03020000 		.4byte	0x203
 18303 3a7f 05       		.uleb128 0x5
 18304 3a80 03       		.byte	0x3
 18305 3a81 00000000 		.4byte	rventa
 18306 3a85 1E       		.uleb128 0x1e
 18307 3a86 11010000 		.4byte	.LASF123
 18308 3a8a 05       		.byte	0x5
 18309 3a8b C5       		.byte	0xc5
 18310 3a8c 03020000 		.4byte	0x203
 18311 3a90 05       		.uleb128 0x5
 18312 3a91 03       		.byte	0x3
 18313 3a92 00000000 		.4byte	rventa2
 18314 3a96 1E       		.uleb128 0x1e
 18315 3a97 0D020000 		.4byte	.LASF124
 18316 3a9b 01       		.byte	0x1
 18317 3a9c 1A       		.byte	0x1a
 18318 3a9d 0C380000 		.4byte	0x380c
 18319 3aa1 05       		.uleb128 0x5
 18320 3aa2 03       		.byte	0x3
 18321 3aa3 00000000 		.4byte	msn_tc
 18322 3aa7 1E       		.uleb128 0x1e
 18323 3aa8 1B020000 		.4byte	.LASF125
 18324 3aac 01       		.byte	0x1
 18325 3aad 1B       		.byte	0x1b
 18326 3aae 28030000 		.4byte	0x328
 18327 3ab2 05       		.uleb128 0x5
 18328 3ab3 03       		.byte	0x3
 18329 3ab4 00000000 		.4byte	msn_te
 18330 3ab8 1E       		.uleb128 0x1e
 18331 3ab9 14020000 		.4byte	.LASF126
 18332 3abd 01       		.byte	0x1
 18333 3abe 1C       		.byte	0x1c
 18334 3abf AD330000 		.4byte	0x33ad
ARM GAS  C:\Users\IN-002~1\AppData\Local\Temp\ccxO8rjh.s 			page 363


 18335 3ac3 05       		.uleb128 0x5
 18336 3ac4 03       		.byte	0x3
 18337 3ac5 00000000 		.4byte	msn_td
 18338 3ac9 1E       		.uleb128 0x1e
 18339 3aca 2D020000 		.4byte	.LASF127
 18340 3ace 01       		.byte	0x1
 18341 3acf 1D       		.byte	0x1d
 18342 3ad0 85010000 		.4byte	0x185
 18343 3ad4 05       		.uleb128 0x5
 18344 3ad5 03       		.byte	0x3
 18345 3ad6 00000000 		.4byte	msn_tk
 18346 3ada 1E       		.uleb128 0x1e
 18347 3adb B9020000 		.4byte	.LASF128
 18348 3adf 01       		.byte	0x1
 18349 3ae0 1E       		.byte	0x1e
 18350 3ae1 E8020000 		.4byte	0x2e8
 18351 3ae5 05       		.uleb128 0x5
 18352 3ae6 03       		.byte	0x3
 18353 3ae7 00000000 		.4byte	msn_lecact
 18354 3aeb 08       		.uleb128 0x8
 18355 3aec 81000000 		.4byte	0x81
 18356 3af0 FB3A0000 		.4byte	0x3afb
 18357 3af4 09       		.uleb128 0x9
 18358 3af5 B7000000 		.4byte	0xb7
 18359 3af9 10       		.byte	0x10
 18360 3afa 00       		.byte	0
 18361 3afb 1E       		.uleb128 0x1e
 18362 3afc 65010000 		.4byte	.LASF129
 18363 3b00 01       		.byte	0x1
 18364 3b01 1F       		.byte	0x1f
 18365 3b02 EB3A0000 		.4byte	0x3aeb
 18366 3b06 05       		.uleb128 0x5
 18367 3b07 03       		.byte	0x3
 18368 3b08 00000000 		.4byte	msn_lecaan
 18369 3b0c 1E       		.uleb128 0x1e
 18370 3b0d 01020000 		.4byte	.LASF130
 18371 3b11 01       		.byte	0x1
 18372 3b12 20       		.byte	0x20
 18373 3b13 FF340000 		.4byte	0x34ff
 18374 3b17 05       		.uleb128 0x5
 18375 3b18 03       		.byte	0x3
 18376 3b19 00000000 		.4byte	msn_tventas
 18377 3b1d 1E       		.uleb128 0x1e
 18378 3b1e 5E000000 		.4byte	.LASF131
 18379 3b22 01       		.byte	0x1
 18380 3b23 21       		.byte	0x21
 18381 3b24 E8020000 		.4byte	0x2e8
 18382 3b28 05       		.uleb128 0x5
 18383 3b29 03       		.byte	0x3
 18384 3b2a 00000000 		.4byte	msn_totalcero
 18385 3b2e 20       		.uleb128 0x20
 18386 3b2f F8050000 		.4byte	.LASF132
 18387 3b33 06       		.byte	0x6
 18388 3b34 9F       		.byte	0x9f
 18389 3b35 3F3B0000 		.4byte	0x3b3f
 18390 3b39 21       		.uleb128 0x21
 18391 3b3a 81000000 		.4byte	0x81
ARM GAS  C:\Users\IN-002~1\AppData\Local\Temp\ccxO8rjh.s 			page 364


 18392 3b3e 00       		.byte	0
 18393 3b3f 20       		.uleb128 0x20
 18394 3b40 FE020000 		.4byte	.LASF133
 18395 3b44 08       		.byte	0x8
 18396 3b45 77       		.byte	0x77
 18397 3b46 503B0000 		.4byte	0x3b50
 18398 3b4a 21       		.uleb128 0x21
 18399 3b4b 97000000 		.4byte	0x97
 18400 3b4f 00       		.byte	0
 18401 3b50 22       		.uleb128 0x22
 18402 3b51 E7000000 		.4byte	.LASF134
 18403 3b55 06       		.byte	0x6
 18404 3b56 8A       		.byte	0x8a
 18405 3b57 8C000000 		.4byte	0x8c
 18406 3b5b 23       		.uleb128 0x23
 18407 3b5c 28030000 		.4byte	.LASF146
 18408 3b60 06       		.byte	0x6
 18409 3b61 8C       		.byte	0x8c
 18410 3b62 22       		.uleb128 0x22
 18411 3b63 88030000 		.4byte	.LASF135
 18412 3b67 06       		.byte	0x6
 18413 3b68 86       		.byte	0x86
 18414 3b69 81000000 		.4byte	0x81
 18415 3b6d 24       		.uleb128 0x24
 18416 3b6e BD000000 		.4byte	.LASF136
 18417 3b72 09       		.byte	0x9
 18418 3b73 25       		.byte	0x25
 18419 3b74 81000000 		.4byte	0x81
 18420 3b78 873B0000 		.4byte	0x3b87
 18421 3b7c 21       		.uleb128 0x21
 18422 3b7d 8C000000 		.4byte	0x8c
 18423 3b81 21       		.uleb128 0x21
 18424 3b82 F9340000 		.4byte	0x34f9
 18425 3b86 00       		.byte	0
 18426 3b87 24       		.uleb128 0x24
 18427 3b88 2C010000 		.4byte	.LASF137
 18428 3b8c 09       		.byte	0x9
 18429 3b8d 27       		.byte	0x27
 18430 3b8e 81000000 		.4byte	0x81
 18431 3b92 A13B0000 		.4byte	0x3ba1
 18432 3b96 21       		.uleb128 0x21
 18433 3b97 81000000 		.4byte	0x81
 18434 3b9b 21       		.uleb128 0x21
 18435 3b9c 81000000 		.4byte	0x81
 18436 3ba0 00       		.byte	0
 18437 3ba1 20       		.uleb128 0x20
 18438 3ba2 12060000 		.4byte	.LASF138
 18439 3ba6 0A       		.byte	0xa
 18440 3ba7 29       		.byte	0x29
 18441 3ba8 B73B0000 		.4byte	0x3bb7
 18442 3bac 21       		.uleb128 0x21
 18443 3bad 81000000 		.4byte	0x81
 18444 3bb1 21       		.uleb128 0x21
 18445 3bb2 81000000 		.4byte	0x81
 18446 3bb6 00       		.byte	0
 18447 3bb7 24       		.uleb128 0x24
 18448 3bb8 E1030000 		.4byte	.LASF139
ARM GAS  C:\Users\IN-002~1\AppData\Local\Temp\ccxO8rjh.s 			page 365


 18449 3bbc 09       		.byte	0x9
 18450 3bbd 26       		.byte	0x26
 18451 3bbe 81000000 		.4byte	0x81
 18452 3bc2 D13B0000 		.4byte	0x3bd1
 18453 3bc6 21       		.uleb128 0x21
 18454 3bc7 8C000000 		.4byte	0x8c
 18455 3bcb 21       		.uleb128 0x21
 18456 3bcc 81000000 		.4byte	0x81
 18457 3bd0 00       		.byte	0
 18458 3bd1 20       		.uleb128 0x20
 18459 3bd2 C4020000 		.4byte	.LASF140
 18460 3bd6 0A       		.byte	0xa
 18461 3bd7 26       		.byte	0x26
 18462 3bd8 E23B0000 		.4byte	0x3be2
 18463 3bdc 21       		.uleb128 0x21
 18464 3bdd 81000000 		.4byte	0x81
 18465 3be1 00       		.byte	0
 18466 3be2 20       		.uleb128 0x20
 18467 3be3 7B010000 		.4byte	.LASF141
 18468 3be7 0A       		.byte	0xa
 18469 3be8 28       		.byte	0x28
 18470 3be9 FD3B0000 		.4byte	0x3bfd
 18471 3bed 21       		.uleb128 0x21
 18472 3bee 81000000 		.4byte	0x81
 18473 3bf2 21       		.uleb128 0x21
 18474 3bf3 F9340000 		.4byte	0x34f9
 18475 3bf7 21       		.uleb128 0x21
 18476 3bf8 F9340000 		.4byte	0x34f9
 18477 3bfc 00       		.byte	0
 18478 3bfd 25       		.uleb128 0x25
 18479 3bfe E2040000 		.4byte	.LASF147
 18480 3c02 0A       		.byte	0xa
 18481 3c03 2A       		.byte	0x2a
 18482 3c04 21       		.uleb128 0x21
 18483 3c05 F9340000 		.4byte	0x34f9
 18484 3c09 21       		.uleb128 0x21
 18485 3c0a 81000000 		.4byte	0x81
 18486 3c0e 00       		.byte	0
 18487 3c0f 00       		.byte	0
 18488              		.section	.debug_abbrev,"",%progbits
 18489              	.Ldebug_abbrev0:
 18490 0000 01       		.uleb128 0x1
 18491 0001 11       		.uleb128 0x11
 18492 0002 01       		.byte	0x1
 18493 0003 25       		.uleb128 0x25
 18494 0004 0E       		.uleb128 0xe
 18495 0005 13       		.uleb128 0x13
 18496 0006 0B       		.uleb128 0xb
 18497 0007 03       		.uleb128 0x3
 18498 0008 0E       		.uleb128 0xe
 18499 0009 1B       		.uleb128 0x1b
 18500 000a 0E       		.uleb128 0xe
 18501 000b 55       		.uleb128 0x55
 18502 000c 17       		.uleb128 0x17
 18503 000d 11       		.uleb128 0x11
 18504 000e 01       		.uleb128 0x1
 18505 000f 10       		.uleb128 0x10
ARM GAS  C:\Users\IN-002~1\AppData\Local\Temp\ccxO8rjh.s 			page 366


 18506 0010 17       		.uleb128 0x17
 18507 0011 00       		.byte	0
 18508 0012 00       		.byte	0
 18509 0013 02       		.uleb128 0x2
 18510 0014 24       		.uleb128 0x24
 18511 0015 00       		.byte	0
 18512 0016 0B       		.uleb128 0xb
 18513 0017 0B       		.uleb128 0xb
 18514 0018 3E       		.uleb128 0x3e
 18515 0019 0B       		.uleb128 0xb
 18516 001a 03       		.uleb128 0x3
 18517 001b 0E       		.uleb128 0xe
 18518 001c 00       		.byte	0
 18519 001d 00       		.byte	0
 18520 001e 03       		.uleb128 0x3
 18521 001f 16       		.uleb128 0x16
 18522 0020 00       		.byte	0
 18523 0021 03       		.uleb128 0x3
 18524 0022 0E       		.uleb128 0xe
 18525 0023 3A       		.uleb128 0x3a
 18526 0024 0B       		.uleb128 0xb
 18527 0025 3B       		.uleb128 0x3b
 18528 0026 0B       		.uleb128 0xb
 18529 0027 49       		.uleb128 0x49
 18530 0028 13       		.uleb128 0x13
 18531 0029 00       		.byte	0
 18532 002a 00       		.byte	0
 18533 002b 04       		.uleb128 0x4
 18534 002c 24       		.uleb128 0x24
 18535 002d 00       		.byte	0
 18536 002e 0B       		.uleb128 0xb
 18537 002f 0B       		.uleb128 0xb
 18538 0030 3E       		.uleb128 0x3e
 18539 0031 0B       		.uleb128 0xb
 18540 0032 03       		.uleb128 0x3
 18541 0033 08       		.uleb128 0x8
 18542 0034 00       		.byte	0
 18543 0035 00       		.byte	0
 18544 0036 05       		.uleb128 0x5
 18545 0037 13       		.uleb128 0x13
 18546 0038 01       		.byte	0x1
 18547 0039 03       		.uleb128 0x3
 18548 003a 0E       		.uleb128 0xe
 18549 003b 0B       		.uleb128 0xb
 18550 003c 0B       		.uleb128 0xb
 18551 003d 3A       		.uleb128 0x3a
 18552 003e 0B       		.uleb128 0xb
 18553 003f 3B       		.uleb128 0x3b
 18554 0040 0B       		.uleb128 0xb
 18555 0041 01       		.uleb128 0x1
 18556 0042 13       		.uleb128 0x13
 18557 0043 00       		.byte	0
 18558 0044 00       		.byte	0
 18559 0045 06       		.uleb128 0x6
 18560 0046 0D       		.uleb128 0xd
 18561 0047 00       		.byte	0
 18562 0048 03       		.uleb128 0x3
ARM GAS  C:\Users\IN-002~1\AppData\Local\Temp\ccxO8rjh.s 			page 367


 18563 0049 0E       		.uleb128 0xe
 18564 004a 3A       		.uleb128 0x3a
 18565 004b 0B       		.uleb128 0xb
 18566 004c 3B       		.uleb128 0x3b
 18567 004d 0B       		.uleb128 0xb
 18568 004e 49       		.uleb128 0x49
 18569 004f 13       		.uleb128 0x13
 18570 0050 38       		.uleb128 0x38
 18571 0051 0B       		.uleb128 0xb
 18572 0052 00       		.byte	0
 18573 0053 00       		.byte	0
 18574 0054 07       		.uleb128 0x7
 18575 0055 0D       		.uleb128 0xd
 18576 0056 00       		.byte	0
 18577 0057 03       		.uleb128 0x3
 18578 0058 08       		.uleb128 0x8
 18579 0059 3A       		.uleb128 0x3a
 18580 005a 0B       		.uleb128 0xb
 18581 005b 3B       		.uleb128 0x3b
 18582 005c 0B       		.uleb128 0xb
 18583 005d 49       		.uleb128 0x49
 18584 005e 13       		.uleb128 0x13
 18585 005f 38       		.uleb128 0x38
 18586 0060 0B       		.uleb128 0xb
 18587 0061 00       		.byte	0
 18588 0062 00       		.byte	0
 18589 0063 08       		.uleb128 0x8
 18590 0064 01       		.uleb128 0x1
 18591 0065 01       		.byte	0x1
 18592 0066 49       		.uleb128 0x49
 18593 0067 13       		.uleb128 0x13
 18594 0068 01       		.uleb128 0x1
 18595 0069 13       		.uleb128 0x13
 18596 006a 00       		.byte	0
 18597 006b 00       		.byte	0
 18598 006c 09       		.uleb128 0x9
 18599 006d 21       		.uleb128 0x21
 18600 006e 00       		.byte	0
 18601 006f 49       		.uleb128 0x49
 18602 0070 13       		.uleb128 0x13
 18603 0071 2F       		.uleb128 0x2f
 18604 0072 0B       		.uleb128 0xb
 18605 0073 00       		.byte	0
 18606 0074 00       		.byte	0
 18607 0075 0A       		.uleb128 0xa
 18608 0076 13       		.uleb128 0x13
 18609 0077 01       		.byte	0x1
 18610 0078 03       		.uleb128 0x3
 18611 0079 08       		.uleb128 0x8
 18612 007a 0B       		.uleb128 0xb
 18613 007b 0B       		.uleb128 0xb
 18614 007c 3A       		.uleb128 0x3a
 18615 007d 0B       		.uleb128 0xb
 18616 007e 3B       		.uleb128 0x3b
 18617 007f 0B       		.uleb128 0xb
 18618 0080 01       		.uleb128 0x1
 18619 0081 13       		.uleb128 0x13
ARM GAS  C:\Users\IN-002~1\AppData\Local\Temp\ccxO8rjh.s 			page 368


 18620 0082 00       		.byte	0
 18621 0083 00       		.byte	0
 18622 0084 0B       		.uleb128 0xb
 18623 0085 2E       		.uleb128 0x2e
 18624 0086 01       		.byte	0x1
 18625 0087 3F       		.uleb128 0x3f
 18626 0088 19       		.uleb128 0x19
 18627 0089 03       		.uleb128 0x3
 18628 008a 0E       		.uleb128 0xe
 18629 008b 3A       		.uleb128 0x3a
 18630 008c 0B       		.uleb128 0xb
 18631 008d 3B       		.uleb128 0x3b
 18632 008e 0B       		.uleb128 0xb
 18633 008f 27       		.uleb128 0x27
 18634 0090 19       		.uleb128 0x19
 18635 0091 49       		.uleb128 0x49
 18636 0092 13       		.uleb128 0x13
 18637 0093 11       		.uleb128 0x11
 18638 0094 01       		.uleb128 0x1
 18639 0095 12       		.uleb128 0x12
 18640 0096 06       		.uleb128 0x6
 18641 0097 40       		.uleb128 0x40
 18642 0098 18       		.uleb128 0x18
 18643 0099 9742     		.uleb128 0x2117
 18644 009b 19       		.uleb128 0x19
 18645 009c 01       		.uleb128 0x1
 18646 009d 13       		.uleb128 0x13
 18647 009e 00       		.byte	0
 18648 009f 00       		.byte	0
 18649 00a0 0C       		.uleb128 0xc
 18650 00a1 34       		.uleb128 0x34
 18651 00a2 00       		.byte	0
 18652 00a3 03       		.uleb128 0x3
 18653 00a4 08       		.uleb128 0x8
 18654 00a5 3A       		.uleb128 0x3a
 18655 00a6 0B       		.uleb128 0xb
 18656 00a7 3B       		.uleb128 0x3b
 18657 00a8 0B       		.uleb128 0xb
 18658 00a9 49       		.uleb128 0x49
 18659 00aa 13       		.uleb128 0x13
 18660 00ab 02       		.uleb128 0x2
 18661 00ac 17       		.uleb128 0x17
 18662 00ad 00       		.byte	0
 18663 00ae 00       		.byte	0
 18664 00af 0D       		.uleb128 0xd
 18665 00b0 898201   		.uleb128 0x4109
 18666 00b3 01       		.byte	0x1
 18667 00b4 11       		.uleb128 0x11
 18668 00b5 01       		.uleb128 0x1
 18669 00b6 31       		.uleb128 0x31
 18670 00b7 13       		.uleb128 0x13
 18671 00b8 01       		.uleb128 0x1
 18672 00b9 13       		.uleb128 0x13
 18673 00ba 00       		.byte	0
 18674 00bb 00       		.byte	0
 18675 00bc 0E       		.uleb128 0xe
 18676 00bd 8A8201   		.uleb128 0x410a
ARM GAS  C:\Users\IN-002~1\AppData\Local\Temp\ccxO8rjh.s 			page 369


 18677 00c0 00       		.byte	0
 18678 00c1 02       		.uleb128 0x2
 18679 00c2 18       		.uleb128 0x18
 18680 00c3 9142     		.uleb128 0x2111
 18681 00c5 18       		.uleb128 0x18
 18682 00c6 00       		.byte	0
 18683 00c7 00       		.byte	0
 18684 00c8 0F       		.uleb128 0xf
 18685 00c9 898201   		.uleb128 0x4109
 18686 00cc 00       		.byte	0
 18687 00cd 11       		.uleb128 0x11
 18688 00ce 01       		.uleb128 0x1
 18689 00cf 31       		.uleb128 0x31
 18690 00d0 13       		.uleb128 0x13
 18691 00d1 00       		.byte	0
 18692 00d2 00       		.byte	0
 18693 00d3 10       		.uleb128 0x10
 18694 00d4 05       		.uleb128 0x5
 18695 00d5 00       		.byte	0
 18696 00d6 03       		.uleb128 0x3
 18697 00d7 08       		.uleb128 0x8
 18698 00d8 3A       		.uleb128 0x3a
 18699 00d9 0B       		.uleb128 0xb
 18700 00da 3B       		.uleb128 0x3b
 18701 00db 0B       		.uleb128 0xb
 18702 00dc 49       		.uleb128 0x49
 18703 00dd 13       		.uleb128 0x13
 18704 00de 02       		.uleb128 0x2
 18705 00df 17       		.uleb128 0x17
 18706 00e0 00       		.byte	0
 18707 00e1 00       		.byte	0
 18708 00e2 11       		.uleb128 0x11
 18709 00e3 34       		.uleb128 0x34
 18710 00e4 00       		.byte	0
 18711 00e5 03       		.uleb128 0x3
 18712 00e6 0E       		.uleb128 0xe
 18713 00e7 3A       		.uleb128 0x3a
 18714 00e8 0B       		.uleb128 0xb
 18715 00e9 3B       		.uleb128 0x3b
 18716 00ea 0B       		.uleb128 0xb
 18717 00eb 49       		.uleb128 0x49
 18718 00ec 13       		.uleb128 0x13
 18719 00ed 02       		.uleb128 0x2
 18720 00ee 17       		.uleb128 0x17
 18721 00ef 00       		.byte	0
 18722 00f0 00       		.byte	0
 18723 00f1 12       		.uleb128 0x12
 18724 00f2 34       		.uleb128 0x34
 18725 00f3 00       		.byte	0
 18726 00f4 03       		.uleb128 0x3
 18727 00f5 0E       		.uleb128 0xe
 18728 00f6 3A       		.uleb128 0x3a
 18729 00f7 0B       		.uleb128 0xb
 18730 00f8 3B       		.uleb128 0x3b
 18731 00f9 0B       		.uleb128 0xb
 18732 00fa 49       		.uleb128 0x49
 18733 00fb 13       		.uleb128 0x13
ARM GAS  C:\Users\IN-002~1\AppData\Local\Temp\ccxO8rjh.s 			page 370


 18734 00fc 02       		.uleb128 0x2
 18735 00fd 18       		.uleb128 0x18
 18736 00fe 00       		.byte	0
 18737 00ff 00       		.byte	0
 18738 0100 13       		.uleb128 0x13
 18739 0101 2E       		.uleb128 0x2e
 18740 0102 01       		.byte	0x1
 18741 0103 3F       		.uleb128 0x3f
 18742 0104 19       		.uleb128 0x19
 18743 0105 03       		.uleb128 0x3
 18744 0106 0E       		.uleb128 0xe
 18745 0107 3A       		.uleb128 0x3a
 18746 0108 0B       		.uleb128 0xb
 18747 0109 3B       		.uleb128 0x3b
 18748 010a 0B       		.uleb128 0xb
 18749 010b 27       		.uleb128 0x27
 18750 010c 19       		.uleb128 0x19
 18751 010d 11       		.uleb128 0x11
 18752 010e 01       		.uleb128 0x1
 18753 010f 12       		.uleb128 0x12
 18754 0110 06       		.uleb128 0x6
 18755 0111 40       		.uleb128 0x40
 18756 0112 18       		.uleb128 0x18
 18757 0113 9742     		.uleb128 0x2117
 18758 0115 19       		.uleb128 0x19
 18759 0116 01       		.uleb128 0x1
 18760 0117 13       		.uleb128 0x13
 18761 0118 00       		.byte	0
 18762 0119 00       		.byte	0
 18763 011a 14       		.uleb128 0x14
 18764 011b 898201   		.uleb128 0x4109
 18765 011e 01       		.byte	0x1
 18766 011f 11       		.uleb128 0x11
 18767 0120 01       		.uleb128 0x1
 18768 0121 31       		.uleb128 0x31
 18769 0122 13       		.uleb128 0x13
 18770 0123 00       		.byte	0
 18771 0124 00       		.byte	0
 18772 0125 15       		.uleb128 0x15
 18773 0126 2E       		.uleb128 0x2e
 18774 0127 01       		.byte	0x1
 18775 0128 3F       		.uleb128 0x3f
 18776 0129 19       		.uleb128 0x19
 18777 012a 03       		.uleb128 0x3
 18778 012b 0E       		.uleb128 0xe
 18779 012c 3A       		.uleb128 0x3a
 18780 012d 0B       		.uleb128 0xb
 18781 012e 3B       		.uleb128 0x3b
 18782 012f 05       		.uleb128 0x5
 18783 0130 27       		.uleb128 0x27
 18784 0131 19       		.uleb128 0x19
 18785 0132 49       		.uleb128 0x49
 18786 0133 13       		.uleb128 0x13
 18787 0134 11       		.uleb128 0x11
 18788 0135 01       		.uleb128 0x1
 18789 0136 12       		.uleb128 0x12
 18790 0137 06       		.uleb128 0x6
ARM GAS  C:\Users\IN-002~1\AppData\Local\Temp\ccxO8rjh.s 			page 371


 18791 0138 40       		.uleb128 0x40
 18792 0139 18       		.uleb128 0x18
 18793 013a 9742     		.uleb128 0x2117
 18794 013c 19       		.uleb128 0x19
 18795 013d 01       		.uleb128 0x1
 18796 013e 13       		.uleb128 0x13
 18797 013f 00       		.byte	0
 18798 0140 00       		.byte	0
 18799 0141 16       		.uleb128 0x16
 18800 0142 05       		.uleb128 0x5
 18801 0143 00       		.byte	0
 18802 0144 03       		.uleb128 0x3
 18803 0145 08       		.uleb128 0x8
 18804 0146 3A       		.uleb128 0x3a
 18805 0147 0B       		.uleb128 0xb
 18806 0148 3B       		.uleb128 0x3b
 18807 0149 05       		.uleb128 0x5
 18808 014a 49       		.uleb128 0x49
 18809 014b 13       		.uleb128 0x13
 18810 014c 02       		.uleb128 0x2
 18811 014d 17       		.uleb128 0x17
 18812 014e 00       		.byte	0
 18813 014f 00       		.byte	0
 18814 0150 17       		.uleb128 0x17
 18815 0151 34       		.uleb128 0x34
 18816 0152 00       		.byte	0
 18817 0153 03       		.uleb128 0x3
 18818 0154 0E       		.uleb128 0xe
 18819 0155 3A       		.uleb128 0x3a
 18820 0156 0B       		.uleb128 0xb
 18821 0157 3B       		.uleb128 0x3b
 18822 0158 05       		.uleb128 0x5
 18823 0159 49       		.uleb128 0x49
 18824 015a 13       		.uleb128 0x13
 18825 015b 02       		.uleb128 0x2
 18826 015c 18       		.uleb128 0x18
 18827 015d 00       		.byte	0
 18828 015e 00       		.byte	0
 18829 015f 18       		.uleb128 0x18
 18830 0160 05       		.uleb128 0x5
 18831 0161 00       		.byte	0
 18832 0162 03       		.uleb128 0x3
 18833 0163 0E       		.uleb128 0xe
 18834 0164 3A       		.uleb128 0x3a
 18835 0165 0B       		.uleb128 0xb
 18836 0166 3B       		.uleb128 0x3b
 18837 0167 05       		.uleb128 0x5
 18838 0168 49       		.uleb128 0x49
 18839 0169 13       		.uleb128 0x13
 18840 016a 02       		.uleb128 0x2
 18841 016b 17       		.uleb128 0x17
 18842 016c 00       		.byte	0
 18843 016d 00       		.byte	0
 18844 016e 19       		.uleb128 0x19
 18845 016f 34       		.uleb128 0x34
 18846 0170 00       		.byte	0
 18847 0171 03       		.uleb128 0x3
ARM GAS  C:\Users\IN-002~1\AppData\Local\Temp\ccxO8rjh.s 			page 372


 18848 0172 0E       		.uleb128 0xe
 18849 0173 3A       		.uleb128 0x3a
 18850 0174 0B       		.uleb128 0xb
 18851 0175 3B       		.uleb128 0x3b
 18852 0176 05       		.uleb128 0x5
 18853 0177 49       		.uleb128 0x49
 18854 0178 13       		.uleb128 0x13
 18855 0179 02       		.uleb128 0x2
 18856 017a 17       		.uleb128 0x17
 18857 017b 00       		.byte	0
 18858 017c 00       		.byte	0
 18859 017d 1A       		.uleb128 0x1a
 18860 017e 34       		.uleb128 0x34
 18861 017f 00       		.byte	0
 18862 0180 03       		.uleb128 0x3
 18863 0181 08       		.uleb128 0x8
 18864 0182 3A       		.uleb128 0x3a
 18865 0183 0B       		.uleb128 0xb
 18866 0184 3B       		.uleb128 0x3b
 18867 0185 05       		.uleb128 0x5
 18868 0186 49       		.uleb128 0x49
 18869 0187 13       		.uleb128 0x13
 18870 0188 02       		.uleb128 0x2
 18871 0189 17       		.uleb128 0x17
 18872 018a 00       		.byte	0
 18873 018b 00       		.byte	0
 18874 018c 1B       		.uleb128 0x1b
 18875 018d 0F       		.uleb128 0xf
 18876 018e 00       		.byte	0
 18877 018f 0B       		.uleb128 0xb
 18878 0190 0B       		.uleb128 0xb
 18879 0191 49       		.uleb128 0x49
 18880 0192 13       		.uleb128 0x13
 18881 0193 00       		.byte	0
 18882 0194 00       		.byte	0
 18883 0195 1C       		.uleb128 0x1c
 18884 0196 34       		.uleb128 0x34
 18885 0197 00       		.byte	0
 18886 0198 03       		.uleb128 0x3
 18887 0199 0E       		.uleb128 0xe
 18888 019a 3A       		.uleb128 0x3a
 18889 019b 0B       		.uleb128 0xb
 18890 019c 3B       		.uleb128 0x3b
 18891 019d 05       		.uleb128 0x5
 18892 019e 49       		.uleb128 0x49
 18893 019f 13       		.uleb128 0x13
 18894 01a0 3F       		.uleb128 0x3f
 18895 01a1 19       		.uleb128 0x19
 18896 01a2 3C       		.uleb128 0x3c
 18897 01a3 19       		.uleb128 0x19
 18898 01a4 00       		.byte	0
 18899 01a5 00       		.byte	0
 18900 01a6 1D       		.uleb128 0x1d
 18901 01a7 35       		.uleb128 0x35
 18902 01a8 00       		.byte	0
 18903 01a9 49       		.uleb128 0x49
 18904 01aa 13       		.uleb128 0x13
ARM GAS  C:\Users\IN-002~1\AppData\Local\Temp\ccxO8rjh.s 			page 373


 18905 01ab 00       		.byte	0
 18906 01ac 00       		.byte	0
 18907 01ad 1E       		.uleb128 0x1e
 18908 01ae 34       		.uleb128 0x34
 18909 01af 00       		.byte	0
 18910 01b0 03       		.uleb128 0x3
 18911 01b1 0E       		.uleb128 0xe
 18912 01b2 3A       		.uleb128 0x3a
 18913 01b3 0B       		.uleb128 0xb
 18914 01b4 3B       		.uleb128 0x3b
 18915 01b5 0B       		.uleb128 0xb
 18916 01b6 49       		.uleb128 0x49
 18917 01b7 13       		.uleb128 0x13
 18918 01b8 3F       		.uleb128 0x3f
 18919 01b9 19       		.uleb128 0x19
 18920 01ba 02       		.uleb128 0x2
 18921 01bb 18       		.uleb128 0x18
 18922 01bc 00       		.byte	0
 18923 01bd 00       		.byte	0
 18924 01be 1F       		.uleb128 0x1f
 18925 01bf 34       		.uleb128 0x34
 18926 01c0 00       		.byte	0
 18927 01c1 03       		.uleb128 0x3
 18928 01c2 08       		.uleb128 0x8
 18929 01c3 3A       		.uleb128 0x3a
 18930 01c4 0B       		.uleb128 0xb
 18931 01c5 3B       		.uleb128 0x3b
 18932 01c6 0B       		.uleb128 0xb
 18933 01c7 49       		.uleb128 0x49
 18934 01c8 13       		.uleb128 0x13
 18935 01c9 3F       		.uleb128 0x3f
 18936 01ca 19       		.uleb128 0x19
 18937 01cb 02       		.uleb128 0x2
 18938 01cc 18       		.uleb128 0x18
 18939 01cd 00       		.byte	0
 18940 01ce 00       		.byte	0
 18941 01cf 20       		.uleb128 0x20
 18942 01d0 2E       		.uleb128 0x2e
 18943 01d1 01       		.byte	0x1
 18944 01d2 3F       		.uleb128 0x3f
 18945 01d3 19       		.uleb128 0x19
 18946 01d4 03       		.uleb128 0x3
 18947 01d5 0E       		.uleb128 0xe
 18948 01d6 3A       		.uleb128 0x3a
 18949 01d7 0B       		.uleb128 0xb
 18950 01d8 3B       		.uleb128 0x3b
 18951 01d9 0B       		.uleb128 0xb
 18952 01da 27       		.uleb128 0x27
 18953 01db 19       		.uleb128 0x19
 18954 01dc 3C       		.uleb128 0x3c
 18955 01dd 19       		.uleb128 0x19
 18956 01de 01       		.uleb128 0x1
 18957 01df 13       		.uleb128 0x13
 18958 01e0 00       		.byte	0
 18959 01e1 00       		.byte	0
 18960 01e2 21       		.uleb128 0x21
 18961 01e3 05       		.uleb128 0x5
ARM GAS  C:\Users\IN-002~1\AppData\Local\Temp\ccxO8rjh.s 			page 374


 18962 01e4 00       		.byte	0
 18963 01e5 49       		.uleb128 0x49
 18964 01e6 13       		.uleb128 0x13
 18965 01e7 00       		.byte	0
 18966 01e8 00       		.byte	0
 18967 01e9 22       		.uleb128 0x22
 18968 01ea 2E       		.uleb128 0x2e
 18969 01eb 00       		.byte	0
 18970 01ec 3F       		.uleb128 0x3f
 18971 01ed 19       		.uleb128 0x19
 18972 01ee 03       		.uleb128 0x3
 18973 01ef 0E       		.uleb128 0xe
 18974 01f0 3A       		.uleb128 0x3a
 18975 01f1 0B       		.uleb128 0xb
 18976 01f2 3B       		.uleb128 0x3b
 18977 01f3 0B       		.uleb128 0xb
 18978 01f4 27       		.uleb128 0x27
 18979 01f5 19       		.uleb128 0x19
 18980 01f6 49       		.uleb128 0x49
 18981 01f7 13       		.uleb128 0x13
 18982 01f8 3C       		.uleb128 0x3c
 18983 01f9 19       		.uleb128 0x19
 18984 01fa 00       		.byte	0
 18985 01fb 00       		.byte	0
 18986 01fc 23       		.uleb128 0x23
 18987 01fd 2E       		.uleb128 0x2e
 18988 01fe 00       		.byte	0
 18989 01ff 3F       		.uleb128 0x3f
 18990 0200 19       		.uleb128 0x19
 18991 0201 03       		.uleb128 0x3
 18992 0202 0E       		.uleb128 0xe
 18993 0203 3A       		.uleb128 0x3a
 18994 0204 0B       		.uleb128 0xb
 18995 0205 3B       		.uleb128 0x3b
 18996 0206 0B       		.uleb128 0xb
 18997 0207 27       		.uleb128 0x27
 18998 0208 19       		.uleb128 0x19
 18999 0209 3C       		.uleb128 0x3c
 19000 020a 19       		.uleb128 0x19
 19001 020b 00       		.byte	0
 19002 020c 00       		.byte	0
 19003 020d 24       		.uleb128 0x24
 19004 020e 2E       		.uleb128 0x2e
 19005 020f 01       		.byte	0x1
 19006 0210 3F       		.uleb128 0x3f
 19007 0211 19       		.uleb128 0x19
 19008 0212 03       		.uleb128 0x3
 19009 0213 0E       		.uleb128 0xe
 19010 0214 3A       		.uleb128 0x3a
 19011 0215 0B       		.uleb128 0xb
 19012 0216 3B       		.uleb128 0x3b
 19013 0217 0B       		.uleb128 0xb
 19014 0218 27       		.uleb128 0x27
 19015 0219 19       		.uleb128 0x19
 19016 021a 49       		.uleb128 0x49
 19017 021b 13       		.uleb128 0x13
 19018 021c 3C       		.uleb128 0x3c
ARM GAS  C:\Users\IN-002~1\AppData\Local\Temp\ccxO8rjh.s 			page 375


 19019 021d 19       		.uleb128 0x19
 19020 021e 01       		.uleb128 0x1
 19021 021f 13       		.uleb128 0x13
 19022 0220 00       		.byte	0
 19023 0221 00       		.byte	0
 19024 0222 25       		.uleb128 0x25
 19025 0223 2E       		.uleb128 0x2e
 19026 0224 01       		.byte	0x1
 19027 0225 3F       		.uleb128 0x3f
 19028 0226 19       		.uleb128 0x19
 19029 0227 03       		.uleb128 0x3
 19030 0228 0E       		.uleb128 0xe
 19031 0229 3A       		.uleb128 0x3a
 19032 022a 0B       		.uleb128 0xb
 19033 022b 3B       		.uleb128 0x3b
 19034 022c 0B       		.uleb128 0xb
 19035 022d 27       		.uleb128 0x27
 19036 022e 19       		.uleb128 0x19
 19037 022f 3C       		.uleb128 0x3c
 19038 0230 19       		.uleb128 0x19
 19039 0231 00       		.byte	0
 19040 0232 00       		.byte	0
 19041 0233 00       		.byte	0
 19042              		.section	.debug_loc,"",%progbits
 19043              	.Ldebug_loc0:
 19044              	.LLST0:
 19045 0000 0A000000 		.4byte	.LVL0
 19046 0004 0E000000 		.4byte	.LVL1
 19047 0008 0200     		.2byte	0x2
 19048 000a 30       		.byte	0x30
 19049 000b 9F       		.byte	0x9f
 19050 000c 0E000000 		.4byte	.LVL1
 19051 0010 48000000 		.4byte	.LVL8
 19052 0014 0100     		.2byte	0x1
 19053 0016 54       		.byte	0x54
 19054 0017 4A000000 		.4byte	.LVL9
 19055 001b 7A000000 		.4byte	.LVL13
 19056 001f 0100     		.2byte	0x1
 19057 0021 54       		.byte	0x54
 19058 0022 00000000 		.4byte	0
 19059 0026 00000000 		.4byte	0
 19060              	.LLST1:
 19061 002a 00000000 		.4byte	.LVL14
 19062 002e 05000000 		.4byte	.LVL15-1
 19063 0032 0100     		.2byte	0x1
 19064 0034 50       		.byte	0x50
 19065 0035 05000000 		.4byte	.LVL15-1
 19066 0039 26000000 		.4byte	.LFE64
 19067 003d 0400     		.2byte	0x4
 19068 003f F3       		.byte	0xf3
 19069 0040 01       		.uleb128 0x1
 19070 0041 50       		.byte	0x50
 19071 0042 9F       		.byte	0x9f
 19072 0043 00000000 		.4byte	0
 19073 0047 00000000 		.4byte	0
 19074              	.LLST2:
 19075 004b 1A000000 		.4byte	.LVL19
ARM GAS  C:\Users\IN-002~1\AppData\Local\Temp\ccxO8rjh.s 			page 376


 19076 004f 22000000 		.4byte	.LVL21
 19077 0053 0100     		.2byte	0x1
 19078 0055 54       		.byte	0x54
 19079 0056 00000000 		.4byte	0
 19080 005a 00000000 		.4byte	0
 19081              	.LLST3:
 19082 005e 00000000 		.4byte	.LVL22
 19083 0062 0C000000 		.4byte	.LVL23
 19084 0066 0100     		.2byte	0x1
 19085 0068 50       		.byte	0x50
 19086 0069 0C000000 		.4byte	.LVL23
 19087 006d E8000000 		.4byte	.LFE65
 19088 0071 0400     		.2byte	0x4
 19089 0073 F3       		.byte	0xf3
 19090 0074 01       		.uleb128 0x1
 19091 0075 50       		.byte	0x50
 19092 0076 9F       		.byte	0x9f
 19093 0077 00000000 		.4byte	0
 19094 007b 00000000 		.4byte	0
 19095              	.LLST4:
 19096 007f 40000000 		.4byte	.LVL28
 19097 0083 44000000 		.4byte	.LVL29
 19098 0087 0200     		.2byte	0x2
 19099 0089 30       		.byte	0x30
 19100 008a 9F       		.byte	0x9f
 19101 008b 44000000 		.4byte	.LVL29
 19102 008f 52000000 		.4byte	.LVL31
 19103 0093 0100     		.2byte	0x1
 19104 0095 54       		.byte	0x54
 19105 0096 54000000 		.4byte	.LVL32
 19106 009a 78000000 		.4byte	.LVL36
 19107 009e 0100     		.2byte	0x1
 19108 00a0 54       		.byte	0x54
 19109 00a1 7A000000 		.4byte	.LVL37
 19110 00a5 C2000000 		.4byte	.LVL40
 19111 00a9 0100     		.2byte	0x1
 19112 00ab 54       		.byte	0x54
 19113 00ac CA000000 		.4byte	.LVL41
 19114 00b0 DC000000 		.4byte	.LVL42
 19115 00b4 0100     		.2byte	0x1
 19116 00b6 54       		.byte	0x54
 19117 00b7 00000000 		.4byte	0
 19118 00bb 00000000 		.4byte	0
 19119              	.LLST5:
 19120 00bf 00000000 		.4byte	.LVL43
 19121 00c3 06000000 		.4byte	.LVL44
 19122 00c7 0100     		.2byte	0x1
 19123 00c9 50       		.byte	0x50
 19124 00ca 06000000 		.4byte	.LVL44
 19125 00ce 12000000 		.4byte	.LFE66
 19126 00d2 0400     		.2byte	0x4
 19127 00d4 F3       		.byte	0xf3
 19128 00d5 01       		.uleb128 0x1
 19129 00d6 50       		.byte	0x50
 19130 00d7 9F       		.byte	0x9f
 19131 00d8 00000000 		.4byte	0
 19132 00dc 00000000 		.4byte	0
ARM GAS  C:\Users\IN-002~1\AppData\Local\Temp\ccxO8rjh.s 			page 377


 19133              	.LLST6:
 19134 00e0 00000000 		.4byte	.LVL47
 19135 00e4 0A000000 		.4byte	.LVL49
 19136 00e8 0100     		.2byte	0x1
 19137 00ea 50       		.byte	0x50
 19138 00eb 0A000000 		.4byte	.LVL49
 19139 00ef E8010000 		.4byte	.LFE67
 19140 00f3 0400     		.2byte	0x4
 19141 00f5 F3       		.byte	0xf3
 19142 00f6 01       		.uleb128 0x1
 19143 00f7 50       		.byte	0x50
 19144 00f8 9F       		.byte	0x9f
 19145 00f9 00000000 		.4byte	0
 19146 00fd 00000000 		.4byte	0
 19147              	.LLST7:
 19148 0101 06000000 		.4byte	.LVL48
 19149 0105 22000000 		.4byte	.LVL53
 19150 0109 0200     		.2byte	0x2
 19151 010b 30       		.byte	0x30
 19152 010c 9F       		.byte	0x9f
 19153 010d 22000000 		.4byte	.LVL53
 19154 0111 30000000 		.4byte	.LVL55
 19155 0115 0100     		.2byte	0x1
 19156 0117 55       		.byte	0x55
 19157 0118 32000000 		.4byte	.LVL56
 19158 011c 34000000 		.4byte	.LVL57
 19159 0120 0100     		.2byte	0x1
 19160 0122 55       		.byte	0x55
 19161 0123 34000000 		.4byte	.LVL57
 19162 0127 36000000 		.4byte	.LVL58
 19163 012b 0200     		.2byte	0x2
 19164 012d 30       		.byte	0x30
 19165 012e 9F       		.byte	0x9f
 19166 012f 36000000 		.4byte	.LVL58
 19167 0133 7C000000 		.4byte	.LVL65
 19168 0137 0100     		.2byte	0x1
 19169 0139 55       		.byte	0x55
 19170 013a 7C000000 		.4byte	.LVL65
 19171 013e 7E000000 		.4byte	.LVL66
 19172 0142 0100     		.2byte	0x1
 19173 0144 53       		.byte	0x53
 19174 0145 80000000 		.4byte	.LVL67
 19175 0149 82000000 		.4byte	.LVL68
 19176 014d 0100     		.2byte	0x1
 19177 014f 53       		.byte	0x53
 19178 0150 82000000 		.4byte	.LVL68
 19179 0154 84000000 		.4byte	.LVL69
 19180 0158 0100     		.2byte	0x1
 19181 015a 55       		.byte	0x55
 19182 015b 84000000 		.4byte	.LVL69
 19183 015f 96000000 		.4byte	.LVL70
 19184 0163 0100     		.2byte	0x1
 19185 0165 53       		.byte	0x53
 19186 0166 98000000 		.4byte	.LVL71
 19187 016a B0000000 		.4byte	.LVL72
 19188 016e 0100     		.2byte	0x1
 19189 0170 53       		.byte	0x53
ARM GAS  C:\Users\IN-002~1\AppData\Local\Temp\ccxO8rjh.s 			page 378


 19190 0171 B2000000 		.4byte	.LVL73
 19191 0175 C4000000 		.4byte	.LVL74
 19192 0179 0100     		.2byte	0x1
 19193 017b 53       		.byte	0x53
 19194 017c C6000000 		.4byte	.LVL75
 19195 0180 D8000000 		.4byte	.LVL77
 19196 0184 0100     		.2byte	0x1
 19197 0186 53       		.byte	0x53
 19198 0187 DA000000 		.4byte	.LVL78
 19199 018b F8000000 		.4byte	.LVL82
 19200 018f 0100     		.2byte	0x1
 19201 0191 53       		.byte	0x53
 19202 0192 FA000000 		.4byte	.LVL83
 19203 0196 0C010000 		.4byte	.LVL85
 19204 019a 0100     		.2byte	0x1
 19205 019c 53       		.byte	0x53
 19206 019d 0E010000 		.4byte	.LVL86
 19207 01a1 2C010000 		.4byte	.LVL90
 19208 01a5 0100     		.2byte	0x1
 19209 01a7 53       		.byte	0x53
 19210 01a8 2E010000 		.4byte	.LVL91
 19211 01ac 40010000 		.4byte	.LVL93
 19212 01b0 0100     		.2byte	0x1
 19213 01b2 53       		.byte	0x53
 19214 01b3 42010000 		.4byte	.LVL94
 19215 01b7 60010000 		.4byte	.LVL98
 19216 01bb 0100     		.2byte	0x1
 19217 01bd 53       		.byte	0x53
 19218 01be 62010000 		.4byte	.LVL99
 19219 01c2 74010000 		.4byte	.LVL100
 19220 01c6 0100     		.2byte	0x1
 19221 01c8 53       		.byte	0x53
 19222 01c9 C8010000 		.4byte	.LVL107
 19223 01cd D0010000 		.4byte	.LVL108
 19224 01d1 0100     		.2byte	0x1
 19225 01d3 55       		.byte	0x55
 19226 01d4 D0010000 		.4byte	.LVL108
 19227 01d8 D6010000 		.4byte	.LVL109
 19228 01dc 0100     		.2byte	0x1
 19229 01de 53       		.byte	0x53
 19230 01df 00000000 		.4byte	0
 19231 01e3 00000000 		.4byte	0
 19232              	.LLST8:
 19233 01e7 44000000 		.4byte	.LVL61
 19234 01eb 4E000000 		.4byte	.LVL62
 19235 01ef 0200     		.2byte	0x2
 19236 01f1 40       		.byte	0x40
 19237 01f2 9F       		.byte	0x9f
 19238 01f3 4E000000 		.4byte	.LVL62
 19239 01f7 56000000 		.4byte	.LVL63
 19240 01fb 0100     		.2byte	0x1
 19241 01fd 54       		.byte	0x54
 19242 01fe 56000000 		.4byte	.LVL63
 19243 0202 74000000 		.4byte	.LVL64
 19244 0206 0100     		.2byte	0x1
 19245 0208 53       		.byte	0x53
 19246 0209 C8010000 		.4byte	.LVL107
ARM GAS  C:\Users\IN-002~1\AppData\Local\Temp\ccxO8rjh.s 			page 379


 19247 020d D0010000 		.4byte	.LVL108
 19248 0211 0100     		.2byte	0x1
 19249 0213 53       		.byte	0x53
 19250 0214 00000000 		.4byte	0
 19251 0218 00000000 		.4byte	0
 19252              	.LLST9:
 19253 021c C6000000 		.4byte	.LVL75
 19254 0220 CA000000 		.4byte	.LVL76
 19255 0224 0200     		.2byte	0x2
 19256 0226 31       		.byte	0x31
 19257 0227 9F       		.byte	0x9f
 19258 0228 CA000000 		.4byte	.LVL76
 19259 022c DC000000 		.4byte	.LVL79
 19260 0230 0100     		.2byte	0x1
 19261 0232 52       		.byte	0x52
 19262 0233 DE000000 		.4byte	.LVL80
 19263 0237 F0000000 		.4byte	.LVL81
 19264 023b 0100     		.2byte	0x1
 19265 023d 52       		.byte	0x52
 19266 023e FA000000 		.4byte	.LVL83
 19267 0242 FE000000 		.4byte	.LVL84
 19268 0246 0200     		.2byte	0x2
 19269 0248 31       		.byte	0x31
 19270 0249 9F       		.byte	0x9f
 19271 024a FE000000 		.4byte	.LVL84
 19272 024e 10010000 		.4byte	.LVL87
 19273 0252 0100     		.2byte	0x1
 19274 0254 52       		.byte	0x52
 19275 0255 12010000 		.4byte	.LVL88
 19276 0259 24010000 		.4byte	.LVL89
 19277 025d 0100     		.2byte	0x1
 19278 025f 52       		.byte	0x52
 19279 0260 2E010000 		.4byte	.LVL91
 19280 0264 32010000 		.4byte	.LVL92
 19281 0268 0200     		.2byte	0x2
 19282 026a 31       		.byte	0x31
 19283 026b 9F       		.byte	0x9f
 19284 026c 32010000 		.4byte	.LVL92
 19285 0270 44010000 		.4byte	.LVL95
 19286 0274 0100     		.2byte	0x1
 19287 0276 52       		.byte	0x52
 19288 0277 46010000 		.4byte	.LVL96
 19289 027b 58010000 		.4byte	.LVL97
 19290 027f 0100     		.2byte	0x1
 19291 0281 52       		.byte	0x52
 19292 0282 00000000 		.4byte	0
 19293 0286 00000000 		.4byte	0
 19294              	.LLST10:
 19295 028a 00000000 		.4byte	.LVL110
 19296 028e 0C000000 		.4byte	.LVL111
 19297 0292 0100     		.2byte	0x1
 19298 0294 50       		.byte	0x50
 19299 0295 0C000000 		.4byte	.LVL111
 19300 0299 74320000 		.4byte	.LFE68
 19301 029d 0400     		.2byte	0x4
 19302 029f F3       		.byte	0xf3
 19303 02a0 01       		.uleb128 0x1
ARM GAS  C:\Users\IN-002~1\AppData\Local\Temp\ccxO8rjh.s 			page 380


 19304 02a1 50       		.byte	0x50
 19305 02a2 9F       		.byte	0x9f
 19306 02a3 00000000 		.4byte	0
 19307 02a7 00000000 		.4byte	0
 19308              	.LLST11:
 19309 02ab 00000000 		.4byte	.LVL110
 19310 02af 0F000000 		.4byte	.LVL112-1
 19311 02b3 0100     		.2byte	0x1
 19312 02b5 51       		.byte	0x51
 19313 02b6 0F000000 		.4byte	.LVL112-1
 19314 02ba 74320000 		.4byte	.LFE68
 19315 02be 0400     		.2byte	0x4
 19316 02c0 F3       		.byte	0xf3
 19317 02c1 01       		.uleb128 0x1
 19318 02c2 51       		.byte	0x51
 19319 02c3 9F       		.byte	0x9f
 19320 02c4 00000000 		.4byte	0
 19321 02c8 00000000 		.4byte	0
 19322              	.LLST12:
 19323 02cc 00000000 		.4byte	.LVL577
 19324 02d0 22040000 		.4byte	.LVL680
 19325 02d4 0100     		.2byte	0x1
 19326 02d6 50       		.byte	0x50
 19327 02d7 22040000 		.4byte	.LVL680
 19328 02db 6C040000 		.4byte	.LVL692
 19329 02df 0400     		.2byte	0x4
 19330 02e1 F3       		.byte	0xf3
 19331 02e2 01       		.uleb128 0x1
 19332 02e3 50       		.byte	0x50
 19333 02e4 9F       		.byte	0x9f
 19334 02e5 6C040000 		.4byte	.LVL692
 19335 02e9 70040000 		.4byte	.LVL694
 19336 02ed 0100     		.2byte	0x1
 19337 02ef 50       		.byte	0x50
 19338 02f0 70040000 		.4byte	.LVL694
 19339 02f4 88040000 		.4byte	.LFE69
 19340 02f8 0400     		.2byte	0x4
 19341 02fa F3       		.byte	0xf3
 19342 02fb 01       		.uleb128 0x1
 19343 02fc 50       		.byte	0x50
 19344 02fd 9F       		.byte	0x9f
 19345 02fe 00000000 		.4byte	0
 19346 0302 00000000 		.4byte	0
 19347              	.LLST13:
 19348 0306 00000000 		.4byte	.LVL577
 19349 030a 80030000 		.4byte	.LVL661
 19350 030e 0100     		.2byte	0x1
 19351 0310 51       		.byte	0x51
 19352 0311 80030000 		.4byte	.LVL661
 19353 0315 1A040000 		.4byte	.LVL677
 19354 0319 0400     		.2byte	0x4
 19355 031b F3       		.byte	0xf3
 19356 031c 01       		.uleb128 0x1
 19357 031d 51       		.byte	0x51
 19358 031e 9F       		.byte	0x9f
 19359 031f 1A040000 		.4byte	.LVL677
 19360 0323 1C040000 		.4byte	.LVL678
ARM GAS  C:\Users\IN-002~1\AppData\Local\Temp\ccxO8rjh.s 			page 381


 19361 0327 0100     		.2byte	0x1
 19362 0329 51       		.byte	0x51
 19363 032a 1C040000 		.4byte	.LVL678
 19364 032e 6C040000 		.4byte	.LVL692
 19365 0332 0400     		.2byte	0x4
 19366 0334 F3       		.byte	0xf3
 19367 0335 01       		.uleb128 0x1
 19368 0336 51       		.byte	0x51
 19369 0337 9F       		.byte	0x9f
 19370 0338 6C040000 		.4byte	.LVL692
 19371 033c 70040000 		.4byte	.LVL694
 19372 0340 0100     		.2byte	0x1
 19373 0342 51       		.byte	0x51
 19374 0343 70040000 		.4byte	.LVL694
 19375 0347 88040000 		.4byte	.LFE69
 19376 034b 0400     		.2byte	0x4
 19377 034d F3       		.byte	0xf3
 19378 034e 01       		.uleb128 0x1
 19379 034f 51       		.byte	0x51
 19380 0350 9F       		.byte	0x9f
 19381 0351 00000000 		.4byte	0
 19382 0355 00000000 		.4byte	0
 19383              	.LLST14:
 19384 0359 00000000 		.4byte	.LVL577
 19385 035d C0030000 		.4byte	.LVL667
 19386 0361 0100     		.2byte	0x1
 19387 0363 52       		.byte	0x52
 19388 0364 C0030000 		.4byte	.LVL667
 19389 0368 1A040000 		.4byte	.LVL677
 19390 036c 0400     		.2byte	0x4
 19391 036e F3       		.byte	0xf3
 19392 036f 01       		.uleb128 0x1
 19393 0370 52       		.byte	0x52
 19394 0371 9F       		.byte	0x9f
 19395 0372 1A040000 		.4byte	.LVL677
 19396 0376 1C040000 		.4byte	.LVL678
 19397 037a 0100     		.2byte	0x1
 19398 037c 52       		.byte	0x52
 19399 037d 1C040000 		.4byte	.LVL678
 19400 0381 6C040000 		.4byte	.LVL692
 19401 0385 0400     		.2byte	0x4
 19402 0387 F3       		.byte	0xf3
 19403 0388 01       		.uleb128 0x1
 19404 0389 52       		.byte	0x52
 19405 038a 9F       		.byte	0x9f
 19406 038b 6C040000 		.4byte	.LVL692
 19407 038f 70040000 		.4byte	.LVL694
 19408 0393 0100     		.2byte	0x1
 19409 0395 52       		.byte	0x52
 19410 0396 70040000 		.4byte	.LVL694
 19411 039a 88040000 		.4byte	.LFE69
 19412 039e 0400     		.2byte	0x4
 19413 03a0 F3       		.byte	0xf3
 19414 03a1 01       		.uleb128 0x1
 19415 03a2 52       		.byte	0x52
 19416 03a3 9F       		.byte	0x9f
 19417 03a4 00000000 		.4byte	0
ARM GAS  C:\Users\IN-002~1\AppData\Local\Temp\ccxO8rjh.s 			page 382


 19418 03a8 00000000 		.4byte	0
 19419              	.LLST15:
 19420 03ac 00000000 		.4byte	.LVL577
 19421 03b0 68030000 		.4byte	.LVL659
 19422 03b4 0100     		.2byte	0x1
 19423 03b6 53       		.byte	0x53
 19424 03b7 68030000 		.4byte	.LVL659
 19425 03bb 1A040000 		.4byte	.LVL677
 19426 03bf 0400     		.2byte	0x4
 19427 03c1 F3       		.byte	0xf3
 19428 03c2 01       		.uleb128 0x1
 19429 03c3 53       		.byte	0x53
 19430 03c4 9F       		.byte	0x9f
 19431 03c5 1A040000 		.4byte	.LVL677
 19432 03c9 1C040000 		.4byte	.LVL678
 19433 03cd 0100     		.2byte	0x1
 19434 03cf 53       		.byte	0x53
 19435 03d0 1C040000 		.4byte	.LVL678
 19436 03d4 6C040000 		.4byte	.LVL692
 19437 03d8 0400     		.2byte	0x4
 19438 03da F3       		.byte	0xf3
 19439 03db 01       		.uleb128 0x1
 19440 03dc 53       		.byte	0x53
 19441 03dd 9F       		.byte	0x9f
 19442 03de 6C040000 		.4byte	.LVL692
 19443 03e2 6E040000 		.4byte	.LVL693
 19444 03e6 0100     		.2byte	0x1
 19445 03e8 53       		.byte	0x53
 19446 03e9 6E040000 		.4byte	.LVL693
 19447 03ed 88040000 		.4byte	.LFE69
 19448 03f1 0400     		.2byte	0x4
 19449 03f3 F3       		.byte	0xf3
 19450 03f4 01       		.uleb128 0x1
 19451 03f5 53       		.byte	0x53
 19452 03f6 9F       		.byte	0x9f
 19453 03f7 00000000 		.4byte	0
 19454 03fb 00000000 		.4byte	0
 19455              	.LLST16:
 19456 03ff 14000000 		.4byte	.LVL578
 19457 0403 66010000 		.4byte	.LVL609
 19458 0407 0200     		.2byte	0x2
 19459 0409 30       		.byte	0x30
 19460 040a 9F       		.byte	0x9f
 19461 040b 66010000 		.4byte	.LVL609
 19462 040f B0010000 		.4byte	.LVL615
 19463 0413 0200     		.2byte	0x2
 19464 0415 3D       		.byte	0x3d
 19465 0416 9F       		.byte	0x9f
 19466 0417 B0010000 		.4byte	.LVL615
 19467 041b B4010000 		.4byte	.LVL616
 19468 041f 0200     		.2byte	0x2
 19469 0421 3C       		.byte	0x3c
 19470 0422 9F       		.byte	0x9f
 19471 0423 B4010000 		.4byte	.LVL616
 19472 0427 B6010000 		.4byte	.LVL617
 19473 042b 0200     		.2byte	0x2
 19474 042d 3D       		.byte	0x3d
ARM GAS  C:\Users\IN-002~1\AppData\Local\Temp\ccxO8rjh.s 			page 383


 19475 042e 9F       		.byte	0x9f
 19476 042f B6010000 		.4byte	.LVL617
 19477 0433 C8010000 		.4byte	.LVL620
 19478 0437 0100     		.2byte	0x1
 19479 0439 54       		.byte	0x54
 19480 043a 7E020000 		.4byte	.LVL637
 19481 043e 82020000 		.4byte	.LVL638
 19482 0442 0200     		.2byte	0x2
 19483 0444 3E       		.byte	0x3e
 19484 0445 9F       		.byte	0x9f
 19485 0446 82020000 		.4byte	.LVL638
 19486 044a 84020000 		.4byte	.LVL639
 19487 044e 0200     		.2byte	0x2
 19488 0450 30       		.byte	0x30
 19489 0451 9F       		.byte	0x9f
 19490 0452 84020000 		.4byte	.LVL639
 19491 0456 90020000 		.4byte	.LVL640
 19492 045a 0100     		.2byte	0x1
 19493 045c 54       		.byte	0x54
 19494 045d 62030000 		.4byte	.LVL658
 19495 0461 16040000 		.4byte	.LVL676
 19496 0465 0200     		.2byte	0x2
 19497 0467 3F       		.byte	0x3f
 19498 0468 9F       		.byte	0x9f
 19499 0469 16040000 		.4byte	.LVL676
 19500 046d 1A040000 		.4byte	.LVL677
 19501 0471 0200     		.2byte	0x2
 19502 0473 41       		.byte	0x41
 19503 0474 9F       		.byte	0x9f
 19504 0475 1A040000 		.4byte	.LVL677
 19505 0479 1C040000 		.4byte	.LVL678
 19506 047d 0200     		.2byte	0x2
 19507 047f 3F       		.byte	0x3f
 19508 0480 9F       		.byte	0x9f
 19509 0481 1E040000 		.4byte	.LVL679
 19510 0485 6C040000 		.4byte	.LVL692
 19511 0489 0100     		.2byte	0x1
 19512 048b 54       		.byte	0x54
 19513 048c 6C040000 		.4byte	.LVL692
 19514 0490 70040000 		.4byte	.LVL694
 19515 0494 0200     		.2byte	0x2
 19516 0496 30       		.byte	0x30
 19517 0497 9F       		.byte	0x9f
 19518 0498 70040000 		.4byte	.LVL694
 19519 049c 7A040000 		.4byte	.LVL696
 19520 04a0 0100     		.2byte	0x1
 19521 04a2 54       		.byte	0x54
 19522 04a3 00000000 		.4byte	0
 19523 04a7 00000000 		.4byte	0
 19524              	.LLST17:
 19525 04ab 14000000 		.4byte	.LVL578
 19526 04af 34000000 		.4byte	.LVL579
 19527 04b3 0200     		.2byte	0x2
 19528 04b5 34       		.byte	0x34
 19529 04b6 9F       		.byte	0x9f
 19530 04b7 34000000 		.4byte	.LVL579
 19531 04bb 98020000 		.4byte	.LVL641
ARM GAS  C:\Users\IN-002~1\AppData\Local\Temp\ccxO8rjh.s 			page 384


 19532 04bf 0100     		.2byte	0x1
 19533 04c1 5E       		.byte	0x5e
 19534 04c2 6C040000 		.4byte	.LVL692
 19535 04c6 70040000 		.4byte	.LVL694
 19536 04ca 0100     		.2byte	0x1
 19537 04cc 5E       		.byte	0x5e
 19538 04cd 00000000 		.4byte	0
 19539 04d1 00000000 		.4byte	0
 19540              	.LLST18:
 19541 04d5 58000000 		.4byte	.LVL582
 19542 04d9 5E000000 		.4byte	.LVL583
 19543 04dd 0200     		.2byte	0x2
 19544 04df 31       		.byte	0x31
 19545 04e0 9F       		.byte	0x9f
 19546 04e1 5E000000 		.4byte	.LVL583
 19547 04e5 7C000000 		.4byte	.LVL588
 19548 04e9 0100     		.2byte	0x1
 19549 04eb 54       		.byte	0x54
 19550 04ec 7E000000 		.4byte	.LVL589
 19551 04f0 96000000 		.4byte	.LVL592
 19552 04f4 0100     		.2byte	0x1
 19553 04f6 54       		.byte	0x54
 19554 04f7 C4000000 		.4byte	.LVL593
 19555 04fb C8000000 		.4byte	.LVL594
 19556 04ff 0200     		.2byte	0x2
 19557 0501 35       		.byte	0x35
 19558 0502 9F       		.byte	0x9f
 19559 0503 C8000000 		.4byte	.LVL594
 19560 0507 D4000000 		.4byte	.LVL595
 19561 050b 0100     		.2byte	0x1
 19562 050d 54       		.byte	0x54
 19563 050e D6000000 		.4byte	.LVL596
 19564 0512 E6000000 		.4byte	.LVL597
 19565 0516 0100     		.2byte	0x1
 19566 0518 54       		.byte	0x54
 19567 0519 0E010000 		.4byte	.LVL600
 19568 051d 1C010000 		.4byte	.LVL601
 19569 0521 0100     		.2byte	0x1
 19570 0523 54       		.byte	0x54
 19571 0524 1E010000 		.4byte	.LVL602
 19572 0528 24010000 		.4byte	.LVL603
 19573 052c 0100     		.2byte	0x1
 19574 052e 54       		.byte	0x54
 19575 052f 2E010000 		.4byte	.LVL604
 19576 0533 30010000 		.4byte	.LVL605
 19577 0537 0200     		.2byte	0x2
 19578 0539 30       		.byte	0x30
 19579 053a 9F       		.byte	0x9f
 19580 053b 30010000 		.4byte	.LVL605
 19581 053f 48010000 		.4byte	.LVL606
 19582 0543 0100     		.2byte	0x1
 19583 0545 54       		.byte	0x54
 19584 0546 4A010000 		.4byte	.LVL607
 19585 054a 52010000 		.4byte	.LVL608
 19586 054e 0100     		.2byte	0x1
 19587 0550 54       		.byte	0x54
 19588 0551 78010000 		.4byte	.LVL610
ARM GAS  C:\Users\IN-002~1\AppData\Local\Temp\ccxO8rjh.s 			page 385


 19589 0555 7A010000 		.4byte	.LVL611
 19590 0559 0200     		.2byte	0x2
 19591 055b 30       		.byte	0x30
 19592 055c 9F       		.byte	0x9f
 19593 055d 7A010000 		.4byte	.LVL611
 19594 0561 92010000 		.4byte	.LVL612
 19595 0565 0100     		.2byte	0x1
 19596 0567 54       		.byte	0x54
 19597 0568 94010000 		.4byte	.LVL613
 19598 056c 9C010000 		.4byte	.LVL614
 19599 0570 0100     		.2byte	0x1
 19600 0572 54       		.byte	0x54
 19601 0573 DC010000 		.4byte	.LVL621
 19602 0577 E0010000 		.4byte	.LVL622
 19603 057b 0200     		.2byte	0x2
 19604 057d 37       		.byte	0x37
 19605 057e 9F       		.byte	0x9f
 19606 057f E0010000 		.4byte	.LVL622
 19607 0583 EC010000 		.4byte	.LVL623
 19608 0587 0100     		.2byte	0x1
 19609 0589 54       		.byte	0x54
 19610 058a EE010000 		.4byte	.LVL624
 19611 058e FE010000 		.4byte	.LVL625
 19612 0592 0100     		.2byte	0x1
 19613 0594 54       		.byte	0x54
 19614 0595 28020000 		.4byte	.LVL628
 19615 0599 34020000 		.4byte	.LVL629
 19616 059d 0100     		.2byte	0x1
 19617 059f 54       		.byte	0x54
 19618 05a0 36020000 		.4byte	.LVL630
 19619 05a4 3C020000 		.4byte	.LVL631
 19620 05a8 0100     		.2byte	0x1
 19621 05aa 54       		.byte	0x54
 19622 05ab 46020000 		.4byte	.LVL632
 19623 05af 48020000 		.4byte	.LVL633
 19624 05b3 0200     		.2byte	0x2
 19625 05b5 30       		.byte	0x30
 19626 05b6 9F       		.byte	0x9f
 19627 05b7 48020000 		.4byte	.LVL633
 19628 05bb 60020000 		.4byte	.LVL634
 19629 05bf 0100     		.2byte	0x1
 19630 05c1 54       		.byte	0x54
 19631 05c2 62020000 		.4byte	.LVL635
 19632 05c6 6A020000 		.4byte	.LVL636
 19633 05ca 0100     		.2byte	0x1
 19634 05cc 54       		.byte	0x54
 19635 05cd B0020000 		.4byte	.LVL642
 19636 05d1 B4020000 		.4byte	.LVL643
 19637 05d5 0200     		.2byte	0x2
 19638 05d7 35       		.byte	0x35
 19639 05d8 9F       		.byte	0x9f
 19640 05d9 B4020000 		.4byte	.LVL643
 19641 05dd C0020000 		.4byte	.LVL644
 19642 05e1 0100     		.2byte	0x1
 19643 05e3 54       		.byte	0x54
 19644 05e4 C2020000 		.4byte	.LVL645
 19645 05e8 D4020000 		.4byte	.LVL646
ARM GAS  C:\Users\IN-002~1\AppData\Local\Temp\ccxO8rjh.s 			page 386


 19646 05ec 0100     		.2byte	0x1
 19647 05ee 54       		.byte	0x54
 19648 05ef FC020000 		.4byte	.LVL649
 19649 05f3 0A030000 		.4byte	.LVL650
 19650 05f7 0100     		.2byte	0x1
 19651 05f9 54       		.byte	0x54
 19652 05fa 0C030000 		.4byte	.LVL651
 19653 05fe 12030000 		.4byte	.LVL652
 19654 0602 0100     		.2byte	0x1
 19655 0604 54       		.byte	0x54
 19656 0605 1C030000 		.4byte	.LVL653
 19657 0609 2C030000 		.4byte	.LVL654
 19658 060d 0200     		.2byte	0x2
 19659 060f 30       		.byte	0x30
 19660 0610 9F       		.byte	0x9f
 19661 0611 2C030000 		.4byte	.LVL654
 19662 0615 44030000 		.4byte	.LVL655
 19663 0619 0100     		.2byte	0x1
 19664 061b 54       		.byte	0x54
 19665 061c 46030000 		.4byte	.LVL656
 19666 0620 4E030000 		.4byte	.LVL657
 19667 0624 0100     		.2byte	0x1
 19668 0626 54       		.byte	0x54
 19669 0627 7C030000 		.4byte	.LVL660
 19670 062b 80030000 		.4byte	.LVL661
 19671 062f 0200     		.2byte	0x2
 19672 0631 37       		.byte	0x37
 19673 0632 9F       		.byte	0x9f
 19674 0633 80030000 		.4byte	.LVL661
 19675 0637 8C030000 		.4byte	.LVL662
 19676 063b 0100     		.2byte	0x1
 19677 063d 53       		.byte	0x53
 19678 063e 8E030000 		.4byte	.LVL663
 19679 0642 9E030000 		.4byte	.LVL664
 19680 0646 0100     		.2byte	0x1
 19681 0648 53       		.byte	0x53
 19682 0649 C0030000 		.4byte	.LVL667
 19683 064d CC030000 		.4byte	.LVL668
 19684 0651 0100     		.2byte	0x1
 19685 0653 53       		.byte	0x53
 19686 0654 CE030000 		.4byte	.LVL669
 19687 0658 D4030000 		.4byte	.LVL670
 19688 065c 0100     		.2byte	0x1
 19689 065e 53       		.byte	0x53
 19690 065f DE030000 		.4byte	.LVL671
 19691 0663 E0030000 		.4byte	.LVL672
 19692 0667 0200     		.2byte	0x2
 19693 0669 30       		.byte	0x30
 19694 066a 9F       		.byte	0x9f
 19695 066b E0030000 		.4byte	.LVL672
 19696 066f F8030000 		.4byte	.LVL673
 19697 0673 0100     		.2byte	0x1
 19698 0675 53       		.byte	0x53
 19699 0676 FA030000 		.4byte	.LVL674
 19700 067a 02040000 		.4byte	.LVL675
 19701 067e 0100     		.2byte	0x1
 19702 0680 53       		.byte	0x53
ARM GAS  C:\Users\IN-002~1\AppData\Local\Temp\ccxO8rjh.s 			page 387


 19703 0681 42040000 		.4byte	.LVL685
 19704 0685 46040000 		.4byte	.LVL686
 19705 0689 0200     		.2byte	0x2
 19706 068b 30       		.byte	0x30
 19707 068c 9F       		.byte	0x9f
 19708 068d 46040000 		.4byte	.LVL686
 19709 0691 54040000 		.4byte	.LVL688
 19710 0695 0100     		.2byte	0x1
 19711 0697 56       		.byte	0x56
 19712 0698 56040000 		.4byte	.LVL689
 19713 069c 6C040000 		.4byte	.LVL692
 19714 06a0 0100     		.2byte	0x1
 19715 06a2 56       		.byte	0x56
 19716 06a3 6C040000 		.4byte	.LVL692
 19717 06a7 70040000 		.4byte	.LVL694
 19718 06ab 0100     		.2byte	0x1
 19719 06ad 54       		.byte	0x54
 19720 06ae 78040000 		.4byte	.LVL695
 19721 06b2 7A040000 		.4byte	.LVL696
 19722 06b6 0100     		.2byte	0x1
 19723 06b8 56       		.byte	0x56
 19724 06b9 00000000 		.4byte	0
 19725 06bd 00000000 		.4byte	0
 19726              	.LLST19:
 19727 06c1 E6000000 		.4byte	.LVL597
 19728 06c5 00010000 		.4byte	.LVL598
 19729 06c9 0100     		.2byte	0x1
 19730 06cb 54       		.byte	0x54
 19731 06cc 02010000 		.4byte	.LVL599
 19732 06d0 0E010000 		.4byte	.LVL600
 19733 06d4 0100     		.2byte	0x1
 19734 06d6 54       		.byte	0x54
 19735 06d7 FE010000 		.4byte	.LVL625
 19736 06db 18020000 		.4byte	.LVL626
 19737 06df 0100     		.2byte	0x1
 19738 06e1 54       		.byte	0x54
 19739 06e2 1A020000 		.4byte	.LVL627
 19740 06e6 28020000 		.4byte	.LVL628
 19741 06ea 0100     		.2byte	0x1
 19742 06ec 54       		.byte	0x54
 19743 06ed D4020000 		.4byte	.LVL646
 19744 06f1 EE020000 		.4byte	.LVL647
 19745 06f5 0100     		.2byte	0x1
 19746 06f7 54       		.byte	0x54
 19747 06f8 F0020000 		.4byte	.LVL648
 19748 06fc FC020000 		.4byte	.LVL649
 19749 0700 0100     		.2byte	0x1
 19750 0702 54       		.byte	0x54
 19751 0703 9E030000 		.4byte	.LVL664
 19752 0707 B6030000 		.4byte	.LVL665
 19753 070b 0100     		.2byte	0x1
 19754 070d 53       		.byte	0x53
 19755 070e B8030000 		.4byte	.LVL666
 19756 0712 C0030000 		.4byte	.LVL667
 19757 0716 0100     		.2byte	0x1
 19758 0718 53       		.byte	0x53
 19759 0719 00000000 		.4byte	0
ARM GAS  C:\Users\IN-002~1\AppData\Local\Temp\ccxO8rjh.s 			page 388


 19760 071d 00000000 		.4byte	0
 19761              	.LLST20:
 19762 0721 14000000 		.4byte	.LVL578
 19763 0725 5E000000 		.4byte	.LVL583
 19764 0729 0200     		.2byte	0x2
 19765 072b 30       		.byte	0x30
 19766 072c 9F       		.byte	0x9f
 19767 072d 5E000000 		.4byte	.LVL583
 19768 0731 62000000 		.4byte	.LVL584
 19769 0735 0100     		.2byte	0x1
 19770 0737 55       		.byte	0x55
 19771 0738 64000000 		.4byte	.LVL585
 19772 073c 72000000 		.4byte	.LVL586
 19773 0740 0100     		.2byte	0x1
 19774 0742 55       		.byte	0x55
 19775 0743 74000000 		.4byte	.LVL587
 19776 0747 88000000 		.4byte	.LVL590
 19777 074b 0100     		.2byte	0x1
 19778 074d 55       		.byte	0x55
 19779 074e 8A000000 		.4byte	.LVL591
 19780 0752 C4010000 		.4byte	.LVL618
 19781 0756 0100     		.2byte	0x1
 19782 0758 55       		.byte	0x55
 19783 0759 C6010000 		.4byte	.LVL619
 19784 075d D4020000 		.4byte	.LVL646
 19785 0761 0100     		.2byte	0x1
 19786 0763 55       		.byte	0x55
 19787 0764 6C040000 		.4byte	.LVL692
 19788 0768 70040000 		.4byte	.LVL694
 19789 076c 0100     		.2byte	0x1
 19790 076e 55       		.byte	0x55
 19791 076f 00000000 		.4byte	0
 19792 0773 00000000 		.4byte	0
 19793              	.LLST21:
 19794 0777 00000000 		.4byte	.LVL697
 19795 077b CE000000 		.4byte	.LVL698
 19796 077f 0100     		.2byte	0x1
 19797 0781 50       		.byte	0x50
 19798 0782 CE000000 		.4byte	.LVL698
 19799 0786 C4020000 		.4byte	.LFE70
 19800 078a 0400     		.2byte	0x4
 19801 078c F3       		.byte	0xf3
 19802 078d 01       		.uleb128 0x1
 19803 078e 50       		.byte	0x50
 19804 078f 9F       		.byte	0x9f
 19805 0790 00000000 		.4byte	0
 19806 0794 00000000 		.4byte	0
 19807              	.LLST22:
 19808 0798 62010000 		.4byte	.LVL699
 19809 079c 38020000 		.4byte	.LVL700
 19810 07a0 0200     		.2byte	0x2
 19811 07a2 3C       		.byte	0x3c
 19812 07a3 9F       		.byte	0x9f
 19813 07a4 38020000 		.4byte	.LVL700
 19814 07a8 3C020000 		.4byte	.LVL701
 19815 07ac 0200     		.2byte	0x2
 19816 07ae 3E       		.byte	0x3e
ARM GAS  C:\Users\IN-002~1\AppData\Local\Temp\ccxO8rjh.s 			page 389


 19817 07af 9F       		.byte	0x9f
 19818 07b0 3C020000 		.4byte	.LVL701
 19819 07b4 3E020000 		.4byte	.LVL702
 19820 07b8 0200     		.2byte	0x2
 19821 07ba 3C       		.byte	0x3c
 19822 07bb 9F       		.byte	0x9f
 19823 07bc 3E020000 		.4byte	.LVL702
 19824 07c0 A8020000 		.4byte	.LVL711
 19825 07c4 0100     		.2byte	0x1
 19826 07c6 55       		.byte	0x55
 19827 07c7 00000000 		.4byte	0
 19828 07cb 00000000 		.4byte	0
 19829              		.section	.debug_aranges,"",%progbits
 19830 0000 54000000 		.4byte	0x54
 19831 0004 0200     		.2byte	0x2
 19832 0006 00000000 		.4byte	.Ldebug_info0
 19833 000a 04       		.byte	0x4
 19834 000b 00       		.byte	0
 19835 000c 0000     		.2byte	0
 19836 000e 0000     		.2byte	0
 19837 0010 00000000 		.4byte	.LFB63
 19838 0014 80000000 		.4byte	.LFE63-.LFB63
 19839 0018 00000000 		.4byte	.LFB64
 19840 001c 26000000 		.4byte	.LFE64-.LFB64
 19841 0020 00000000 		.4byte	.LFB65
 19842 0024 E8000000 		.4byte	.LFE65-.LFB65
 19843 0028 00000000 		.4byte	.LFB66
 19844 002c 12000000 		.4byte	.LFE66-.LFB66
 19845 0030 00000000 		.4byte	.LFB67
 19846 0034 E8010000 		.4byte	.LFE67-.LFB67
 19847 0038 00000000 		.4byte	.LFB68
 19848 003c 74320000 		.4byte	.LFE68-.LFB68
 19849 0040 00000000 		.4byte	.LFB69
 19850 0044 88040000 		.4byte	.LFE69-.LFB69
 19851 0048 00000000 		.4byte	.LFB70
 19852 004c C4020000 		.4byte	.LFE70-.LFB70
 19853 0050 00000000 		.4byte	0
 19854 0054 00000000 		.4byte	0
 19855              		.section	.debug_ranges,"",%progbits
 19856              	.Ldebug_ranges0:
 19857 0000 00000000 		.4byte	.LFB63
 19858 0004 80000000 		.4byte	.LFE63
 19859 0008 00000000 		.4byte	.LFB64
 19860 000c 26000000 		.4byte	.LFE64
 19861 0010 00000000 		.4byte	.LFB65
 19862 0014 E8000000 		.4byte	.LFE65
 19863 0018 00000000 		.4byte	.LFB66
 19864 001c 12000000 		.4byte	.LFE66
 19865 0020 00000000 		.4byte	.LFB67
 19866 0024 E8010000 		.4byte	.LFE67
 19867 0028 00000000 		.4byte	.LFB68
 19868 002c 74320000 		.4byte	.LFE68
 19869 0030 00000000 		.4byte	.LFB69
 19870 0034 88040000 		.4byte	.LFE69
 19871 0038 00000000 		.4byte	.LFB70
 19872 003c C4020000 		.4byte	.LFE70
 19873 0040 00000000 		.4byte	0
ARM GAS  C:\Users\IN-002~1\AppData\Local\Temp\ccxO8rjh.s 			page 390


 19874 0044 00000000 		.4byte	0
 19875              		.section	.debug_line,"",%progbits
 19876              	.Ldebug_line0:
 19877 0000 63160000 		.section	.debug_str,"MS",%progbits,1
 19877      02009101 
 19877      00000201 
 19877      FB0E0D00 
 19877      01010101 
 19878              	.LASF26:
 19879 0000 70617373 		.ascii	"password\000"
 19879      776F7264 
 19879      00
 19880              	.LASF67:
 19881 0009 666C756A 		.ascii	"flujo_LCD2\000"
 19881      6F5F4C43 
 19881      443200
 19882              	.LASF31:
 19883 0014 66756E63 		.ascii	"funcion\000"
 19883      696F6E00 
 19884              	.LASF69:
 19885 001c 636F756E 		.ascii	"count_protector2\000"
 19885      745F7072 
 19885      6F746563 
 19885      746F7232 
 19885      00
 19886              	.LASF121:
 19887 002d 6C61646F 		.ascii	"lado\000"
 19887      00
 19888              	.LASF70:
 19889 0032 6F6B5F4C 		.ascii	"ok_LCD1\000"
 19889      43443100 
 19890              	.LASF71:
 19891 003a 6F6B5F4C 		.ascii	"ok_LCD2\000"
 19891      43443200 
 19892              	.LASF78:
 19893 0042 76657273 		.ascii	"versurt\000"
 19893      75727400 
 19894              	.LASF28:
 19895 004a 62756666 		.ascii	"buffer\000"
 19895      657200
 19896              	.LASF8:
 19897 0051 756E7369 		.ascii	"unsigned int\000"
 19897      676E6564 
 19897      20696E74 
 19897      00
 19898              	.LASF131:
 19899 005e 6D736E5F 		.ascii	"msn_totalcero\000"
 19899      746F7461 
 19899      6C636572 
 19899      6F00
 19900              	.LASF77:
 19901 006c 76657273 		.ascii	"version\000"
 19901      696F6E00 
 19902              	.LASF84:
 19903 0074 636F7272 		.ascii	"corriente2\000"
 19903      69656E74 
 19903      653200
ARM GAS  C:\Users\IN-002~1\AppData\Local\Temp\ccxO8rjh.s 			page 391


 19904              	.LASF9:
 19905 007f 5F5F696E 		.ascii	"__int32_t\000"
 19905      7433325F 
 19905      7400
 19906              	.LASF24:
 19907 0089 706F7376 		.ascii	"posventa\000"
 19907      656E7461 
 19907      00
 19908              	.LASF90:
 19909 0092 7465636C 		.ascii	"teclado2\000"
 19909      61646F32 
 19909      00
 19910              	.LASF80:
 19911 009b 64696573 		.ascii	"diesel\000"
 19911      656C00
 19912              	.LASF106:
 19913 00a2 70726F64 		.ascii	"producto1n\000"
 19913      7563746F 
 19913      316E00
 19914              	.LASF19:
 19915 00ad 636F6D61 		.ascii	"comando\000"
 19915      6E646F00 
 19916              	.LASF62:
 19917 00b5 64656369 		.ascii	"decimal\000"
 19917      6D616C00 
 19918              	.LASF136:
 19919 00bd 77726974 		.ascii	"write_eeprom\000"
 19919      655F6565 
 19919      70726F6D 
 19919      00
 19920              	.LASF85:
 19921 00ca 64696573 		.ascii	"diesel2\000"
 19921      656C3200 
 19922              	.LASF41:
 19923 00d2 686F7261 		.ascii	"hora\000"
 19923      00
 19924              	.LASF73:
 19925 00d7 7465636C 		.ascii	"teclas1\000"
 19925      61733100 
 19926              	.LASF74:
 19927 00df 7465636C 		.ascii	"teclas2\000"
 19927      61733200 
 19928              	.LASF134:
 19929 00e7 53757274 		.ascii	"Surtidor_GetRxBufferSize\000"
 19929      69646F72 
 19929      5F476574 
 19929      52784275 
 19929      66666572 
 19930              	.LASF47:
 19931 0100 7464696E 		.ascii	"tdinero\000"
 19931      65726F00 
 19932              	.LASF42:
 19933 0108 706F7369 		.ascii	"posicion\000"
 19933      63696F6E 
 19933      00
 19934              	.LASF123:
 19935 0111 7276656E 		.ascii	"rventa2\000"
ARM GAS  C:\Users\IN-002~1\AppData\Local\Temp\ccxO8rjh.s 			page 392


 19935      74613200 
 19936              	.LASF95:
 19937 0119 64656369 		.ascii	"decimalD\000"
 19937      6D616C44 
 19937      00
 19938              	.LASF37:
 19939 0122 64697265 		.ascii	"direccion\000"
 19939      6363696F 
 19939      6E00
 19940              	.LASF137:
 19941 012c 77726974 		.ascii	"write_psoc1\000"
 19941      655F7073 
 19941      6F633100 
 19942              	.LASF20:
 19943 0138 70726573 		.ascii	"preset\000"
 19943      657400
 19944              	.LASF88:
 19945 013f 72657375 		.ascii	"resultado\000"
 19945      6C746164 
 19945      6F00
 19946              	.LASF107:
 19947 0149 70726F64 		.ascii	"producto2n\000"
 19947      7563746F 
 19947      326E00
 19948              	.LASF109:
 19949 0154 70726F64 		.ascii	"producto4n\000"
 19949      7563746F 
 19949      346E00
 19950              	.LASF14:
 19951 015f 666C6F61 		.ascii	"float\000"
 19951      7400
 19952              	.LASF129:
 19953 0165 6D736E5F 		.ascii	"msn_lecaan\000"
 19953      6C656361 
 19953      616E00
 19954              	.LASF87:
 19955 0170 62756666 		.ascii	"buffer_i2c\000"
 19955      65725F69 
 19955      326300
 19956              	.LASF141:
 19957 017b 6F706572 		.ascii	"operacion\000"
 19957      6163696F 
 19957      6E00
 19958              	.LASF38:
 19959 0185 6C656D61 		.ascii	"lema1\000"
 19959      3100
 19960              	.LASF39:
 19961 018b 6C656D61 		.ascii	"lema2\000"
 19961      3200
 19962              	.LASF7:
 19963 0191 6C6F6E67 		.ascii	"long long unsigned int\000"
 19963      206C6F6E 
 19963      6720756E 
 19963      7369676E 
 19963      65642069 
 19964              	.LASF144:
 19965 01a8 433A5C55 		.ascii	"C:\\Users\\IN-002143\\Documents\\GitHub\\GRP700U\\U"
ARM GAS  C:\Users\IN-002~1\AppData\Local\Temp\ccxO8rjh.s 			page 393


 19965      73657273 
 19965      5C494E2D 
 19965      30303231 
 19965      34335C44 
 19966 01d5 6E696669 		.ascii	"nificada.cydsn\000"
 19966      63616461 
 19966      2E637964 
 19966      736E00
 19967              	.LASF89:
 19968 01e4 7465636C 		.ascii	"teclado\000"
 19968      61646F00 
 19969              	.LASF22:
 19970 01ec 6375656E 		.ascii	"cuenta\000"
 19970      746100
 19971              	.LASF143:
 19972 01f3 2E5C5072 		.ascii	".\\Protocolo.c\000"
 19972      6F746F63 
 19972      6F6C6F2E 
 19972      6300
 19973              	.LASF130:
 19974 0201 6D736E5F 		.ascii	"msn_tventas\000"
 19974      7476656E 
 19974      74617300 
 19975              	.LASF124:
 19976 020d 6D736E5F 		.ascii	"msn_tc\000"
 19976      746300
 19977              	.LASF126:
 19978 0214 6D736E5F 		.ascii	"msn_td\000"
 19978      746400
 19979              	.LASF125:
 19980 021b 6D736E5F 		.ascii	"msn_te\000"
 19980      746500
 19981              	.LASF108:
 19982 0222 70726F64 		.ascii	"producto3n\000"
 19982      7563746F 
 19982      336E00
 19983              	.LASF127:
 19984 022d 6D736E5F 		.ascii	"msn_tk\000"
 19984      746B00
 19985              	.LASF64:
 19986 0234 53757274 		.ascii	"Surtidor_rxBuffer\000"
 19986      69646F72 
 19986      5F727842 
 19986      75666665 
 19986      7200
 19987              	.LASF23:
 19988 0246 706C6163 		.ascii	"placa\000"
 19988      6100
 19989              	.LASF58:
 19990 024c 73757374 		.ascii	"sustraendo\000"
 19990      7261656E 
 19990      646F00
 19991              	.LASF81:
 19992 0257 636F7272 		.ascii	"corriente\000"
 19992      69656E74 
 19992      6500
 19993              	.LASF111:
ARM GAS  C:\Users\IN-002~1\AppData\Local\Temp\ccxO8rjh.s 			page 394


 19994 0261 6E5F636F 		.ascii	"n_copias\000"
 19994      70696173 
 19994      00
 19995              	.LASF114:
 19996 026a 6E6F5F76 		.ascii	"no_venta\000"
 19996      656E7461 
 19996      00
 19997              	.LASF48:
 19998 0273 7665725F 		.ascii	"ver_pos\000"
 19998      706F7300 
 19999              	.LASF45:
 20000 027b 766F6C75 		.ascii	"volumen\000"
 20000      6D656E00 
 20001              	.LASF53:
 20002 0283 76656E74 		.ascii	"venta\000"
 20002      6100
 20003              	.LASF36:
 20004 0289 74656C65 		.ascii	"telefono\000"
 20004      666F6E6F 
 20004      00
 20005              	.LASF83:
 20006 0292 65787472 		.ascii	"extra2\000"
 20006      613200
 20007              	.LASF102:
 20008 0299 636F7069 		.ascii	"copia_recibo2\000"
 20008      615F7265 
 20008      6369626F 
 20008      3200
 20009              	.LASF104:
 20010 02a7 69645F76 		.ascii	"id_venta\000"
 20010      656E7461 
 20010      00
 20011              	.LASF46:
 20012 02b0 74766F6C 		.ascii	"tvolumen\000"
 20012      756D656E 
 20012      00
 20013              	.LASF128:
 20014 02b9 6D736E5F 		.ascii	"msn_lecact\000"
 20014      6C656361 
 20014      637400
 20015              	.LASF140:
 20016 02c4 7072696E 		.ascii	"print_totales\000"
 20016      745F746F 
 20016      74616C65 
 20016      7300
 20017              	.LASF145:
 20018 02d2 64657465 		.ascii	"detener\000"
 20018      6E657200 
 20019              	.LASF52:
 20020 02da 636F6D61 		.ascii	"comand_exten\000"
 20020      6E645F65 
 20020      7874656E 
 20020      00
 20021              	.LASF96:
 20022 02e7 66656368 		.ascii	"fecha_corte\000"
 20022      615F636F 
 20022      72746500 
ARM GAS  C:\Users\IN-002~1\AppData\Local\Temp\ccxO8rjh.s 			page 395


 20023              	.LASF16:
 20024 02f3 63686172 		.ascii	"char\000"
 20024      00
 20025              	.LASF56:
 20026 02f8 636F7274 		.ascii	"corte\000"
 20026      6500
 20027              	.LASF133:
 20028 02fe 43794465 		.ascii	"CyDelay\000"
 20028      6C617900 
 20029              	.LASF12:
 20030 0306 75696E74 		.ascii	"uint16\000"
 20030      313600
 20031              	.LASF118:
 20032 030d 6D6F6475 		.ascii	"modulo\000"
 20032      6C6F00
 20033              	.LASF99:
 20034 0314 7072696E 		.ascii	"print1\000"
 20034      743100
 20035              	.LASF100:
 20036 031b 7072696E 		.ascii	"print2\000"
 20036      743200
 20037              	.LASF27:
 20038 0322 7475726E 		.ascii	"turno\000"
 20038      6F00
 20039              	.LASF146:
 20040 0328 53757274 		.ascii	"Surtidor_ClearRxBuffer\000"
 20040      69646F72 
 20040      5F436C65 
 20040      61725278 
 20040      42756666 
 20041              	.LASF86:
 20042 033f 6B65726F 		.ascii	"kero2\000"
 20042      3200
 20043              	.LASF116:
 20044 0345 42756666 		.ascii	"Buffer_LCD2\000"
 20044      65725F4C 
 20044      43443200 
 20045              	.LASF6:
 20046 0351 6C6F6E67 		.ascii	"long long int\000"
 20046      206C6F6E 
 20046      6720696E 
 20046      7400
 20047              	.LASF43:
 20048 035f 70726F64 		.ascii	"producto\000"
 20048      7563746F 
 20048      00
 20049              	.LASF35:
 20050 0368 636F6E66 		.ascii	"configppu\000"
 20050      69677070 
 20050      7500
 20051              	.LASF63:
 20052 0372 63616D62 		.ascii	"cambiar_precio\000"
 20052      6961725F 
 20052      70726563 
 20052      696F00
 20053              	.LASF25:
 20054 0381 63656475 		.ascii	"cedula\000"
ARM GAS  C:\Users\IN-002~1\AppData\Local\Temp\ccxO8rjh.s 			page 396


 20054      6C6100
 20055              	.LASF135:
 20056 0388 53757274 		.ascii	"Surtidor_ReadRxData\000"
 20056      69646F72 
 20056      5F526561 
 20056      64527844 
 20056      61746100 
 20057              	.LASF105:
 20058 039c 6E6F6D62 		.ascii	"nombreproducto\000"
 20058      72657072 
 20058      6F647563 
 20058      746F00
 20059              	.LASF18:
 20060 03ab 73697A65 		.ascii	"size\000"
 20060      00
 20061              	.LASF13:
 20062 03b0 75696E74 		.ascii	"uint32\000"
 20062      333200
 20063              	.LASF103:
 20064 03b7 69645F63 		.ascii	"id_corte\000"
 20064      6F727465 
 20064      00
 20065              	.LASF33:
 20066 03c0 72656369 		.ascii	"recibo\000"
 20066      626F00
 20067              	.LASF44:
 20068 03c7 64696E65 		.ascii	"dinero\000"
 20068      726F00
 20069              	.LASF115:
 20070 03ce 42756666 		.ascii	"Buffer_LCD1\000"
 20070      65725F4C 
 20070      43443100 
 20071              	.LASF29:
 20072 03da 65737461 		.ascii	"estado\000"
 20072      646F00
 20073              	.LASF139:
 20074 03e1 6C656572 		.ascii	"leer_eeprom\000"
 20074      5F656570 
 20074      726F6D00 
 20075              	.LASF91:
 20076 03ed 70707578 		.ascii	"ppux10\000"
 20076      313000
 20077              	.LASF34:
 20078 03f4 6E6F6D62 		.ascii	"nombre\000"
 20078      726500
 20079              	.LASF98:
 20080 03fb 6372635F 		.ascii	"crc_total\000"
 20080      746F7461 
 20080      6C00
 20081              	.LASF66:
 20082 0405 666C756A 		.ascii	"flujo_LCD\000"
 20082      6F5F4C43 
 20082      4400
 20083              	.LASF110:
 20084 040f 615F636F 		.ascii	"a_copias\000"
 20084      70696173 
 20084      00
ARM GAS  C:\Users\IN-002~1\AppData\Local\Temp\ccxO8rjh.s 			page 397


 20085              	.LASF97:
 20086 0418 706F735F 		.ascii	"pos_ibutton\000"
 20086      69627574 
 20086      746F6E00 
 20087              	.LASF2:
 20088 0424 73686F72 		.ascii	"short int\000"
 20088      7420696E 
 20088      7400
 20089              	.LASF4:
 20090 042e 6C6F6E67 		.ascii	"long int\000"
 20090      20696E74 
 20090      00
 20091              	.LASF101:
 20092 0437 636F7069 		.ascii	"copia_recibo\000"
 20092      615F7265 
 20092      6369626F 
 20092      00
 20093              	.LASF65:
 20094 0444 49544D5F 		.ascii	"ITM_RxBuffer\000"
 20094      52784275 
 20094      66666572 
 20094      00
 20095              	.LASF55:
 20096 0451 6765745F 		.ascii	"get_totales\000"
 20096      746F7461 
 20096      6C657300 
 20097              	.LASF32:
 20098 045d 73757274 		.ascii	"surtidor\000"
 20098      69646F72 
 20098      00
 20099              	.LASF75:
 20100 0466 636F6D61 		.ascii	"comas1\000"
 20100      733100
 20101              	.LASF76:
 20102 046d 636F6D61 		.ascii	"comas2\000"
 20102      733200
 20103              	.LASF61:
 20104 0474 74656D70 		.ascii	"temp\000"
 20104      00
 20105              	.LASF119:
 20106 0479 70726F64 		.ascii	"producto1\000"
 20106      7563746F 
 20106      3100
 20107              	.LASF120:
 20108 0483 70726F64 		.ascii	"producto2\000"
 20108      7563746F 
 20108      3200
 20109              	.LASF117:
 20110 048d 65737461 		.ascii	"estado_0\000"
 20110      646F5F30 
 20110      00
 20111              	.LASF79:
 20112 0496 65787472 		.ascii	"extra\000"
 20112      6100
 20113              	.LASF50:
 20114 049c 65737461 		.ascii	"estado_ex\000"
 20114      646F5F65 
ARM GAS  C:\Users\IN-002~1\AppData\Local\Temp\ccxO8rjh.s 			page 398


 20114      7800
 20115              	.LASF72:
 20116 04a6 636F6E74 		.ascii	"cont1\000"
 20116      3100
 20117              	.LASF59:
 20118 04ac 70726F67 		.ascii	"programar\000"
 20118      72616D61 
 20118      7200
 20119              	.LASF17:
 20120 04b6 73697A65 		.ascii	"sizetype\000"
 20120      74797065 
 20120      00
 20121              	.LASF5:
 20122 04bf 6C6F6E67 		.ascii	"long unsigned int\000"
 20122      20756E73 
 20122      69676E65 
 20122      6420696E 
 20122      7400
 20123              	.LASF54:
 20124 04d1 72785F76 		.ascii	"rx_venta\000"
 20124      656E7461 
 20124      00
 20125              	.LASF92:
 20126 04da 62616E64 		.ascii	"bandera\000"
 20126      65726100 
 20127              	.LASF147:
 20128 04e2 7072696E 		.ascii	"print_valor\000"
 20128      745F7661 
 20128      6C6F7200 
 20129              	.LASF10:
 20130 04ee 696E7433 		.ascii	"int32_t\000"
 20130      325F7400 
 20131              	.LASF113:
 20132 04f6 6E6F5F69 		.ascii	"no_imprime2\000"
 20132      6D707269 
 20132      6D653200 
 20133              	.LASF112:
 20134 0502 6E6F5F69 		.ascii	"no_imprime\000"
 20134      6D707269 
 20134      6D6500
 20135              	.LASF1:
 20136 050d 756E7369 		.ascii	"unsigned char\000"
 20136      676E6564 
 20136      20636861 
 20136      7200
 20137              	.LASF142:
 20138 051b 474E5520 		.ascii	"GNU C 4.9.3 20150303 (release) [ARM/embedded-4_9-br"
 20138      4320342E 
 20138      392E3320 
 20138      32303135 
 20138      30333033 
 20139 054e 616E6368 		.ascii	"anch revision 221220] -mcpu=cortex-m3 -mthumb -g -O"
 20139      20726576 
 20139      6973696F 
 20139      6E203232 
 20139      31323230 
 20140 0581 67202D66 		.ascii	"g -ffunction-sections -ffat-lto-objects\000"
ARM GAS  C:\Users\IN-002~1\AppData\Local\Temp\ccxO8rjh.s 			page 399


 20140      66756E63 
 20140      74696F6E 
 20140      2D736563 
 20140      74696F6E 
 20141              	.LASF49:
 20142 05a9 6765745F 		.ascii	"get_estado\000"
 20142      65737461 
 20142      646F00
 20143              	.LASF40:
 20144 05b4 66656368 		.ascii	"fecha\000"
 20144      6100
 20145              	.LASF0:
 20146 05ba 7369676E 		.ascii	"signed char\000"
 20146      65642063 
 20146      68617200 
 20147              	.LASF21:
 20148 05c6 76616C6F 		.ascii	"valor\000"
 20148      7200
 20149              	.LASF68:
 20150 05cc 636F756E 		.ascii	"count_protector\000"
 20150      745F7072 
 20150      6F746563 
 20150      746F7200 
 20151              	.LASF3:
 20152 05dc 73686F72 		.ascii	"short unsigned int\000"
 20152      7420756E 
 20152      7369676E 
 20152      65642069 
 20152      6E7400
 20153              	.LASF57:
 20154 05ef 6D696E75 		.ascii	"minuendo\000"
 20154      656E646F 
 20154      00
 20155              	.LASF132:
 20156 05f8 53757274 		.ascii	"Surtidor_PutChar\000"
 20156      69646F72 
 20156      5F507574 
 20156      43686172 
 20156      00
 20157              	.LASF94:
 20158 0609 64656369 		.ascii	"decimalV\000"
 20158      6D616C56 
 20158      00
 20159              	.LASF138:
 20160 0612 7072696E 		.ascii	"print_totalesac\000"
 20160      745F746F 
 20160      74616C65 
 20160      73616300 
 20161              	.LASF11:
 20162 0622 75696E74 		.ascii	"uint8\000"
 20162      3800
 20163              	.LASF15:
 20164 0628 646F7562 		.ascii	"double\000"
 20164      6C6500
 20165              	.LASF51:
 20166 062f 72785F65 		.ascii	"rx_extend\000"
 20166      7874656E 
ARM GAS  C:\Users\IN-002~1\AppData\Local\Temp\ccxO8rjh.s 			page 400


 20166      6400
 20167              	.LASF82:
 20168 0639 6B65726F 		.ascii	"kero\000"
 20168      00
 20169              	.LASF93:
 20170 063e 7469706F 		.ascii	"tipo_imp\000"
 20170      5F696D70 
 20170      00
 20171              	.LASF30:
 20172 0647 6D616E67 		.ascii	"manguera\000"
 20172      75657261 
 20172      00
 20173              	.LASF122:
 20174 0650 7276656E 		.ascii	"rventa\000"
 20174      746100
 20175              	.LASF60:
 20176 0657 67726164 		.ascii	"grado\000"
 20176      6F00
 20177              		.ident	"GCC: (GNU Tools for ARM Embedded Processors) 4.9.3 20150303 (release) [ARM/embedded-4_9-br
